
GameBox.elf:     file format elf32-littlearm

Sections:
Idx Name          Size      VMA       LMA       File off  Algn
  0 .isr_vector   0000010c  08000000  08000000  00001000  2**0
                  CONTENTS, ALLOC, LOAD, READONLY, DATA
  1 .text         00009ab0  08000110  08000110  00001110  2**3
                  CONTENTS, ALLOC, LOAD, READONLY, CODE
  2 .rodata       0000216c  08009bc0  08009bc0  0000abc0  2**3
                  CONTENTS, ALLOC, LOAD, READONLY, DATA
  3 .ARM.extab    00000000  0800bd2c  0800bd2c  0000d230  2**0
                  CONTENTS
  4 .ARM          00000008  0800bd2c  0800bd2c  0000cd2c  2**2
                  CONTENTS, ALLOC, LOAD, READONLY, DATA
  5 .preinit_array 00000000  0800bd34  0800bd34  0000d230  2**0
                  CONTENTS, ALLOC, LOAD, DATA
  6 .init_array   00000004  0800bd34  0800bd34  0000cd34  2**2
                  CONTENTS, ALLOC, LOAD, READONLY, DATA
  7 .fini_array   00000004  0800bd38  0800bd38  0000cd38  2**2
                  CONTENTS, ALLOC, LOAD, READONLY, DATA
  8 .data         00000230  20000000  0800bd3c  0000d000  2**2
                  CONTENTS, ALLOC, LOAD, DATA
  9 .bss          00000ae8  20000230  0800bf6c  0000d230  2**3
                  ALLOC
 10 ._user_heap_stack 00000600  20000d18  0800bf6c  0000dd18  2**0
                  ALLOC
 11 .ARM.attributes 00000029  00000000  00000000  0000d230  2**0
                  CONTENTS, READONLY
 12 .debug_info   0001c676  00000000  00000000  0000d259  2**0
                  CONTENTS, READONLY, DEBUGGING, OCTETS
 13 .debug_abbrev 0000454b  00000000  00000000  000298cf  2**0
                  CONTENTS, READONLY, DEBUGGING, OCTETS
 14 .debug_loclists 0000bea4  00000000  00000000  0002de1a  2**0
                  CONTENTS, READONLY, DEBUGGING, OCTETS
 15 .debug_aranges 00001300  00000000  00000000  00039cc0  2**3
                  CONTENTS, READONLY, DEBUGGING, OCTETS
 16 .debug_rnglists 00001a2c  00000000  00000000  0003afc0  2**0
                  CONTENTS, READONLY, DEBUGGING, OCTETS
 17 .debug_macro  0001ab77  00000000  00000000  0003c9ec  2**0
                  CONTENTS, READONLY, DEBUGGING, OCTETS
 18 .debug_line   0001f3ee  00000000  00000000  00057563  2**0
                  CONTENTS, READONLY, DEBUGGING, OCTETS
 19 .debug_str    00094f69  00000000  00000000  00076951  2**0
                  CONTENTS, READONLY, DEBUGGING, OCTETS
 20 .comment      00000043  00000000  00000000  0010b8ba  2**0
                  CONTENTS, READONLY
 21 .debug_frame  00004894  00000000  00000000  0010b900  2**2
                  CONTENTS, READONLY, DEBUGGING, OCTETS
 22 .debug_line_str 00000049  00000000  00000000  00110194  2**0
                  CONTENTS, READONLY, DEBUGGING, OCTETS

Disassembly of section .text:

08000110 <__do_global_dtors_aux>:
 8000110:	b510      	push	{r4, lr}
 8000112:	4c05      	ldr	r4, [pc, #20]	@ (8000128 <__do_global_dtors_aux+0x18>)
 8000114:	7823      	ldrb	r3, [r4, #0]
 8000116:	b933      	cbnz	r3, 8000126 <__do_global_dtors_aux+0x16>
 8000118:	4b04      	ldr	r3, [pc, #16]	@ (800012c <__do_global_dtors_aux+0x1c>)
 800011a:	b113      	cbz	r3, 8000122 <__do_global_dtors_aux+0x12>
 800011c:	4804      	ldr	r0, [pc, #16]	@ (8000130 <__do_global_dtors_aux+0x20>)
 800011e:	f3af 8000 	nop.w
 8000122:	2301      	movs	r3, #1
 8000124:	7023      	strb	r3, [r4, #0]
 8000126:	bd10      	pop	{r4, pc}
 8000128:	20000230 	.word	0x20000230
 800012c:	00000000 	.word	0x00000000
 8000130:	08009ba8 	.word	0x08009ba8

08000134 <frame_dummy>:
 8000134:	b508      	push	{r3, lr}
 8000136:	4b03      	ldr	r3, [pc, #12]	@ (8000144 <frame_dummy+0x10>)
 8000138:	b11b      	cbz	r3, 8000142 <frame_dummy+0xe>
 800013a:	4903      	ldr	r1, [pc, #12]	@ (8000148 <frame_dummy+0x14>)
 800013c:	4803      	ldr	r0, [pc, #12]	@ (800014c <frame_dummy+0x18>)
 800013e:	f3af 8000 	nop.w
 8000142:	bd08      	pop	{r3, pc}
 8000144:	00000000 	.word	0x00000000
 8000148:	20000234 	.word	0x20000234
 800014c:	08009ba8 	.word	0x08009ba8

08000150 <strlen>:
 8000150:	4603      	mov	r3, r0
 8000152:	f813 2b01 	ldrb.w	r2, [r3], #1
 8000156:	2a00      	cmp	r2, #0
 8000158:	d1fb      	bne.n	8000152 <strlen+0x2>
 800015a:	1a18      	subs	r0, r3, r0
 800015c:	3801      	subs	r0, #1
 800015e:	4770      	bx	lr

08000160 <__aeabi_drsub>:
 8000160:	f081 4100 	eor.w	r1, r1, #2147483648	@ 0x80000000
 8000164:	e002      	b.n	800016c <__adddf3>
 8000166:	bf00      	nop

08000168 <__aeabi_dsub>:
 8000168:	f083 4300 	eor.w	r3, r3, #2147483648	@ 0x80000000

0800016c <__adddf3>:
 800016c:	b530      	push	{r4, r5, lr}
 800016e:	ea4f 0441 	mov.w	r4, r1, lsl #1
 8000172:	ea4f 0543 	mov.w	r5, r3, lsl #1
 8000176:	ea94 0f05 	teq	r4, r5
 800017a:	bf08      	it	eq
 800017c:	ea90 0f02 	teqeq	r0, r2
 8000180:	bf1f      	itttt	ne
 8000182:	ea54 0c00 	orrsne.w	ip, r4, r0
 8000186:	ea55 0c02 	orrsne.w	ip, r5, r2
 800018a:	ea7f 5c64 	mvnsne.w	ip, r4, asr #21
 800018e:	ea7f 5c65 	mvnsne.w	ip, r5, asr #21
 8000192:	f000 80e2 	beq.w	800035a <__adddf3+0x1ee>
 8000196:	ea4f 5454 	mov.w	r4, r4, lsr #21
 800019a:	ebd4 5555 	rsbs	r5, r4, r5, lsr #21
 800019e:	bfb8      	it	lt
 80001a0:	426d      	neglt	r5, r5
 80001a2:	dd0c      	ble.n	80001be <__adddf3+0x52>
 80001a4:	442c      	add	r4, r5
 80001a6:	ea80 0202 	eor.w	r2, r0, r2
 80001aa:	ea81 0303 	eor.w	r3, r1, r3
 80001ae:	ea82 0000 	eor.w	r0, r2, r0
 80001b2:	ea83 0101 	eor.w	r1, r3, r1
 80001b6:	ea80 0202 	eor.w	r2, r0, r2
 80001ba:	ea81 0303 	eor.w	r3, r1, r3
 80001be:	2d36      	cmp	r5, #54	@ 0x36
 80001c0:	bf88      	it	hi
 80001c2:	bd30      	pophi	{r4, r5, pc}
 80001c4:	f011 4f00 	tst.w	r1, #2147483648	@ 0x80000000
 80001c8:	ea4f 3101 	mov.w	r1, r1, lsl #12
 80001cc:	f44f 1c80 	mov.w	ip, #1048576	@ 0x100000
 80001d0:	ea4c 3111 	orr.w	r1, ip, r1, lsr #12
 80001d4:	d002      	beq.n	80001dc <__adddf3+0x70>
 80001d6:	4240      	negs	r0, r0
 80001d8:	eb61 0141 	sbc.w	r1, r1, r1, lsl #1
 80001dc:	f013 4f00 	tst.w	r3, #2147483648	@ 0x80000000
 80001e0:	ea4f 3303 	mov.w	r3, r3, lsl #12
 80001e4:	ea4c 3313 	orr.w	r3, ip, r3, lsr #12
 80001e8:	d002      	beq.n	80001f0 <__adddf3+0x84>
 80001ea:	4252      	negs	r2, r2
 80001ec:	eb63 0343 	sbc.w	r3, r3, r3, lsl #1
 80001f0:	ea94 0f05 	teq	r4, r5
 80001f4:	f000 80a7 	beq.w	8000346 <__adddf3+0x1da>
 80001f8:	f1a4 0401 	sub.w	r4, r4, #1
 80001fc:	f1d5 0e20 	rsbs	lr, r5, #32
 8000200:	db0d      	blt.n	800021e <__adddf3+0xb2>
 8000202:	fa02 fc0e 	lsl.w	ip, r2, lr
 8000206:	fa22 f205 	lsr.w	r2, r2, r5
 800020a:	1880      	adds	r0, r0, r2
 800020c:	f141 0100 	adc.w	r1, r1, #0
 8000210:	fa03 f20e 	lsl.w	r2, r3, lr
 8000214:	1880      	adds	r0, r0, r2
 8000216:	fa43 f305 	asr.w	r3, r3, r5
 800021a:	4159      	adcs	r1, r3
 800021c:	e00e      	b.n	800023c <__adddf3+0xd0>
 800021e:	f1a5 0520 	sub.w	r5, r5, #32
 8000222:	f10e 0e20 	add.w	lr, lr, #32
 8000226:	2a01      	cmp	r2, #1
 8000228:	fa03 fc0e 	lsl.w	ip, r3, lr
 800022c:	bf28      	it	cs
 800022e:	f04c 0c02 	orrcs.w	ip, ip, #2
 8000232:	fa43 f305 	asr.w	r3, r3, r5
 8000236:	18c0      	adds	r0, r0, r3
 8000238:	eb51 71e3 	adcs.w	r1, r1, r3, asr #31
 800023c:	f001 4500 	and.w	r5, r1, #2147483648	@ 0x80000000
 8000240:	d507      	bpl.n	8000252 <__adddf3+0xe6>
 8000242:	f04f 0e00 	mov.w	lr, #0
 8000246:	f1dc 0c00 	rsbs	ip, ip, #0
 800024a:	eb7e 0000 	sbcs.w	r0, lr, r0
 800024e:	eb6e 0101 	sbc.w	r1, lr, r1
 8000252:	f5b1 1f80 	cmp.w	r1, #1048576	@ 0x100000
 8000256:	d31b      	bcc.n	8000290 <__adddf3+0x124>
 8000258:	f5b1 1f00 	cmp.w	r1, #2097152	@ 0x200000
 800025c:	d30c      	bcc.n	8000278 <__adddf3+0x10c>
 800025e:	0849      	lsrs	r1, r1, #1
 8000260:	ea5f 0030 	movs.w	r0, r0, rrx
 8000264:	ea4f 0c3c 	mov.w	ip, ip, rrx
 8000268:	f104 0401 	add.w	r4, r4, #1
 800026c:	ea4f 5244 	mov.w	r2, r4, lsl #21
 8000270:	f512 0f80 	cmn.w	r2, #4194304	@ 0x400000
 8000274:	f080 809a 	bcs.w	80003ac <__adddf3+0x240>
 8000278:	f1bc 4f00 	cmp.w	ip, #2147483648	@ 0x80000000
 800027c:	bf08      	it	eq
 800027e:	ea5f 0c50 	movseq.w	ip, r0, lsr #1
 8000282:	f150 0000 	adcs.w	r0, r0, #0
 8000286:	eb41 5104 	adc.w	r1, r1, r4, lsl #20
 800028a:	ea41 0105 	orr.w	r1, r1, r5
 800028e:	bd30      	pop	{r4, r5, pc}
 8000290:	ea5f 0c4c 	movs.w	ip, ip, lsl #1
 8000294:	4140      	adcs	r0, r0
 8000296:	eb41 0101 	adc.w	r1, r1, r1
 800029a:	3c01      	subs	r4, #1
 800029c:	bf28      	it	cs
 800029e:	f5b1 1f80 	cmpcs.w	r1, #1048576	@ 0x100000
 80002a2:	d2e9      	bcs.n	8000278 <__adddf3+0x10c>
 80002a4:	f091 0f00 	teq	r1, #0
 80002a8:	bf04      	itt	eq
 80002aa:	4601      	moveq	r1, r0
 80002ac:	2000      	moveq	r0, #0
 80002ae:	fab1 f381 	clz	r3, r1
 80002b2:	bf08      	it	eq
 80002b4:	3320      	addeq	r3, #32
 80002b6:	f1a3 030b 	sub.w	r3, r3, #11
 80002ba:	f1b3 0220 	subs.w	r2, r3, #32
 80002be:	da0c      	bge.n	80002da <__adddf3+0x16e>
 80002c0:	320c      	adds	r2, #12
 80002c2:	dd08      	ble.n	80002d6 <__adddf3+0x16a>
 80002c4:	f102 0c14 	add.w	ip, r2, #20
 80002c8:	f1c2 020c 	rsb	r2, r2, #12
 80002cc:	fa01 f00c 	lsl.w	r0, r1, ip
 80002d0:	fa21 f102 	lsr.w	r1, r1, r2
 80002d4:	e00c      	b.n	80002f0 <__adddf3+0x184>
 80002d6:	f102 0214 	add.w	r2, r2, #20
 80002da:	bfd8      	it	le
 80002dc:	f1c2 0c20 	rsble	ip, r2, #32
 80002e0:	fa01 f102 	lsl.w	r1, r1, r2
 80002e4:	fa20 fc0c 	lsr.w	ip, r0, ip
 80002e8:	bfdc      	itt	le
 80002ea:	ea41 010c 	orrle.w	r1, r1, ip
 80002ee:	4090      	lslle	r0, r2
 80002f0:	1ae4      	subs	r4, r4, r3
 80002f2:	bfa2      	ittt	ge
 80002f4:	eb01 5104 	addge.w	r1, r1, r4, lsl #20
 80002f8:	4329      	orrge	r1, r5
 80002fa:	bd30      	popge	{r4, r5, pc}
 80002fc:	ea6f 0404 	mvn.w	r4, r4
 8000300:	3c1f      	subs	r4, #31
 8000302:	da1c      	bge.n	800033e <__adddf3+0x1d2>
 8000304:	340c      	adds	r4, #12
 8000306:	dc0e      	bgt.n	8000326 <__adddf3+0x1ba>
 8000308:	f104 0414 	add.w	r4, r4, #20
 800030c:	f1c4 0220 	rsb	r2, r4, #32
 8000310:	fa20 f004 	lsr.w	r0, r0, r4
 8000314:	fa01 f302 	lsl.w	r3, r1, r2
 8000318:	ea40 0003 	orr.w	r0, r0, r3
 800031c:	fa21 f304 	lsr.w	r3, r1, r4
 8000320:	ea45 0103 	orr.w	r1, r5, r3
 8000324:	bd30      	pop	{r4, r5, pc}
 8000326:	f1c4 040c 	rsb	r4, r4, #12
 800032a:	f1c4 0220 	rsb	r2, r4, #32
 800032e:	fa20 f002 	lsr.w	r0, r0, r2
 8000332:	fa01 f304 	lsl.w	r3, r1, r4
 8000336:	ea40 0003 	orr.w	r0, r0, r3
 800033a:	4629      	mov	r1, r5
 800033c:	bd30      	pop	{r4, r5, pc}
 800033e:	fa21 f004 	lsr.w	r0, r1, r4
 8000342:	4629      	mov	r1, r5
 8000344:	bd30      	pop	{r4, r5, pc}
 8000346:	f094 0f00 	teq	r4, #0
 800034a:	f483 1380 	eor.w	r3, r3, #1048576	@ 0x100000
 800034e:	bf06      	itte	eq
 8000350:	f481 1180 	eoreq.w	r1, r1, #1048576	@ 0x100000
 8000354:	3401      	addeq	r4, #1
 8000356:	3d01      	subne	r5, #1
 8000358:	e74e      	b.n	80001f8 <__adddf3+0x8c>
 800035a:	ea7f 5c64 	mvns.w	ip, r4, asr #21
 800035e:	bf18      	it	ne
 8000360:	ea7f 5c65 	mvnsne.w	ip, r5, asr #21
 8000364:	d029      	beq.n	80003ba <__adddf3+0x24e>
 8000366:	ea94 0f05 	teq	r4, r5
 800036a:	bf08      	it	eq
 800036c:	ea90 0f02 	teqeq	r0, r2
 8000370:	d005      	beq.n	800037e <__adddf3+0x212>
 8000372:	ea54 0c00 	orrs.w	ip, r4, r0
 8000376:	bf04      	itt	eq
 8000378:	4619      	moveq	r1, r3
 800037a:	4610      	moveq	r0, r2
 800037c:	bd30      	pop	{r4, r5, pc}
 800037e:	ea91 0f03 	teq	r1, r3
 8000382:	bf1e      	ittt	ne
 8000384:	2100      	movne	r1, #0
 8000386:	2000      	movne	r0, #0
 8000388:	bd30      	popne	{r4, r5, pc}
 800038a:	ea5f 5c54 	movs.w	ip, r4, lsr #21
 800038e:	d105      	bne.n	800039c <__adddf3+0x230>
 8000390:	0040      	lsls	r0, r0, #1
 8000392:	4149      	adcs	r1, r1
 8000394:	bf28      	it	cs
 8000396:	f041 4100 	orrcs.w	r1, r1, #2147483648	@ 0x80000000
 800039a:	bd30      	pop	{r4, r5, pc}
 800039c:	f514 0480 	adds.w	r4, r4, #4194304	@ 0x400000
 80003a0:	bf3c      	itt	cc
 80003a2:	f501 1180 	addcc.w	r1, r1, #1048576	@ 0x100000
 80003a6:	bd30      	popcc	{r4, r5, pc}
 80003a8:	f001 4500 	and.w	r5, r1, #2147483648	@ 0x80000000
 80003ac:	f045 41fe 	orr.w	r1, r5, #2130706432	@ 0x7f000000
 80003b0:	f441 0170 	orr.w	r1, r1, #15728640	@ 0xf00000
 80003b4:	f04f 0000 	mov.w	r0, #0
 80003b8:	bd30      	pop	{r4, r5, pc}
 80003ba:	ea7f 5c64 	mvns.w	ip, r4, asr #21
 80003be:	bf1a      	itte	ne
 80003c0:	4619      	movne	r1, r3
 80003c2:	4610      	movne	r0, r2
 80003c4:	ea7f 5c65 	mvnseq.w	ip, r5, asr #21
 80003c8:	bf1c      	itt	ne
 80003ca:	460b      	movne	r3, r1
 80003cc:	4602      	movne	r2, r0
 80003ce:	ea50 3401 	orrs.w	r4, r0, r1, lsl #12
 80003d2:	bf06      	itte	eq
 80003d4:	ea52 3503 	orrseq.w	r5, r2, r3, lsl #12
 80003d8:	ea91 0f03 	teqeq	r1, r3
 80003dc:	f441 2100 	orrne.w	r1, r1, #524288	@ 0x80000
 80003e0:	bd30      	pop	{r4, r5, pc}
 80003e2:	bf00      	nop

080003e4 <__aeabi_ui2d>:
 80003e4:	f090 0f00 	teq	r0, #0
 80003e8:	bf04      	itt	eq
 80003ea:	2100      	moveq	r1, #0
 80003ec:	4770      	bxeq	lr
 80003ee:	b530      	push	{r4, r5, lr}
 80003f0:	f44f 6480 	mov.w	r4, #1024	@ 0x400
 80003f4:	f104 0432 	add.w	r4, r4, #50	@ 0x32
 80003f8:	f04f 0500 	mov.w	r5, #0
 80003fc:	f04f 0100 	mov.w	r1, #0
 8000400:	e750      	b.n	80002a4 <__adddf3+0x138>
 8000402:	bf00      	nop

08000404 <__aeabi_i2d>:
 8000404:	f090 0f00 	teq	r0, #0
 8000408:	bf04      	itt	eq
 800040a:	2100      	moveq	r1, #0
 800040c:	4770      	bxeq	lr
 800040e:	b530      	push	{r4, r5, lr}
 8000410:	f44f 6480 	mov.w	r4, #1024	@ 0x400
 8000414:	f104 0432 	add.w	r4, r4, #50	@ 0x32
 8000418:	f010 4500 	ands.w	r5, r0, #2147483648	@ 0x80000000
 800041c:	bf48      	it	mi
 800041e:	4240      	negmi	r0, r0
 8000420:	f04f 0100 	mov.w	r1, #0
 8000424:	e73e      	b.n	80002a4 <__adddf3+0x138>
 8000426:	bf00      	nop

08000428 <__aeabi_f2d>:
 8000428:	0042      	lsls	r2, r0, #1
 800042a:	ea4f 01e2 	mov.w	r1, r2, asr #3
 800042e:	ea4f 0131 	mov.w	r1, r1, rrx
 8000432:	ea4f 7002 	mov.w	r0, r2, lsl #28
 8000436:	bf1f      	itttt	ne
 8000438:	f012 437f 	andsne.w	r3, r2, #4278190080	@ 0xff000000
 800043c:	f093 4f7f 	teqne	r3, #4278190080	@ 0xff000000
 8000440:	f081 5160 	eorne.w	r1, r1, #939524096	@ 0x38000000
 8000444:	4770      	bxne	lr
 8000446:	f032 427f 	bics.w	r2, r2, #4278190080	@ 0xff000000
 800044a:	bf08      	it	eq
 800044c:	4770      	bxeq	lr
 800044e:	f093 4f7f 	teq	r3, #4278190080	@ 0xff000000
 8000452:	bf04      	itt	eq
 8000454:	f441 2100 	orreq.w	r1, r1, #524288	@ 0x80000
 8000458:	4770      	bxeq	lr
 800045a:	b530      	push	{r4, r5, lr}
 800045c:	f44f 7460 	mov.w	r4, #896	@ 0x380
 8000460:	f001 4500 	and.w	r5, r1, #2147483648	@ 0x80000000
 8000464:	f021 4100 	bic.w	r1, r1, #2147483648	@ 0x80000000
 8000468:	e71c      	b.n	80002a4 <__adddf3+0x138>
 800046a:	bf00      	nop

0800046c <__aeabi_ul2d>:
 800046c:	ea50 0201 	orrs.w	r2, r0, r1
 8000470:	bf08      	it	eq
 8000472:	4770      	bxeq	lr
 8000474:	b530      	push	{r4, r5, lr}
 8000476:	f04f 0500 	mov.w	r5, #0
 800047a:	e00a      	b.n	8000492 <__aeabi_l2d+0x16>

0800047c <__aeabi_l2d>:
 800047c:	ea50 0201 	orrs.w	r2, r0, r1
 8000480:	bf08      	it	eq
 8000482:	4770      	bxeq	lr
 8000484:	b530      	push	{r4, r5, lr}
 8000486:	f011 4500 	ands.w	r5, r1, #2147483648	@ 0x80000000
 800048a:	d502      	bpl.n	8000492 <__aeabi_l2d+0x16>
 800048c:	4240      	negs	r0, r0
 800048e:	eb61 0141 	sbc.w	r1, r1, r1, lsl #1
 8000492:	f44f 6480 	mov.w	r4, #1024	@ 0x400
 8000496:	f104 0432 	add.w	r4, r4, #50	@ 0x32
 800049a:	ea5f 5c91 	movs.w	ip, r1, lsr #22
 800049e:	f43f aed8 	beq.w	8000252 <__adddf3+0xe6>
 80004a2:	f04f 0203 	mov.w	r2, #3
 80004a6:	ea5f 0cdc 	movs.w	ip, ip, lsr #3
 80004aa:	bf18      	it	ne
 80004ac:	3203      	addne	r2, #3
 80004ae:	ea5f 0cdc 	movs.w	ip, ip, lsr #3
 80004b2:	bf18      	it	ne
 80004b4:	3203      	addne	r2, #3
 80004b6:	eb02 02dc 	add.w	r2, r2, ip, lsr #3
 80004ba:	f1c2 0320 	rsb	r3, r2, #32
 80004be:	fa00 fc03 	lsl.w	ip, r0, r3
 80004c2:	fa20 f002 	lsr.w	r0, r0, r2
 80004c6:	fa01 fe03 	lsl.w	lr, r1, r3
 80004ca:	ea40 000e 	orr.w	r0, r0, lr
 80004ce:	fa21 f102 	lsr.w	r1, r1, r2
 80004d2:	4414      	add	r4, r2
 80004d4:	e6bd      	b.n	8000252 <__adddf3+0xe6>
 80004d6:	bf00      	nop

080004d8 <__aeabi_dmul>:
 80004d8:	b570      	push	{r4, r5, r6, lr}
 80004da:	f04f 0cff 	mov.w	ip, #255	@ 0xff
 80004de:	f44c 6ce0 	orr.w	ip, ip, #1792	@ 0x700
 80004e2:	ea1c 5411 	ands.w	r4, ip, r1, lsr #20
 80004e6:	bf1d      	ittte	ne
 80004e8:	ea1c 5513 	andsne.w	r5, ip, r3, lsr #20
 80004ec:	ea94 0f0c 	teqne	r4, ip
 80004f0:	ea95 0f0c 	teqne	r5, ip
 80004f4:	f000 f8de 	bleq	80006b4 <__aeabi_dmul+0x1dc>
 80004f8:	442c      	add	r4, r5
 80004fa:	ea81 0603 	eor.w	r6, r1, r3
 80004fe:	ea21 514c 	bic.w	r1, r1, ip, lsl #21
 8000502:	ea23 534c 	bic.w	r3, r3, ip, lsl #21
 8000506:	ea50 3501 	orrs.w	r5, r0, r1, lsl #12
 800050a:	bf18      	it	ne
 800050c:	ea52 3503 	orrsne.w	r5, r2, r3, lsl #12
 8000510:	f441 1180 	orr.w	r1, r1, #1048576	@ 0x100000
 8000514:	f443 1380 	orr.w	r3, r3, #1048576	@ 0x100000
 8000518:	d038      	beq.n	800058c <__aeabi_dmul+0xb4>
 800051a:	fba0 ce02 	umull	ip, lr, r0, r2
 800051e:	f04f 0500 	mov.w	r5, #0
 8000522:	fbe1 e502 	umlal	lr, r5, r1, r2
 8000526:	f006 4200 	and.w	r2, r6, #2147483648	@ 0x80000000
 800052a:	fbe0 e503 	umlal	lr, r5, r0, r3
 800052e:	f04f 0600 	mov.w	r6, #0
 8000532:	fbe1 5603 	umlal	r5, r6, r1, r3
 8000536:	f09c 0f00 	teq	ip, #0
 800053a:	bf18      	it	ne
 800053c:	f04e 0e01 	orrne.w	lr, lr, #1
 8000540:	f1a4 04ff 	sub.w	r4, r4, #255	@ 0xff
 8000544:	f5b6 7f00 	cmp.w	r6, #512	@ 0x200
 8000548:	f564 7440 	sbc.w	r4, r4, #768	@ 0x300
 800054c:	d204      	bcs.n	8000558 <__aeabi_dmul+0x80>
 800054e:	ea5f 0e4e 	movs.w	lr, lr, lsl #1
 8000552:	416d      	adcs	r5, r5
 8000554:	eb46 0606 	adc.w	r6, r6, r6
 8000558:	ea42 21c6 	orr.w	r1, r2, r6, lsl #11
 800055c:	ea41 5155 	orr.w	r1, r1, r5, lsr #21
 8000560:	ea4f 20c5 	mov.w	r0, r5, lsl #11
 8000564:	ea40 505e 	orr.w	r0, r0, lr, lsr #21
 8000568:	ea4f 2ece 	mov.w	lr, lr, lsl #11
 800056c:	f1b4 0cfd 	subs.w	ip, r4, #253	@ 0xfd
 8000570:	bf88      	it	hi
 8000572:	f5bc 6fe0 	cmphi.w	ip, #1792	@ 0x700
 8000576:	d81e      	bhi.n	80005b6 <__aeabi_dmul+0xde>
 8000578:	f1be 4f00 	cmp.w	lr, #2147483648	@ 0x80000000
 800057c:	bf08      	it	eq
 800057e:	ea5f 0e50 	movseq.w	lr, r0, lsr #1
 8000582:	f150 0000 	adcs.w	r0, r0, #0
 8000586:	eb41 5104 	adc.w	r1, r1, r4, lsl #20
 800058a:	bd70      	pop	{r4, r5, r6, pc}
 800058c:	f006 4600 	and.w	r6, r6, #2147483648	@ 0x80000000
 8000590:	ea46 0101 	orr.w	r1, r6, r1
 8000594:	ea40 0002 	orr.w	r0, r0, r2
 8000598:	ea81 0103 	eor.w	r1, r1, r3
 800059c:	ebb4 045c 	subs.w	r4, r4, ip, lsr #1
 80005a0:	bfc2      	ittt	gt
 80005a2:	ebd4 050c 	rsbsgt	r5, r4, ip
 80005a6:	ea41 5104 	orrgt.w	r1, r1, r4, lsl #20
 80005aa:	bd70      	popgt	{r4, r5, r6, pc}
 80005ac:	f441 1180 	orr.w	r1, r1, #1048576	@ 0x100000
 80005b0:	f04f 0e00 	mov.w	lr, #0
 80005b4:	3c01      	subs	r4, #1
 80005b6:	f300 80ab 	bgt.w	8000710 <__aeabi_dmul+0x238>
 80005ba:	f114 0f36 	cmn.w	r4, #54	@ 0x36
 80005be:	bfde      	ittt	le
 80005c0:	2000      	movle	r0, #0
 80005c2:	f001 4100 	andle.w	r1, r1, #2147483648	@ 0x80000000
 80005c6:	bd70      	pople	{r4, r5, r6, pc}
 80005c8:	f1c4 0400 	rsb	r4, r4, #0
 80005cc:	3c20      	subs	r4, #32
 80005ce:	da35      	bge.n	800063c <__aeabi_dmul+0x164>
 80005d0:	340c      	adds	r4, #12
 80005d2:	dc1b      	bgt.n	800060c <__aeabi_dmul+0x134>
 80005d4:	f104 0414 	add.w	r4, r4, #20
 80005d8:	f1c4 0520 	rsb	r5, r4, #32
 80005dc:	fa00 f305 	lsl.w	r3, r0, r5
 80005e0:	fa20 f004 	lsr.w	r0, r0, r4
 80005e4:	fa01 f205 	lsl.w	r2, r1, r5
 80005e8:	ea40 0002 	orr.w	r0, r0, r2
 80005ec:	f001 4200 	and.w	r2, r1, #2147483648	@ 0x80000000
 80005f0:	f021 4100 	bic.w	r1, r1, #2147483648	@ 0x80000000
 80005f4:	eb10 70d3 	adds.w	r0, r0, r3, lsr #31
 80005f8:	fa21 f604 	lsr.w	r6, r1, r4
 80005fc:	eb42 0106 	adc.w	r1, r2, r6
 8000600:	ea5e 0e43 	orrs.w	lr, lr, r3, lsl #1
 8000604:	bf08      	it	eq
 8000606:	ea20 70d3 	biceq.w	r0, r0, r3, lsr #31
 800060a:	bd70      	pop	{r4, r5, r6, pc}
 800060c:	f1c4 040c 	rsb	r4, r4, #12
 8000610:	f1c4 0520 	rsb	r5, r4, #32
 8000614:	fa00 f304 	lsl.w	r3, r0, r4
 8000618:	fa20 f005 	lsr.w	r0, r0, r5
 800061c:	fa01 f204 	lsl.w	r2, r1, r4
 8000620:	ea40 0002 	orr.w	r0, r0, r2
 8000624:	f001 4100 	and.w	r1, r1, #2147483648	@ 0x80000000
 8000628:	eb10 70d3 	adds.w	r0, r0, r3, lsr #31
 800062c:	f141 0100 	adc.w	r1, r1, #0
 8000630:	ea5e 0e43 	orrs.w	lr, lr, r3, lsl #1
 8000634:	bf08      	it	eq
 8000636:	ea20 70d3 	biceq.w	r0, r0, r3, lsr #31
 800063a:	bd70      	pop	{r4, r5, r6, pc}
 800063c:	f1c4 0520 	rsb	r5, r4, #32
 8000640:	fa00 f205 	lsl.w	r2, r0, r5
 8000644:	ea4e 0e02 	orr.w	lr, lr, r2
 8000648:	fa20 f304 	lsr.w	r3, r0, r4
 800064c:	fa01 f205 	lsl.w	r2, r1, r5
 8000650:	ea43 0302 	orr.w	r3, r3, r2
 8000654:	fa21 f004 	lsr.w	r0, r1, r4
 8000658:	f001 4100 	and.w	r1, r1, #2147483648	@ 0x80000000
 800065c:	fa21 f204 	lsr.w	r2, r1, r4
 8000660:	ea20 0002 	bic.w	r0, r0, r2
 8000664:	eb00 70d3 	add.w	r0, r0, r3, lsr #31
 8000668:	ea5e 0e43 	orrs.w	lr, lr, r3, lsl #1
 800066c:	bf08      	it	eq
 800066e:	ea20 70d3 	biceq.w	r0, r0, r3, lsr #31
 8000672:	bd70      	pop	{r4, r5, r6, pc}
 8000674:	f094 0f00 	teq	r4, #0
 8000678:	d10f      	bne.n	800069a <__aeabi_dmul+0x1c2>
 800067a:	f001 4600 	and.w	r6, r1, #2147483648	@ 0x80000000
 800067e:	0040      	lsls	r0, r0, #1
 8000680:	eb41 0101 	adc.w	r1, r1, r1
 8000684:	f411 1f80 	tst.w	r1, #1048576	@ 0x100000
 8000688:	bf08      	it	eq
 800068a:	3c01      	subeq	r4, #1
 800068c:	d0f7      	beq.n	800067e <__aeabi_dmul+0x1a6>
 800068e:	ea41 0106 	orr.w	r1, r1, r6
 8000692:	f095 0f00 	teq	r5, #0
 8000696:	bf18      	it	ne
 8000698:	4770      	bxne	lr
 800069a:	f003 4600 	and.w	r6, r3, #2147483648	@ 0x80000000
 800069e:	0052      	lsls	r2, r2, #1
 80006a0:	eb43 0303 	adc.w	r3, r3, r3
 80006a4:	f413 1f80 	tst.w	r3, #1048576	@ 0x100000
 80006a8:	bf08      	it	eq
 80006aa:	3d01      	subeq	r5, #1
 80006ac:	d0f7      	beq.n	800069e <__aeabi_dmul+0x1c6>
 80006ae:	ea43 0306 	orr.w	r3, r3, r6
 80006b2:	4770      	bx	lr
 80006b4:	ea94 0f0c 	teq	r4, ip
 80006b8:	ea0c 5513 	and.w	r5, ip, r3, lsr #20
 80006bc:	bf18      	it	ne
 80006be:	ea95 0f0c 	teqne	r5, ip
 80006c2:	d00c      	beq.n	80006de <__aeabi_dmul+0x206>
 80006c4:	ea50 0641 	orrs.w	r6, r0, r1, lsl #1
 80006c8:	bf18      	it	ne
 80006ca:	ea52 0643 	orrsne.w	r6, r2, r3, lsl #1
 80006ce:	d1d1      	bne.n	8000674 <__aeabi_dmul+0x19c>
 80006d0:	ea81 0103 	eor.w	r1, r1, r3
 80006d4:	f001 4100 	and.w	r1, r1, #2147483648	@ 0x80000000
 80006d8:	f04f 0000 	mov.w	r0, #0
 80006dc:	bd70      	pop	{r4, r5, r6, pc}
 80006de:	ea50 0641 	orrs.w	r6, r0, r1, lsl #1
 80006e2:	bf06      	itte	eq
 80006e4:	4610      	moveq	r0, r2
 80006e6:	4619      	moveq	r1, r3
 80006e8:	ea52 0643 	orrsne.w	r6, r2, r3, lsl #1
 80006ec:	d019      	beq.n	8000722 <__aeabi_dmul+0x24a>
 80006ee:	ea94 0f0c 	teq	r4, ip
 80006f2:	d102      	bne.n	80006fa <__aeabi_dmul+0x222>
 80006f4:	ea50 3601 	orrs.w	r6, r0, r1, lsl #12
 80006f8:	d113      	bne.n	8000722 <__aeabi_dmul+0x24a>
 80006fa:	ea95 0f0c 	teq	r5, ip
 80006fe:	d105      	bne.n	800070c <__aeabi_dmul+0x234>
 8000700:	ea52 3603 	orrs.w	r6, r2, r3, lsl #12
 8000704:	bf1c      	itt	ne
 8000706:	4610      	movne	r0, r2
 8000708:	4619      	movne	r1, r3
 800070a:	d10a      	bne.n	8000722 <__aeabi_dmul+0x24a>
 800070c:	ea81 0103 	eor.w	r1, r1, r3
 8000710:	f001 4100 	and.w	r1, r1, #2147483648	@ 0x80000000
 8000714:	f041 41fe 	orr.w	r1, r1, #2130706432	@ 0x7f000000
 8000718:	f441 0170 	orr.w	r1, r1, #15728640	@ 0xf00000
 800071c:	f04f 0000 	mov.w	r0, #0
 8000720:	bd70      	pop	{r4, r5, r6, pc}
 8000722:	f041 41fe 	orr.w	r1, r1, #2130706432	@ 0x7f000000
 8000726:	f441 0178 	orr.w	r1, r1, #16252928	@ 0xf80000
 800072a:	bd70      	pop	{r4, r5, r6, pc}

0800072c <__aeabi_ddiv>:
 800072c:	b570      	push	{r4, r5, r6, lr}
 800072e:	f04f 0cff 	mov.w	ip, #255	@ 0xff
 8000732:	f44c 6ce0 	orr.w	ip, ip, #1792	@ 0x700
 8000736:	ea1c 5411 	ands.w	r4, ip, r1, lsr #20
 800073a:	bf1d      	ittte	ne
 800073c:	ea1c 5513 	andsne.w	r5, ip, r3, lsr #20
 8000740:	ea94 0f0c 	teqne	r4, ip
 8000744:	ea95 0f0c 	teqne	r5, ip
 8000748:	f000 f8a7 	bleq	800089a <__aeabi_ddiv+0x16e>
 800074c:	eba4 0405 	sub.w	r4, r4, r5
 8000750:	ea81 0e03 	eor.w	lr, r1, r3
 8000754:	ea52 3503 	orrs.w	r5, r2, r3, lsl #12
 8000758:	ea4f 3101 	mov.w	r1, r1, lsl #12
 800075c:	f000 8088 	beq.w	8000870 <__aeabi_ddiv+0x144>
 8000760:	ea4f 3303 	mov.w	r3, r3, lsl #12
 8000764:	f04f 5580 	mov.w	r5, #268435456	@ 0x10000000
 8000768:	ea45 1313 	orr.w	r3, r5, r3, lsr #4
 800076c:	ea43 6312 	orr.w	r3, r3, r2, lsr #24
 8000770:	ea4f 2202 	mov.w	r2, r2, lsl #8
 8000774:	ea45 1511 	orr.w	r5, r5, r1, lsr #4
 8000778:	ea45 6510 	orr.w	r5, r5, r0, lsr #24
 800077c:	ea4f 2600 	mov.w	r6, r0, lsl #8
 8000780:	f00e 4100 	and.w	r1, lr, #2147483648	@ 0x80000000
 8000784:	429d      	cmp	r5, r3
 8000786:	bf08      	it	eq
 8000788:	4296      	cmpeq	r6, r2
 800078a:	f144 04fd 	adc.w	r4, r4, #253	@ 0xfd
 800078e:	f504 7440 	add.w	r4, r4, #768	@ 0x300
 8000792:	d202      	bcs.n	800079a <__aeabi_ddiv+0x6e>
 8000794:	085b      	lsrs	r3, r3, #1
 8000796:	ea4f 0232 	mov.w	r2, r2, rrx
 800079a:	1ab6      	subs	r6, r6, r2
 800079c:	eb65 0503 	sbc.w	r5, r5, r3
 80007a0:	085b      	lsrs	r3, r3, #1
 80007a2:	ea4f 0232 	mov.w	r2, r2, rrx
 80007a6:	f44f 1080 	mov.w	r0, #1048576	@ 0x100000
 80007aa:	f44f 2c00 	mov.w	ip, #524288	@ 0x80000
 80007ae:	ebb6 0e02 	subs.w	lr, r6, r2
 80007b2:	eb75 0e03 	sbcs.w	lr, r5, r3
 80007b6:	bf22      	ittt	cs
 80007b8:	1ab6      	subcs	r6, r6, r2
 80007ba:	4675      	movcs	r5, lr
 80007bc:	ea40 000c 	orrcs.w	r0, r0, ip
 80007c0:	085b      	lsrs	r3, r3, #1
 80007c2:	ea4f 0232 	mov.w	r2, r2, rrx
 80007c6:	ebb6 0e02 	subs.w	lr, r6, r2
 80007ca:	eb75 0e03 	sbcs.w	lr, r5, r3
 80007ce:	bf22      	ittt	cs
 80007d0:	1ab6      	subcs	r6, r6, r2
 80007d2:	4675      	movcs	r5, lr
 80007d4:	ea40 005c 	orrcs.w	r0, r0, ip, lsr #1
 80007d8:	085b      	lsrs	r3, r3, #1
 80007da:	ea4f 0232 	mov.w	r2, r2, rrx
 80007de:	ebb6 0e02 	subs.w	lr, r6, r2
 80007e2:	eb75 0e03 	sbcs.w	lr, r5, r3
 80007e6:	bf22      	ittt	cs
 80007e8:	1ab6      	subcs	r6, r6, r2
 80007ea:	4675      	movcs	r5, lr
 80007ec:	ea40 009c 	orrcs.w	r0, r0, ip, lsr #2
 80007f0:	085b      	lsrs	r3, r3, #1
 80007f2:	ea4f 0232 	mov.w	r2, r2, rrx
 80007f6:	ebb6 0e02 	subs.w	lr, r6, r2
 80007fa:	eb75 0e03 	sbcs.w	lr, r5, r3
 80007fe:	bf22      	ittt	cs
 8000800:	1ab6      	subcs	r6, r6, r2
 8000802:	4675      	movcs	r5, lr
 8000804:	ea40 00dc 	orrcs.w	r0, r0, ip, lsr #3
 8000808:	ea55 0e06 	orrs.w	lr, r5, r6
 800080c:	d018      	beq.n	8000840 <__aeabi_ddiv+0x114>
 800080e:	ea4f 1505 	mov.w	r5, r5, lsl #4
 8000812:	ea45 7516 	orr.w	r5, r5, r6, lsr #28
 8000816:	ea4f 1606 	mov.w	r6, r6, lsl #4
 800081a:	ea4f 03c3 	mov.w	r3, r3, lsl #3
 800081e:	ea43 7352 	orr.w	r3, r3, r2, lsr #29
 8000822:	ea4f 02c2 	mov.w	r2, r2, lsl #3
 8000826:	ea5f 1c1c 	movs.w	ip, ip, lsr #4
 800082a:	d1c0      	bne.n	80007ae <__aeabi_ddiv+0x82>
 800082c:	f411 1f80 	tst.w	r1, #1048576	@ 0x100000
 8000830:	d10b      	bne.n	800084a <__aeabi_ddiv+0x11e>
 8000832:	ea41 0100 	orr.w	r1, r1, r0
 8000836:	f04f 0000 	mov.w	r0, #0
 800083a:	f04f 4c00 	mov.w	ip, #2147483648	@ 0x80000000
 800083e:	e7b6      	b.n	80007ae <__aeabi_ddiv+0x82>
 8000840:	f411 1f80 	tst.w	r1, #1048576	@ 0x100000
 8000844:	bf04      	itt	eq
 8000846:	4301      	orreq	r1, r0
 8000848:	2000      	moveq	r0, #0
 800084a:	f1b4 0cfd 	subs.w	ip, r4, #253	@ 0xfd
 800084e:	bf88      	it	hi
 8000850:	f5bc 6fe0 	cmphi.w	ip, #1792	@ 0x700
 8000854:	f63f aeaf 	bhi.w	80005b6 <__aeabi_dmul+0xde>
 8000858:	ebb5 0c03 	subs.w	ip, r5, r3
 800085c:	bf04      	itt	eq
 800085e:	ebb6 0c02 	subseq.w	ip, r6, r2
 8000862:	ea5f 0c50 	movseq.w	ip, r0, lsr #1
 8000866:	f150 0000 	adcs.w	r0, r0, #0
 800086a:	eb41 5104 	adc.w	r1, r1, r4, lsl #20
 800086e:	bd70      	pop	{r4, r5, r6, pc}
 8000870:	f00e 4e00 	and.w	lr, lr, #2147483648	@ 0x80000000
 8000874:	ea4e 3111 	orr.w	r1, lr, r1, lsr #12
 8000878:	eb14 045c 	adds.w	r4, r4, ip, lsr #1
 800087c:	bfc2      	ittt	gt
 800087e:	ebd4 050c 	rsbsgt	r5, r4, ip
 8000882:	ea41 5104 	orrgt.w	r1, r1, r4, lsl #20
 8000886:	bd70      	popgt	{r4, r5, r6, pc}
 8000888:	f441 1180 	orr.w	r1, r1, #1048576	@ 0x100000
 800088c:	f04f 0e00 	mov.w	lr, #0
 8000890:	3c01      	subs	r4, #1
 8000892:	e690      	b.n	80005b6 <__aeabi_dmul+0xde>
 8000894:	ea45 0e06 	orr.w	lr, r5, r6
 8000898:	e68d      	b.n	80005b6 <__aeabi_dmul+0xde>
 800089a:	ea0c 5513 	and.w	r5, ip, r3, lsr #20
 800089e:	ea94 0f0c 	teq	r4, ip
 80008a2:	bf08      	it	eq
 80008a4:	ea95 0f0c 	teqeq	r5, ip
 80008a8:	f43f af3b 	beq.w	8000722 <__aeabi_dmul+0x24a>
 80008ac:	ea94 0f0c 	teq	r4, ip
 80008b0:	d10a      	bne.n	80008c8 <__aeabi_ddiv+0x19c>
 80008b2:	ea50 3401 	orrs.w	r4, r0, r1, lsl #12
 80008b6:	f47f af34 	bne.w	8000722 <__aeabi_dmul+0x24a>
 80008ba:	ea95 0f0c 	teq	r5, ip
 80008be:	f47f af25 	bne.w	800070c <__aeabi_dmul+0x234>
 80008c2:	4610      	mov	r0, r2
 80008c4:	4619      	mov	r1, r3
 80008c6:	e72c      	b.n	8000722 <__aeabi_dmul+0x24a>
 80008c8:	ea95 0f0c 	teq	r5, ip
 80008cc:	d106      	bne.n	80008dc <__aeabi_ddiv+0x1b0>
 80008ce:	ea52 3503 	orrs.w	r5, r2, r3, lsl #12
 80008d2:	f43f aefd 	beq.w	80006d0 <__aeabi_dmul+0x1f8>
 80008d6:	4610      	mov	r0, r2
 80008d8:	4619      	mov	r1, r3
 80008da:	e722      	b.n	8000722 <__aeabi_dmul+0x24a>
 80008dc:	ea50 0641 	orrs.w	r6, r0, r1, lsl #1
 80008e0:	bf18      	it	ne
 80008e2:	ea52 0643 	orrsne.w	r6, r2, r3, lsl #1
 80008e6:	f47f aec5 	bne.w	8000674 <__aeabi_dmul+0x19c>
 80008ea:	ea50 0441 	orrs.w	r4, r0, r1, lsl #1
 80008ee:	f47f af0d 	bne.w	800070c <__aeabi_dmul+0x234>
 80008f2:	ea52 0543 	orrs.w	r5, r2, r3, lsl #1
 80008f6:	f47f aeeb 	bne.w	80006d0 <__aeabi_dmul+0x1f8>
 80008fa:	e712      	b.n	8000722 <__aeabi_dmul+0x24a>

080008fc <__gedf2>:
 80008fc:	f04f 3cff 	mov.w	ip, #4294967295
 8000900:	e006      	b.n	8000910 <__cmpdf2+0x4>
 8000902:	bf00      	nop

08000904 <__ledf2>:
 8000904:	f04f 0c01 	mov.w	ip, #1
 8000908:	e002      	b.n	8000910 <__cmpdf2+0x4>
 800090a:	bf00      	nop

0800090c <__cmpdf2>:
 800090c:	f04f 0c01 	mov.w	ip, #1
 8000910:	f84d cd04 	str.w	ip, [sp, #-4]!
 8000914:	ea4f 0c41 	mov.w	ip, r1, lsl #1
 8000918:	ea7f 5c6c 	mvns.w	ip, ip, asr #21
 800091c:	ea4f 0c43 	mov.w	ip, r3, lsl #1
 8000920:	bf18      	it	ne
 8000922:	ea7f 5c6c 	mvnsne.w	ip, ip, asr #21
 8000926:	d01b      	beq.n	8000960 <__cmpdf2+0x54>
 8000928:	b001      	add	sp, #4
 800092a:	ea50 0c41 	orrs.w	ip, r0, r1, lsl #1
 800092e:	bf0c      	ite	eq
 8000930:	ea52 0c43 	orrseq.w	ip, r2, r3, lsl #1
 8000934:	ea91 0f03 	teqne	r1, r3
 8000938:	bf02      	ittt	eq
 800093a:	ea90 0f02 	teqeq	r0, r2
 800093e:	2000      	moveq	r0, #0
 8000940:	4770      	bxeq	lr
 8000942:	f110 0f00 	cmn.w	r0, #0
 8000946:	ea91 0f03 	teq	r1, r3
 800094a:	bf58      	it	pl
 800094c:	4299      	cmppl	r1, r3
 800094e:	bf08      	it	eq
 8000950:	4290      	cmpeq	r0, r2
 8000952:	bf2c      	ite	cs
 8000954:	17d8      	asrcs	r0, r3, #31
 8000956:	ea6f 70e3 	mvncc.w	r0, r3, asr #31
 800095a:	f040 0001 	orr.w	r0, r0, #1
 800095e:	4770      	bx	lr
 8000960:	ea4f 0c41 	mov.w	ip, r1, lsl #1
 8000964:	ea7f 5c6c 	mvns.w	ip, ip, asr #21
 8000968:	d102      	bne.n	8000970 <__cmpdf2+0x64>
 800096a:	ea50 3c01 	orrs.w	ip, r0, r1, lsl #12
 800096e:	d107      	bne.n	8000980 <__cmpdf2+0x74>
 8000970:	ea4f 0c43 	mov.w	ip, r3, lsl #1
 8000974:	ea7f 5c6c 	mvns.w	ip, ip, asr #21
 8000978:	d1d6      	bne.n	8000928 <__cmpdf2+0x1c>
 800097a:	ea52 3c03 	orrs.w	ip, r2, r3, lsl #12
 800097e:	d0d3      	beq.n	8000928 <__cmpdf2+0x1c>
 8000980:	f85d 0b04 	ldr.w	r0, [sp], #4
 8000984:	4770      	bx	lr
 8000986:	bf00      	nop

08000988 <__aeabi_cdrcmple>:
 8000988:	4684      	mov	ip, r0
 800098a:	4610      	mov	r0, r2
 800098c:	4662      	mov	r2, ip
 800098e:	468c      	mov	ip, r1
 8000990:	4619      	mov	r1, r3
 8000992:	4663      	mov	r3, ip
 8000994:	e000      	b.n	8000998 <__aeabi_cdcmpeq>
 8000996:	bf00      	nop

08000998 <__aeabi_cdcmpeq>:
 8000998:	b501      	push	{r0, lr}
 800099a:	f7ff ffb7 	bl	800090c <__cmpdf2>
 800099e:	2800      	cmp	r0, #0
 80009a0:	bf48      	it	mi
 80009a2:	f110 0f00 	cmnmi.w	r0, #0
 80009a6:	bd01      	pop	{r0, pc}

080009a8 <__aeabi_dcmpeq>:
 80009a8:	f84d ed08 	str.w	lr, [sp, #-8]!
 80009ac:	f7ff fff4 	bl	8000998 <__aeabi_cdcmpeq>
 80009b0:	bf0c      	ite	eq
 80009b2:	2001      	moveq	r0, #1
 80009b4:	2000      	movne	r0, #0
 80009b6:	f85d fb08 	ldr.w	pc, [sp], #8
 80009ba:	bf00      	nop

080009bc <__aeabi_dcmplt>:
 80009bc:	f84d ed08 	str.w	lr, [sp, #-8]!
 80009c0:	f7ff ffea 	bl	8000998 <__aeabi_cdcmpeq>
 80009c4:	bf34      	ite	cc
 80009c6:	2001      	movcc	r0, #1
 80009c8:	2000      	movcs	r0, #0
 80009ca:	f85d fb08 	ldr.w	pc, [sp], #8
 80009ce:	bf00      	nop

080009d0 <__aeabi_dcmple>:
 80009d0:	f84d ed08 	str.w	lr, [sp, #-8]!
 80009d4:	f7ff ffe0 	bl	8000998 <__aeabi_cdcmpeq>
 80009d8:	bf94      	ite	ls
 80009da:	2001      	movls	r0, #1
 80009dc:	2000      	movhi	r0, #0
 80009de:	f85d fb08 	ldr.w	pc, [sp], #8
 80009e2:	bf00      	nop

080009e4 <__aeabi_dcmpge>:
 80009e4:	f84d ed08 	str.w	lr, [sp, #-8]!
 80009e8:	f7ff ffce 	bl	8000988 <__aeabi_cdrcmple>
 80009ec:	bf94      	ite	ls
 80009ee:	2001      	movls	r0, #1
 80009f0:	2000      	movhi	r0, #0
 80009f2:	f85d fb08 	ldr.w	pc, [sp], #8
 80009f6:	bf00      	nop

080009f8 <__aeabi_dcmpgt>:
 80009f8:	f84d ed08 	str.w	lr, [sp, #-8]!
 80009fc:	f7ff ffc4 	bl	8000988 <__aeabi_cdrcmple>
 8000a00:	bf34      	ite	cc
 8000a02:	2001      	movcc	r0, #1
 8000a04:	2000      	movcs	r0, #0
 8000a06:	f85d fb08 	ldr.w	pc, [sp], #8
 8000a0a:	bf00      	nop

08000a0c <__aeabi_dcmpun>:
 8000a0c:	ea4f 0c41 	mov.w	ip, r1, lsl #1
 8000a10:	ea7f 5c6c 	mvns.w	ip, ip, asr #21
 8000a14:	d102      	bne.n	8000a1c <__aeabi_dcmpun+0x10>
 8000a16:	ea50 3c01 	orrs.w	ip, r0, r1, lsl #12
 8000a1a:	d10a      	bne.n	8000a32 <__aeabi_dcmpun+0x26>
 8000a1c:	ea4f 0c43 	mov.w	ip, r3, lsl #1
 8000a20:	ea7f 5c6c 	mvns.w	ip, ip, asr #21
 8000a24:	d102      	bne.n	8000a2c <__aeabi_dcmpun+0x20>
 8000a26:	ea52 3c03 	orrs.w	ip, r2, r3, lsl #12
 8000a2a:	d102      	bne.n	8000a32 <__aeabi_dcmpun+0x26>
 8000a2c:	f04f 0000 	mov.w	r0, #0
 8000a30:	4770      	bx	lr
 8000a32:	f04f 0001 	mov.w	r0, #1
 8000a36:	4770      	bx	lr

08000a38 <__aeabi_d2iz>:
 8000a38:	ea4f 0241 	mov.w	r2, r1, lsl #1
 8000a3c:	f512 1200 	adds.w	r2, r2, #2097152	@ 0x200000
 8000a40:	d215      	bcs.n	8000a6e <__aeabi_d2iz+0x36>
 8000a42:	d511      	bpl.n	8000a68 <__aeabi_d2iz+0x30>
 8000a44:	f46f 7378 	mvn.w	r3, #992	@ 0x3e0
 8000a48:	ebb3 5262 	subs.w	r2, r3, r2, asr #21
 8000a4c:	d912      	bls.n	8000a74 <__aeabi_d2iz+0x3c>
 8000a4e:	ea4f 23c1 	mov.w	r3, r1, lsl #11
 8000a52:	f043 4300 	orr.w	r3, r3, #2147483648	@ 0x80000000
 8000a56:	ea43 5350 	orr.w	r3, r3, r0, lsr #21
 8000a5a:	f011 4f00 	tst.w	r1, #2147483648	@ 0x80000000
 8000a5e:	fa23 f002 	lsr.w	r0, r3, r2
 8000a62:	bf18      	it	ne
 8000a64:	4240      	negne	r0, r0
 8000a66:	4770      	bx	lr
 8000a68:	f04f 0000 	mov.w	r0, #0
 8000a6c:	4770      	bx	lr
 8000a6e:	ea50 3001 	orrs.w	r0, r0, r1, lsl #12
 8000a72:	d105      	bne.n	8000a80 <__aeabi_d2iz+0x48>
 8000a74:	f011 4000 	ands.w	r0, r1, #2147483648	@ 0x80000000
 8000a78:	bf08      	it	eq
 8000a7a:	f06f 4000 	mvneq.w	r0, #2147483648	@ 0x80000000
 8000a7e:	4770      	bx	lr
 8000a80:	f04f 0000 	mov.w	r0, #0
 8000a84:	4770      	bx	lr
 8000a86:	bf00      	nop

08000a88 <randinit>:
  return val;
}

void randinit(void)
{
  srand((uint8)timestamp);
 8000a88:	4b01      	ldr	r3, [pc, #4]	@ (8000a90 <randinit+0x8>)
 8000a8a:	7818      	ldrb	r0, [r3, #0]
 8000a8c:	f006 b9cc 	b.w	8006e28 <srand>
 8000a90:	2000025c 	.word	0x2000025c

08000a94 <getrand>:
}

uint8 getrand(uint8 N)
{
 8000a94:	b510      	push	{r4, lr}
 8000a96:	4604      	mov	r4, r0
  return (rand() % (N + 1));
 8000a98:	f006 f9f4 	bl	8006e84 <rand>
 8000a9c:	1c63      	adds	r3, r4, #1
 8000a9e:	fb90 f2f3 	sdiv	r2, r0, r3
 8000aa2:	fb02 0013 	mls	r0, r2, r3, r0
}
 8000aa6:	b2c0      	uxtb	r0, r0
 8000aa8:	bd10      	pop	{r4, pc}
 8000aaa:	bf00      	nop

08000aac <dig_to_smb>:

uint8 dig_to_smb(uint8 dig)
{
  switch (dig)
 8000aac:	2809      	cmp	r0, #9
 8000aae:	bf9a      	itte	ls
 8000ab0:	3030      	addls	r0, #48	@ 0x30
 8000ab2:	b2c0      	uxtbls	r0, r0
{
 8000ab4:	2000      	movhi	r0, #0
    case 7: return '7'; 
    case 8: return '8';
    case 9: return '9';
  }
  return 0;
}
 8000ab6:	4770      	bx	lr

08000ab8 <u16_to_str>:

void u16_to_str(uint8* str, uint16 num, uint8 N)
{ 
  //sprintf((char*)str, "%u", num);
  
  str[0] = dig_to_smb((uint8)(num/10000));
 8000ab8:	4b36      	ldr	r3, [pc, #216]	@ (8000b94 <u16_to_str+0xdc>)
{ 
 8000aba:	b5f0      	push	{r4, r5, r6, r7, lr}
  str[0] = dig_to_smb((uint8)(num/10000));
 8000abc:	fba3 4301 	umull	r4, r3, r3, r1
 8000ac0:	f3c3 3347 	ubfx	r3, r3, #13, #8
  num %= 10000;
 8000ac4:	2b09      	cmp	r3, #9
 8000ac6:	bf9c      	itt	ls
 8000ac8:	3330      	addls	r3, #48	@ 0x30
 8000aca:	fa5f fe83 	uxtbls.w	lr, r3
 8000ace:	4b31      	ldr	r3, [pc, #196]	@ (8000b94 <u16_to_str+0xdc>)
  str[1] = dig_to_smb((uint8)(num/1000));
  num %= 1000;
 8000ad0:	f44f 777a 	mov.w	r7, #1000	@ 0x3e8
  num %= 10000;
 8000ad4:	fba3 3c01 	umull	r3, ip, r3, r1
 8000ad8:	f242 7310 	movw	r3, #10000	@ 0x2710
  str[0] = dig_to_smb((uint8)(num/10000));
 8000adc:	bf88      	it	hi
 8000ade:	f04f 0e00 	movhi.w	lr, #0
 8000ae2:	2400      	movs	r4, #0
  str[2] = dig_to_smb((uint8)(num/100));
  num %= 100;
 8000ae4:	2564      	movs	r5, #100	@ 0x64
  num %= 10000;
 8000ae6:	ea4f 3c5c 	mov.w	ip, ip, lsr #13
 8000aea:	fb03 1c1c 	mls	ip, r3, ip, r1
  num %= 1000;
 8000aee:	4b2a      	ldr	r3, [pc, #168]	@ (8000b98 <u16_to_str+0xe0>)
  str[0] = dig_to_smb((uint8)(num/10000));
 8000af0:	f36e 0407 	bfi	r4, lr, #0, #8
  num %= 1000;
 8000af4:	fba3 130c 	umull	r1, r3, r3, ip
  str[3] = dig_to_smb((uint8)(num/10));
  str[4] = dig_to_smb((uint8)(num%10));
  str[5] = '\0';
 8000af8:	2100      	movs	r1, #0
  num %= 1000;
 8000afa:	099e      	lsrs	r6, r3, #6
 8000afc:	fb07 c616 	mls	r6, r7, r6, ip
  str[1] = dig_to_smb((uint8)(num/1000));
 8000b00:	099b      	lsrs	r3, r3, #6
  str[0] = dig_to_smb((uint8)(num/10000));
 8000b02:	3330      	adds	r3, #48	@ 0x30
 8000b04:	f363 240f 	bfi	r4, r3, #8, #8
  num %= 100;
 8000b08:	4b24      	ldr	r3, [pc, #144]	@ (8000b9c <u16_to_str+0xe4>)
  
  if(N == 10)
 8000b0a:	2a0a      	cmp	r2, #10
  num %= 100;
 8000b0c:	fba3 3e06 	umull	r3, lr, r3, r6
 8000b10:	ea4f 1c5e 	mov.w	ip, lr, lsr #5
 8000b14:	fb05 6c1c 	mls	ip, r5, ip, r6
  str[3] = dig_to_smb((uint8)(num/10));
 8000b18:	4b21      	ldr	r3, [pc, #132]	@ (8000ba0 <u16_to_str+0xe8>)
  str[2] = dig_to_smb((uint8)(num/100));
 8000b1a:	ea4f 1e5e 	mov.w	lr, lr, lsr #5
  str[3] = dig_to_smb((uint8)(num/10));
 8000b1e:	fba3 530c 	umull	r5, r3, r3, ip
 8000b22:	ea4f 03d3 	mov.w	r3, r3, lsr #3
  str[4] = dig_to_smb((uint8)(num%10));
 8000b26:	eb03 0583 	add.w	r5, r3, r3, lsl #2
  str[0] = dig_to_smb((uint8)(num/10000));
 8000b2a:	f10e 0e30 	add.w	lr, lr, #48	@ 0x30
 8000b2e:	f103 0330 	add.w	r3, r3, #48	@ 0x30
 8000b32:	f36e 4417 	bfi	r4, lr, #16, #8
  str[4] = dig_to_smb((uint8)(num%10));
 8000b36:	ebac 0c45 	sub.w	ip, ip, r5, lsl #1
  str[0] = dig_to_smb((uint8)(num/10000));
 8000b3a:	f363 641f 	bfi	r4, r3, #24, #8
  str[4] = dig_to_smb((uint8)(num%10));
 8000b3e:	f10c 0330 	add.w	r3, ip, #48	@ 0x30
  str[5] = '\0';
 8000b42:	7141      	strb	r1, [r0, #5]
  str[0] = dig_to_smb((uint8)(num/10000));
 8000b44:	6004      	str	r4, [r0, #0]
  str[4] = dig_to_smb((uint8)(num%10));
 8000b46:	7103      	strb	r3, [r0, #4]
  if(N == 10)
 8000b48:	d00e      	beq.n	8000b68 <u16_to_str+0xb0>
      str[0] = '0';
      str[1] = '\0';
    }
  }
      
  if((N < 5) && (N > 0))
 8000b4a:	1e53      	subs	r3, r2, #1
 8000b4c:	2b03      	cmp	r3, #3
 8000b4e:	d80a      	bhi.n	8000b66 <u16_to_str+0xae>
  {
    for(uint8 i = 0; i <= N; i++) 
      str[i] = str[5 - N + i];
 8000b50:	f1c2 0105 	rsb	r1, r2, #5
 8000b54:	4401      	add	r1, r0
 8000b56:	1e43      	subs	r3, r0, #1
 8000b58:	4410      	add	r0, r2
 8000b5a:	f811 2b01 	ldrb.w	r2, [r1], #1
 8000b5e:	f803 2f01 	strb.w	r2, [r3, #1]!
    for(uint8 i = 0; i <= N; i++) 
 8000b62:	4298      	cmp	r0, r3
 8000b64:	d1f9      	bne.n	8000b5a <u16_to_str+0xa2>
  }
}
 8000b66:	bdf0      	pop	{r4, r5, r6, r7, pc}
    uint8 chars = 0;
 8000b68:	460b      	mov	r3, r1
 8000b6a:	1e42      	subs	r2, r0, #1
 8000b6c:	1d45      	adds	r5, r0, #5
 8000b6e:	e003      	b.n	8000b78 <u16_to_str+0xc0>
    for(int i = 0; i < 6; i++)
 8000b70:	42aa      	cmp	r2, r5
      str[chars] = str[i];
 8000b72:	54c1      	strb	r1, [r0, r3]
      chars++;
 8000b74:	b2e3      	uxtb	r3, r4
    for(int i = 0; i < 6; i++)
 8000b76:	d008      	beq.n	8000b8a <u16_to_str+0xd2>
      if((str[i] == '0') && !chars) continue;
 8000b78:	f812 1f01 	ldrb.w	r1, [r2, #1]!
      chars++;
 8000b7c:	1c5c      	adds	r4, r3, #1
      if((str[i] == '0') && !chars) continue;
 8000b7e:	2930      	cmp	r1, #48	@ 0x30
 8000b80:	d1f6      	bne.n	8000b70 <u16_to_str+0xb8>
 8000b82:	2b00      	cmp	r3, #0
 8000b84:	d1f4      	bne.n	8000b70 <u16_to_str+0xb8>
    for(int i = 0; i < 6; i++)
 8000b86:	42aa      	cmp	r2, r5
 8000b88:	d1f6      	bne.n	8000b78 <u16_to_str+0xc0>
    if(chars == 1) 
 8000b8a:	2b01      	cmp	r3, #1
 8000b8c:	d1eb      	bne.n	8000b66 <u16_to_str+0xae>
      str[0] = '0';
 8000b8e:	2330      	movs	r3, #48	@ 0x30
 8000b90:	8003      	strh	r3, [r0, #0]
}
 8000b92:	bdf0      	pop	{r4, r5, r6, r7, pc}
 8000b94:	d1b71759 	.word	0xd1b71759
 8000b98:	10624dd3 	.word	0x10624dd3
 8000b9c:	51eb851f 	.word	0x51eb851f
 8000ba0:	cccccccd 	.word	0xcccccccd

08000ba4 <commoninit>:
/*----------------------------------------------------------------------------*/

/*-------------------------------INITIALIZATION-------------------------------*/

void commoninit(void)
{
 8000ba4:	b508      	push	{r3, lr}
  HAL_GPIO_WritePin(SHUTDOWN_GPIO_Port, SHUTDOWN_Pin, SET);
 8000ba6:	2201      	movs	r2, #1
 8000ba8:	f44f 5100 	mov.w	r1, #8192	@ 0x2000
 8000bac:	480d      	ldr	r0, [pc, #52]	@ (8000be4 <commoninit+0x40>)
 8000bae:	f005 f841 	bl	8005c34 <HAL_GPIO_WritePin>
  HAL_GPIO_WritePin(SOUND_OUT_GPIO_Port, SOUND_OUT_Pin, RESET);
 8000bb2:	2200      	movs	r2, #0
 8000bb4:	f44f 5180 	mov.w	r1, #4096	@ 0x1000
 8000bb8:	480b      	ldr	r0, [pc, #44]	@ (8000be8 <commoninit+0x44>)
 8000bba:	f005 f83b 	bl	8005c34 <HAL_GPIO_WritePin>

extern TIM_HandleTypeDef htim1;
void BrightPWMgen(uint8 duty_cycle)
{
	uint16 dutyCycle = ((uint16)duty_cycle) * 255;
	__HAL_TIM_SET_COMPARE(&htim1, TIM_CHANNEL_1, dutyCycle);
 8000bbe:	f64d 3224 	movw	r2, #56100	@ 0xdb24
 8000bc2:	480a      	ldr	r0, [pc, #40]	@ (8000bec <commoninit+0x48>)
	HAL_TIM_PWM_Start(&htim1, TIM_CHANNEL_1);
 8000bc4:	2100      	movs	r1, #0
	__HAL_TIM_SET_COMPARE(&htim1, TIM_CHANNEL_1, dutyCycle);
 8000bc6:	6803      	ldr	r3, [r0, #0]
 8000bc8:	635a      	str	r2, [r3, #52]	@ 0x34
	HAL_TIM_PWM_Start(&htim1, TIM_CHANNEL_1);
 8000bca:	f005 fef9 	bl	80069c0 <HAL_TIM_PWM_Start>
}

uint8 EEPROM_readbyte(uint8 addr)   // addr 0......19
{
	uint32 temp = 0;
	temp = HAL_RTCEx_BKUPRead(&hrtc, (1 + addr/2));
 8000bce:	2101      	movs	r1, #1
 8000bd0:	4807      	ldr	r0, [pc, #28]	@ (8000bf0 <commoninit+0x4c>)
 8000bd2:	f005 fc69 	bl	80064a8 <HAL_RTCEx_BKUPRead>
  if(brightPWM == 0) brightPWM = 220;
 8000bd6:	f010 00ff 	ands.w	r0, r0, #255	@ 0xff
 8000bda:	bf08      	it	eq
 8000bdc:	20dc      	moveq	r0, #220	@ 0xdc
  brightPWM = EEPROM_readbyte(PWM_MEMADR);
 8000bde:	4b05      	ldr	r3, [pc, #20]	@ (8000bf4 <commoninit+0x50>)
 8000be0:	7018      	strb	r0, [r3, #0]
}
 8000be2:	bd08      	pop	{r3, pc}
 8000be4:	40011000 	.word	0x40011000
 8000be8:	40010800 	.word	0x40010800
 8000bec:	200006d8 	.word	0x200006d8
 8000bf0:	200007d0 	.word	0x200007d0
 8000bf4:	2000000c 	.word	0x2000000c

08000bf8 <initbuttons>:
  B1 = CreateBtn(BTN_1_GPIO_Port, BTN_1_Pin, &timestamp);
 8000bf8:	2040      	movs	r0, #64	@ 0x40
  B2 = CreateBtn(BTN_2_GPIO_Port, BTN_2_Pin, &timestamp);
 8000bfa:	2180      	movs	r1, #128	@ 0x80
  B3 = CreateBtn(BTN_3_GPIO_Port, BTN_3_Pin, &timestamp);
 8000bfc:	2210      	movs	r2, #16
  B1 = CreateBtn(BTN_1_GPIO_Port, BTN_1_Pin, &timestamp);
 8000bfe:	2300      	movs	r3, #0
{
 8000c00:	b430      	push	{r4, r5}
  B4 = CreateBtn(BTN_4_GPIO_Port, BTN_4_Pin, &timestamp);
 8000c02:	2520      	movs	r5, #32
  B1 = CreateBtn(BTN_1_GPIO_Port, BTN_1_Pin, &timestamp);
 8000c04:	4c0f      	ldr	r4, [pc, #60]	@ (8000c44 <initbuttons+0x4c>)
 8000c06:	6060      	str	r0, [r4, #4]
  B2 = CreateBtn(BTN_2_GPIO_Port, BTN_2_Pin, &timestamp);
 8000c08:	480f      	ldr	r0, [pc, #60]	@ (8000c48 <initbuttons+0x50>)
  B1 = CreateBtn(BTN_1_GPIO_Port, BTN_1_Pin, &timestamp);
 8000c0a:	e9c4 3303 	strd	r3, r3, [r4, #12]
  B2 = CreateBtn(BTN_2_GPIO_Port, BTN_2_Pin, &timestamp);
 8000c0e:	6041      	str	r1, [r0, #4]
  B3 = CreateBtn(BTN_3_GPIO_Port, BTN_3_Pin, &timestamp);
 8000c10:	490e      	ldr	r1, [pc, #56]	@ (8000c4c <initbuttons+0x54>)
  B2 = CreateBtn(BTN_2_GPIO_Port, BTN_2_Pin, &timestamp);
 8000c12:	e9c0 3303 	strd	r3, r3, [r0, #12]
  B3 = CreateBtn(BTN_3_GPIO_Port, BTN_3_Pin, &timestamp);
 8000c16:	604a      	str	r2, [r1, #4]
  B4 = CreateBtn(BTN_4_GPIO_Port, BTN_4_Pin, &timestamp);
 8000c18:	4a0d      	ldr	r2, [pc, #52]	@ (8000c50 <initbuttons+0x58>)
  B3 = CreateBtn(BTN_3_GPIO_Port, BTN_3_Pin, &timestamp);
 8000c1a:	e9c1 3303 	strd	r3, r3, [r1, #12]
  B4 = CreateBtn(BTN_4_GPIO_Port, BTN_4_Pin, &timestamp);
 8000c1e:	e9c2 3303 	strd	r3, r3, [r2, #12]
  B1 = CreateBtn(BTN_1_GPIO_Port, BTN_1_Pin, &timestamp);
 8000c22:	7523      	strb	r3, [r4, #20]
  B2 = CreateBtn(BTN_2_GPIO_Port, BTN_2_Pin, &timestamp);
 8000c24:	7503      	strb	r3, [r0, #20]
  B3 = CreateBtn(BTN_3_GPIO_Port, BTN_3_Pin, &timestamp);
 8000c26:	750b      	strb	r3, [r1, #20]
  B4 = CreateBtn(BTN_4_GPIO_Port, BTN_4_Pin, &timestamp);
 8000c28:	7513      	strb	r3, [r2, #20]
  B1 = CreateBtn(BTN_1_GPIO_Port, BTN_1_Pin, &timestamp);
 8000c2a:	4b0a      	ldr	r3, [pc, #40]	@ (8000c54 <initbuttons+0x5c>)
  B4 = CreateBtn(BTN_4_GPIO_Port, BTN_4_Pin, &timestamp);
 8000c2c:	6055      	str	r5, [r2, #4]
  B1 = CreateBtn(BTN_1_GPIO_Port, BTN_1_Pin, &timestamp);
 8000c2e:	6023      	str	r3, [r4, #0]
  B2 = CreateBtn(BTN_2_GPIO_Port, BTN_2_Pin, &timestamp);
 8000c30:	6003      	str	r3, [r0, #0]
  B3 = CreateBtn(BTN_3_GPIO_Port, BTN_3_Pin, &timestamp);
 8000c32:	600b      	str	r3, [r1, #0]
  B4 = CreateBtn(BTN_4_GPIO_Port, BTN_4_Pin, &timestamp);
 8000c34:	6013      	str	r3, [r2, #0]
  B1 = CreateBtn(BTN_1_GPIO_Port, BTN_1_Pin, &timestamp);
 8000c36:	4b08      	ldr	r3, [pc, #32]	@ (8000c58 <initbuttons+0x60>)
 8000c38:	60a3      	str	r3, [r4, #8]
  B2 = CreateBtn(BTN_2_GPIO_Port, BTN_2_Pin, &timestamp);
 8000c3a:	6083      	str	r3, [r0, #8]
  B3 = CreateBtn(BTN_3_GPIO_Port, BTN_3_Pin, &timestamp);
 8000c3c:	608b      	str	r3, [r1, #8]
  B4 = CreateBtn(BTN_4_GPIO_Port, BTN_4_Pin, &timestamp);
 8000c3e:	6093      	str	r3, [r2, #8]
}
 8000c40:	bc30      	pop	{r4, r5}
 8000c42:	4770      	bx	lr
 8000c44:	200002ac 	.word	0x200002ac
 8000c48:	20000294 	.word	0x20000294
 8000c4c:	2000027c 	.word	0x2000027c
 8000c50:	20000264 	.word	0x20000264
 8000c54:	40010c00 	.word	0x40010c00
 8000c58:	2000025c 	.word	0x2000025c

08000c5c <getbatlvl>:
  if(Ub < 157) return 100; // bat to low, immediately shotdown code - 100
 8000c5c:	289c      	cmp	r0, #156	@ 0x9c
 8000c5e:	d91d      	bls.n	8000c9c <getbatlvl+0x40>
  Ub = clamp(Ub, 157, 241);
 8000c60:	28f1      	cmp	r0, #241	@ 0xf1
 8000c62:	4603      	mov	r3, r0
 8000c64:	bf28      	it	cs
 8000c66:	23f1      	movcs	r3, #241	@ 0xf1
  if((Ub <= Umax) && (Ub >= Umin)) return reslvl;
 8000c68:	4923      	ldr	r1, [pc, #140]	@ (8000cf8 <getbatlvl+0x9c>)
 8000c6a:	780a      	ldrb	r2, [r1, #0]
 8000c6c:	429a      	cmp	r2, r3
 8000c6e:	d303      	bcc.n	8000c78 <getbatlvl+0x1c>
 8000c70:	4a22      	ldr	r2, [pc, #136]	@ (8000cfc <getbatlvl+0xa0>)
 8000c72:	7812      	ldrb	r2, [r2, #0]
 8000c74:	429a      	cmp	r2, r3
 8000c76:	d913      	bls.n	8000ca0 <getbatlvl+0x44>
  uint8 lvl = (240 - Ub) / 14;
 8000c78:	4a21      	ldr	r2, [pc, #132]	@ (8000d00 <getbatlvl+0xa4>)
 8000c7a:	f1c0 00f0 	rsb	r0, r0, #240	@ 0xf0
 8000c7e:	fb82 3200 	smull	r3, r2, r2, r0
 8000c82:	17c3      	asrs	r3, r0, #31
 8000c84:	4402      	add	r2, r0
 8000c86:	ebc3 03e2 	rsb	r3, r3, r2, asr #3
    switch(lvl)
 8000c8a:	b2db      	uxtb	r3, r3
{
 8000c8c:	b430      	push	{r4, r5}
    switch(lvl)
 8000c8e:	2b05      	cmp	r3, #5
 8000c90:	d82e      	bhi.n	8000cf0 <getbatlvl+0x94>
 8000c92:	e8df f003 	tbb	[pc, r3]
 8000c96:	1208      	.short	0x1208
 8000c98:	221e1a16 	.word	0x221e1a16
  if(Ub < 157) return 100; // bat to low, immediately shotdown code - 100
 8000c9c:	2064      	movs	r0, #100	@ 0x64
}
 8000c9e:	4770      	bx	lr
  if((Ub <= Umax) && (Ub >= Umin)) return reslvl;
 8000ca0:	4b18      	ldr	r3, [pc, #96]	@ (8000d04 <getbatlvl+0xa8>)
 8000ca2:	7818      	ldrb	r0, [r3, #0]
 8000ca4:	4770      	bx	lr
      case 0: Umin = 220; Umax = 241; reslvl = 0; break;
 8000ca6:	2000      	movs	r0, #0
 8000ca8:	24dc      	movs	r4, #220	@ 0xdc
 8000caa:	23f1      	movs	r3, #241	@ 0xf1
      case 3: Umin = 178; Umax = 199; reslvl = 3; break;
 8000cac:	4a13      	ldr	r2, [pc, #76]	@ (8000cfc <getbatlvl+0xa0>)
 8000cae:	4d15      	ldr	r5, [pc, #84]	@ (8000d04 <getbatlvl+0xa8>)
 8000cb0:	7014      	strb	r4, [r2, #0]
 8000cb2:	7028      	strb	r0, [r5, #0]
 8000cb4:	700b      	strb	r3, [r1, #0]
}
 8000cb6:	bc30      	pop	{r4, r5}
 8000cb8:	4770      	bx	lr
      case 1: Umin = 206; Umax = 227; reslvl = 1; break;
 8000cba:	2001      	movs	r0, #1
 8000cbc:	24ce      	movs	r4, #206	@ 0xce
 8000cbe:	23e3      	movs	r3, #227	@ 0xe3
 8000cc0:	e7f4      	b.n	8000cac <getbatlvl+0x50>
      case 2: Umin = 192; Umax = 213; reslvl = 2; break;
 8000cc2:	2002      	movs	r0, #2
 8000cc4:	24c0      	movs	r4, #192	@ 0xc0
 8000cc6:	23d5      	movs	r3, #213	@ 0xd5
 8000cc8:	e7f0      	b.n	8000cac <getbatlvl+0x50>
      case 3: Umin = 178; Umax = 199; reslvl = 3; break;
 8000cca:	2003      	movs	r0, #3
 8000ccc:	24b2      	movs	r4, #178	@ 0xb2
 8000cce:	23c7      	movs	r3, #199	@ 0xc7
 8000cd0:	e7ec      	b.n	8000cac <getbatlvl+0x50>
      case 4: Umin = 164; Umax = 185; reslvl = 4; break;
 8000cd2:	2004      	movs	r0, #4
 8000cd4:	24a4      	movs	r4, #164	@ 0xa4
 8000cd6:	23b9      	movs	r3, #185	@ 0xb9
 8000cd8:	e7e8      	b.n	8000cac <getbatlvl+0x50>
      case 5: Umin = 157; Umax = 171; reslvl = 5; break;
 8000cda:	2005      	movs	r0, #5
 8000cdc:	f04f 0c9d 	mov.w	ip, #157	@ 0x9d
 8000ce0:	23ab      	movs	r3, #171	@ 0xab
 8000ce2:	4a06      	ldr	r2, [pc, #24]	@ (8000cfc <getbatlvl+0xa0>)
 8000ce4:	4c07      	ldr	r4, [pc, #28]	@ (8000d04 <getbatlvl+0xa8>)
 8000ce6:	f882 c000 	strb.w	ip, [r2]
 8000cea:	7020      	strb	r0, [r4, #0]
 8000cec:	700b      	strb	r3, [r1, #0]
  return reslvl;
 8000cee:	e7e2      	b.n	8000cb6 <getbatlvl+0x5a>
  if((Ub <= Umax) && (Ub >= Umin)) return reslvl;
 8000cf0:	4b04      	ldr	r3, [pc, #16]	@ (8000d04 <getbatlvl+0xa8>)
 8000cf2:	7818      	ldrb	r0, [r3, #0]
 8000cf4:	e7df      	b.n	8000cb6 <getbatlvl+0x5a>
 8000cf6:	bf00      	nop
 8000cf8:	20000001 	.word	0x20000001
 8000cfc:	20000000 	.word	0x20000000
 8000d00:	92492493 	.word	0x92492493
 8000d04:	2000024c 	.word	0x2000024c

08000d08 <ShutDownLB>:
{
 8000d08:	b508      	push	{r3, lr}
  LCD_bufupload_buferase();
 8000d0a:	f000 fb9b 	bl	8001444 <LCD_bufupload_buferase>
  LCD_printstr8x5((uint8*)"  !", 1, 0);
 8000d0e:	2200      	movs	r2, #0
 8000d10:	2101      	movs	r1, #1
 8000d12:	480d      	ldr	r0, [pc, #52]	@ (8000d48 <ShutDownLB+0x40>)
 8000d14:	f000 faf6 	bl	8001304 <LCD_printstr8x5>
  LCD_printstr8x5((uint8*)"", 3, 0);
 8000d18:	2200      	movs	r2, #0
 8000d1a:	2103      	movs	r1, #3
 8000d1c:	480b      	ldr	r0, [pc, #44]	@ (8000d4c <ShutDownLB+0x44>)
 8000d1e:	f000 faf1 	bl	8001304 <LCD_printstr8x5>
  LCD_printstr8x5((uint8*)" !", 5, 0);
 8000d22:	2200      	movs	r2, #0
 8000d24:	2105      	movs	r1, #5
 8000d26:	480a      	ldr	r0, [pc, #40]	@ (8000d50 <ShutDownLB+0x48>)
 8000d28:	f000 faec 	bl	8001304 <LCD_printstr8x5>
  LCD_bufupload_buferase();
 8000d2c:	f000 fb8a 	bl	8001444 <LCD_bufupload_buferase>
  HAL_Delay(1000);
 8000d30:	f44f 707a 	mov.w	r0, #1000	@ 0x3e8
 8000d34:	f004 fa54 	bl	80051e0 <HAL_Delay>
  HAL_GPIO_WritePin(SHUTDOWN_GPIO_Port, SHUTDOWN_Pin, RESET);
 8000d38:	2200      	movs	r2, #0
 8000d3a:	f44f 5100 	mov.w	r1, #8192	@ 0x2000
 8000d3e:	4805      	ldr	r0, [pc, #20]	@ (8000d54 <ShutDownLB+0x4c>)
 8000d40:	f004 ff78 	bl	8005c34 <HAL_GPIO_WritePin>
  while(1);
 8000d44:	e7fe      	b.n	8000d44 <ShutDownLB+0x3c>
 8000d46:	bf00      	nop
 8000d48:	08009bd0 	.word	0x08009bd0
 8000d4c:	08009be8 	.word	0x08009be8
 8000d50:	08009bf4 	.word	0x08009bf4
 8000d54:	40011000 	.word	0x40011000

08000d58 <batcheck>:
{
 8000d58:	b508      	push	{r3, lr}
  batlvl = getbatlvl(Ubat);
 8000d5a:	4b05      	ldr	r3, [pc, #20]	@ (8000d70 <batcheck+0x18>)
 8000d5c:	7818      	ldrb	r0, [r3, #0]
 8000d5e:	f7ff ff7d 	bl	8000c5c <getbatlvl>
 8000d62:	4b04      	ldr	r3, [pc, #16]	@ (8000d74 <batcheck+0x1c>)
  if(batlvl == 100) ShutDownLB();
 8000d64:	2864      	cmp	r0, #100	@ 0x64
  batlvl = getbatlvl(Ubat);
 8000d66:	7018      	strb	r0, [r3, #0]
  if(batlvl == 100) ShutDownLB();
 8000d68:	d000      	beq.n	8000d6c <batcheck+0x14>
}
 8000d6a:	bd08      	pop	{r3, pc}
  if(batlvl == 100) ShutDownLB();
 8000d6c:	f7ff ffcc 	bl	8000d08 <ShutDownLB>
 8000d70:	2000024f 	.word	0x2000024f
 8000d74:	2000024e 	.word	0x2000024e

08000d78 <ShutDown>:
{
 8000d78:	b508      	push	{r3, lr}
  LCD_bufupload_buferase();
 8000d7a:	f000 fb63 	bl	8001444 <LCD_bufupload_buferase>
  LCD_printstr8x5((uint8*)"...", 3, 0);
 8000d7e:	2200      	movs	r2, #0
 8000d80:	2103      	movs	r1, #3
 8000d82:	4808      	ldr	r0, [pc, #32]	@ (8000da4 <ShutDown+0x2c>)
 8000d84:	f000 fabe 	bl	8001304 <LCD_printstr8x5>
  LCD_bufupload_buferase();
 8000d88:	f000 fb5c 	bl	8001444 <LCD_bufupload_buferase>
  HAL_Delay(1000);
 8000d8c:	f44f 707a 	mov.w	r0, #1000	@ 0x3e8
 8000d90:	f004 fa26 	bl	80051e0 <HAL_Delay>
  HAL_GPIO_WritePin(SHUTDOWN_GPIO_Port, SHUTDOWN_Pin, RESET);
 8000d94:	2200      	movs	r2, #0
 8000d96:	f44f 5100 	mov.w	r1, #8192	@ 0x2000
 8000d9a:	4803      	ldr	r0, [pc, #12]	@ (8000da8 <ShutDown+0x30>)
 8000d9c:	f004 ff4a 	bl	8005c34 <HAL_GPIO_WritePin>
  while(1);
 8000da0:	e7fe      	b.n	8000da0 <ShutDown+0x28>
 8000da2:	bf00      	nop
 8000da4:	08009c08 	.word	0x08009c08
 8000da8:	40011000 	.word	0x40011000

08000dac <getbrightlvl>:
  brightlvl = ((brightPWM - 10) / 30) - 1;
 8000dac:	4a06      	ldr	r2, [pc, #24]	@ (8000dc8 <getbrightlvl+0x1c>)
 8000dae:	4b07      	ldr	r3, [pc, #28]	@ (8000dcc <getbrightlvl+0x20>)
 8000db0:	7812      	ldrb	r2, [r2, #0]
 8000db2:	4807      	ldr	r0, [pc, #28]	@ (8000dd0 <getbrightlvl+0x24>)
 8000db4:	3a0a      	subs	r2, #10
 8000db6:	43d1      	mvns	r1, r2
 8000db8:	fb83 c302 	smull	ip, r3, r3, r2
 8000dbc:	0fc9      	lsrs	r1, r1, #31
 8000dbe:	4413      	add	r3, r2
 8000dc0:	ebc1 1323 	rsb	r3, r1, r3, asr #4
 8000dc4:	7003      	strb	r3, [r0, #0]
}
 8000dc6:	4770      	bx	lr
 8000dc8:	2000000c 	.word	0x2000000c
 8000dcc:	88888889 	.word	0x88888889
 8000dd0:	2000024d 	.word	0x2000024d

08000dd4 <decbright>:
{
 8000dd4:	b538      	push	{r3, r4, r5, lr}
  if(brightPWM <= 40) brightPWM = 70; 
 8000dd6:	4c0d      	ldr	r4, [pc, #52]	@ (8000e0c <decbright+0x38>)
 8000dd8:	7823      	ldrb	r3, [r4, #0]
 8000dda:	2b28      	cmp	r3, #40	@ 0x28
 8000ddc:	d912      	bls.n	8000e04 <decbright+0x30>
  brightPWM -=30;
 8000dde:	3b1e      	subs	r3, #30
 8000de0:	b2db      	uxtb	r3, r3
		temp |= (uint32)byte;
 8000de2:	461d      	mov	r5, r3
	temp = HAL_RTCEx_BKUPRead(&hrtc, (1 + addr/2));
 8000de4:	2101      	movs	r1, #1
 8000de6:	480a      	ldr	r0, [pc, #40]	@ (8000e10 <decbright+0x3c>)
  brightPWM -=30;
 8000de8:	7023      	strb	r3, [r4, #0]
	temp = HAL_RTCEx_BKUPRead(&hrtc, (1 + addr/2));
 8000dea:	f005 fb5d 	bl	80064a8 <HAL_RTCEx_BKUPRead>
 8000dee:	4603      	mov	r3, r0
		temp &= 0x0000FF00;
 8000df0:	f403 437f 	and.w	r3, r3, #65280	@ 0xff00
		HAL_RTCEx_BKUPWrite(&hrtc, (1 + addr/2), temp);
 8000df4:	ea45 0203 	orr.w	r2, r5, r3
 8000df8:	2101      	movs	r1, #1
}
 8000dfa:	e8bd 4038 	ldmia.w	sp!, {r3, r4, r5, lr}
		HAL_RTCEx_BKUPWrite(&hrtc, (1 + addr/2), temp);
 8000dfe:	4804      	ldr	r0, [pc, #16]	@ (8000e10 <decbright+0x3c>)
 8000e00:	f005 bb4a 	b.w	8006498 <HAL_RTCEx_BKUPWrite>
 8000e04:	2528      	movs	r5, #40	@ 0x28
 8000e06:	462b      	mov	r3, r5
 8000e08:	e7ec      	b.n	8000de4 <decbright+0x10>
 8000e0a:	bf00      	nop
 8000e0c:	2000000c 	.word	0x2000000c
 8000e10:	200007d0 	.word	0x200007d0

08000e14 <incbright>:
{
 8000e14:	b538      	push	{r3, r4, r5, lr}
  if(brightPWM >= 250) brightPWM = 220; 
 8000e16:	4c0d      	ldr	r4, [pc, #52]	@ (8000e4c <incbright+0x38>)
 8000e18:	7823      	ldrb	r3, [r4, #0]
 8000e1a:	2bf9      	cmp	r3, #249	@ 0xf9
 8000e1c:	d812      	bhi.n	8000e44 <incbright+0x30>
  brightPWM +=30;
 8000e1e:	331e      	adds	r3, #30
 8000e20:	b2db      	uxtb	r3, r3
		temp |= (uint32)byte;
 8000e22:	461d      	mov	r5, r3
	temp = HAL_RTCEx_BKUPRead(&hrtc, (1 + addr/2));
 8000e24:	2101      	movs	r1, #1
 8000e26:	480a      	ldr	r0, [pc, #40]	@ (8000e50 <incbright+0x3c>)
  brightPWM +=30;
 8000e28:	7023      	strb	r3, [r4, #0]
	temp = HAL_RTCEx_BKUPRead(&hrtc, (1 + addr/2));
 8000e2a:	f005 fb3d 	bl	80064a8 <HAL_RTCEx_BKUPRead>
 8000e2e:	4603      	mov	r3, r0
		temp &= 0x0000FF00;
 8000e30:	f403 437f 	and.w	r3, r3, #65280	@ 0xff00
		HAL_RTCEx_BKUPWrite(&hrtc, (1 + addr/2), temp);
 8000e34:	ea45 0203 	orr.w	r2, r5, r3
 8000e38:	2101      	movs	r1, #1
}
 8000e3a:	e8bd 4038 	ldmia.w	sp!, {r3, r4, r5, lr}
		HAL_RTCEx_BKUPWrite(&hrtc, (1 + addr/2), temp);
 8000e3e:	4804      	ldr	r0, [pc, #16]	@ (8000e50 <incbright+0x3c>)
 8000e40:	f005 bb2a 	b.w	8006498 <HAL_RTCEx_BKUPWrite>
 8000e44:	25fa      	movs	r5, #250	@ 0xfa
 8000e46:	462b      	mov	r3, r5
 8000e48:	e7ec      	b.n	8000e24 <incbright+0x10>
 8000e4a:	bf00      	nop
 8000e4c:	2000000c 	.word	0x2000000c
 8000e50:	200007d0 	.word	0x200007d0

08000e54 <BrightPWMgen>:
{
 8000e54:	4603      	mov	r3, r0
	__HAL_TIM_SET_COMPARE(&htim1, TIM_CHANNEL_1, dutyCycle);
 8000e56:	4804      	ldr	r0, [pc, #16]	@ (8000e68 <BrightPWMgen+0x14>)
	uint16 dutyCycle = ((uint16)duty_cycle) * 255;
 8000e58:	ebc3 2303 	rsb	r3, r3, r3, lsl #8
	__HAL_TIM_SET_COMPARE(&htim1, TIM_CHANNEL_1, dutyCycle);
 8000e5c:	6802      	ldr	r2, [r0, #0]
	HAL_TIM_PWM_Start(&htim1, TIM_CHANNEL_1);
 8000e5e:	2100      	movs	r1, #0
	__HAL_TIM_SET_COMPARE(&htim1, TIM_CHANNEL_1, dutyCycle);
 8000e60:	6353      	str	r3, [r2, #52]	@ 0x34
	HAL_TIM_PWM_Start(&htim1, TIM_CHANNEL_1);
 8000e62:	f005 bdad 	b.w	80069c0 <HAL_TIM_PWM_Start>
 8000e66:	bf00      	nop
 8000e68:	200006d8 	.word	0x200006d8

08000e6c <Sounds>:
  for(uint16 i = 0; i < (15000/delay); i++)
 8000e6c:	f643 2398 	movw	r3, #15000	@ 0x3a98
{
 8000e70:	b5f0      	push	{r4, r5, r6, r7, lr}
  for(uint16 i = 0; i < (15000/delay); i++)
 8000e72:	4298      	cmp	r0, r3
 8000e74:	fbb3 f6f0 	udiv	r6, r3, r0
{
 8000e78:	b083      	sub	sp, #12
  for(uint16 i = 0; i < (15000/delay); i++)
 8000e7a:	d81e      	bhi.n	8000eba <Sounds+0x4e>
 8000e7c:	2500      	movs	r5, #0
    j = delay * 6;
 8000e7e:	eb00 0040 	add.w	r0, r0, r0, lsl #1
  	HAL_GPIO_WritePin(SOUND_OUT_GPIO_Port, SOUND_OUT_Pin, SET);
 8000e82:	4f0f      	ldr	r7, [pc, #60]	@ (8000ec0 <Sounds+0x54>)
    j = delay * 6;
 8000e84:	0044      	lsls	r4, r0, #1
  	HAL_GPIO_WritePin(SOUND_OUT_GPIO_Port, SOUND_OUT_Pin, SET);
 8000e86:	2201      	movs	r2, #1
 8000e88:	f44f 5180 	mov.w	r1, #4096	@ 0x1000
 8000e8c:	4638      	mov	r0, r7
 8000e8e:	f004 fed1 	bl	8005c34 <HAL_GPIO_WritePin>
    j = delay * 6;
 8000e92:	9401      	str	r4, [sp, #4]
    while(--j);
 8000e94:	9a01      	ldr	r2, [sp, #4]
 8000e96:	3a01      	subs	r2, #1
 8000e98:	9201      	str	r2, [sp, #4]
 8000e9a:	2a00      	cmp	r2, #0
 8000e9c:	d1fa      	bne.n	8000e94 <Sounds+0x28>
    HAL_GPIO_WritePin(SOUND_OUT_GPIO_Port, SOUND_OUT_Pin, RESET);
 8000e9e:	f44f 5180 	mov.w	r1, #4096	@ 0x1000
 8000ea2:	4638      	mov	r0, r7
 8000ea4:	f004 fec6 	bl	8005c34 <HAL_GPIO_WritePin>
    j = delay * 6;
 8000ea8:	9401      	str	r4, [sp, #4]
    while(--j);
 8000eaa:	9b01      	ldr	r3, [sp, #4]
 8000eac:	3b01      	subs	r3, #1
 8000eae:	9301      	str	r3, [sp, #4]
 8000eb0:	2b00      	cmp	r3, #0
 8000eb2:	d1fa      	bne.n	8000eaa <Sounds+0x3e>
  for(uint16 i = 0; i < (15000/delay); i++)
 8000eb4:	3501      	adds	r5, #1
 8000eb6:	42b5      	cmp	r5, r6
 8000eb8:	d3e5      	bcc.n	8000e86 <Sounds+0x1a>
}
 8000eba:	b003      	add	sp, #12
 8000ebc:	bdf0      	pop	{r4, r5, r6, r7, pc}
 8000ebe:	bf00      	nop
 8000ec0:	40010800 	.word	0x40010800

08000ec4 <RTC_SetCounter_>:
{
 8000ec4:	b410      	push	{r4}
  RCC->APB1ENR |= RCC_APB1ENR_PWREN | RCC_APB1ENR_BKPEN;            //  PWR  Backup
 8000ec6:	4c12      	ldr	r4, [pc, #72]	@ (8000f10 <RTC_SetCounter_+0x4c>)
  PWR->CR |= PWR_CR_DBP;                                            //   Backup 
 8000ec8:	4912      	ldr	r1, [pc, #72]	@ (8000f14 <RTC_SetCounter_+0x50>)
  RCC->APB1ENR |= RCC_APB1ENR_PWREN | RCC_APB1ENR_BKPEN;            //  PWR  Backup
 8000eca:	69e3      	ldr	r3, [r4, #28]
  while (!(RTC->CRL & RTC_CRL_RTOFF));                              //     RTC
 8000ecc:	4a12      	ldr	r2, [pc, #72]	@ (8000f18 <RTC_SetCounter_+0x54>)
  RCC->APB1ENR |= RCC_APB1ENR_PWREN | RCC_APB1ENR_BKPEN;            //  PWR  Backup
 8000ece:	f043 53c0 	orr.w	r3, r3, #402653184	@ 0x18000000
 8000ed2:	61e3      	str	r3, [r4, #28]
  PWR->CR |= PWR_CR_DBP;                                            //   Backup 
 8000ed4:	680b      	ldr	r3, [r1, #0]
 8000ed6:	f443 7380 	orr.w	r3, r3, #256	@ 0x100
 8000eda:	600b      	str	r3, [r1, #0]
  while (!(RTC->CRL & RTC_CRL_RTOFF));                              //     RTC
 8000edc:	6853      	ldr	r3, [r2, #4]
 8000ede:	0699      	lsls	r1, r3, #26
 8000ee0:	d5fc      	bpl.n	8000edc <RTC_SetCounter_+0x18>
  RTC->CRL |= RTC_CRL_CNF;                                          //    RTC
 8000ee2:	6853      	ldr	r3, [r2, #4]
  RTC->CNTH = count>>16;                                                              //    
 8000ee4:	0c01      	lsrs	r1, r0, #16
  RTC->CRL |= RTC_CRL_CNF;                                          //    RTC
 8000ee6:	f043 0310 	orr.w	r3, r3, #16
 8000eea:	6053      	str	r3, [r2, #4]
  RTC->CNTH = count>>16;                                                              //    
 8000eec:	6191      	str	r1, [r2, #24]
  RTC->CNTL = count;
 8000eee:	61d0      	str	r0, [r2, #28]
  RTC->CRL &= ~RTC_CRL_CNF;                                                       //    RTC
 8000ef0:	6853      	ldr	r3, [r2, #4]
  while (!(RTC->CRL & RTC_CRL_RTOFF));                                         //  
 8000ef2:	4909      	ldr	r1, [pc, #36]	@ (8000f18 <RTC_SetCounter_+0x54>)
  RTC->CRL &= ~RTC_CRL_CNF;                                                       //    RTC
 8000ef4:	f023 0310 	bic.w	r3, r3, #16
 8000ef8:	6053      	str	r3, [r2, #4]
  while (!(RTC->CRL & RTC_CRL_RTOFF));                                         //  
 8000efa:	684b      	ldr	r3, [r1, #4]
 8000efc:	069b      	lsls	r3, r3, #26
 8000efe:	d5fc      	bpl.n	8000efa <RTC_SetCounter_+0x36>
  PWR->CR &= ~PWR_CR_DBP;                                                         //   Backup 
 8000f00:	4a04      	ldr	r2, [pc, #16]	@ (8000f14 <RTC_SetCounter_+0x50>)
}
 8000f02:	bc10      	pop	{r4}
  PWR->CR &= ~PWR_CR_DBP;                                                         //   Backup 
 8000f04:	6813      	ldr	r3, [r2, #0]
 8000f06:	f423 7380 	bic.w	r3, r3, #256	@ 0x100
 8000f0a:	6013      	str	r3, [r2, #0]
}
 8000f0c:	4770      	bx	lr
 8000f0e:	bf00      	nop
 8000f10:	40021000 	.word	0x40021000
 8000f14:	40007000 	.word	0x40007000
 8000f18:	40002800 	.word	0x40002800

08000f1c <timer_to_cal>:
{
 8000f1c:	e92d 4ff0 	stmdb	sp!, {r4, r5, r6, r7, r8, r9, sl, fp, lr}
	a = ((timer + 43200) / (86400 >> 1)) + (2440587 <<1 ) + 1;
 8000f20:	f500 4e28 	add.w	lr, r0, #43008	@ 0xa800
	time = timer % SEC_A_DAY;
 8000f24:	4d41      	ldr	r5, [pc, #260]	@ (800102c <timer_to_cal+0x110>)
	a = ((timer + 43200) / (86400 >> 1)) + (2440587 <<1 ) + 1;
 8000f26:	f10e 0ec0 	add.w	lr, lr, #192	@ 0xc0
 8000f2a:	fba5 eb0e 	umull	lr, fp, r5, lr
 8000f2e:	4a40      	ldr	r2, [pc, #256]	@ (8001030 <timer_to_cal+0x114>)
	time = timer % SEC_A_DAY;
 8000f30:	fba5 e500 	umull	lr, r5, r5, r0
	RTCdat->weekday = a % 7;
 8000f34:	4b3f      	ldr	r3, [pc, #252]	@ (8001034 <timer_to_cal+0x118>)
	a = ((timer + 43200) / (86400 >> 1)) + (2440587 <<1 ) + 1;
 8000f36:	eb02 32db 	add.w	r2, r2, fp, lsr #15
	a >>= 1;
 8000f3a:	0852      	lsrs	r2, r2, #1
	RTCdat->weekday = a % 7;
 8000f3c:	fba3 e302 	umull	lr, r3, r3, r2
	time = timer % SEC_A_DAY;
 8000f40:	f8df e0f4 	ldr.w	lr, [pc, #244]	@ 8001038 <timer_to_cal+0x11c>
 8000f44:	0c2d      	lsrs	r5, r5, #16
 8000f46:	fb0e 0515 	mls	r5, lr, r5, r0
	RTCdat->min = (time % 3600) / 60;
 8000f4a:	4e3c      	ldr	r6, [pc, #240]	@ (800103c <timer_to_cal+0x120>)
	a += 32044;
 8000f4c:	f502 4efa 	add.w	lr, r2, #32000	@ 0x7d00
 8000f50:	f10e 0e2c 	add.w	lr, lr, #44	@ 0x2c
	RTCdat->min = (time % 3600) / 60;
 8000f54:	fba6 0605 	umull	r0, r6, r6, r5
	b = (4 * a + 3) / 146097;
 8000f58:	f8df 90e4 	ldr.w	r9, [pc, #228]	@ 8001040 <timer_to_cal+0x124>
 8000f5c:	ea4f 008e 	mov.w	r0, lr, lsl #2
 8000f60:	3003      	adds	r0, #3
 8000f62:	fba9 9000 	umull	r9, r0, r9, r0
	a = a - (146097 * b) / 4;
 8000f66:	4f37      	ldr	r7, [pc, #220]	@ (8001044 <timer_to_cal+0x128>)
	b = (4 * a + 3) / 146097;
 8000f68:	0bc0      	lsrs	r0, r0, #15
	a = a - (146097 * b) / 4;
 8000f6a:	fb00 f707 	mul.w	r7, r0, r7
 8000f6e:	ebae 0797 	sub.w	r7, lr, r7, lsr #2
	c = (4 * a + 3) / 1461;
 8000f72:	f8df 80d4 	ldr.w	r8, [pc, #212]	@ 8001048 <timer_to_cal+0x12c>
 8000f76:	ea4f 0e87 	mov.w	lr, r7, lsl #2
 8000f7a:	f10e 0e03 	add.w	lr, lr, #3
 8000f7e:	fba8 8e0e 	umull	r8, lr, r8, lr
	RTCdat->year = 100 * b + c - 4800 + (d / 10);
 8000f82:	f04f 0864 	mov.w	r8, #100	@ 0x64
	a = a - (1461 * c) / 4;
 8000f86:	f3ce 1ec7 	ubfx	lr, lr, #7, #8
	RTCdat->year = 100 * b + c - 4800 + (d / 10);
 8000f8a:	fb08 e000 	mla	r0, r8, r0, lr
	a = a - (1461 * c) / 4;
 8000f8e:	f240 58b5 	movw	r8, #1461	@ 0x5b5
	RTCdat->min = (time % 3600) / 60;
 8000f92:	f44f 6a61 	mov.w	sl, #3600	@ 0xe10
	RTCdat->sec = (time % 3600) % 60;
 8000f96:	f04f 0c00 	mov.w	ip, #0
	a = a - (1461 * c) / 4;
 8000f9a:	fb08 fe0e 	mul.w	lr, r8, lr
 8000f9e:	eba7 0eae 	sub.w	lr, r7, lr, asr #2
	d = (5 * a + 2) / 153;
 8000fa2:	f8df 80a8 	ldr.w	r8, [pc, #168]	@ 800104c <timer_to_cal+0x130>
 8000fa6:	eb0e 078e 	add.w	r7, lr, lr, lsl #2
 8000faa:	3702      	adds	r7, #2
 8000fac:	fba8 8707 	umull	r8, r7, r8, r7
	RTCdat->min = (time % 3600) / 60;
 8000fb0:	ea4f 28d6 	mov.w	r8, r6, lsr #11
 8000fb4:	fb0a 5818 	mls	r8, sl, r8, r5
	RTCdat->sec = (time % 3600) % 60;
 8000fb8:	4d25      	ldr	r5, [pc, #148]	@ (8001050 <timer_to_cal+0x134>)
	d = (5 * a + 2) / 153;
 8000fba:	f3c7 17c7 	ubfx	r7, r7, #7, #8
	RTCdat->sec = (time % 3600) % 60;
 8000fbe:	fba5 5908 	umull	r5, r9, r5, r8
	RTCdat->day = a - (153 * d + 2) / 5 + 1;
 8000fc2:	eb07 05c7 	add.w	r5, r7, r7, lsl #3
	RTCdat->month = d + 3 - 12 * (d / 10);
 8000fc6:	4c23      	ldr	r4, [pc, #140]	@ (8001054 <timer_to_cal+0x138>)
	RTCdat->day = a - (153 * d + 2) / 5 + 1;
 8000fc8:	eb05 1505 	add.w	r5, r5, r5, lsl #4
 8000fcc:	3502      	adds	r5, #2
 8000fce:	fba4 a505 	umull	sl, r5, r4, r5
 8000fd2:	f10e 0e01 	add.w	lr, lr, #1
 8000fd6:	ebae 0595 	sub.w	r5, lr, r5, lsr #2
	RTCdat->month = d + 3 - 12 * (d / 10);
 8000fda:	fba4 e407 	umull	lr, r4, r4, r7
	RTCdat->year = 100 * b + c - 4800 + (d / 10);
 8000fde:	f5a0 5096 	sub.w	r0, r0, #4800	@ 0x12c0
	RTCdat->month = d + 3 - 12 * (d / 10);
 8000fe2:	08e4      	lsrs	r4, r4, #3
	RTCdat->year = 100 * b + c - 4800 + (d / 10);
 8000fe4:	4420      	add	r0, r4
	RTCdat->sec = (time % 3600) % 60;
 8000fe6:	ea4f 1959 	mov.w	r9, r9, lsr #5
	RTCdat->year = 100 * b + c - 4800 + (d / 10);
 8000fea:	6088      	str	r0, [r1, #8]
	RTCdat->sec = (time % 3600) % 60;
 8000fec:	ebc9 1009 	rsb	r0, r9, r9, lsl #4
 8000ff0:	eba8 0880 	sub.w	r8, r8, r0, lsl #2
	RTCdat->weekday = a % 7;
 8000ff4:	1ad0      	subs	r0, r2, r3
	RTCdat->sec = (time % 3600) % 60;
 8000ff6:	f368 0c07 	bfi	ip, r8, #0, #8
	RTCdat->weekday = a % 7;
 8000ffa:	eb03 0350 	add.w	r3, r3, r0, lsr #1
	RTCdat->hour = time / 3600;
 8000ffe:	0af6      	lsrs	r6, r6, #11
	RTCdat->sec = (time % 3600) % 60;
 8001000:	f369 2c0f 	bfi	ip, r9, #8, #8
	RTCdat->weekday = a % 7;
 8001004:	089b      	lsrs	r3, r3, #2
	RTCdat->month = d + 3 - 12 * (d / 10);
 8001006:	3703      	adds	r7, #3
 8001008:	eba4 0484 	sub.w	r4, r4, r4, lsl #2
	RTCdat->sec = (time % 3600) % 60;
 800100c:	f366 4c17 	bfi	ip, r6, #16, #8
	RTCdat->weekday = a % 7;
 8001010:	ebc3 03c3 	rsb	r3, r3, r3, lsl #3
	RTCdat->month = d + 3 - 12 * (d / 10);
 8001014:	eb07 0784 	add.w	r7, r7, r4, lsl #2
	RTCdat->sec = (time % 3600) % 60;
 8001018:	f365 6c1f 	bfi	ip, r5, #24, #8
	RTCdat->weekday = a % 7;
 800101c:	1ad2      	subs	r2, r2, r3
	RTCdat->month = d + 3 - 12 * (d / 10);
 800101e:	714f      	strb	r7, [r1, #5]
	RTCdat->sec = (time % 3600) % 60;
 8001020:	f8c1 c000 	str.w	ip, [r1]
	RTCdat->weekday = a % 7;
 8001024:	710a      	strb	r2, [r1, #4]
}
 8001026:	e8bd 8ff0 	ldmia.w	sp!, {r4, r5, r6, r7, r8, r9, sl, fp, pc}
 800102a:	bf00      	nop
 800102c:	c22e4507 	.word	0xc22e4507
 8001030:	004a7b17 	.word	0x004a7b17
 8001034:	24924925 	.word	0x24924925
 8001038:	00015180 	.word	0x00015180
 800103c:	91a2b3c5 	.word	0x91a2b3c5
 8001040:	396b06bd 	.word	0x396b06bd
 8001044:	00023ab1 	.word	0x00023ab1
 8001048:	166db073 	.word	0x166db073
 800104c:	d62b80d7 	.word	0xd62b80d7
 8001050:	88888889 	.word	0x88888889
 8001054:	cccccccd 	.word	0xcccccccd

08001058 <cal_to_timer>:
	a = ((14 - RTCdat->month) / 12);
 8001058:	7943      	ldrb	r3, [r0, #5]
{
 800105a:	b570      	push	{r4, r5, r6, lr}
	a = ((14 - RTCdat->month) / 12);
 800105c:	4d21      	ldr	r5, [pc, #132]	@ (80010e4 <cal_to_timer+0x8c>)
 800105e:	f1c3 0c0e 	rsb	ip, r3, #14
 8001062:	fb85 650c 	smull	r6, r5, r5, ip
	y = RTCdat->year + 4800 - a;
 8001066:	6882      	ldr	r2, [r0, #8]
	a = ((14 - RTCdat->month) / 12);
 8001068:	ea4f 7cec 	mov.w	ip, ip, asr #31
 800106c:	ebcc 0c65 	rsb	ip, ip, r5, asr #1
	y = RTCdat->year + 4800 - a;
 8001070:	f502 5296 	add.w	r2, r2, #4800	@ 0x12c0
 8001074:	eba2 020c 	sub.w	r2, r2, ip
	m = RTCdat->month + (12 * a) - 3;
 8001078:	3b03      	subs	r3, #3
 800107a:	eb0c 0c4c 	add.w	ip, ip, ip, lsl #1
 800107e:	eb03 038c 	add.w	r3, r3, ip, lsl #2
	Uday = (RTCdat->day + ((153 * m + 2) / 5) + 365 * y + (y / 4) - (y / 100) + (y / 400) - 32045) - 2440588;
 8001082:	eb03 03c3 	add.w	r3, r3, r3, lsl #3
 8001086:	f240 1e6d 	movw	lr, #365	@ 0x16d
 800108a:	4c17      	ldr	r4, [pc, #92]	@ (80010e8 <cal_to_timer+0x90>)
 800108c:	eb03 1303 	add.w	r3, r3, r3, lsl #4
 8001090:	3302      	adds	r3, #2
 8001092:	fba4 4303 	umull	r4, r3, r4, r3
 8001096:	4915      	ldr	r1, [pc, #84]	@ (80010ec <cal_to_timer+0x94>)
 8001098:	78c4      	ldrb	r4, [r0, #3]
 800109a:	2a00      	cmp	r2, #0
 800109c:	4421      	add	r1, r4
 800109e:	bfa8      	it	ge
 80010a0:	4614      	movge	r4, r2
	time += RTCdat->sec + RTCdat->min * 60 + RTCdat->hour * 3600;
 80010a2:	f44f 6c61 	mov.w	ip, #3600	@ 0xe10
	Uday = (RTCdat->day + ((153 * m + 2) / 5) + 365 * y + (y / 4) - (y / 100) + (y / 400) - 32045) - 2440588;
 80010a6:	eb01 0193 	add.w	r1, r1, r3, lsr #2
 80010aa:	fb0e 1102 	mla	r1, lr, r2, r1
 80010ae:	4b10      	ldr	r3, [pc, #64]	@ (80010f0 <cal_to_timer+0x98>)
 80010b0:	bfb8      	it	lt
 80010b2:	1cd4      	addlt	r4, r2, #3
 80010b4:	fb83 3502 	smull	r3, r5, r3, r2
	time += RTCdat->sec + RTCdat->min * 60 + RTCdat->hour * 3600;
 80010b8:	7843      	ldrb	r3, [r0, #1]
	Uday = (RTCdat->day + ((153 * m + 2) / 5) + 365 * y + (y / 4) - (y / 100) + (y / 400) - 32045) - 2440588;
 80010ba:	eb01 01a4 	add.w	r1, r1, r4, asr #2
	time += RTCdat->sec + RTCdat->min * 60 + RTCdat->hour * 3600;
 80010be:	ebc3 1403 	rsb	r4, r3, r3, lsl #4
 80010c2:	7803      	ldrb	r3, [r0, #0]
 80010c4:	7880      	ldrb	r0, [r0, #2]
 80010c6:	eb03 0384 	add.w	r3, r3, r4, lsl #2
 80010ca:	fb0c 3300 	mla	r3, ip, r0, r3
	Uday = (RTCdat->day + ((153 * m + 2) / 5) + 365 * y + (y / 4) - (y / 100) + (y / 400) - 32045) - 2440588;
 80010ce:	17d2      	asrs	r2, r2, #31
 80010d0:	ebc2 10e5 	rsb	r0, r2, r5, asr #7
 80010d4:	4401      	add	r1, r0
 80010d6:	ebc2 1265 	rsb	r2, r2, r5, asr #5
	time = Uday * 86400;
 80010da:	4806      	ldr	r0, [pc, #24]	@ (80010f4 <cal_to_timer+0x9c>)
	Uday = (RTCdat->day + ((153 * m + 2) / 5) + 365 * y + (y / 4) - (y / 100) + (y / 400) - 32045) - 2440588;
 80010dc:	1a89      	subs	r1, r1, r2
}
 80010de:	fb00 3001 	mla	r0, r0, r1, r3
 80010e2:	bd70      	pop	{r4, r5, r6, pc}
 80010e4:	2aaaaaab 	.word	0x2aaaaaab
 80010e8:	cccccccd 	.word	0xcccccccd
 80010ec:	ffda4547 	.word	0xffda4547
 80010f0:	51eb851f 	.word	0x51eb851f
 80010f4:	00015180 	.word	0x00015180

080010f8 <RTCgetdata>:
          return  (uint32)((RTC->CNTH << 16) | RTC->CNTL);
 80010f8:	4b03      	ldr	r3, [pc, #12]	@ (8001108 <RTCgetdata+0x10>)
{
 80010fa:	4601      	mov	r1, r0
          return  (uint32)((RTC->CNTH << 16) | RTC->CNTL);
 80010fc:	6998      	ldr	r0, [r3, #24]
 80010fe:	69db      	ldr	r3, [r3, #28]
	timer_to_cal (RTC_GetCounter_(), RTCdat);
 8001100:	ea43 4000 	orr.w	r0, r3, r0, lsl #16
 8001104:	f7ff bf0a 	b.w	8000f1c <timer_to_cal>
 8001108:	40002800 	.word	0x40002800

0800110c <RTCsenddata>:
{
 800110c:	b508      	push	{r3, lr}
	RTC_SetCounter_(cal_to_timer(RTCdat));
 800110e:	f7ff ffa3 	bl	8001058 <cal_to_timer>
}
 8001112:	e8bd 4008 	ldmia.w	sp!, {r3, lr}
	RTC_SetCounter_(cal_to_timer(RTCdat));
 8001116:	f7ff bed5 	b.w	8000ec4 <RTC_SetCounter_>
 800111a:	bf00      	nop

0800111c <TestBtn>:
{
 800111c:	b510      	push	{r4, lr}
  if (!HAL_GPIO_ReadPin(btn->Port, btn->Pin) && !btn->BtnFl && ((*(btn->timecounter) - btn->btnTimer) > 30)) {
 800111e:	8881      	ldrh	r1, [r0, #4]
{
 8001120:	4604      	mov	r4, r0
  if (!HAL_GPIO_ReadPin(btn->Port, btn->Pin) && !btn->BtnFl && ((*(btn->timecounter) - btn->btnTimer) > 30)) {
 8001122:	6800      	ldr	r0, [r0, #0]
 8001124:	f004 fd80 	bl	8005c28 <HAL_GPIO_ReadPin>
 8001128:	b910      	cbnz	r0, 8001130 <TestBtn+0x14>
 800112a:	7c23      	ldrb	r3, [r4, #16]
 800112c:	2b00      	cmp	r3, #0
 800112e:	d042      	beq.n	80011b6 <TestBtn+0x9a>
  if (HAL_GPIO_ReadPin(btn->Port, btn->Pin) && ((*(btn->timecounter) - btn->btnTimer) > 30)) {
 8001130:	88a1      	ldrh	r1, [r4, #4]
 8001132:	6820      	ldr	r0, [r4, #0]
 8001134:	f004 fd78 	bl	8005c28 <HAL_GPIO_ReadPin>
 8001138:	b128      	cbz	r0, 8001146 <TestBtn+0x2a>
 800113a:	e9d4 2302 	ldrd	r2, r3, [r4, #8]
 800113e:	6812      	ldr	r2, [r2, #0]
 8001140:	1ad3      	subs	r3, r2, r3
 8001142:	2b1e      	cmp	r3, #30
 8001144:	d831      	bhi.n	80011aa <TestBtn+0x8e>
  if (!HAL_GPIO_ReadPin(btn->Port, btn->Pin) && btn->BtnFl && ((*(btn->timecounter) - btn->btnTimer) > BTN_HOLD_ON_DELAY) && ((*(btn->timecounter) - btn->btnTimer) <= BTN_STUCK_ON_DELAY)) {
 8001146:	88a1      	ldrh	r1, [r4, #4]
 8001148:	6820      	ldr	r0, [r4, #0]
 800114a:	f004 fd6d 	bl	8005c28 <HAL_GPIO_ReadPin>
 800114e:	b908      	cbnz	r0, 8001154 <TestBtn+0x38>
 8001150:	7c23      	ldrb	r3, [r4, #16]
 8001152:	b9b3      	cbnz	r3, 8001182 <TestBtn+0x66>
  if (!HAL_GPIO_ReadPin(btn->Port, btn->Pin) && btn->BtnFl && ((*(btn->timecounter) - btn->btnTimer) > BTN_STUCK_ON_DELAY)) {
 8001154:	88a1      	ldrh	r1, [r4, #4]
 8001156:	6820      	ldr	r0, [r4, #0]
 8001158:	f004 fd66 	bl	8005c28 <HAL_GPIO_ReadPin>
 800115c:	b980      	cbnz	r0, 8001180 <TestBtn+0x64>
 800115e:	7c23      	ldrb	r3, [r4, #16]
 8001160:	b173      	cbz	r3, 8001180 <TestBtn+0x64>
 8001162:	68a3      	ldr	r3, [r4, #8]
 8001164:	4a1d      	ldr	r2, [pc, #116]	@ (80011dc <TestBtn+0xc0>)
 8001166:	681b      	ldr	r3, [r3, #0]
 8001168:	68e1      	ldr	r1, [r4, #12]
 800116a:	6812      	ldr	r2, [r2, #0]
 800116c:	1a5b      	subs	r3, r3, r1
 800116e:	4293      	cmp	r3, r2
 8001170:	d906      	bls.n	8001180 <TestBtn+0x64>
    btn->HoldON = 0;
 8001172:	f44f 7280 	mov.w	r2, #256	@ 0x100
    if(btn->Toggle) btn->Toggle = 0; 
 8001176:	7ca3      	ldrb	r3, [r4, #18]
    btn->HoldON = 0;
 8001178:	f8a4 2013 	strh.w	r2, [r4, #19]
    if(btn->Toggle) btn->Toggle = 0; 
 800117c:	b35b      	cbz	r3, 80011d6 <TestBtn+0xba>
 800117e:	74a0      	strb	r0, [r4, #18]
}
 8001180:	bd10      	pop	{r4, pc}
  if (!HAL_GPIO_ReadPin(btn->Port, btn->Pin) && btn->BtnFl && ((*(btn->timecounter) - btn->btnTimer) > BTN_HOLD_ON_DELAY) && ((*(btn->timecounter) - btn->btnTimer) <= BTN_STUCK_ON_DELAY)) {
 8001182:	68a3      	ldr	r3, [r4, #8]
 8001184:	4a16      	ldr	r2, [pc, #88]	@ (80011e0 <TestBtn+0xc4>)
 8001186:	681b      	ldr	r3, [r3, #0]
 8001188:	68e1      	ldr	r1, [r4, #12]
 800118a:	6812      	ldr	r2, [r2, #0]
 800118c:	1a5b      	subs	r3, r3, r1
 800118e:	4293      	cmp	r3, r2
 8001190:	d9e0      	bls.n	8001154 <TestBtn+0x38>
 8001192:	4a12      	ldr	r2, [pc, #72]	@ (80011dc <TestBtn+0xc0>)
 8001194:	6812      	ldr	r2, [r2, #0]
 8001196:	4293      	cmp	r3, r2
 8001198:	d8dc      	bhi.n	8001154 <TestBtn+0x38>
    btn->HoldON = 1;
 800119a:	2301      	movs	r3, #1
    if(btn->Toggle) btn->Toggle = 0; 
 800119c:	7ca2      	ldrb	r2, [r4, #18]
    btn->HoldON = 1;
 800119e:	74e3      	strb	r3, [r4, #19]
    if(btn->Toggle) btn->Toggle = 0; 
 80011a0:	2a00      	cmp	r2, #0
 80011a2:	bf08      	it	eq
 80011a4:	4618      	moveq	r0, r3
 80011a6:	74a0      	strb	r0, [r4, #18]
 80011a8:	e7d4      	b.n	8001154 <TestBtn+0x38>
    btn->BtnFl = 0;
 80011aa:	2300      	movs	r3, #0
    btn->btnTimer = *(btn->timecounter);
 80011ac:	60e2      	str	r2, [r4, #12]
    btn->BtnFl = 0;
 80011ae:	7423      	strb	r3, [r4, #16]
    btn->HoldON = 0;
 80011b0:	f8a4 3013 	strh.w	r3, [r4, #19]
    btn->btnTimer = *(btn->timecounter);
 80011b4:	e7c7      	b.n	8001146 <TestBtn+0x2a>
  if (!HAL_GPIO_ReadPin(btn->Port, btn->Pin) && !btn->BtnFl && ((*(btn->timecounter) - btn->btnTimer) > 30)) {
 80011b6:	e9d4 2302 	ldrd	r2, r3, [r4, #8]
 80011ba:	6812      	ldr	r2, [r2, #0]
 80011bc:	1ad3      	subs	r3, r2, r3
 80011be:	2b1e      	cmp	r3, #30
 80011c0:	d9b6      	bls.n	8001130 <TestBtn+0x14>
    if(btn->Toggle) btn->Toggle = 0; 
 80011c2:	7ca3      	ldrb	r3, [r4, #18]
    btn->BtnFl = 1;
 80011c4:	f240 1101 	movw	r1, #257	@ 0x101
    if(btn->Toggle) btn->Toggle = 0; 
 80011c8:	fab3 f383 	clz	r3, r3
 80011cc:	095b      	lsrs	r3, r3, #5
    btn->btnTimer = *(btn->timecounter); 
 80011ce:	60e2      	str	r2, [r4, #12]
    btn->BtnFl = 1;
 80011d0:	8221      	strh	r1, [r4, #16]
    if(btn->Toggle) btn->Toggle = 0; 
 80011d2:	74a3      	strb	r3, [r4, #18]
    btn->BtnON = 1;
 80011d4:	e7ac      	b.n	8001130 <TestBtn+0x14>
    else btn->Toggle = 1;
 80011d6:	2301      	movs	r3, #1
 80011d8:	74a3      	strb	r3, [r4, #18]
}
 80011da:	bd10      	pop	{r4, pc}
 80011dc:	20000004 	.word	0x20000004
 80011e0:	20000008 	.word	0x20000008

080011e4 <checkjoydir>:
    if(joystick.oy > 150 && joystick.joyFl == 0) {
 80011e4:	4b21      	ldr	r3, [pc, #132]	@ (800126c <checkjoydir+0x88>)
 80011e6:	789a      	ldrb	r2, [r3, #2]
    if(joystick.ox > 150 && joystick.joyFl == 0) {
 80011e8:	7859      	ldrb	r1, [r3, #1]
    if(joystick.oy > 150 && joystick.joyFl == 0) {
 80011ea:	2a96      	cmp	r2, #150	@ 0x96
 80011ec:	d922      	bls.n	8001234 <checkjoydir+0x50>
 80011ee:	781a      	ldrb	r2, [r3, #0]
 80011f0:	06d0      	lsls	r0, r2, #27
 80011f2:	d41e      	bmi.n	8001232 <checkjoydir+0x4e>
        joystick.up = 1; 
 80011f4:	f022 0211 	bic.w	r2, r2, #17
 80011f8:	f042 0211 	orr.w	r2, r2, #17
    if(joystick.ox > 150 && joystick.joyFl == 0) {
 80011fc:	2996      	cmp	r1, #150	@ 0x96
        joystick.up = 1; 
 80011fe:	701a      	strb	r2, [r3, #0]
    if(joystick.ox > 150 && joystick.joyFl == 0) {
 8001200:	d92f      	bls.n	8001262 <checkjoydir+0x7e>
 8001202:	781a      	ldrb	r2, [r3, #0]
 8001204:	06d0      	lsls	r0, r2, #27
 8001206:	d430      	bmi.n	800126a <checkjoydir+0x86>
        joystick.right = 1; 
 8001208:	f022 0218 	bic.w	r2, r2, #24
 800120c:	f042 0218 	orr.w	r2, r2, #24
 8001210:	701a      	strb	r2, [r3, #0]
    if(joystick.oy < 150 && joystick.oy > 100 && joystick.ox < 150 && joystick.ox > 100) joystick.joyFl = 0;
 8001212:	4770      	bx	lr
    if(joystick.ox > 150 && joystick.joyFl == 0) {
 8001214:	2996      	cmp	r1, #150	@ 0x96
 8001216:	d8f4      	bhi.n	8001202 <checkjoydir+0x1e>
    if(joystick.ox < 100 && joystick.joyFl == 0) {
 8001218:	2963      	cmp	r1, #99	@ 0x63
 800121a:	d919      	bls.n	8001250 <checkjoydir+0x6c>
    if(joystick.oy < 150 && joystick.oy > 100 && joystick.ox < 150 && joystick.ox > 100) joystick.joyFl = 0;
 800121c:	3a65      	subs	r2, #101	@ 0x65
 800121e:	2a30      	cmp	r2, #48	@ 0x30
 8001220:	d807      	bhi.n	8001232 <checkjoydir+0x4e>
 8001222:	2996      	cmp	r1, #150	@ 0x96
 8001224:	d005      	beq.n	8001232 <checkjoydir+0x4e>
 8001226:	2964      	cmp	r1, #100	@ 0x64
 8001228:	d003      	beq.n	8001232 <checkjoydir+0x4e>
 800122a:	781a      	ldrb	r2, [r3, #0]
 800122c:	f36f 1204 	bfc	r2, #4, #1
 8001230:	701a      	strb	r2, [r3, #0]
}
 8001232:	4770      	bx	lr
    if(joystick.oy < 100 && joystick.joyFl == 0) {
 8001234:	2a63      	cmp	r2, #99	@ 0x63
 8001236:	d8ed      	bhi.n	8001214 <checkjoydir+0x30>
 8001238:	781a      	ldrb	r2, [r3, #0]
 800123a:	06d0      	lsls	r0, r2, #27
 800123c:	d4f9      	bmi.n	8001232 <checkjoydir+0x4e>
        joystick.down = 1; 
 800123e:	f022 0212 	bic.w	r2, r2, #18
 8001242:	f042 0212 	orr.w	r2, r2, #18
    if(joystick.ox > 150 && joystick.joyFl == 0) {
 8001246:	2996      	cmp	r1, #150	@ 0x96
        joystick.down = 1; 
 8001248:	701a      	strb	r2, [r3, #0]
    if(joystick.ox > 150 && joystick.joyFl == 0) {
 800124a:	d8da      	bhi.n	8001202 <checkjoydir+0x1e>
    if(joystick.ox < 100 && joystick.joyFl == 0) {
 800124c:	2963      	cmp	r1, #99	@ 0x63
 800124e:	d8f0      	bhi.n	8001232 <checkjoydir+0x4e>
 8001250:	781a      	ldrb	r2, [r3, #0]
 8001252:	06d1      	lsls	r1, r2, #27
 8001254:	d408      	bmi.n	8001268 <checkjoydir+0x84>
        joystick.left = 1; 
 8001256:	f022 0214 	bic.w	r2, r2, #20
 800125a:	f042 0214 	orr.w	r2, r2, #20
 800125e:	701a      	strb	r2, [r3, #0]
    if(joystick.oy < 150 && joystick.oy > 100 && joystick.ox < 150 && joystick.ox > 100) joystick.joyFl = 0;
 8001260:	4770      	bx	lr
    if(joystick.ox < 100 && joystick.joyFl == 0) {
 8001262:	2963      	cmp	r1, #99	@ 0x63
 8001264:	d9f4      	bls.n	8001250 <checkjoydir+0x6c>
 8001266:	4770      	bx	lr
 8001268:	4770      	bx	lr
 800126a:	4770      	bx	lr
 800126c:	20000260 	.word	0x20000260

08001270 <check_btn_jstk>:
{
 8001270:	b508      	push	{r3, lr}
  TestBtn(&B1);
 8001272:	4808      	ldr	r0, [pc, #32]	@ (8001294 <check_btn_jstk+0x24>)
 8001274:	f7ff ff52 	bl	800111c <TestBtn>
  TestBtn(&B2);
 8001278:	4807      	ldr	r0, [pc, #28]	@ (8001298 <check_btn_jstk+0x28>)
 800127a:	f7ff ff4f 	bl	800111c <TestBtn>
  TestBtn(&B3);
 800127e:	4807      	ldr	r0, [pc, #28]	@ (800129c <check_btn_jstk+0x2c>)
 8001280:	f7ff ff4c 	bl	800111c <TestBtn>
  TestBtn(&B4);
 8001284:	4806      	ldr	r0, [pc, #24]	@ (80012a0 <check_btn_jstk+0x30>)
 8001286:	f7ff ff49 	bl	800111c <TestBtn>
}
 800128a:	e8bd 4008 	ldmia.w	sp!, {r3, lr}
  checkjoydir();
 800128e:	f7ff bfa9 	b.w	80011e4 <checkjoydir>
 8001292:	bf00      	nop
 8001294:	200002ac 	.word	0x200002ac
 8001298:	20000294 	.word	0x20000294
 800129c:	2000027c 	.word	0x2000027c
 80012a0:	20000264 	.word	0x20000264

080012a4 <EEPROM_writebyte>:
{
 80012a4:	b570      	push	{r4, r5, r6, lr}
 80012a6:	4605      	mov	r5, r0
	temp = HAL_RTCEx_BKUPRead(&hrtc, (1 + addr/2));
 80012a8:	086c      	lsrs	r4, r5, #1
 80012aa:	3401      	adds	r4, #1
{
 80012ac:	460e      	mov	r6, r1
	temp = HAL_RTCEx_BKUPRead(&hrtc, (1 + addr/2));
 80012ae:	480c      	ldr	r0, [pc, #48]	@ (80012e0 <EEPROM_writebyte+0x3c>)
 80012b0:	4621      	mov	r1, r4
 80012b2:	f005 f8f9 	bl	80064a8 <HAL_RTCEx_BKUPRead>
	if(addr % 2) {
 80012b6:	07eb      	lsls	r3, r5, #31
 80012b8:	d508      	bpl.n	80012cc <EEPROM_writebyte+0x28>
		temp &= 0x000000FF;
 80012ba:	b2c2      	uxtb	r2, r0
		HAL_RTCEx_BKUPWrite(&hrtc, (1 + addr/2), temp);
 80012bc:	4621      	mov	r1, r4
 80012be:	ea42 2206 	orr.w	r2, r2, r6, lsl #8
 80012c2:	4807      	ldr	r0, [pc, #28]	@ (80012e0 <EEPROM_writebyte+0x3c>)
}
 80012c4:	e8bd 4070 	ldmia.w	sp!, {r4, r5, r6, lr}
		HAL_RTCEx_BKUPWrite(&hrtc, (1 + addr/2), temp);
 80012c8:	f005 b8e6 	b.w	8006498 <HAL_RTCEx_BKUPWrite>
		temp &= 0x0000FF00;
 80012cc:	f400 427f 	and.w	r2, r0, #65280	@ 0xff00
		HAL_RTCEx_BKUPWrite(&hrtc, (1 + addr/2), temp);
 80012d0:	4621      	mov	r1, r4
 80012d2:	4332      	orrs	r2, r6
 80012d4:	4802      	ldr	r0, [pc, #8]	@ (80012e0 <EEPROM_writebyte+0x3c>)
}
 80012d6:	e8bd 4070 	ldmia.w	sp!, {r4, r5, r6, lr}
		HAL_RTCEx_BKUPWrite(&hrtc, (1 + addr/2), temp);
 80012da:	f005 b8dd 	b.w	8006498 <HAL_RTCEx_BKUPWrite>
 80012de:	bf00      	nop
 80012e0:	200007d0 	.word	0x200007d0

080012e4 <EEPROM_readbyte>:
{
 80012e4:	b510      	push	{r4, lr}
 80012e6:	4604      	mov	r4, r0
	temp = HAL_RTCEx_BKUPRead(&hrtc, (1 + addr/2));
 80012e8:	0861      	lsrs	r1, r4, #1
 80012ea:	3101      	adds	r1, #1
 80012ec:	4804      	ldr	r0, [pc, #16]	@ (8001300 <EEPROM_readbyte+0x1c>)
 80012ee:	f005 f8db 	bl	80064a8 <HAL_RTCEx_BKUPRead>
	if(addr % 2) {
 80012f2:	07e3      	lsls	r3, r4, #31
		return (uint8)(temp >> 8);
 80012f4:	bf4c      	ite	mi
 80012f6:	f3c0 2007 	ubfxmi	r0, r0, #8, #8
	}
	else {
		return (uint8)temp;
 80012fa:	b2c0      	uxtbpl	r0, r0
	}
}
 80012fc:	bd10      	pop	{r4, pc}
 80012fe:	bf00      	nop
 8001300:	200007d0 	.word	0x200007d0

08001304 <LCD_printstr8x5>:
  LCD_senddata(char_8x5[ch], 5);
  LCD_setpagecolumn(pg, cl + 5);
  LCD_writebyte(0x00);
}

uint8 LCD_printstr8x5(const uint8 *str, uint8 pg, uint8 cl) {
 8001304:	e92d 47f0 	stmdb	sp!, {r4, r5, r6, r7, r8, r9, sl, lr}
 8001308:	460c      	mov	r4, r1
 800130a:	4605      	mov	r5, r0
  uint8 str_null[] = "NULL";
 800130c:	4b29      	ldr	r3, [pc, #164]	@ (80013b4 <LCD_printstr8x5+0xb0>)
uint8 LCD_printstr8x5(const uint8 *str, uint8 pg, uint8 cl) {
 800130e:	b082      	sub	sp, #8
  uint8 str_null[] = "NULL";
 8001310:	e893 0003 	ldmia.w	r3, {r0, r1}
 8001314:	f88d 1004 	strb.w	r1, [sp, #4]
 8001318:	9000      	str	r0, [sp, #0]
uint8 LCD_printstr8x5(const uint8 *str, uint8 pg, uint8 cl) {
 800131a:	4621      	mov	r1, r4
 800131c:	4614      	mov	r4, r2
  if (str == NULL) str = str_null;
 800131e:	2d00      	cmp	r5, #0
 8001320:	d044      	beq.n	80013ac <LCD_printstr8x5+0xa8>
  uint8 i = 0;
  while (str[i]) {
 8001322:	782b      	ldrb	r3, [r5, #0]
 8001324:	b353      	cbz	r3, 800137c <LCD_printstr8x5+0x78>
    if (cl > 123 && str[i] != '\n') {
 8001326:	2c7b      	cmp	r4, #123	@ 0x7b
 8001328:	f04f 0001 	mov.w	r0, #1
  bufpg = pg;
 800132c:	f8df 8088 	ldr.w	r8, [pc, #136]	@ 80013b8 <LCD_printstr8x5+0xb4>
  LCD_senddata(char_8x5[ch], 5);
 8001330:	4f22      	ldr	r7, [pc, #136]	@ (80013bc <LCD_printstr8x5+0xb8>)
 8001332:	4e23      	ldr	r6, [pc, #140]	@ (80013c0 <LCD_printstr8x5+0xbc>)
  bufcl++;
 8001334:	f8df 908c 	ldr.w	r9, [pc, #140]	@ 80013c4 <LCD_printstr8x5+0xc0>
    if (cl > 123 && str[i] != '\n') {
 8001338:	d92e      	bls.n	8001398 <LCD_printstr8x5+0x94>
 800133a:	2b0a      	cmp	r3, #10
 800133c:	d032      	beq.n	80013a4 <LCD_printstr8x5+0xa0>
      pg++;
 800133e:	f04f 0c00 	mov.w	ip, #0
 8001342:	2406      	movs	r4, #6
 8001344:	3101      	adds	r1, #1
 8001346:	b2c9      	uxtb	r1, r1
  LCD_senddata(char_8x5[ch], 5);
 8001348:	eb03 0283 	add.w	r2, r3, r3, lsl #2
 800134c:	443a      	add	r2, r7
 800134e:	eb0c 1cc1 	add.w	ip, ip, r1, lsl #7
 8001352:	f102 3eff 	add.w	lr, r2, #4294967295
  bufpg = pg;
 8001356:	f888 1000 	strb.w	r1, [r8]
  LCDbuf_upload();
  LCDbuf_erase();
}

void LCD_senddata(const uint8* byte, uint8 N) {
  for (uint8 i = 0; i < N; i++) {
 800135a:	44b4      	add	ip, r6
 800135c:	3204      	adds	r2, #4
 800135e:	e001      	b.n	8001364 <LCD_printstr8x5+0x60>
 8001360:	4572      	cmp	r2, lr
 8001362:	d00f      	beq.n	8001384 <LCD_printstr8x5+0x80>
    dispbuffer[bufpg][bufcl + i] |= byte[i];
 8001364:	f89c 3000 	ldrb.w	r3, [ip]
 8001368:	f81e af01 	ldrb.w	sl, [lr, #1]!
    if (bufcl > 127) bufpg++;
    if (bufpg > 7) return;
 800136c:	2907      	cmp	r1, #7
    dispbuffer[bufpg][bufcl + i] |= byte[i];
 800136e:	ea43 030a 	orr.w	r3, r3, sl
 8001372:	f80c 3b01 	strb.w	r3, [ip], #1
    if (bufpg > 7) return;
 8001376:	d9f3      	bls.n	8001360 <LCD_printstr8x5+0x5c>
  bufcl++;
 8001378:	4b12      	ldr	r3, [pc, #72]	@ (80013c4 <LCD_printstr8x5+0xc0>)
 800137a:	701c      	strb	r4, [r3, #0]
    if (pg > 7) return 0;
 800137c:	2000      	movs	r0, #0
}
 800137e:	b002      	add	sp, #8
 8001380:	e8bd 87f0 	ldmia.w	sp!, {r4, r5, r6, r7, r8, r9, sl, pc}
  bufcl++;
 8001384:	f889 4000 	strb.w	r4, [r9]
  while (str[i]) {
 8001388:	5c2b      	ldrb	r3, [r5, r0]
 800138a:	1c42      	adds	r2, r0, #1
 800138c:	b2d2      	uxtb	r2, r2
 800138e:	2b00      	cmp	r3, #0
 8001390:	d0f5      	beq.n	800137e <LCD_printstr8x5+0x7a>
    if (cl > 123 && str[i] != '\n') {
 8001392:	2c7b      	cmp	r4, #123	@ 0x7b
 8001394:	4610      	mov	r0, r2
 8001396:	d8d0      	bhi.n	800133a <LCD_printstr8x5+0x36>
    if(str[i] == '\n') {cl = 0; pg++; i++; continue;}
 8001398:	2b0a      	cmp	r3, #10
 800139a:	d003      	beq.n	80013a4 <LCD_printstr8x5+0xa0>
  bufcl++;
 800139c:	1da2      	adds	r2, r4, #6
    dispbuffer[bufpg][bufcl + i] |= byte[i];
 800139e:	46a4      	mov	ip, r4
 80013a0:	b2d4      	uxtb	r4, r2
 80013a2:	e7d1      	b.n	8001348 <LCD_printstr8x5+0x44>
    if(str[i] == '\n') {cl = 0; pg++; i++; continue;}
 80013a4:	3101      	adds	r1, #1
 80013a6:	2400      	movs	r4, #0
 80013a8:	b2c9      	uxtb	r1, r1
 80013aa:	e7ed      	b.n	8001388 <LCD_printstr8x5+0x84>
 80013ac:	234e      	movs	r3, #78	@ 0x4e
  if (str == NULL) str = str_null;
 80013ae:	466d      	mov	r5, sp
 80013b0:	e7b9      	b.n	8001326 <LCD_printstr8x5+0x22>
 80013b2:	bf00      	nop
 80013b4:	08009c18 	.word	0x08009c18
 80013b8:	200002c5 	.word	0x200002c5
 80013bc:	0800a1e8 	.word	0x0800a1e8
 80013c0:	200002c8 	.word	0x200002c8
 80013c4:	200002c4 	.word	0x200002c4

080013c8 <LCD_erasestring>:
  bufpg = pg;
 80013c8:	4b03      	ldr	r3, [pc, #12]	@ (80013d8 <LCD_erasestring+0x10>)
 80013ca:	7019      	strb	r1, [r3, #0]
  for (uint8 i = 0; i < length; i++) LCD_writebyte(0x00);
 80013cc:	4b03      	ldr	r3, [pc, #12]	@ (80013dc <LCD_erasestring+0x14>)
 80013ce:	b100      	cbz	r0, 80013d2 <LCD_erasestring+0xa>
  bufcl++;
 80013d0:	4402      	add	r2, r0
 80013d2:	701a      	strb	r2, [r3, #0]
}
 80013d4:	4770      	bx	lr
 80013d6:	bf00      	nop
 80013d8:	200002c5 	.word	0x200002c5
 80013dc:	200002c4 	.word	0x200002c4

080013e0 <LCDbuf_upload>:
  }
}
/*----------------------------------------------------------------------------*/

/*------------------------WORKING THROUGH THE BUFFER--------------------------*/
void LCDbuf_upload(void) {
 80013e0:	b5f0      	push	{r4, r5, r6, r7, lr}
 80013e2:	24b0      	movs	r4, #176	@ 0xb0
 80013e4:	4d14      	ldr	r5, [pc, #80]	@ (8001438 <LCDbuf_upload+0x58>)
  DISP_INIT_SEND_COM;
 80013e6:	4f15      	ldr	r7, [pc, #84]	@ (800143c <LCDbuf_upload+0x5c>)
  HAL_SPI_Transmit(&hspi2, data, N, 10);
 80013e8:	4e15      	ldr	r6, [pc, #84]	@ (8001440 <LCDbuf_upload+0x60>)
void LCDbuf_upload(void) {
 80013ea:	b083      	sub	sp, #12
	for(uint8_t j = 0; j < 8; j++)
	  {
		uint8_t tmp_arr[] = {(0xB0 + j), 0x10, 0x00};
 80013ec:	2200      	movs	r2, #0
 80013ee:	2310      	movs	r3, #16
  DISP_INIT_SEND_COM;
 80013f0:	2102      	movs	r1, #2
 80013f2:	4638      	mov	r0, r7
		uint8_t tmp_arr[] = {(0xB0 + j), 0x10, 0x00};
 80013f4:	f88d 4004 	strb.w	r4, [sp, #4]
 80013f8:	f88d 3005 	strb.w	r3, [sp, #5]
 80013fc:	f88d 2006 	strb.w	r2, [sp, #6]
  DISP_INIT_SEND_COM;
 8001400:	f004 fc18 	bl	8005c34 <HAL_GPIO_WritePin>
  HAL_SPI_Transmit(&hspi2, data, N, 10);
 8001404:	230a      	movs	r3, #10
 8001406:	2203      	movs	r2, #3
 8001408:	a901      	add	r1, sp, #4
 800140a:	4630      	mov	r0, r6
 800140c:	f005 f934 	bl	8006678 <HAL_SPI_Transmit>
	for(uint8_t j = 0; j < 8; j++)
 8001410:	3401      	adds	r4, #1
  DISP_INIT_SEND_DAT;
 8001412:	2201      	movs	r2, #1
 8001414:	2102      	movs	r1, #2
 8001416:	4638      	mov	r0, r7
 8001418:	f004 fc0c 	bl	8005c34 <HAL_GPIO_WritePin>
	for(uint8_t j = 0; j < 8; j++)
 800141c:	b2e4      	uxtb	r4, r4
	    lcd_sendcommands(tmp_arr, 3);
	    HAL_SPI_Transmit(&hspi2, dispbuffer[j], 128, 10);
 800141e:	4629      	mov	r1, r5
 8001420:	230a      	movs	r3, #10
 8001422:	2280      	movs	r2, #128	@ 0x80
 8001424:	4630      	mov	r0, r6
 8001426:	f005 f927 	bl	8006678 <HAL_SPI_Transmit>
	for(uint8_t j = 0; j < 8; j++)
 800142a:	2cb8      	cmp	r4, #184	@ 0xb8
 800142c:	f105 0580 	add.w	r5, r5, #128	@ 0x80
 8001430:	d1dc      	bne.n	80013ec <LCDbuf_upload+0xc>
	  }
}
 8001432:	b003      	add	sp, #12
 8001434:	bdf0      	pop	{r4, r5, r6, r7, pc}
 8001436:	bf00      	nop
 8001438:	200002c8 	.word	0x200002c8
 800143c:	40010800 	.word	0x40010800
 8001440:	20000720 	.word	0x20000720

08001444 <LCD_bufupload_buferase>:
void LCD_bufupload_buferase(void) {
 8001444:	b508      	push	{r3, lr}
  LCDbuf_upload();
 8001446:	f7ff ffcb 	bl	80013e0 <LCDbuf_upload>
}
 800144a:	e8bd 4008 	ldmia.w	sp!, {r3, lr}

void LCDbuf_erase(void) {
  for (uint8 j = 0; j < 8; j++)
    for (uint8 i = 0; i < 128; i++) dispbuffer[j][i] = 0;
 800144e:	f44f 6280 	mov.w	r2, #1024	@ 0x400
 8001452:	2100      	movs	r1, #0
 8001454:	4801      	ldr	r0, [pc, #4]	@ (800145c <LCD_bufupload_buferase+0x18>)
 8001456:	f006 bad4 	b.w	8007a02 <memset>
 800145a:	bf00      	nop
 800145c:	200002c8 	.word	0x200002c8

08001460 <LCD_init>:
{
 8001460:	b510      	push	{r4, lr}
	DISP_RESET_OFF;
 8001462:	4c1e      	ldr	r4, [pc, #120]	@ (80014dc <LCD_init+0x7c>)
{
 8001464:	b084      	sub	sp, #16
	DISP_RESET_OFF;
 8001466:	4620      	mov	r0, r4
 8001468:	2201      	movs	r2, #1
 800146a:	2104      	movs	r1, #4
 800146c:	f004 fbe2 	bl	8005c34 <HAL_GPIO_WritePin>
	DISP_INIT_SEND_DAT;
 8001470:	2201      	movs	r2, #1
 8001472:	2102      	movs	r1, #2
 8001474:	4620      	mov	r0, r4
 8001476:	f004 fbdd 	bl	8005c34 <HAL_GPIO_WritePin>
	HAL_Delay(2);
 800147a:	2002      	movs	r0, #2
 800147c:	f003 feb0 	bl	80051e0 <HAL_Delay>
	DISP_RESET_ON;
 8001480:	2200      	movs	r2, #0
 8001482:	2104      	movs	r1, #4
 8001484:	4620      	mov	r0, r4
 8001486:	f004 fbd5 	bl	8005c34 <HAL_GPIO_WritePin>
	HAL_Delay(2);
 800148a:	2002      	movs	r0, #2
 800148c:	f003 fea8 	bl	80051e0 <HAL_Delay>
	DISP_RESET_OFF;
 8001490:	4620      	mov	r0, r4
 8001492:	2201      	movs	r2, #1
 8001494:	2104      	movs	r1, #4
 8001496:	f004 fbcd 	bl	8005c34 <HAL_GPIO_WritePin>
	DISP_INIT_SEND_COM;
 800149a:	4620      	mov	r0, r4
 800149c:	2200      	movs	r2, #0
 800149e:	2102      	movs	r1, #2
 80014a0:	f004 fbc8 	bl	8005c34 <HAL_GPIO_WritePin>
	uint8_t init_data_array[13] = {
 80014a4:	46ec      	mov	ip, sp
 80014a6:	4b0e      	ldr	r3, [pc, #56]	@ (80014e0 <LCD_init+0x80>)
 80014a8:	cb0f      	ldmia	r3, {r0, r1, r2, r3}
 80014aa:	e8ac 0007 	stmia.w	ip!, {r0, r1, r2}
	HAL_SPI_Transmit(&hspi2, init_data_array, 13, 20);
 80014ae:	4669      	mov	r1, sp
	uint8_t init_data_array[13] = {
 80014b0:	f88c 3000 	strb.w	r3, [ip]
	HAL_SPI_Transmit(&hspi2, init_data_array, 13, 20);
 80014b4:	220d      	movs	r2, #13
 80014b6:	2314      	movs	r3, #20
 80014b8:	480a      	ldr	r0, [pc, #40]	@ (80014e4 <LCD_init+0x84>)
 80014ba:	f005 f8dd 	bl	8006678 <HAL_SPI_Transmit>
  LCDbuf_upload();
 80014be:	f7ff ff8f 	bl	80013e0 <LCDbuf_upload>
    for (uint8 i = 0; i < 128; i++) dispbuffer[j][i] = 0;
 80014c2:	f44f 6280 	mov.w	r2, #1024	@ 0x400
 80014c6:	2100      	movs	r1, #0
 80014c8:	4807      	ldr	r0, [pc, #28]	@ (80014e8 <LCD_init+0x88>)
 80014ca:	f006 fa9a 	bl	8007a02 <memset>
	DISP_INIT_SEND_DAT;
 80014ce:	2201      	movs	r2, #1
 80014d0:	2102      	movs	r1, #2
 80014d2:	4620      	mov	r0, r4
 80014d4:	f004 fbae 	bl	8005c34 <HAL_GPIO_WritePin>
}
 80014d8:	b004      	add	sp, #16
 80014da:	bd10      	pop	{r4, pc}
 80014dc:	40010800 	.word	0x40010800
 80014e0:	08009bc0 	.word	0x08009bc0
 80014e4:	20000720 	.word	0x20000720
 80014e8:	200002c8 	.word	0x200002c8

080014ec <LCD_printweekday>:
/*----------------------------------------------------------------------------*/

/*-----------------------------SYSTEM MENU ELEMENTS---------------------------*/

void LCD_printweekday(uint8 wdaynum, uint8 pg, uint8 cl) {
  LCD_printstr8x5(weekday[wdaynum], pg, cl);
 80014ec:	4b02      	ldr	r3, [pc, #8]	@ (80014f8 <LCD_printweekday+0xc>)
 80014ee:	eb00 0040 	add.w	r0, r0, r0, lsl #1
 80014f2:	4418      	add	r0, r3
 80014f4:	f7ff bf06 	b.w	8001304 <LCD_printstr8x5>
 80014f8:	08009c50 	.word	0x08009c50

080014fc <LCD_printclockanddate>:

void LCD_printmonth(uint8 mon, uint8 pg, uint8 cl) {
  LCD_printstr8x5(month[mon - 1], pg, cl);
}

void LCD_printclockanddate(uint8 pg, uint8 cl) {
 80014fc:	e92d 47f0 	stmdb	sp!, {r4, r5, r6, r7, r8, r9, sl, lr}
  uint8 day[3] = {dig_to_smb(rtcraw.day/10), dig_to_smb(rtcraw.day%10), '\0'};
 8001500:	4f54      	ldr	r7, [pc, #336]	@ (8001654 <LCD_printclockanddate+0x158>)
void LCD_printclockanddate(uint8 pg, uint8 cl) {
 8001502:	4605      	mov	r5, r0
  uint8 day[3] = {dig_to_smb(rtcraw.day/10), dig_to_smb(rtcraw.day%10), '\0'};
 8001504:	4e54      	ldr	r6, [pc, #336]	@ (8001658 <LCD_printclockanddate+0x15c>)
 8001506:	78f8      	ldrb	r0, [r7, #3]
void LCD_printclockanddate(uint8 pg, uint8 cl) {
 8001508:	b084      	sub	sp, #16
  uint8 day[3] = {dig_to_smb(rtcraw.day/10), dig_to_smb(rtcraw.day%10), '\0'};
 800150a:	fba6 3000 	umull	r3, r0, r6, r0
 800150e:	08c0      	lsrs	r0, r0, #3
void LCD_printclockanddate(uint8 pg, uint8 cl) {
 8001510:	460c      	mov	r4, r1
  uint8 day[3] = {dig_to_smb(rtcraw.day/10), dig_to_smb(rtcraw.day%10), '\0'};
 8001512:	f7ff facb 	bl	8000aac <dig_to_smb>
 8001516:	4602      	mov	r2, r0
 8001518:	78f8      	ldrb	r0, [r7, #3]
 800151a:	f88d 2000 	strb.w	r2, [sp]
 800151e:	fba6 1300 	umull	r1, r3, r6, r0
 8001522:	08db      	lsrs	r3, r3, #3
 8001524:	eb03 0383 	add.w	r3, r3, r3, lsl #2
 8001528:	eba0 0043 	sub.w	r0, r0, r3, lsl #1
 800152c:	b2c0      	uxtb	r0, r0
 800152e:	f7ff fabd 	bl	8000aac <dig_to_smb>
 8001532:	f04f 0800 	mov.w	r8, #0
 8001536:	f88d 0001 	strb.w	r0, [sp, #1]
  uint8 hours[3] = {dig_to_smb(rtcraw.hour/10), dig_to_smb(rtcraw.hour%10), '\0'};
 800153a:	78b8      	ldrb	r0, [r7, #2]
  uint8 day[3] = {dig_to_smb(rtcraw.day/10), dig_to_smb(rtcraw.day%10), '\0'};
 800153c:	f88d 8002 	strb.w	r8, [sp, #2]
  uint8 hours[3] = {dig_to_smb(rtcraw.hour/10), dig_to_smb(rtcraw.hour%10), '\0'};
 8001540:	fba6 3000 	umull	r3, r0, r6, r0
 8001544:	08c0      	lsrs	r0, r0, #3
 8001546:	f7ff fab1 	bl	8000aac <dig_to_smb>
 800154a:	f88d 0004 	strb.w	r0, [sp, #4]
 800154e:	78b8      	ldrb	r0, [r7, #2]
  bufpg = pg;
 8001550:	f8df 9108 	ldr.w	r9, [pc, #264]	@ 800165c <LCD_printclockanddate+0x160>
  uint8 hours[3] = {dig_to_smb(rtcraw.hour/10), dig_to_smb(rtcraw.hour%10), '\0'};
 8001554:	fba6 2300 	umull	r2, r3, r6, r0
 8001558:	08db      	lsrs	r3, r3, #3
 800155a:	eb03 0383 	add.w	r3, r3, r3, lsl #2
 800155e:	eba0 0043 	sub.w	r0, r0, r3, lsl #1
 8001562:	b2c0      	uxtb	r0, r0
 8001564:	f7ff faa2 	bl	8000aac <dig_to_smb>
  uint8 colon[4] = {0x00, 0x12, 0x00}; // ':' colon
 8001568:	f44f 5390 	mov.w	r3, #4608	@ 0x1200
  uint8 hours[3] = {dig_to_smb(rtcraw.hour/10), dig_to_smb(rtcraw.hour%10), '\0'};
 800156c:	f88d 0005 	strb.w	r0, [sp, #5]
  uint8 minutes[3] = {dig_to_smb(rtcraw.min / 10), dig_to_smb(rtcraw.min % 10), '\0'};
 8001570:	7878      	ldrb	r0, [r7, #1]
  uint8 colon[4] = {0x00, 0x12, 0x00}; // ':' colon
 8001572:	9303      	str	r3, [sp, #12]
  uint8 minutes[3] = {dig_to_smb(rtcraw.min / 10), dig_to_smb(rtcraw.min % 10), '\0'};
 8001574:	fba6 3000 	umull	r3, r0, r6, r0
 8001578:	08c0      	lsrs	r0, r0, #3
  uint8 hours[3] = {dig_to_smb(rtcraw.hour/10), dig_to_smb(rtcraw.hour%10), '\0'};
 800157a:	f88d 8006 	strb.w	r8, [sp, #6]
  uint8 minutes[3] = {dig_to_smb(rtcraw.min / 10), dig_to_smb(rtcraw.min % 10), '\0'};
 800157e:	f7ff fa95 	bl	8000aac <dig_to_smb>
 8001582:	f88d 0008 	strb.w	r0, [sp, #8]
 8001586:	7878      	ldrb	r0, [r7, #1]
 8001588:	fba6 3600 	umull	r3, r6, r6, r0
 800158c:	08f6      	lsrs	r6, r6, #3
 800158e:	eb06 0686 	add.w	r6, r6, r6, lsl #2
 8001592:	eba0 0046 	sub.w	r0, r0, r6, lsl #1
 8001596:	b2c0      	uxtb	r0, r0
 8001598:	f7ff fa88 	bl	8000aac <dig_to_smb>
 800159c:	4603      	mov	r3, r0
  LCD_printstr8x5(day, pg, cl);
 800159e:	4622      	mov	r2, r4
 80015a0:	4629      	mov	r1, r5
 80015a2:	4668      	mov	r0, sp
  uint8 minutes[3] = {dig_to_smb(rtcraw.min / 10), dig_to_smb(rtcraw.min % 10), '\0'};
 80015a4:	f88d 800a 	strb.w	r8, [sp, #10]
 80015a8:	f88d 3009 	strb.w	r3, [sp, #9]
  LCD_printstr8x5(day, pg, cl);
 80015ac:	f7ff feaa 	bl	8001304 <LCD_printstr8x5>
  LCD_printstr8x5(month[mon - 1], pg, cl);
 80015b0:	797b      	ldrb	r3, [r7, #5]
 80015b2:	482b      	ldr	r0, [pc, #172]	@ (8001660 <LCD_printclockanddate+0x164>)
 80015b4:	3b01      	subs	r3, #1
  LCD_printmonth(rtcraw.month, pg, cl + 14);
 80015b6:	f104 020e 	add.w	r2, r4, #14
  LCD_printstr8x5(month[mon - 1], pg, cl);
 80015ba:	4629      	mov	r1, r5
 80015bc:	b2d2      	uxtb	r2, r2
 80015be:	eb00 0083 	add.w	r0, r0, r3, lsl #2
 80015c2:	f7ff fe9f 	bl	8001304 <LCD_printstr8x5>
  LCD_printstr8x5(weekday[wdaynum], pg, cl);
 80015c6:	7938      	ldrb	r0, [r7, #4]
 80015c8:	4b26      	ldr	r3, [pc, #152]	@ (8001664 <LCD_printclockanddate+0x168>)
  LCD_printweekday(rtcraw.weekday, pg, cl + 35);
 80015ca:	f104 0223 	add.w	r2, r4, #35	@ 0x23
  LCD_printstr8x5(weekday[wdaynum], pg, cl);
 80015ce:	eb00 0040 	add.w	r0, r0, r0, lsl #1
 80015d2:	4418      	add	r0, r3
 80015d4:	4629      	mov	r1, r5
 80015d6:	b2d2      	uxtb	r2, r2
 80015d8:	f7ff fe94 	bl	8001304 <LCD_printstr8x5>
  LCD_printstr8x5(hours, pg, cl + 49);
 80015dc:	f104 0231 	add.w	r2, r4, #49	@ 0x31
 80015e0:	4629      	mov	r1, r5
 80015e2:	b2d2      	uxtb	r2, r2
 80015e4:	a801      	add	r0, sp, #4
 80015e6:	f7ff fe8d 	bl	8001304 <LCD_printstr8x5>
  LCD_setpagecolumn(pg, cl + 61);
 80015ea:	f104 063d 	add.w	r6, r4, #61	@ 0x3d
  bufcl = cl;
 80015ee:	4a1e      	ldr	r2, [pc, #120]	@ (8001668 <LCD_printclockanddate+0x16c>)
  LCD_setpagecolumn(pg, cl + 61);
 80015f0:	b2f6      	uxtb	r6, r6
    if (bufcl > 127) bufpg++;
 80015f2:	4647      	mov	r7, r8
 80015f4:	46b4      	mov	ip, r6
  bufcl = cl;
 80015f6:	7016      	strb	r6, [r2, #0]
    if (bufcl > 127) bufpg++;
 80015f8:	462b      	mov	r3, r5
 80015fa:	481c      	ldr	r0, [pc, #112]	@ (800166c <LCD_printclockanddate+0x170>)
  bufpg = pg;
 80015fc:	f889 5000 	strb.w	r5, [r9]
    if (bufcl > 127) bufpg++;
 8001600:	b276      	sxtb	r6, r6
 8001602:	a903      	add	r1, sp, #12
 8001604:	f10d 080f 	add.w	r8, sp, #15
 8001608:	e001      	b.n	800160e <LCD_printclockanddate+0x112>
  for (uint8 i = 0; i < N; i++) {
 800160a:	4588      	cmp	r8, r1
 800160c:	d015      	beq.n	800163a <LCD_printclockanddate+0x13e>
    dispbuffer[bufpg][bufcl + i] |= byte[i];
 800160e:	eb00 12c3 	add.w	r2, r0, r3, lsl #7
 8001612:	f812 a00c 	ldrb.w	sl, [r2, ip]
 8001616:	f811 2b01 	ldrb.w	r2, [r1], #1
    if (bufcl > 127) bufpg++;
 800161a:	2e00      	cmp	r6, #0
    dispbuffer[bufpg][bufcl + i] |= byte[i];
 800161c:	469e      	mov	lr, r3
 800161e:	ea42 020a 	orr.w	r2, r2, sl
    if (bufcl > 127) bufpg++;
 8001622:	da02      	bge.n	800162a <LCD_printclockanddate+0x12e>
 8001624:	2701      	movs	r7, #1
 8001626:	443b      	add	r3, r7
 8001628:	b2db      	uxtb	r3, r3
    dispbuffer[bufpg][bufcl + i] |= byte[i];
 800162a:	eb00 1ece 	add.w	lr, r0, lr, lsl #7
    if (bufpg > 7) return;
 800162e:	2b07      	cmp	r3, #7
    dispbuffer[bufpg][bufcl + i] |= byte[i];
 8001630:	f80e 200c 	strb.w	r2, [lr, ip]
  for (uint8 i = 0; i < N; i++) {
 8001634:	f10c 0c01 	add.w	ip, ip, #1
    if (bufpg > 7) return;
 8001638:	d9e7      	bls.n	800160a <LCD_printclockanddate+0x10e>
 800163a:	b10f      	cbz	r7, 8001640 <LCD_printclockanddate+0x144>
 800163c:	f889 3000 	strb.w	r3, [r9]
  LCD_senddata(colon, 3);
  LCD_printstr8x5(minutes, pg, cl + 64);
 8001640:	f104 0240 	add.w	r2, r4, #64	@ 0x40
 8001644:	4629      	mov	r1, r5
 8001646:	b2d2      	uxtb	r2, r2
 8001648:	a802      	add	r0, sp, #8
 800164a:	f7ff fe5b 	bl	8001304 <LCD_printstr8x5>
}
 800164e:	b004      	add	sp, #16
 8001650:	e8bd 87f0 	ldmia.w	sp!, {r4, r5, r6, r7, r8, r9, sl, pc}
 8001654:	20000250 	.word	0x20000250
 8001658:	cccccccd 	.word	0xcccccccd
 800165c:	200002c5 	.word	0x200002c5
 8001660:	08009c20 	.word	0x08009c20
 8001664:	08009c50 	.word	0x08009c50
 8001668:	200002c4 	.word	0x200002c4
 800166c:	200002c8 	.word	0x200002c8

08001670 <LCD_printbrightnes>:
  for (uint8 i = 0; i < N; i++) {
 8001670:	4a2e      	ldr	r2, [pc, #184]	@ (800172c <LCD_printbrightnes+0xbc>)

void LCD_printbrightnes(uint8 pg, uint8 cl) //  size 26 column
{
 8001672:	e92d 43f0 	stmdb	sp!, {r4, r5, r6, r7, r8, r9, lr}
    if (bufcl > 127) bufpg++;
 8001676:	4603      	mov	r3, r0
 8001678:	4c2d      	ldr	r4, [pc, #180]	@ (8001730 <LCD_printbrightnes+0xc0>)
 800167a:	f102 0908 	add.w	r9, r2, #8
 800167e:	fa4f f881 	sxtb.w	r8, r1
    dispbuffer[bufpg][bufcl + i] |= byte[i];
 8001682:	1a8f      	subs	r7, r1, r2
 8001684:	e001      	b.n	800168a <LCD_printbrightnes+0x1a>
  for (uint8 i = 0; i < N; i++) {
 8001686:	454a      	cmp	r2, r9
 8001688:	d015      	beq.n	80016b6 <LCD_printbrightnes+0x46>
    dispbuffer[bufpg][bufcl + i] |= byte[i];
 800168a:	469c      	mov	ip, r3
 800168c:	eb04 16c3 	add.w	r6, r4, r3, lsl #7
 8001690:	18bd      	adds	r5, r7, r2
    if (bufcl > 127) bufpg++;
 8001692:	f1b8 0f00 	cmp.w	r8, #0
    dispbuffer[bufpg][bufcl + i] |= byte[i];
 8001696:	f816 e005 	ldrb.w	lr, [r6, r5]
    if (bufcl > 127) bufpg++;
 800169a:	bfb8      	it	lt
 800169c:	3301      	addlt	r3, #1
    dispbuffer[bufpg][bufcl + i] |= byte[i];
 800169e:	f812 6f01 	ldrb.w	r6, [r2, #1]!
    if (bufcl > 127) bufpg++;
 80016a2:	bfb8      	it	lt
 80016a4:	b2db      	uxtblt	r3, r3
    dispbuffer[bufpg][bufcl + i] |= byte[i];
 80016a6:	ea4e 0e06 	orr.w	lr, lr, r6
 80016aa:	eb04 1ccc 	add.w	ip, r4, ip, lsl #7
    if (bufpg > 7) return;
 80016ae:	2b07      	cmp	r3, #7
    dispbuffer[bufpg][bufcl + i] |= byte[i];
 80016b0:	f80c e005 	strb.w	lr, [ip, r5]
    if (bufpg > 7) return;
 80016b4:	d9e7      	bls.n	8001686 <LCD_printbrightnes+0x16>
  bufcl = cl;
 80016b6:	4b1f      	ldr	r3, [pc, #124]	@ (8001734 <LCD_printbrightnes+0xc4>)
  LCD_setpagecolumn(pg, cl);
  LCD_senddata(bright_icon, 8);
  LCD_setpagecolumn(pg, cl + 9);
 80016b8:	f101 0509 	add.w	r5, r1, #9
 80016bc:	b2ed      	uxtb	r5, r5
  bufcl = cl;
 80016be:	701d      	strb	r5, [r3, #0]
  LCD_senddata(bright_lvl[brightlvl], 15);
 80016c0:	4b1d      	ldr	r3, [pc, #116]	@ (8001738 <LCD_printbrightnes+0xc8>)
  bufpg = pg;
 80016c2:	f8df 9078 	ldr.w	r9, [pc, #120]	@ 800173c <LCD_printbrightnes+0xcc>
  LCD_senddata(bright_lvl[brightlvl], 15);
 80016c6:	f893 e000 	ldrb.w	lr, [r3]
 80016ca:	4b1d      	ldr	r3, [pc, #116]	@ (8001740 <LCD_printbrightnes+0xd0>)
 80016cc:	ebce 1e0e 	rsb	lr, lr, lr, lsl #4
 80016d0:	449e      	add	lr, r3
 80016d2:	1c6f      	adds	r7, r5, #1
    dispbuffer[bufpg][bufcl + i] |= byte[i];
 80016d4:	eba7 070e 	sub.w	r7, r7, lr
 80016d8:	f10e 33ff 	add.w	r3, lr, #4294967295
    if (bufcl > 127) bufpg++;
 80016dc:	f04f 0800 	mov.w	r8, #0
  bufpg = pg;
 80016e0:	f889 0000 	strb.w	r0, [r9]
    if (bufcl > 127) bufpg++;
 80016e4:	b26d      	sxtb	r5, r5
 80016e6:	f10e 0e0e 	add.w	lr, lr, #14
 80016ea:	e001      	b.n	80016f0 <LCD_printbrightnes+0x80>
  for (uint8 i = 0; i < N; i++) {
 80016ec:	4573      	cmp	r3, lr
 80016ee:	d016      	beq.n	800171e <LCD_printbrightnes+0xae>
    dispbuffer[bufpg][bufcl + i] |= byte[i];
 80016f0:	eb07 0c03 	add.w	ip, r7, r3
 80016f4:	eb04 12c0 	add.w	r2, r4, r0, lsl #7
 80016f8:	f812 100c 	ldrb.w	r1, [r2, ip]
 80016fc:	f813 6f01 	ldrb.w	r6, [r3, #1]!
    if (bufcl > 127) bufpg++;
 8001700:	2d00      	cmp	r5, #0
    dispbuffer[bufpg][bufcl + i] |= byte[i];
 8001702:	4602      	mov	r2, r0
 8001704:	ea41 0106 	orr.w	r1, r1, r6
    if (bufcl > 127) bufpg++;
 8001708:	da03      	bge.n	8001712 <LCD_printbrightnes+0xa2>
 800170a:	f04f 0801 	mov.w	r8, #1
 800170e:	4440      	add	r0, r8
 8001710:	b2c0      	uxtb	r0, r0
    dispbuffer[bufpg][bufcl + i] |= byte[i];
 8001712:	eb04 12c2 	add.w	r2, r4, r2, lsl #7
    if (bufpg > 7) return;
 8001716:	2807      	cmp	r0, #7
    dispbuffer[bufpg][bufcl + i] |= byte[i];
 8001718:	f802 100c 	strb.w	r1, [r2, ip]
    if (bufpg > 7) return;
 800171c:	d9e6      	bls.n	80016ec <LCD_printbrightnes+0x7c>
 800171e:	f1b8 0f00 	cmp.w	r8, #0
 8001722:	d001      	beq.n	8001728 <LCD_printbrightnes+0xb8>
 8001724:	f889 0000 	strb.w	r0, [r9]
}
 8001728:	e8bd 83f0 	ldmia.w	sp!, {r4, r5, r6, r7, r8, r9, pc}
 800172c:	0800a0e7 	.word	0x0800a0e7
 8001730:	200002c8 	.word	0x200002c8
 8001734:	200002c4 	.word	0x200002c4
 8001738:	2000024d 	.word	0x2000024d
 800173c:	200002c5 	.word	0x200002c5
 8001740:	0800a070 	.word	0x0800a070

08001744 <LCD_printbatlevel>:
  bufcl = cl;
 8001744:	4b1a      	ldr	r3, [pc, #104]	@ (80017b0 <LCD_printbatlevel+0x6c>)

void LCD_printbatlevel(uint8 lvl, uint8 pg, uint8 cl) {
  if (lvl == 100) lvl = 5; // 100 -shutdown code
 8001746:	2864      	cmp	r0, #100	@ 0x64
void LCD_printbatlevel(uint8 lvl, uint8 pg, uint8 cl) {
 8001748:	e92d 43f0 	stmdb	sp!, {r4, r5, r6, r7, r8, r9, lr}
 800174c:	bf18      	it	ne
 800174e:	eb00 0080 	addne.w	r0, r0, r0, lsl #2
  bufcl = cl;
 8001752:	701a      	strb	r2, [r3, #0]
  LCD_setpagecolumn(pg, cl);
  LCD_senddata(battary_2[lvl], 20);
 8001754:	4b17      	ldr	r3, [pc, #92]	@ (80017b4 <LCD_printbatlevel+0x70>)
 8001756:	bf18      	it	ne
 8001758:	0080      	lslne	r0, r0, #2
 800175a:	eb00 0e03 	add.w	lr, r0, r3
    if (bufcl > 127) bufpg++;
 800175e:	4673      	mov	r3, lr
  bufpg = pg;
 8001760:	f8df 8054 	ldr.w	r8, [pc, #84]	@ 80017b8 <LCD_printbatlevel+0x74>
    if (bufcl > 127) bufpg++;
 8001764:	2700      	movs	r7, #0
 8001766:	4c15      	ldr	r4, [pc, #84]	@ (80017bc <LCD_printbatlevel+0x78>)
  bufpg = pg;
 8001768:	f888 1000 	strb.w	r1, [r8]
    if (bufcl > 127) bufpg++;
 800176c:	b256      	sxtb	r6, r2
 800176e:	f10e 0e14 	add.w	lr, lr, #20
 8001772:	1ad5      	subs	r5, r2, r3
 8001774:	e001      	b.n	800177a <LCD_printbatlevel+0x36>
  for (uint8 i = 0; i < N; i++) {
 8001776:	459e      	cmp	lr, r3
 8001778:	d015      	beq.n	80017a6 <LCD_printbatlevel+0x62>
    dispbuffer[bufpg][bufcl + i] |= byte[i];
 800177a:	eb05 0c03 	add.w	ip, r5, r3
 800177e:	eb04 12c1 	add.w	r2, r4, r1, lsl #7
 8001782:	f812 900c 	ldrb.w	r9, [r2, ip]
 8001786:	f813 0b01 	ldrb.w	r0, [r3], #1
    if (bufcl > 127) bufpg++;
 800178a:	2e00      	cmp	r6, #0
    dispbuffer[bufpg][bufcl + i] |= byte[i];
 800178c:	460a      	mov	r2, r1
 800178e:	ea40 0009 	orr.w	r0, r0, r9
    if (bufcl > 127) bufpg++;
 8001792:	da02      	bge.n	800179a <LCD_printbatlevel+0x56>
 8001794:	2701      	movs	r7, #1
 8001796:	4439      	add	r1, r7
 8001798:	b2c9      	uxtb	r1, r1
    dispbuffer[bufpg][bufcl + i] |= byte[i];
 800179a:	eb04 12c2 	add.w	r2, r4, r2, lsl #7
    if (bufpg > 7) return;
 800179e:	2907      	cmp	r1, #7
    dispbuffer[bufpg][bufcl + i] |= byte[i];
 80017a0:	f802 000c 	strb.w	r0, [r2, ip]
    if (bufpg > 7) return;
 80017a4:	d9e7      	bls.n	8001776 <LCD_printbatlevel+0x32>
 80017a6:	b10f      	cbz	r7, 80017ac <LCD_printbatlevel+0x68>
 80017a8:	f888 1000 	strb.w	r1, [r8]
}
 80017ac:	e8bd 83f0 	ldmia.w	sp!, {r4, r5, r6, r7, r8, r9, pc}
 80017b0:	200002c4 	.word	0x200002c4
 80017b4:	0800a170 	.word	0x0800a170
 80017b8:	200002c5 	.word	0x200002c5
 80017bc:	200002c8 	.word	0x200002c8

080017c0 <LCD_printmenucoursor>:

void LCD_printmenucoursor(uint8 pg, uint8 cl) {
 80017c0:	e92d 43f0 	stmdb	sp!, {r4, r5, r6, r7, r8, r9, lr}
 80017c4:	4b17      	ldr	r3, [pc, #92]	@ (8001824 <LCD_printmenucoursor+0x64>)
  bufpg = pg;
 80017c6:	f8df 9060 	ldr.w	r9, [pc, #96]	@ 8001828 <LCD_printmenucoursor+0x68>
  bufcl = cl;
 80017ca:	4a18      	ldr	r2, [pc, #96]	@ (800182c <LCD_printmenucoursor+0x6c>)
    if (bufcl > 127) bufpg++;
 80017cc:	f04f 0800 	mov.w	r8, #0
 80017d0:	4c17      	ldr	r4, [pc, #92]	@ (8001830 <LCD_printmenucoursor+0x70>)
 80017d2:	f103 0708 	add.w	r7, r3, #8
  bufcl = cl;
 80017d6:	7011      	strb	r1, [r2, #0]
  bufpg = pg;
 80017d8:	f889 0000 	strb.w	r0, [r9]
    if (bufcl > 127) bufpg++;
 80017dc:	b24e      	sxtb	r6, r1
    dispbuffer[bufpg][bufcl + i] |= byte[i];
 80017de:	1acd      	subs	r5, r1, r3
 80017e0:	e001      	b.n	80017e6 <LCD_printmenucoursor+0x26>
  for (uint8 i = 0; i < N; i++) {
 80017e2:	429f      	cmp	r7, r3
 80017e4:	d016      	beq.n	8001814 <LCD_printmenucoursor+0x54>
    dispbuffer[bufpg][bufcl + i] |= byte[i];
 80017e6:	eb05 0c03 	add.w	ip, r5, r3
 80017ea:	eb04 12c0 	add.w	r2, r4, r0, lsl #7
 80017ee:	f812 100c 	ldrb.w	r1, [r2, ip]
 80017f2:	f813 ef01 	ldrb.w	lr, [r3, #1]!
    if (bufcl > 127) bufpg++;
 80017f6:	2e00      	cmp	r6, #0
    dispbuffer[bufpg][bufcl + i] |= byte[i];
 80017f8:	4602      	mov	r2, r0
 80017fa:	ea41 010e 	orr.w	r1, r1, lr
    if (bufcl > 127) bufpg++;
 80017fe:	da03      	bge.n	8001808 <LCD_printmenucoursor+0x48>
 8001800:	f04f 0801 	mov.w	r8, #1
 8001804:	4440      	add	r0, r8
 8001806:	b2c0      	uxtb	r0, r0
    dispbuffer[bufpg][bufcl + i] |= byte[i];
 8001808:	eb04 12c2 	add.w	r2, r4, r2, lsl #7
    if (bufpg > 7) return;
 800180c:	2807      	cmp	r0, #7
    dispbuffer[bufpg][bufcl + i] |= byte[i];
 800180e:	f802 100c 	strb.w	r1, [r2, ip]
    if (bufpg > 7) return;
 8001812:	d9e6      	bls.n	80017e2 <LCD_printmenucoursor+0x22>
 8001814:	f1b8 0f00 	cmp.w	r8, #0
 8001818:	d001      	beq.n	800181e <LCD_printmenucoursor+0x5e>
 800181a:	f889 0000 	strb.w	r0, [r9]
  LCD_setpagecolumn(pg, cl);
  LCD_senddata(menu_pointer, 8);
}
 800181e:	e8bd 83f0 	ldmia.w	sp!, {r4, r5, r6, r7, r8, r9, pc}
 8001822:	bf00      	nop
 8001824:	0800a067 	.word	0x0800a067
 8001828:	200002c5 	.word	0x200002c5
 800182c:	200002c4 	.word	0x200002c4
 8001830:	200002c8 	.word	0x200002c8

08001834 <LCD_printbutselhint>:

void LCD_printbutselhint(uint8 hintnum, uint8 pg, uint8 cl) {
 8001834:	b5f0      	push	{r4, r5, r6, r7, lr}
 8001836:	2500      	movs	r5, #0
 8001838:	4614      	mov	r4, r2
 800183a:	4b12      	ldr	r3, [pc, #72]	@ (8001884 <LCD_printbutselhint+0x50>)
 800183c:	4f12      	ldr	r7, [pc, #72]	@ (8001888 <LCD_printbutselhint+0x54>)
 800183e:	460e      	mov	r6, r1
 8001840:	eb03 11c0 	add.w	r1, r3, r0, lsl #7
  dispbuffer[bufpg][bufcl] |= byte;
 8001844:	2300      	movs	r3, #0
  for (uint8 j = 0; j < 4; j++) {
    LCD_setpagecolumn(pg + j, cl);
 8001846:	eb06 0e05 	add.w	lr, r6, r5
  dispbuffer[bufpg][bufcl] |= byte;
 800184a:	fa5f fe8e 	uxtb.w	lr, lr
 800184e:	eb07 1ece 	add.w	lr, r7, lr, lsl #7
 8001852:	18e0      	adds	r0, r4, r3
 8001854:	b2c0      	uxtb	r0, r0
 8001856:	f811 c023 	ldrb.w	ip, [r1, r3, lsl #2]
 800185a:	f81e 2000 	ldrb.w	r2, [lr, r0]
    for (uint8 i = 0; i < 32; i++) LCD_writebyte(but_sel_hint[hintnum][(i * 4 + j)]);
 800185e:	3301      	adds	r3, #1
  dispbuffer[bufpg][bufcl] |= byte;
 8001860:	ea4c 0c02 	orr.w	ip, ip, r2
    for (uint8 i = 0; i < 32; i++) LCD_writebyte(but_sel_hint[hintnum][(i * 4 + j)]);
 8001864:	2b20      	cmp	r3, #32
  dispbuffer[bufpg][bufcl] |= byte;
 8001866:	f80e c000 	strb.w	ip, [lr, r0]
    for (uint8 i = 0; i < 32; i++) LCD_writebyte(but_sel_hint[hintnum][(i * 4 + j)]);
 800186a:	d1f2      	bne.n	8001852 <LCD_printbutselhint+0x1e>
  for (uint8 j = 0; j < 4; j++) {
 800186c:	3501      	adds	r5, #1
 800186e:	2d04      	cmp	r5, #4
 8001870:	f101 0101 	add.w	r1, r1, #1
 8001874:	d1e6      	bne.n	8001844 <LCD_printbutselhint+0x10>
 8001876:	4a05      	ldr	r2, [pc, #20]	@ (800188c <LCD_printbutselhint+0x58>)
 8001878:	4b05      	ldr	r3, [pc, #20]	@ (8001890 <LCD_printbutselhint+0x5c>)
  bufcl++;
 800187a:	3420      	adds	r4, #32
    LCD_setpagecolumn(pg + j, cl);
 800187c:	3603      	adds	r6, #3
 800187e:	7014      	strb	r4, [r2, #0]
 8001880:	701e      	strb	r6, [r3, #0]
  }
}
 8001882:	bdf0      	pop	{r4, r5, r6, r7, pc}
 8001884:	08009c68 	.word	0x08009c68
 8001888:	200002c8 	.word	0x200002c8
 800188c:	200002c4 	.word	0x200002c4
 8001890:	200002c5 	.word	0x200002c5

08001894 <LCD_printvertline>:

void LCD_printvertline(uint8 linelength, uint8 startline, uint8 cl) {
  if ((linelength - startline) > 63) return;
 8001894:	1a43      	subs	r3, r0, r1
 8001896:	2b3f      	cmp	r3, #63	@ 0x3f
 8001898:	dd00      	ble.n	800189c <LCD_printvertline+0x8>
 800189a:	4770      	bx	lr
void LCD_printvertline(uint8 linelength, uint8 startline, uint8 cl) {
 800189c:	e92d 41f0 	stmdb	sp!, {r4, r5, r6, r7, r8, lr}
  uint8 startpg = startline / 8;
  uint8 bitshifting = (startline % 8);
  uint8 lengthinpages = (linelength - (8 - bitshifting)) / 8;
 80018a0:	f001 0307 	and.w	r3, r1, #7
  uint8 temp = (uint8) (0xFF << bitshifting);
 80018a4:	26ff      	movs	r6, #255	@ 0xff
  uint8 lengthinpages = (linelength - (8 - bitshifting)) / 8;
 80018a6:	f1c3 0408 	rsb	r4, r3, #8
 80018aa:	1b00      	subs	r0, r0, r4
 80018ac:	4607      	mov	r7, r0
    dispbuffer[bufpg][bufcl + i] |= byte[i];
 80018ae:	4c3b      	ldr	r4, [pc, #236]	@ (800199c <LCD_printvertline+0x108>)
  uint8 startpg = startline / 8;
 80018b0:	08c9      	lsrs	r1, r1, #3
    dispbuffer[bufpg][bufcl + i] |= byte[i];
 80018b2:	eb04 1ec1 	add.w	lr, r4, r1, lsl #7
 80018b6:	f81e 8002 	ldrb.w	r8, [lr, r2]
  uint8 temp = (uint8) (0xFF << bitshifting);
 80018ba:	fa06 f303 	lsl.w	r3, r6, r3
  bufcl = cl;
 80018be:	4d38      	ldr	r5, [pc, #224]	@ (80019a0 <LCD_printvertline+0x10c>)
  uint8 lengthinpages = (linelength - (8 - bitshifting)) / 8;
 80018c0:	2800      	cmp	r0, #0
    if (bufcl > 127) bufpg++;
 80018c2:	fa4f fc82 	sxtb.w	ip, r2
    dispbuffer[bufpg][bufcl + i] |= byte[i];
 80018c6:	ea43 0308 	orr.w	r3, r3, r8
  uint8 lengthinpages = (linelength - (8 - bitshifting)) / 8;
 80018ca:	bfb8      	it	lt
 80018cc:	1dc7      	addlt	r7, r0, #7
    dispbuffer[bufpg][bufcl + i] |= byte[i];
 80018ce:	b2db      	uxtb	r3, r3
    if (bufcl > 127) bufpg++;
 80018d0:	f1bc 0f00 	cmp.w	ip, #0
  bufcl = cl;
 80018d4:	702a      	strb	r2, [r5, #0]
    dispbuffer[bufpg][bufcl + i] |= byte[i];
 80018d6:	f80e 3002 	strb.w	r3, [lr, r2]
  bufpg = pg;
 80018da:	4d32      	ldr	r5, [pc, #200]	@ (80019a4 <LCD_printvertline+0x110>)
  uint8 lengthinpages = (linelength - (8 - bitshifting)) / 8;
 80018dc:	f3c7 07c7 	ubfx	r7, r7, #3, #8
    if (bufcl > 127) bufpg++;
 80018e0:	f101 0301 	add.w	r3, r1, #1
 80018e4:	db32      	blt.n	800194c <LCD_printvertline+0xb8>
  LCD_setpagecolumn(startpg, cl);
  LCD_senddata(&temp, 1);
  temp = 0xFF;
  for (uint8 i = 0; i < lengthinpages; i++) {
 80018e6:	2f00      	cmp	r7, #0
 80018e8:	d045      	beq.n	8001976 <LCD_printvertline+0xe2>
 80018ea:	2600      	movs	r6, #0
    dispbuffer[bufpg][bufcl + i] |= byte[i];
 80018ec:	f04f 0eff 	mov.w	lr, #255	@ 0xff
 80018f0:	eb07 0803 	add.w	r8, r7, r3
 80018f4:	fa5f f788 	uxtb.w	r7, r8
 80018f8:	eb04 11c3 	add.w	r1, r4, r3, lsl #7
  for (uint8 i = 0; i < lengthinpages; i++) {
 80018fc:	3301      	adds	r3, #1
 80018fe:	b2db      	uxtb	r3, r3
 8001900:	429f      	cmp	r7, r3
    dispbuffer[bufpg][bufcl + i] |= byte[i];
 8001902:	f801 e002 	strb.w	lr, [r1, r2]
  for (uint8 i = 0; i < lengthinpages; i++) {
 8001906:	d1f7      	bne.n	80018f8 <LCD_printvertline+0x64>
    LCD_setpagecolumn(startpg + 1 + i, cl);
    LCD_senddata(&temp, 1);
  }
  temp = 0xFF >> (8 - (linelength - (8 - bitshifting)) % 8);
 8001908:	4243      	negs	r3, r0
 800190a:	f003 0307 	and.w	r3, r3, #7
 800190e:	f000 0007 	and.w	r0, r0, #7
 8001912:	bf58      	it	pl
 8001914:	4258      	negpl	r0, r3
  LCD_setpagecolumn(startpg + 1 + lengthinpages, cl);
 8001916:	fa5f f188 	uxtb.w	r1, r8
  temp = 0xFF >> (8 - (linelength - (8 - bitshifting)) % 8);
 800191a:	f1c0 0008 	rsb	r0, r0, #8
 800191e:	fa4e f300 	asr.w	r3, lr, r0
    dispbuffer[bufpg][bufcl + i] |= byte[i];
 8001922:	eb04 10c1 	add.w	r0, r4, r1, lsl #7
 8001926:	5c80      	ldrb	r0, [r0, r2]
    if (bufcl > 127) bufpg++;
 8001928:	f1bc 0f00 	cmp.w	ip, #0
    dispbuffer[bufpg][bufcl + i] |= byte[i];
 800192c:	ea43 0300 	orr.w	r3, r3, r0
 8001930:	4608      	mov	r0, r1
  bufpg = pg;
 8001932:	7029      	strb	r1, [r5, #0]
    dispbuffer[bufpg][bufcl + i] |= byte[i];
 8001934:	b2db      	uxtb	r3, r3
    if (bufcl > 127) bufpg++;
 8001936:	bfb8      	it	lt
 8001938:	3101      	addlt	r1, #1
    dispbuffer[bufpg][bufcl + i] |= byte[i];
 800193a:	eb04 10c0 	add.w	r0, r4, r0, lsl #7
    if (bufcl > 127) bufpg++;
 800193e:	bfb8      	it	lt
 8001940:	b2c9      	uxtblt	r1, r1
    dispbuffer[bufpg][bufcl + i] |= byte[i];
 8001942:	5483      	strb	r3, [r0, r2]
  for (uint8 i = 0; i < N; i++) {
 8001944:	b106      	cbz	r6, 8001948 <LCD_printvertline+0xb4>
 8001946:	7029      	strb	r1, [r5, #0]
  LCD_senddata(&temp, 1);
}
 8001948:	e8bd 81f0 	ldmia.w	sp!, {r4, r5, r6, r7, r8, pc}
  for (uint8 i = 0; i < lengthinpages; i++) {
 800194c:	b10f      	cbz	r7, 8001952 <LCD_printvertline+0xbe>
 800194e:	2601      	movs	r6, #1
 8001950:	e7cc      	b.n	80018ec <LCD_printvertline+0x58>
    dispbuffer[bufpg][bufcl + i] |= byte[i];
 8001952:	eb04 13c3 	add.w	r3, r4, r3, lsl #7
  temp = 0xFF >> (8 - (linelength - (8 - bitshifting)) % 8);
 8001956:	4244      	negs	r4, r0
 8001958:	f004 0407 	and.w	r4, r4, #7
 800195c:	f000 0007 	and.w	r0, r0, #7
 8001960:	bf58      	it	pl
 8001962:	4260      	negpl	r0, r4
 8001964:	f1c0 0008 	rsb	r0, r0, #8
    dispbuffer[bufpg][bufcl + i] |= byte[i];
 8001968:	5c9c      	ldrb	r4, [r3, r2]
  temp = 0xFF >> (8 - (linelength - (8 - bitshifting)) % 8);
 800196a:	fa46 f000 	asr.w	r0, r6, r0
    dispbuffer[bufpg][bufcl + i] |= byte[i];
 800196e:	4320      	orrs	r0, r4
    if (bufcl > 127) bufpg++;
 8001970:	3102      	adds	r1, #2
    dispbuffer[bufpg][bufcl + i] |= byte[i];
 8001972:	5498      	strb	r0, [r3, r2]
    if (bufpg > 7) return;
 8001974:	e7e7      	b.n	8001946 <LCD_printvertline+0xb2>
  temp = 0xFF >> (8 - (linelength - (8 - bitshifting)) % 8);
 8001976:	4241      	negs	r1, r0
 8001978:	f001 0107 	and.w	r1, r1, #7
 800197c:	f000 0007 	and.w	r0, r0, #7
  bufpg = pg;
 8001980:	702b      	strb	r3, [r5, #0]
  temp = 0xFF >> (8 - (linelength - (8 - bitshifting)) % 8);
 8001982:	bf58      	it	pl
 8001984:	4248      	negpl	r0, r1
    dispbuffer[bufpg][bufcl + i] |= byte[i];
 8001986:	eb04 13c3 	add.w	r3, r4, r3, lsl #7
 800198a:	5c9c      	ldrb	r4, [r3, r2]
  temp = 0xFF >> (8 - (linelength - (8 - bitshifting)) % 8);
 800198c:	f1c0 0008 	rsb	r0, r0, #8
 8001990:	fa46 f100 	asr.w	r1, r6, r0
    dispbuffer[bufpg][bufcl + i] |= byte[i];
 8001994:	4321      	orrs	r1, r4
 8001996:	5499      	strb	r1, [r3, r2]
    if (bufpg > 7) return;
 8001998:	e7d6      	b.n	8001948 <LCD_printvertline+0xb4>
 800199a:	bf00      	nop
 800199c:	200002c8 	.word	0x200002c8
 80019a0:	200002c4 	.word	0x200002c4
 80019a4:	200002c5 	.word	0x200002c5

080019a8 <LCD_printhorline>:

void LCD_printhorline(uint8 linelength, uint8 startstring, uint8 cl) {
  if ((linelength - cl) > 127) return;
 80019a8:	1a83      	subs	r3, r0, r2
 80019aa:	2b7f      	cmp	r3, #127	@ 0x7f
 80019ac:	dc32      	bgt.n	8001a14 <LCD_printhorline+0x6c>
void LCD_printhorline(uint8 linelength, uint8 startstring, uint8 cl) {
 80019ae:	e92d 47f0 	stmdb	sp!, {r4, r5, r6, r7, r8, r9, sl, lr}
  uint8 startpg = startstring / 8;
  uint8 bitshifting = (startstring % 8);
  uint8 temp = (uint8) (0x1 << bitshifting);
 80019b2:	f04f 0901 	mov.w	r9, #1
 80019b6:	4690      	mov	r8, r2
  bufpg = pg;
 80019b8:	4e17      	ldr	r6, [pc, #92]	@ (8001a18 <LCD_printhorline+0x70>)
  bufcl = cl;
 80019ba:	4f18      	ldr	r7, [pc, #96]	@ (8001a1c <LCD_printhorline+0x74>)
  uint8 temp = (uint8) (0x1 << bitshifting);
 80019bc:	f001 0307 	and.w	r3, r1, #7
  uint8 startpg = startstring / 8;
 80019c0:	08ca      	lsrs	r2, r1, #3
  uint8 temp = (uint8) (0x1 << bitshifting);
 80019c2:	fa09 f903 	lsl.w	r9, r9, r3
 80019c6:	4605      	mov	r5, r0
  bufpg = pg;
 80019c8:	7032      	strb	r2, [r6, #0]
  bufcl = cl;
 80019ca:	f887 8000 	strb.w	r8, [r7]
  uint8 temp = (uint8) (0x1 << bitshifting);
 80019ce:	fa5f f989 	uxtb.w	r9, r9
  LCD_setpagecolumn(startpg, cl);
  for (uint8 i = 0; i < linelength; i++) {
 80019d2:	b1e8      	cbz	r0, 8001a10 <LCD_printhorline+0x68>
 80019d4:	4643      	mov	r3, r8
 80019d6:	4912      	ldr	r1, [pc, #72]	@ (8001a20 <LCD_printhorline+0x78>)
    if (bufcl > 127) bufpg++;
 80019d8:	f102 0a01 	add.w	sl, r2, #1
    dispbuffer[bufpg][bufcl + i] |= byte[i];
 80019dc:	eb01 1cc2 	add.w	ip, r1, r2, lsl #7
 80019e0:	eb00 0108 	add.w	r1, r0, r8
 80019e4:	b2c8      	uxtb	r0, r1
 80019e6:	f81c 1003 	ldrb.w	r1, [ip, r3]
  for (uint8 i = 0; i < linelength; i++) {
 80019ea:	f103 0e01 	add.w	lr, r3, #1
    dispbuffer[bufpg][bufcl + i] |= byte[i];
 80019ee:	ea49 0101 	orr.w	r1, r9, r1
    if (bufcl > 127) bufpg++;
 80019f2:	061c      	lsls	r4, r3, #24
    dispbuffer[bufpg][bufcl + i] |= byte[i];
 80019f4:	f80c 1003 	strb.w	r1, [ip, r3]
  for (uint8 i = 0; i < linelength; i++) {
 80019f8:	fa5f f38e 	uxtb.w	r3, lr
    if (bufcl > 127) bufpg++;
 80019fc:	bf4c      	ite	mi
 80019fe:	4654      	movmi	r4, sl
  bufpg = pg;
 8001a00:	4614      	movpl	r4, r2
  for (uint8 i = 0; i < linelength; i++) {
 8001a02:	4298      	cmp	r0, r3
 8001a04:	d1ef      	bne.n	80019e6 <LCD_printhorline+0x3e>
    LCD_setpagecolumn(startpg, cl + i);
 8001a06:	f108 32ff 	add.w	r2, r8, #4294967295
 8001a0a:	18a8      	adds	r0, r5, r2
 8001a0c:	7038      	strb	r0, [r7, #0]
 8001a0e:	7034      	strb	r4, [r6, #0]
    LCD_senddata(&temp, 1);
  }
}
 8001a10:	e8bd 87f0 	ldmia.w	sp!, {r4, r5, r6, r7, r8, r9, sl, pc}
 8001a14:	4770      	bx	lr
 8001a16:	bf00      	nop
 8001a18:	200002c5 	.word	0x200002c5
 8001a1c:	200002c4 	.word	0x200002c4
 8001a20:	200002c8 	.word	0x200002c8

08001a24 <LCD_printsprite>:
/*----------------------------------------------------------------------------*/

/*------------------------------GAME OBJECTS----------------------------------*/
void LCD_printsprite(int8 startline, int8 startcolumn, const tSprite * const Sprite) {
 8001a24:	e92d 4ff0 	stmdb	sp!, {r4, r5, r6, r7, r8, r9, sl, fp, lr}
  uint16 m = 0, mprev = 0;
  uint8 column_shift = 0;
  uint8 line_shift = (uint8)startline % 8;
  int8 pages_max = (int8)Sprite->pages;
  uint8 page_shift = 0;
  bufpg = (uint8)startline / 8;
 8001a28:	f8df e2bc 	ldr.w	lr, [pc, #700]	@ 8001ce8 <LCD_printsprite+0x2c4>
  if (startcolumn < 0) {
    if(startline >= 0) {
      bufcl = 0;
      columns_max = (int16)Sprite->columns + (int16)startcolumn;
 8001a2c:	7856      	ldrb	r6, [r2, #1]
  bufpg = (uint8)startline / 8;
 8001a2e:	f3c0 03c4 	ubfx	r3, r0, #3, #5
  if (startcolumn < 0) {
 8001a32:	2900      	cmp	r1, #0
  int8 pages_max = (int8)Sprite->pages;
 8001a34:	f992 c000 	ldrsb.w	ip, [r2]
void LCD_printsprite(int8 startline, int8 startcolumn, const tSprite * const Sprite) {
 8001a38:	b089      	sub	sp, #36	@ 0x24
  uint8 line_shift = (uint8)startline % 8;
 8001a3a:	b2c4      	uxtb	r4, r0
  bufpg = (uint8)startline / 8;
 8001a3c:	f88e 3000 	strb.w	r3, [lr]
  uint8 line_shift = (uint8)startline % 8;
 8001a40:	f000 0707 	and.w	r7, r0, #7
      if (columns_max < 0) columns_max = 0;
      m = (uint16)(-startcolumn) * Sprite->pages;
      column_shift = (uint8)(-startcolumn);
 8001a44:	b2cd      	uxtb	r5, r1
      columns_max = (int16)Sprite->columns + (int16)startcolumn;
 8001a46:	eb06 0801 	add.w	r8, r6, r1
  if (startcolumn < 0) {
 8001a4a:	f2c0 8133 	blt.w	8001cb4 <LCD_printsprite+0x290>
      m = (uint16)(-startcolumn) * Sprite->pages + page_shift;
    }
  }
  else {
    if(startline >= 0){
      bufcl = (uint8)startcolumn;
 8001a4e:	4ba7      	ldr	r3, [pc, #668]	@ (8001cec <LCD_printsprite+0x2c8>)
    if(startline >= 0){
 8001a50:	2800      	cmp	r0, #0
      bufcl = (uint8)startcolumn;
 8001a52:	701d      	strb	r5, [r3, #0]
    if(startline >= 0){
 8001a54:	db65      	blt.n	8001b22 <LCD_printsprite+0xfe>
      columns_max = (((int16)startcolumn + (int16)Sprite->columns) > 127) ? (127 - startcolumn) : Sprite->columns;
 8001a56:	f1b8 0f7f 	cmp.w	r8, #127	@ 0x7f
 8001a5a:	f340 816f 	ble.w	8001d3c <LCD_printsprite+0x318>
 8001a5e:	f1c1 067f 	rsb	r6, r1, #127	@ 0x7f
  uint8 page_shift = 0;
 8001a62:	2100      	movs	r1, #0
      page_shift = (uint8)-startline/8 + 1;
      m = page_shift;
    }
  }
  
  switch (Sprite->direct) {
 8001a64:	7a14      	ldrb	r4, [r2, #8]
  uint8 column_shift = 0;
 8001a66:	460d      	mov	r5, r1
  uint8 page_shift = 0;
 8001a68:	9104      	str	r1, [sp, #16]
  switch (Sprite->direct) {
 8001a6a:	2c00      	cmp	r4, #0
 8001a6c:	d17b      	bne.n	8001b66 <LCD_printsprite+0x142>
 8001a6e:	2f00      	cmp	r7, #0
 8001a70:	bf0c      	ite	eq
 8001a72:	46e3      	moveq	fp, ip
 8001a74:	f10c 0b01 	addne.w	fp, ip, #1
        for (uint8 j = 0; j < columns_max; j++) {
          if (i == 0) {
            dispbuffer[bufpg + i][bufcl + j] |= Sprite->sprite[j + column_shift] << line_shift;
          }
          if ((i > 0) && (i < pages_max)) {
            dispbuffer[bufpg + i][bufcl + j] |= (Sprite->sprite[(i - 1) * Sprite->columns + j + column_shift] >> (8 - line_shift)) | 
 8001a78:	f89e 0000 	ldrb.w	r0, [lr]
      for (uint8 i = 0; i < (line_shift ? (pages_max + 1) : pages_max); i++) {
 8001a7c:	f1bb 0f00 	cmp.w	fp, #0
            dispbuffer[bufpg + i][bufcl + j] |= (Sprite->sprite[(i - 1) * Sprite->columns + j + column_shift] >> (8 - line_shift)) | 
 8001a80:	f893 e000 	ldrb.w	lr, [r3]
 8001a84:	9004      	str	r0, [sp, #16]
      for (uint8 i = 0; i < (line_shift ? (pages_max + 1) : pages_max); i++) {
 8001a86:	dd49      	ble.n	8001b1c <LCD_printsprite+0xf8>
 8001a88:	4999      	ldr	r1, [pc, #612]	@ (8001cf0 <LCD_printsprite+0x2cc>)
 8001a8a:	eb0e 13c0 	add.w	r3, lr, r0, lsl #7
 8001a8e:	18cb      	adds	r3, r1, r3
 8001a90:	9103      	str	r1, [sp, #12]
 8001a92:	9305      	str	r3, [sp, #20]
        for (uint8 j = 0; j < columns_max; j++) {
 8001a94:	2e00      	cmp	r6, #0
 8001a96:	f000 811d 	beq.w	8001cd4 <LCD_printsprite+0x2b0>
 8001a9a:	e9cd eb01 	strd	lr, fp, [sp, #4]
                                                (Sprite->sprite[i * Sprite->columns + j + column_shift] << line_shift);
          }
          if (i == pages_max) {
            dispbuffer[bufpg + i][bufcl + j] |= Sprite->sprite[(i - 1) * Sprite->columns + j + column_shift] >> (8 - line_shift);
 8001a9e:	f10c 33ff 	add.w	r3, ip, #4294967295
 8001aa2:	9300      	str	r3, [sp, #0]
 8001aa4:	f1c7 0808 	rsb	r8, r7, #8
            dispbuffer[bufpg + i][bufcl + j] |= (Sprite->sprite[(i - 1) * Sprite->columns + j + column_shift] >> (8 - line_shift)) | 
 8001aa8:	2300      	movs	r3, #0
 8001aaa:	9904      	ldr	r1, [sp, #16]
 8001aac:	f8dd e004 	ldr.w	lr, [sp, #4]
 8001ab0:	1861      	adds	r1, r4, r1
 8001ab2:	eb0e 11c1 	add.w	r1, lr, r1, lsl #7
 8001ab6:	f8dd e00c 	ldr.w	lr, [sp, #12]
 8001aba:	9805      	ldr	r0, [sp, #20]
 8001abc:	4471      	add	r1, lr
 8001abe:	f104 39ff 	add.w	r9, r4, #4294967295
          if (i == 0) {
 8001ac2:	2c00      	cmp	r4, #0
 8001ac4:	f000 8116 	beq.w	8001cf4 <LCD_printsprite+0x2d0>
          if ((i > 0) && (i < pages_max)) {
 8001ac8:	45a4      	cmp	ip, r4
 8001aca:	f340 8120 	ble.w	8001d0e <LCD_printsprite+0x2ea>
            dispbuffer[bufpg + i][bufcl + j] |= (Sprite->sprite[(i - 1) * Sprite->columns + j + column_shift] >> (8 - line_shift)) | 
 8001ace:	f892 e001 	ldrb.w	lr, [r2, #1]
 8001ad2:	f8d2 a004 	ldr.w	sl, [r2, #4]
 8001ad6:	fb0e fb09 	mul.w	fp, lr, r9
                                                (Sprite->sprite[i * Sprite->columns + j + column_shift] << line_shift);
 8001ada:	44d6      	add	lr, sl
 8001adc:	44de      	add	lr, fp
            dispbuffer[bufpg + i][bufcl + j] |= (Sprite->sprite[(i - 1) * Sprite->columns + j + column_shift] >> (8 - line_shift)) | 
 8001ade:	44da      	add	sl, fp
 8001ae0:	44aa      	add	sl, r5
                                                (Sprite->sprite[i * Sprite->columns + j + column_shift] << line_shift);
 8001ae2:	44ae      	add	lr, r5
            dispbuffer[bufpg + i][bufcl + j] |= (Sprite->sprite[(i - 1) * Sprite->columns + j + column_shift] >> (8 - line_shift)) | 
 8001ae4:	f81a a003 	ldrb.w	sl, [sl, r3]
                                                (Sprite->sprite[i * Sprite->columns + j + column_shift] << line_shift);
 8001ae8:	f81e e003 	ldrb.w	lr, [lr, r3]
            dispbuffer[bufpg + i][bufcl + j] |= (Sprite->sprite[(i - 1) * Sprite->columns + j + column_shift] >> (8 - line_shift)) | 
 8001aec:	fa4a fa08 	asr.w	sl, sl, r8
                                                (Sprite->sprite[i * Sprite->columns + j + column_shift] << line_shift);
 8001af0:	fa0e fe07 	lsl.w	lr, lr, r7
            dispbuffer[bufpg + i][bufcl + j] |= (Sprite->sprite[(i - 1) * Sprite->columns + j + column_shift] >> (8 - line_shift)) | 
 8001af4:	ea4a 0e0e 	orr.w	lr, sl, lr
 8001af8:	f891 a000 	ldrb.w	sl, [r1]
 8001afc:	ea4e 0e0a 	orr.w	lr, lr, sl
 8001b00:	f881 e000 	strb.w	lr, [r1]
        for (uint8 j = 0; j < columns_max; j++) {
 8001b04:	3301      	adds	r3, #1
 8001b06:	429e      	cmp	r6, r3
 8001b08:	f101 0101 	add.w	r1, r1, #1
 8001b0c:	f100 0001 	add.w	r0, r0, #1
 8001b10:	d1d7      	bne.n	8001ac2 <LCD_printsprite+0x9e>
      for (uint8 i = 0; i < (line_shift ? (pages_max + 1) : pages_max); i++) {
 8001b12:	9b02      	ldr	r3, [sp, #8]
 8001b14:	3401      	adds	r4, #1
 8001b16:	b2e4      	uxtb	r4, r4
 8001b18:	42a3      	cmp	r3, r4
 8001b1a:	dcc5      	bgt.n	8001aa8 <LCD_printsprite+0x84>
          }
        }
      }
      break;
  }
}
 8001b1c:	b009      	add	sp, #36	@ 0x24
 8001b1e:	e8bd 8ff0 	ldmia.w	sp!, {r4, r5, r6, r7, r8, r9, sl, fp, pc}
      columns_max = (((int16)startcolumn + (int16)Sprite->columns) > 127) ? (127 - startcolumn) : Sprite->columns;
 8001b22:	f1b8 0f7f 	cmp.w	r8, #127	@ 0x7f
 8001b26:	bfc8      	it	gt
 8001b28:	f1c1 067f 	rsbgt	r6, r1, #127	@ 0x7f
      bufpg = 0;
 8001b2c:	2100      	movs	r1, #0
 8001b2e:	f88e 1000 	strb.w	r1, [lr]
      pages_max = (int8)Sprite->pages + startline/8 - 1;
 8001b32:	4601      	mov	r1, r0
  uint8 column_shift = 0;
 8001b34:	2500      	movs	r5, #0
      pages_max = (int8)Sprite->pages + startline/8 - 1;
 8001b36:	f892 c000 	ldrb.w	ip, [r2]
      line_shift = 8 - (uint8)-startline % 8;
 8001b3a:	4264      	negs	r4, r4
      pages_max = (int8)Sprite->pages + startline/8 - 1;
 8001b3c:	2800      	cmp	r0, #0
      line_shift = 8 - (uint8)-startline % 8;
 8001b3e:	f004 0707 	and.w	r7, r4, #7
      pages_max = (int8)Sprite->pages + startline/8 - 1;
 8001b42:	bfb8      	it	lt
 8001b44:	1dc1      	addlt	r1, r0, #7
 8001b46:	f10c 3cff 	add.w	ip, ip, #4294967295
      line_shift = 8 - (uint8)-startline % 8;
 8001b4a:	b2e4      	uxtb	r4, r4
      pages_max = (int8)Sprite->pages + startline/8 - 1;
 8001b4c:	eb0c 0ce1 	add.w	ip, ip, r1, asr #3
      page_shift = (uint8)-startline/8 + 1;
 8001b50:	08e1      	lsrs	r1, r4, #3
      line_shift = 8 - (uint8)-startline % 8;
 8001b52:	f1c7 0708 	rsb	r7, r7, #8
      page_shift = (uint8)-startline/8 + 1;
 8001b56:	3101      	adds	r1, #1
      line_shift = 8 - (uint8)-startline % 8;
 8001b58:	b2ff      	uxtb	r7, r7
      page_shift = (uint8)-startline/8 + 1;
 8001b5a:	9104      	str	r1, [sp, #16]
      pages_max = (int8)Sprite->pages + startline/8 - 1;
 8001b5c:	fa4f fc8c 	sxtb.w	ip, ip
  switch (Sprite->direct) {
 8001b60:	7a14      	ldrb	r4, [r2, #8]
 8001b62:	2c00      	cmp	r4, #0
 8001b64:	d083      	beq.n	8001a6e <LCD_printsprite+0x4a>
 8001b66:	2c01      	cmp	r4, #1
 8001b68:	d1d8      	bne.n	8001b1c <LCD_printsprite+0xf8>
      for (uint8 j = 0; j < columns_max; j++) {
 8001b6a:	2e00      	cmp	r6, #0
 8001b6c:	d0d6      	beq.n	8001b1c <LCD_printsprite+0xf8>
            if((bufpg + i) < 8 && (bufcl + j) <= 127) dispbuffer[bufpg + i][bufcl + j] |= (Sprite->sprite[mprev + page_shift * j] >> (8 - line_shift))| 
 8001b6e:	f89e 4000 	ldrb.w	r4, [lr]
 8001b72:	781d      	ldrb	r5, [r3, #0]
 8001b74:	f1c7 0a08 	rsb	sl, r7, #8
 8001b78:	1973      	adds	r3, r6, r5
            if((bufpg + i) < 8 && (bufcl + j) <= 127) dispbuffer[bufpg + i][bufcl + j] |= Sprite->sprite[mprev + page_shift * j] >> (8 - line_shift);
 8001b7a:	eb04 060c 	add.w	r6, r4, ip
 8001b7e:	2f00      	cmp	r7, #0
 8001b80:	bf0c      	ite	eq
 8001b82:	46e6      	moveq	lr, ip
 8001b84:	f10c 0e01 	addne.w	lr, ip, #1
 8001b88:	9702      	str	r7, [sp, #8]
            if((bufpg + i) < 8 && (bufcl + j) <= 127) dispbuffer[bufpg + i][bufcl + j] |= (Sprite->sprite[mprev + page_shift * j] >> (8 - line_shift))| 
 8001b8a:	f04f 0800 	mov.w	r8, #0
 8001b8e:	4637      	mov	r7, r6
 8001b90:	9305      	str	r3, [sp, #20]
 8001b92:	4b57      	ldr	r3, [pc, #348]	@ (8001cf0 <LCD_printsprite+0x2cc>)
 8001b94:	eb05 19c4 	add.w	r9, r5, r4, lsl #7
 8001b98:	9303      	str	r3, [sp, #12]
 8001b9a:	4499      	add	r9, r3
            if((bufpg + i) < 8 && (bufcl + j) <= 127) dispbuffer[bufpg + i][bufcl + j] |= Sprite->sprite[mprev + page_shift * j] >> (8 - line_shift);
 8001b9c:	eb03 13c6 	add.w	r3, r3, r6, lsl #7
            if((bufpg + i) < 8 && (bufcl + j) <= 127) dispbuffer[bufpg + i][bufcl + j] |= (Sprite->sprite[mprev + page_shift * j] >> (8 - line_shift))| 
 8001ba0:	f8cd a004 	str.w	sl, [sp, #4]
            if((bufpg + i) < 8 && (bufcl + j) <= 127) dispbuffer[bufpg + i][bufcl + j] |= Sprite->sprite[mprev + page_shift * j] >> (8 - line_shift);
 8001ba4:	9307      	str	r3, [sp, #28]
 8001ba6:	9200      	str	r2, [sp, #0]
        for (uint8 i = 0; i < (line_shift ? (pages_max + 1) : pages_max); i++) {
 8001ba8:	f1be 0f00 	cmp.w	lr, #0
 8001bac:	dd76      	ble.n	8001c9c <LCD_printsprite+0x278>
            if(startline >= 0){ 
 8001bae:	2800      	cmp	r0, #0
 8001bb0:	db5a      	blt.n	8001c68 <LCD_printsprite+0x244>
              if((bufpg + i) < 8 && (bufcl + j) <= 127)  dispbuffer[bufpg + i][bufcl + j] |= Sprite->sprite[m] << line_shift;
 8001bb2:	2c07      	cmp	r4, #7
 8001bb4:	dc53      	bgt.n	8001c5e <LCD_printsprite+0x23a>
 8001bb6:	2d7f      	cmp	r5, #127	@ 0x7f
 8001bb8:	d809      	bhi.n	8001bce <LCD_printsprite+0x1aa>
 8001bba:	9b00      	ldr	r3, [sp, #0]
 8001bbc:	9a02      	ldr	r2, [sp, #8]
 8001bbe:	685b      	ldr	r3, [r3, #4]
 8001bc0:	f899 6000 	ldrb.w	r6, [r9]
 8001bc4:	5c5b      	ldrb	r3, [r3, r1]
 8001bc6:	4093      	lsls	r3, r2
 8001bc8:	4333      	orrs	r3, r6
 8001bca:	f889 3000 	strb.w	r3, [r9]
        for (uint8 i = 0; i < (line_shift ? (pages_max + 1) : pages_max); i++) {
 8001bce:	2300      	movs	r3, #0
 8001bd0:	461e      	mov	r6, r3
          if (i == pages_max) {
 8001bd2:	45b4      	cmp	ip, r6
            if((bufpg + i) < 8 && (bufcl + j) <= 127) dispbuffer[bufpg + i][bufcl + j] |= Sprite->sprite[mprev + page_shift * j] >> (8 - line_shift);
 8001bd4:	9a00      	ldr	r2, [sp, #0]
              m++;
 8001bd6:	f101 0a01 	add.w	sl, r1, #1
          if (i == pages_max) {
 8001bda:	d02e      	beq.n	8001c3a <LCD_printsprite+0x216>
        for (uint8 i = 0; i < (line_shift ? (pages_max + 1) : pages_max); i++) {
 8001bdc:	3301      	adds	r3, #1
 8001bde:	b2db      	uxtb	r3, r3
 8001be0:	4573      	cmp	r3, lr
 8001be2:	461e      	mov	r6, r3
            if((bufpg + i) < 8 && (bufcl + j) <= 127) dispbuffer[bufpg + i][bufcl + j] |= (Sprite->sprite[mprev + page_shift * j] >> (8 - line_shift))| 
 8001be4:	eb04 0b03 	add.w	fp, r4, r3
        for (uint8 i = 0; i < (line_shift ? (pages_max + 1) : pages_max); i++) {
 8001be8:	da56      	bge.n	8001c98 <LCD_printsprite+0x274>
          if ((i > 0) && (i < pages_max)) {
 8001bea:	4563      	cmp	r3, ip
 8001bec:	da21      	bge.n	8001c32 <LCD_printsprite+0x20e>
            if((bufpg + i) < 8 && (bufcl + j) <= 127) dispbuffer[bufpg + i][bufcl + j] |= (Sprite->sprite[mprev + page_shift * j] >> (8 - line_shift))| 
 8001bee:	f1bb 0f07 	cmp.w	fp, #7
 8001bf2:	dc1a      	bgt.n	8001c2a <LCD_printsprite+0x206>
 8001bf4:	2d7f      	cmp	r5, #127	@ 0x7f
 8001bf6:	d818      	bhi.n	8001c2a <LCD_printsprite+0x206>
 8001bf8:	9e03      	ldr	r6, [sp, #12]
 8001bfa:	eb06 1bcb 	add.w	fp, r6, fp, lsl #7
 8001bfe:	6856      	ldr	r6, [r2, #4]
 8001c00:	4431      	add	r1, r6
                                                                                          (Sprite->sprite[m + page_shift * j] << line_shift);
 8001c02:	4456      	add	r6, sl
 8001c04:	f816 6008 	ldrb.w	r6, [r6, r8]
            if((bufpg + i) < 8 && (bufcl + j) <= 127) dispbuffer[bufpg + i][bufcl + j] |= (Sprite->sprite[mprev + page_shift * j] >> (8 - line_shift))| 
 8001c08:	f811 1008 	ldrb.w	r1, [r1, r8]
                                                                                          (Sprite->sprite[m + page_shift * j] << line_shift);
 8001c0c:	9606      	str	r6, [sp, #24]
            if((bufpg + i) < 8 && (bufcl + j) <= 127) dispbuffer[bufpg + i][bufcl + j] |= (Sprite->sprite[mprev + page_shift * j] >> (8 - line_shift))| 
 8001c0e:	9e01      	ldr	r6, [sp, #4]
 8001c10:	4131      	asrs	r1, r6
 8001c12:	9100      	str	r1, [sp, #0]
                                                                                          (Sprite->sprite[m + page_shift * j] << line_shift);
 8001c14:	9e02      	ldr	r6, [sp, #8]
 8001c16:	9906      	ldr	r1, [sp, #24]
 8001c18:	40b1      	lsls	r1, r6
 8001c1a:	460e      	mov	r6, r1
            if((bufpg + i) < 8 && (bufcl + j) <= 127) dispbuffer[bufpg + i][bufcl + j] |= (Sprite->sprite[mprev + page_shift * j] >> (8 - line_shift))| 
 8001c1c:	9900      	ldr	r1, [sp, #0]
 8001c1e:	4331      	orrs	r1, r6
 8001c20:	f81b 6005 	ldrb.w	r6, [fp, r5]
 8001c24:	4331      	orrs	r1, r6
 8001c26:	f80b 1005 	strb.w	r1, [fp, r5]
            m++;
 8001c2a:	4651      	mov	r1, sl
 8001c2c:	f10a 0a01 	add.w	sl, sl, #1
 8001c30:	e7d4      	b.n	8001bdc <LCD_printsprite+0x1b8>
 8001c32:	9200      	str	r2, [sp, #0]
          if (i == pages_max) {
 8001c34:	45b4      	cmp	ip, r6
            if((bufpg + i) < 8 && (bufcl + j) <= 127) dispbuffer[bufpg + i][bufcl + j] |= Sprite->sprite[mprev + page_shift * j] >> (8 - line_shift);
 8001c36:	9a00      	ldr	r2, [sp, #0]
          if (i == pages_max) {
 8001c38:	d1d0      	bne.n	8001bdc <LCD_printsprite+0x1b8>
            if((bufpg + i) < 8 && (bufcl + j) <= 127) dispbuffer[bufpg + i][bufcl + j] |= Sprite->sprite[mprev + page_shift * j] >> (8 - line_shift);
 8001c3a:	2f07      	cmp	r7, #7
 8001c3c:	dcce      	bgt.n	8001bdc <LCD_printsprite+0x1b8>
 8001c3e:	2d7f      	cmp	r5, #127	@ 0x7f
 8001c40:	d8cc      	bhi.n	8001bdc <LCD_printsprite+0x1b8>
 8001c42:	6856      	ldr	r6, [r2, #4]
 8001c44:	9a01      	ldr	r2, [sp, #4]
 8001c46:	440e      	add	r6, r1
 8001c48:	f816 6008 	ldrb.w	r6, [r6, r8]
 8001c4c:	4116      	asrs	r6, r2
 8001c4e:	9a07      	ldr	r2, [sp, #28]
 8001c50:	f812 b005 	ldrb.w	fp, [r2, r5]
 8001c54:	ea46 060b 	orr.w	r6, r6, fp
 8001c58:	5556      	strb	r6, [r2, r5]
 8001c5a:	9a00      	ldr	r2, [sp, #0]
 8001c5c:	e7be      	b.n	8001bdc <LCD_printsprite+0x1b8>
        for (uint8 i = 0; i < (line_shift ? (pages_max + 1) : pages_max); i++) {
 8001c5e:	2300      	movs	r3, #0
 8001c60:	9a00      	ldr	r2, [sp, #0]
              m++;
 8001c62:	f101 0a01 	add.w	sl, r1, #1
          if (i == pages_max) {
 8001c66:	e7b9      	b.n	8001bdc <LCD_printsprite+0x1b8>
              if((bufpg + i) < 8 && (bufcl + j) <= 127)  dispbuffer[bufpg + i][bufcl + j] |= (Sprite->sprite[mprev + page_shift * j] >> (8 - line_shift))|
 8001c68:	2c07      	cmp	r4, #7
 8001c6a:	dcf8      	bgt.n	8001c5e <LCD_printsprite+0x23a>
 8001c6c:	2d7f      	cmp	r5, #127	@ 0x7f
 8001c6e:	d8ae      	bhi.n	8001bce <LCD_printsprite+0x1aa>
 8001c70:	9b00      	ldr	r3, [sp, #0]
 8001c72:	9a01      	ldr	r2, [sp, #4]
 8001c74:	685b      	ldr	r3, [r3, #4]
 8001c76:	440b      	add	r3, r1
 8001c78:	eb03 0608 	add.w	r6, r3, r8
 8001c7c:	f816 6c01 	ldrb.w	r6, [r6, #-1]
                                                                                             (Sprite->sprite[m + page_shift * j] << line_shift);
 8001c80:	f813 3008 	ldrb.w	r3, [r3, r8]
              if((bufpg + i) < 8 && (bufcl + j) <= 127)  dispbuffer[bufpg + i][bufcl + j] |= (Sprite->sprite[mprev + page_shift * j] >> (8 - line_shift))|
 8001c84:	4116      	asrs	r6, r2
                                                                                             (Sprite->sprite[m + page_shift * j] << line_shift);
 8001c86:	9a02      	ldr	r2, [sp, #8]
 8001c88:	4093      	lsls	r3, r2
              if((bufpg + i) < 8 && (bufcl + j) <= 127)  dispbuffer[bufpg + i][bufcl + j] |= (Sprite->sprite[mprev + page_shift * j] >> (8 - line_shift))|
 8001c8a:	4333      	orrs	r3, r6
 8001c8c:	f899 6000 	ldrb.w	r6, [r9]
 8001c90:	4333      	orrs	r3, r6
 8001c92:	f889 3000 	strb.w	r3, [r9]
 8001c96:	e79a      	b.n	8001bce <LCD_printsprite+0x1aa>
 8001c98:	4651      	mov	r1, sl
 8001c9a:	9200      	str	r2, [sp, #0]
      for (uint8 j = 0; j < columns_max; j++) {
 8001c9c:	9b04      	ldr	r3, [sp, #16]
 8001c9e:	3501      	adds	r5, #1
 8001ca0:	4498      	add	r8, r3
 8001ca2:	9b05      	ldr	r3, [sp, #20]
 8001ca4:	f109 0901 	add.w	r9, r9, #1
 8001ca8:	42ab      	cmp	r3, r5
 8001caa:	f47f af7d 	bne.w	8001ba8 <LCD_printsprite+0x184>
}
 8001cae:	b009      	add	sp, #36	@ 0x24
 8001cb0:	e8bd 8ff0 	ldmia.w	sp!, {r4, r5, r6, r7, r8, r9, sl, fp, pc}
      column_shift = (uint8)(-startcolumn);
 8001cb4:	426d      	negs	r5, r5
    if(startline >= 0) {
 8001cb6:	2800      	cmp	r0, #0
      m = (uint16)(-startcolumn) * Sprite->pages;
 8001cb8:	f1c1 0100 	rsb	r1, r1, #0
      if (columns_max < 0) columns_max = 0;
 8001cbc:	ea28 76e8 	bic.w	r6, r8, r8, asr #31
      column_shift = (uint8)(-startcolumn);
 8001cc0:	b2ed      	uxtb	r5, r5
    if(startline >= 0) {
 8001cc2:	db3f      	blt.n	8001d44 <LCD_printsprite+0x320>
      bufcl = 0;
 8001cc4:	2400      	movs	r4, #0
 8001cc6:	4b09      	ldr	r3, [pc, #36]	@ (8001cec <LCD_printsprite+0x2c8>)
  uint8 page_shift = 0;
 8001cc8:	9404      	str	r4, [sp, #16]
      bufcl = 0;
 8001cca:	701c      	strb	r4, [r3, #0]
      m = (uint16)(-startcolumn) * Sprite->pages;
 8001ccc:	7814      	ldrb	r4, [r2, #0]
 8001cce:	fb04 f101 	mul.w	r1, r4, r1
      column_shift = (uint8)(-startcolumn);
 8001cd2:	e745      	b.n	8001b60 <LCD_printsprite+0x13c>
      for (uint8 i = 0; i < (line_shift ? (pages_max + 1) : pages_max); i++) {
 8001cd4:	3401      	adds	r4, #1
 8001cd6:	b2e4      	uxtb	r4, r4
 8001cd8:	455c      	cmp	r4, fp
 8001cda:	f6bf af1f 	bge.w	8001b1c <LCD_printsprite+0xf8>
 8001cde:	3401      	adds	r4, #1
 8001ce0:	b2e4      	uxtb	r4, r4
 8001ce2:	455c      	cmp	r4, fp
 8001ce4:	dbf6      	blt.n	8001cd4 <LCD_printsprite+0x2b0>
 8001ce6:	e719      	b.n	8001b1c <LCD_printsprite+0xf8>
 8001ce8:	200002c5 	.word	0x200002c5
 8001cec:	200002c4 	.word	0x200002c4
 8001cf0:	200002c8 	.word	0x200002c8
            dispbuffer[bufpg + i][bufcl + j] |= Sprite->sprite[j + column_shift] << line_shift;
 8001cf4:	f8d2 a004 	ldr.w	sl, [r2, #4]
 8001cf8:	f890 e000 	ldrb.w	lr, [r0]
 8001cfc:	44aa      	add	sl, r5
 8001cfe:	f81a a003 	ldrb.w	sl, [sl, r3]
 8001d02:	fa0a fa07 	lsl.w	sl, sl, r7
 8001d06:	ea4a 0a0e 	orr.w	sl, sl, lr
 8001d0a:	f880 a000 	strb.w	sl, [r0]
          if (i == pages_max) {
 8001d0e:	45a4      	cmp	ip, r4
 8001d10:	f47f aef8 	bne.w	8001b04 <LCD_printsprite+0xe0>
            dispbuffer[bufpg + i][bufcl + j] |= Sprite->sprite[(i - 1) * Sprite->columns + j + column_shift] >> (8 - line_shift);
 8001d14:	f8dd a000 	ldr.w	sl, [sp]
 8001d18:	f892 e001 	ldrb.w	lr, [r2, #1]
 8001d1c:	fb0e 3e0a 	mla	lr, lr, sl, r3
 8001d20:	f8d2 a004 	ldr.w	sl, [r2, #4]
 8001d24:	44aa      	add	sl, r5
 8001d26:	f81e e00a 	ldrb.w	lr, [lr, sl]
 8001d2a:	f891 a000 	ldrb.w	sl, [r1]
 8001d2e:	fa4e fe08 	asr.w	lr, lr, r8
 8001d32:	ea4e 0e0a 	orr.w	lr, lr, sl
 8001d36:	f881 e000 	strb.w	lr, [r1]
 8001d3a:	e6e3      	b.n	8001b04 <LCD_printsprite+0xe0>
  uint8 page_shift = 0;
 8001d3c:	2100      	movs	r1, #0
  uint8 column_shift = 0;
 8001d3e:	460d      	mov	r5, r1
  uint8 page_shift = 0;
 8001d40:	9104      	str	r1, [sp, #16]
 8001d42:	e70d      	b.n	8001b60 <LCD_printsprite+0x13c>
      bufcl = 0;
 8001d44:	f04f 0c00 	mov.w	ip, #0
      line_shift = 8 - (uint8)-startline % 8;
 8001d48:	4264      	negs	r4, r4
 8001d4a:	f004 0707 	and.w	r7, r4, #7
      bufcl = 0;
 8001d4e:	4b0d      	ldr	r3, [pc, #52]	@ (8001d84 <LCD_printsprite+0x360>)
      page_shift = (uint8)-startline/8 + 1;
 8001d50:	f3c4 04c4 	ubfx	r4, r4, #3, #5
 8001d54:	3401      	adds	r4, #1
 8001d56:	9404      	str	r4, [sp, #16]
      bufcl = 0;
 8001d58:	f883 c000 	strb.w	ip, [r3]
      bufpg = 0;
 8001d5c:	f88e c000 	strb.w	ip, [lr]
      pages_max = (int8)Sprite->pages + startline/8 - 1;
 8001d60:	7814      	ldrb	r4, [r2, #0]
      m = (uint16)(-startcolumn) * Sprite->pages + page_shift;
 8001d62:	f8dd c010 	ldr.w	ip, [sp, #16]
      pages_max = (int8)Sprite->pages + startline/8 - 1;
 8001d66:	f100 0807 	add.w	r8, r0, #7
      m = (uint16)(-startcolumn) * Sprite->pages + page_shift;
 8001d6a:	fb01 c104 	mla	r1, r1, r4, ip
      pages_max = (int8)Sprite->pages + startline/8 - 1;
 8001d6e:	f104 3cff 	add.w	ip, r4, #4294967295
      line_shift = 8 - (uint8)-startline % 8;
 8001d72:	f1c7 0708 	rsb	r7, r7, #8
      pages_max = (int8)Sprite->pages + startline/8 - 1;
 8001d76:	eb0c 0ce8 	add.w	ip, ip, r8, asr #3
      line_shift = 8 - (uint8)-startline % 8;
 8001d7a:	b2ff      	uxtb	r7, r7
      pages_max = (int8)Sprite->pages + startline/8 - 1;
 8001d7c:	fa4f fc8c 	sxtb.w	ip, ip
      m = (uint16)(-startcolumn) * Sprite->pages + page_shift;
 8001d80:	e6ee      	b.n	8001b60 <LCD_printsprite+0x13c>
 8001d82:	bf00      	nop
 8001d84:	200002c4 	.word	0x200002c4

08001d88 <LCD_printgamestatbar>:

void LCD_printgamestatbar(tGamer* gamer) {
 8001d88:	b510      	push	{r4, lr}
 8001d8a:	4604      	mov	r4, r0
 8001d8c:	4a2a      	ldr	r2, [pc, #168]	@ (8001e38 <LCD_printgamestatbar+0xb0>)
 8001d8e:	492b      	ldr	r1, [pc, #172]	@ (8001e3c <LCD_printgamestatbar+0xb4>)
 8001d90:	b084      	sub	sp, #16
 8001d92:	f102 0c80 	add.w	ip, r2, #128	@ 0x80
  for (uint8 i = 0; i < 128; i++) dispbuffer[0][i] |= GameStatusBar[i];
 8001d96:	f852 0b04 	ldr.w	r0, [r2], #4
 8001d9a:	f851 3f04 	ldr.w	r3, [r1, #4]!
 8001d9e:	4562      	cmp	r2, ip
 8001da0:	ea43 0300 	orr.w	r3, r3, r0
 8001da4:	600b      	str	r3, [r1, #0]
 8001da6:	d1f6      	bne.n	8001d96 <LCD_printgamestatbar+0xe>
  for (uint8 i = 9; i < (9 + gamer->health); i++) dispbuffer[0][i] |= 0b00111100; // helth bar
 8001da8:	f994 3000 	ldrsb.w	r3, [r4]
 8001dac:	2b00      	cmp	r3, #0
 8001dae:	dd41      	ble.n	8001e34 <LCD_printgamestatbar+0xac>
 8001db0:	4a23      	ldr	r2, [pc, #140]	@ (8001e40 <LCD_printgamestatbar+0xb8>)
 8001db2:	f1a2 0008 	sub.w	r0, r2, #8
 8001db6:	4613      	mov	r3, r2
 8001db8:	f812 1f01 	ldrb.w	r1, [r2, #1]!
 8001dbc:	3302      	adds	r3, #2
 8001dbe:	f041 013c 	orr.w	r1, r1, #60	@ 0x3c
 8001dc2:	7011      	strb	r1, [r2, #0]
 8001dc4:	f994 1000 	ldrsb.w	r1, [r4]
 8001dc8:	1a1b      	subs	r3, r3, r0
 8001dca:	3108      	adds	r1, #8
 8001dcc:	4299      	cmp	r1, r3
 8001dce:	daf2      	bge.n	8001db6 <LCD_printgamestatbar+0x2e>
  for (uint8 i = 102; i < (102 + gamer->energy); i++) dispbuffer[0][i] |= 0b00111100; // energy bar
 8001dd0:	f994 3001 	ldrsb.w	r3, [r4, #1]
 8001dd4:	2b00      	cmp	r3, #0
 8001dd6:	dd0d      	ble.n	8001df4 <LCD_printgamestatbar+0x6c>
 8001dd8:	4a1a      	ldr	r2, [pc, #104]	@ (8001e44 <LCD_printgamestatbar+0xbc>)
 8001dda:	4613      	mov	r3, r2
 8001ddc:	f812 1f01 	ldrb.w	r1, [r2, #1]!
 8001de0:	3302      	adds	r3, #2
 8001de2:	f041 013c 	orr.w	r1, r1, #60	@ 0x3c
 8001de6:	7011      	strb	r1, [r2, #0]
 8001de8:	f994 1001 	ldrsb.w	r1, [r4, #1]
 8001dec:	1a1b      	subs	r3, r3, r0
 8001dee:	3165      	adds	r1, #101	@ 0x65
 8001df0:	4299      	cmp	r1, r3
 8001df2:	daf2      	bge.n	8001dda <LCD_printgamestatbar+0x52>
  dispbuffer[0][102 + gamer->energymax] |= 0b01111110;
 8001df4:	f994 3002 	ldrsb.w	r3, [r4, #2]
 8001df8:	3366      	adds	r3, #102	@ 0x66
 8001dfa:	5cc2      	ldrb	r2, [r0, r3]
 8001dfc:	f042 027e 	orr.w	r2, r2, #126	@ 0x7e
 8001e00:	54c2      	strb	r2, [r0, r3]
  uint8 money[6];
  uint16 display_value = gamer->money;
  if(display_value > 999) display_value = 999;
  u16_to_str(money, display_value, 10);
 8001e02:	7961      	ldrb	r1, [r4, #5]
 8001e04:	4668      	mov	r0, sp
 8001e06:	220a      	movs	r2, #10
 8001e08:	f7fe fe56 	bl	8000ab8 <u16_to_str>
  uint8 bombs[6];
  display_value = gamer->bombs;
 8001e0c:	7921      	ldrb	r1, [r4, #4]
  if(display_value > 99) display_value = 99;
  u16_to_str(bombs, display_value, 10);
 8001e0e:	a802      	add	r0, sp, #8
 8001e10:	2963      	cmp	r1, #99	@ 0x63
 8001e12:	bf28      	it	cs
 8001e14:	2163      	movcs	r1, #99	@ 0x63
 8001e16:	220a      	movs	r2, #10
 8001e18:	f7fe fe4e 	bl	8000ab8 <u16_to_str>
  LCD_printstr8x5(money, 0, 50);
 8001e1c:	2232      	movs	r2, #50	@ 0x32
 8001e1e:	2100      	movs	r1, #0
 8001e20:	4668      	mov	r0, sp
 8001e22:	f7ff fa6f 	bl	8001304 <LCD_printstr8x5>
  LCD_printstr8x5(bombs, 0, 81);
 8001e26:	2251      	movs	r2, #81	@ 0x51
 8001e28:	2100      	movs	r1, #0
 8001e2a:	a802      	add	r0, sp, #8
 8001e2c:	f7ff fa6a 	bl	8001304 <LCD_printstr8x5>
  //LCD_printstr8x5(money, 2, 10);
  //LCD_printstr8x5(bombs, 3, 10);
}
 8001e30:	b004      	add	sp, #16
 8001e32:	bd10      	pop	{r4, pc}
 8001e34:	4804      	ldr	r0, [pc, #16]	@ (8001e48 <LCD_printgamestatbar+0xc0>)
 8001e36:	e7cb      	b.n	8001dd0 <LCD_printgamestatbar+0x48>
 8001e38:	0800a0f0 	.word	0x0800a0f0
 8001e3c:	200002c4 	.word	0x200002c4
 8001e40:	200002d0 	.word	0x200002d0
 8001e44:	2000032d 	.word	0x2000032d
 8001e48:	200002c8 	.word	0x200002c8

08001e4c <_write>:

/* Private user code ---------------------------------------------------------*/
/* USER CODE BEGIN 0 */
int _write(int file, char *ptr, int len)
{
	for (int i = 0; i < len; i++)
 8001e4c:	1e10      	subs	r0, r2, #0
 8001e4e:	dd29      	ble.n	8001ea4 <_write+0x58>
  \param [in]     ch  Character to transmit.
  \returns            Character to transmit.
 */
__STATIC_INLINE uint32_t ITM_SendChar (uint32_t ch)
{
  if (((ITM->TCR & ITM_TCR_ITMENA_Msk) != 0UL) &&      /* ITM enabled */
 8001e50:	f04f 4360 	mov.w	r3, #3758096384	@ 0xe0000000
 8001e54:	eb01 0c00 	add.w	ip, r1, r0
 8001e58:	f8d3 2e80 	ldr.w	r2, [r3, #3712]	@ 0xe80
	{
		ITM_SendChar(*ptr++);
 8001e5c:	3101      	adds	r1, #1
 8001e5e:	07d2      	lsls	r2, r2, #31
 8001e60:	d51d      	bpl.n	8001e9e <_write+0x52>
      ((ITM->TER & 1UL               ) != 0UL)   )     /* ITM Port #0 enabled */
 8001e62:	f8d3 2e00 	ldr.w	r2, [r3, #3584]	@ 0xe00
  if (((ITM->TCR & ITM_TCR_ITMENA_Msk) != 0UL) &&      /* ITM enabled */
 8001e66:	07d2      	lsls	r2, r2, #31
 8001e68:	d519      	bpl.n	8001e9e <_write+0x52>
{
 8001e6a:	b500      	push	{lr}
  {
    while (ITM->PORT[0U].u32 == 0UL)
 8001e6c:	681a      	ldr	r2, [r3, #0]
		ITM_SendChar(*ptr++);
 8001e6e:	f811 ec01 	ldrb.w	lr, [r1, #-1]
 8001e72:	b91a      	cbnz	r2, 8001e7c <_write+0x30>
    {
      __NOP();
 8001e74:	bf00      	nop
    while (ITM->PORT[0U].u32 == 0UL)
 8001e76:	681a      	ldr	r2, [r3, #0]
 8001e78:	2a00      	cmp	r2, #0
 8001e7a:	d0fb      	beq.n	8001e74 <_write+0x28>
    }
    ITM->PORT[0U].u8 = (uint8_t)ch;
 8001e7c:	f883 e000 	strb.w	lr, [r3]
	for (int i = 0; i < len; i++)
 8001e80:	4561      	cmp	r1, ip
 8001e82:	d00a      	beq.n	8001e9a <_write+0x4e>
  if (((ITM->TCR & ITM_TCR_ITMENA_Msk) != 0UL) &&      /* ITM enabled */
 8001e84:	f8d3 2e80 	ldr.w	r2, [r3, #3712]	@ 0xe80
		ITM_SendChar(*ptr++);
 8001e88:	3101      	adds	r1, #1
 8001e8a:	07d2      	lsls	r2, r2, #31
 8001e8c:	d5f8      	bpl.n	8001e80 <_write+0x34>
      ((ITM->TER & 1UL               ) != 0UL)   )     /* ITM Port #0 enabled */
 8001e8e:	f8d3 2e00 	ldr.w	r2, [r3, #3584]	@ 0xe00
  if (((ITM->TCR & ITM_TCR_ITMENA_Msk) != 0UL) &&      /* ITM enabled */
 8001e92:	07d2      	lsls	r2, r2, #31
 8001e94:	d4ea      	bmi.n	8001e6c <_write+0x20>
	for (int i = 0; i < len; i++)
 8001e96:	4561      	cmp	r1, ip
 8001e98:	d1f4      	bne.n	8001e84 <_write+0x38>
	}
	return len;
}
 8001e9a:	f85d fb04 	ldr.w	pc, [sp], #4
	for (int i = 0; i < len; i++)
 8001e9e:	4561      	cmp	r1, ip
 8001ea0:	d1da      	bne.n	8001e58 <_write+0xc>
 8001ea2:	4770      	bx	lr
}
 8001ea4:	4770      	bx	lr
 8001ea6:	bf00      	nop

08001ea8 <SystemClock_Config>:
  * @brief System Clock Configuration
  * @retval None
  */
void SystemClock_Config(void)
{
  RCC_OscInitTypeDef RCC_OscInitStruct = {0};
 8001ea8:	2300      	movs	r3, #0
  RCC_PeriphCLKInitTypeDef PeriphClkInit = {0};

  /** Initializes the RCC Oscillators according to the specified parameters
  * in the RCC_OscInitTypeDef structure.
  */
  RCC_OscInitStruct.OscillatorType = RCC_OSCILLATORTYPE_HSE|RCC_OSCILLATORTYPE_LSE;
 8001eaa:	2005      	movs	r0, #5
 8001eac:	f44f 3180 	mov.w	r1, #65536	@ 0x10000
{
 8001eb0:	b530      	push	{r4, r5, lr}
 8001eb2:	b095      	sub	sp, #84	@ 0x54
  RCC_OscInitStruct.OscillatorType = RCC_OSCILLATORTYPE_HSE|RCC_OSCILLATORTYPE_LSE;
 8001eb4:	e9cd 010a 	strd	r0, r1, [sp, #40]	@ 0x28
  RCC_OscInitStruct.HSEState = RCC_HSE_ON;
  RCC_OscInitStruct.HSEPredivValue = RCC_HSE_PREDIV_DIV1;
  RCC_OscInitStruct.LSEState = RCC_LSE_ON;
 8001eb8:	2201      	movs	r2, #1
  RCC_OscInitStruct.HSIState = RCC_HSI_ON;
  RCC_OscInitStruct.PLL.PLLState = RCC_PLL_ON;
 8001eba:	2402      	movs	r4, #2
 8001ebc:	f44f 3180 	mov.w	r1, #65536	@ 0x10000
  RCC_OscInitTypeDef RCC_OscInitStruct = {0};
 8001ec0:	e9cd 330f 	strd	r3, r3, [sp, #60]	@ 0x3c
  RCC_ClkInitTypeDef RCC_ClkInitStruct = {0};
 8001ec4:	e9cd 3306 	strd	r3, r3, [sp, #24]
 8001ec8:	e9cd 3308 	strd	r3, r3, [sp, #32]
  RCC_PeriphCLKInitTypeDef PeriphClkInit = {0};
 8001ecc:	e9cd 3301 	strd	r3, r3, [sp, #4]
  RCC_OscInitTypeDef RCC_OscInitStruct = {0};
 8001ed0:	930c      	str	r3, [sp, #48]	@ 0x30
  RCC_ClkInitTypeDef RCC_ClkInitStruct = {0};
 8001ed2:	9305      	str	r3, [sp, #20]
  RCC_PeriphCLKInitTypeDef PeriphClkInit = {0};
 8001ed4:	9300      	str	r3, [sp, #0]
 8001ed6:	9303      	str	r3, [sp, #12]
  RCC_OscInitStruct.PLL.PLLSource = RCC_PLLSOURCE_HSE;
  RCC_OscInitStruct.PLL.PLLMUL = RCC_PLL_MUL9;
 8001ed8:	f44f 13e0 	mov.w	r3, #1835008	@ 0x1c0000
  if (HAL_RCC_OscConfig(&RCC_OscInitStruct) != HAL_OK)
 8001edc:	a80a      	add	r0, sp, #40	@ 0x28
  RCC_OscInitStruct.LSEState = RCC_LSE_ON;
 8001ede:	e9cd 220d 	strd	r2, r2, [sp, #52]	@ 0x34
  RCC_OscInitStruct.PLL.PLLState = RCC_PLL_ON;
 8001ee2:	9411      	str	r4, [sp, #68]	@ 0x44
 8001ee4:	9112      	str	r1, [sp, #72]	@ 0x48
  RCC_OscInitStruct.PLL.PLLMUL = RCC_PLL_MUL9;
 8001ee6:	9313      	str	r3, [sp, #76]	@ 0x4c
  if (HAL_RCC_OscConfig(&RCC_OscInitStruct) != HAL_OK)
 8001ee8:	f003 feae 	bl	8005c48 <HAL_RCC_OscConfig>
 8001eec:	b108      	cbz	r0, 8001ef2 <SystemClock_Config+0x4a>
  \details Disables IRQ interrupts by setting the I-bit in the CPSR.
           Can only be executed in Privileged modes.
 */
__STATIC_FORCEINLINE void __disable_irq(void)
{
  __ASM volatile ("cpsid i" : : : "memory");
 8001eee:	b672      	cpsid	i
void Error_Handler(void)
{
  /* USER CODE BEGIN Error_Handler_Debug */
  /* User can add his own implementation to report the HAL error return state */
  __disable_irq();
  while (1)
 8001ef0:	e7fe      	b.n	8001ef0 <SystemClock_Config+0x48>
  RCC_ClkInitStruct.ClockType = RCC_CLOCKTYPE_HCLK|RCC_CLOCKTYPE_SYSCLK
 8001ef2:	4603      	mov	r3, r0
 8001ef4:	220f      	movs	r2, #15
  RCC_ClkInitStruct.AHBCLKDivider = RCC_SYSCLK_DIV1;
 8001ef6:	9307      	str	r3, [sp, #28]
  RCC_ClkInitStruct.APB2CLKDivider = RCC_HCLK_DIV1;
 8001ef8:	9309      	str	r3, [sp, #36]	@ 0x24
  RCC_ClkInitStruct.APB1CLKDivider = RCC_HCLK_DIV2;
 8001efa:	f44f 6380 	mov.w	r3, #1024	@ 0x400
  if (HAL_RCC_ClockConfig(&RCC_ClkInitStruct, FLASH_LATENCY_2) != HAL_OK)
 8001efe:	4621      	mov	r1, r4
 8001f00:	a805      	add	r0, sp, #20
  RCC_ClkInitStruct.SYSCLKSource = RCC_SYSCLKSOURCE_PLLCLK;
 8001f02:	9406      	str	r4, [sp, #24]
  RCC_ClkInitStruct.ClockType = RCC_CLOCKTYPE_HCLK|RCC_CLOCKTYPE_SYSCLK
 8001f04:	9205      	str	r2, [sp, #20]
  RCC_ClkInitStruct.APB1CLKDivider = RCC_HCLK_DIV2;
 8001f06:	9308      	str	r3, [sp, #32]
  if (HAL_RCC_ClockConfig(&RCC_ClkInitStruct, FLASH_LATENCY_2) != HAL_OK)
 8001f08:	f004 f8b4 	bl	8006074 <HAL_RCC_ClockConfig>
 8001f0c:	b108      	cbz	r0, 8001f12 <SystemClock_Config+0x6a>
 8001f0e:	b672      	cpsid	i
  while (1)
 8001f10:	e7fe      	b.n	8001f10 <SystemClock_Config+0x68>
  PeriphClkInit.PeriphClockSelection = RCC_PERIPHCLK_RTC|RCC_PERIPHCLK_ADC;
 8001f12:	2403      	movs	r4, #3
 8001f14:	f44f 7580 	mov.w	r5, #256	@ 0x100
  PeriphClkInit.AdcClockSelection = RCC_ADCPCLK2_DIV6;
 8001f18:	f44f 4300 	mov.w	r3, #32768	@ 0x8000
  if (HAL_RCCEx_PeriphCLKConfig(&PeriphClkInit) != HAL_OK)
 8001f1c:	4668      	mov	r0, sp
  PeriphClkInit.PeriphClockSelection = RCC_PERIPHCLK_RTC|RCC_PERIPHCLK_ADC;
 8001f1e:	e9cd 4500 	strd	r4, r5, [sp]
  PeriphClkInit.AdcClockSelection = RCC_ADCPCLK2_DIV6;
 8001f22:	9302      	str	r3, [sp, #8]
  if (HAL_RCCEx_PeriphCLKConfig(&PeriphClkInit) != HAL_OK)
 8001f24:	f004 f956 	bl	80061d4 <HAL_RCCEx_PeriphCLKConfig>
 8001f28:	b108      	cbz	r0, 8001f2e <SystemClock_Config+0x86>
 8001f2a:	b672      	cpsid	i
  while (1)
 8001f2c:	e7fe      	b.n	8001f2c <SystemClock_Config+0x84>
}
 8001f2e:	b015      	add	sp, #84	@ 0x54
 8001f30:	bd30      	pop	{r4, r5, pc}
 8001f32:	bf00      	nop

08001f34 <main>:
  GPIO_InitTypeDef GPIO_InitStruct = {0};
 8001f34:	2400      	movs	r4, #0
{
 8001f36:	b580      	push	{r7, lr}
 8001f38:	b09c      	sub	sp, #112	@ 0x70
  HAL_Init();
 8001f3a:	f003 f939 	bl	80051b0 <HAL_Init>
  SystemClock_Config();
 8001f3e:	f7ff ffb3 	bl	8001ea8 <SystemClock_Config>
  GPIO_InitTypeDef GPIO_InitStruct = {0};
 8001f42:	e9cd 4414 	strd	r4, r4, [sp, #80]	@ 0x50
 8001f46:	e9cd 4416 	strd	r4, r4, [sp, #88]	@ 0x58
  __HAL_RCC_GPIOC_CLK_ENABLE();
 8001f4a:	4da5      	ldr	r5, [pc, #660]	@ (80021e0 <main+0x2ac>)
  HAL_GPIO_WritePin(SHUTDOWN_GPIO_Port, SHUTDOWN_Pin, GPIO_PIN_SET);
 8001f4c:	2201      	movs	r2, #1
  __HAL_RCC_GPIOC_CLK_ENABLE();
 8001f4e:	69ab      	ldr	r3, [r5, #24]
  HAL_GPIO_WritePin(SHUTDOWN_GPIO_Port, SHUTDOWN_Pin, GPIO_PIN_SET);
 8001f50:	f44f 5100 	mov.w	r1, #8192	@ 0x2000
  __HAL_RCC_GPIOC_CLK_ENABLE();
 8001f54:	f043 0310 	orr.w	r3, r3, #16
 8001f58:	61ab      	str	r3, [r5, #24]
 8001f5a:	69ab      	ldr	r3, [r5, #24]
  HAL_GPIO_WritePin(SHUTDOWN_GPIO_Port, SHUTDOWN_Pin, GPIO_PIN_SET);
 8001f5c:	48a1      	ldr	r0, [pc, #644]	@ (80021e4 <main+0x2b0>)
  __HAL_RCC_GPIOC_CLK_ENABLE();
 8001f5e:	f003 0310 	and.w	r3, r3, #16
 8001f62:	9302      	str	r3, [sp, #8]
 8001f64:	9b02      	ldr	r3, [sp, #8]
  __HAL_RCC_GPIOD_CLK_ENABLE();
 8001f66:	69ab      	ldr	r3, [r5, #24]
  GPIO_InitStruct.Mode = GPIO_MODE_OUTPUT_PP;
 8001f68:	4617      	mov	r7, r2
  __HAL_RCC_GPIOD_CLK_ENABLE();
 8001f6a:	f043 0320 	orr.w	r3, r3, #32
 8001f6e:	61ab      	str	r3, [r5, #24]
 8001f70:	69ab      	ldr	r3, [r5, #24]
  GPIO_InitStruct.Speed = GPIO_SPEED_FREQ_LOW;
 8001f72:	f04f 0802 	mov.w	r8, #2
  __HAL_RCC_GPIOD_CLK_ENABLE();
 8001f76:	f003 0320 	and.w	r3, r3, #32
 8001f7a:	9303      	str	r3, [sp, #12]
 8001f7c:	9b03      	ldr	r3, [sp, #12]
  __HAL_RCC_GPIOA_CLK_ENABLE();
 8001f7e:	69ab      	ldr	r3, [r5, #24]
  hadc1.Instance = ADC1;
 8001f80:	4e99      	ldr	r6, [pc, #612]	@ (80021e8 <main+0x2b4>)
  __HAL_RCC_GPIOA_CLK_ENABLE();
 8001f82:	f043 0304 	orr.w	r3, r3, #4
 8001f86:	61ab      	str	r3, [r5, #24]
 8001f88:	69ab      	ldr	r3, [r5, #24]
 8001f8a:	f003 0304 	and.w	r3, r3, #4
 8001f8e:	9304      	str	r3, [sp, #16]
 8001f90:	9b04      	ldr	r3, [sp, #16]
  __HAL_RCC_GPIOB_CLK_ENABLE();
 8001f92:	69ab      	ldr	r3, [r5, #24]
 8001f94:	f043 0308 	orr.w	r3, r3, #8
 8001f98:	61ab      	str	r3, [r5, #24]
 8001f9a:	69ab      	ldr	r3, [r5, #24]
 8001f9c:	f003 0308 	and.w	r3, r3, #8
 8001fa0:	9305      	str	r3, [sp, #20]
 8001fa2:	9b05      	ldr	r3, [sp, #20]
  HAL_GPIO_WritePin(SHUTDOWN_GPIO_Port, SHUTDOWN_Pin, GPIO_PIN_SET);
 8001fa4:	f003 fe46 	bl	8005c34 <HAL_GPIO_WritePin>
  HAL_GPIO_WritePin(GPIOA, DISP_RS_Pin|DISP_RSE_Pin|SOUND_OUT_Pin, GPIO_PIN_RESET);
 8001fa8:	4622      	mov	r2, r4
 8001faa:	f241 0106 	movw	r1, #4102	@ 0x1006
 8001fae:	488f      	ldr	r0, [pc, #572]	@ (80021ec <main+0x2b8>)
 8001fb0:	f003 fe40 	bl	8005c34 <HAL_GPIO_WritePin>
  GPIO_InitStruct.Mode = GPIO_MODE_OUTPUT_OD;
 8001fb4:	2311      	movs	r3, #17
 8001fb6:	f44f 5100 	mov.w	r1, #8192	@ 0x2000
  HAL_GPIO_Init(SHUTDOWN_GPIO_Port, &GPIO_InitStruct);
 8001fba:	488a      	ldr	r0, [pc, #552]	@ (80021e4 <main+0x2b0>)
  GPIO_InitStruct.Mode = GPIO_MODE_OUTPUT_OD;
 8001fbc:	e9cd 1314 	strd	r1, r3, [sp, #80]	@ 0x50
  HAL_GPIO_Init(SHUTDOWN_GPIO_Port, &GPIO_InitStruct);
 8001fc0:	a914      	add	r1, sp, #80	@ 0x50
  GPIO_InitStruct.Speed = GPIO_SPEED_FREQ_LOW;
 8001fc2:	e9cd 4816 	strd	r4, r8, [sp, #88]	@ 0x58
  HAL_GPIO_Init(SHUTDOWN_GPIO_Port, &GPIO_InitStruct);
 8001fc6:	f003 fd13 	bl	80059f0 <HAL_GPIO_Init>
  GPIO_InitStruct.Pin = DISP_RS_Pin|DISP_RSE_Pin|SOUND_OUT_Pin;
 8001fca:	f241 0306 	movw	r3, #4102	@ 0x1006
  HAL_GPIO_Init(GPIOA, &GPIO_InitStruct);
 8001fce:	4887      	ldr	r0, [pc, #540]	@ (80021ec <main+0x2b8>)
 8001fd0:	a914      	add	r1, sp, #80	@ 0x50
  GPIO_InitStruct.Pin = DISP_RS_Pin|DISP_RSE_Pin|SOUND_OUT_Pin;
 8001fd2:	9314      	str	r3, [sp, #80]	@ 0x50
  GPIO_InitStruct.Pull = GPIO_NOPULL;
 8001fd4:	e9cd 7415 	strd	r7, r4, [sp, #84]	@ 0x54
  GPIO_InitStruct.Speed = GPIO_SPEED_FREQ_LOW;
 8001fd8:	f8cd 805c 	str.w	r8, [sp, #92]	@ 0x5c
  HAL_GPIO_Init(GPIOA, &GPIO_InitStruct);
 8001fdc:	f003 fd08 	bl	80059f0 <HAL_GPIO_Init>
  GPIO_InitStruct.Pin = JOYSTICK_BTN_Pin;
 8001fe0:	2208      	movs	r2, #8
 8001fe2:	2300      	movs	r3, #0
  HAL_GPIO_Init(JOYSTICK_BTN_GPIO_Port, &GPIO_InitStruct);
 8001fe4:	4881      	ldr	r0, [pc, #516]	@ (80021ec <main+0x2b8>)
 8001fe6:	a914      	add	r1, sp, #80	@ 0x50
  GPIO_InitStruct.Pin = JOYSTICK_BTN_Pin;
 8001fe8:	e9cd 2314 	strd	r2, r3, [sp, #80]	@ 0x50
  GPIO_InitStruct.Pull = GPIO_PULLUP;
 8001fec:	9716      	str	r7, [sp, #88]	@ 0x58
  HAL_GPIO_Init(JOYSTICK_BTN_GPIO_Port, &GPIO_InitStruct);
 8001fee:	f003 fcff 	bl	80059f0 <HAL_GPIO_Init>
  GPIO_InitStruct.Pin = BTN_3_Pin|BTN_4_Pin|BTN_1_Pin|BTN_2_Pin;
 8001ff2:	22f0      	movs	r2, #240	@ 0xf0
 8001ff4:	2300      	movs	r3, #0
  HAL_GPIO_Init(GPIOB, &GPIO_InitStruct);
 8001ff6:	487e      	ldr	r0, [pc, #504]	@ (80021f0 <main+0x2bc>)
 8001ff8:	a914      	add	r1, sp, #80	@ 0x50
  GPIO_InitStruct.Pin = BTN_3_Pin|BTN_4_Pin|BTN_1_Pin|BTN_2_Pin;
 8001ffa:	e9cd 2314 	strd	r2, r3, [sp, #80]	@ 0x50
  GPIO_InitStruct.Pull = GPIO_PULLUP;
 8001ffe:	9716      	str	r7, [sp, #88]	@ 0x58
  HAL_GPIO_Init(GPIOB, &GPIO_InitStruct);
 8002000:	f003 fcf6 	bl	80059f0 <HAL_GPIO_Init>
  __HAL_RCC_DMA1_CLK_ENABLE();
 8002004:	696b      	ldr	r3, [r5, #20]
  HAL_NVIC_SetPriority(DMA1_Channel1_IRQn, 0, 0);
 8002006:	4622      	mov	r2, r4
  __HAL_RCC_DMA1_CLK_ENABLE();
 8002008:	433b      	orrs	r3, r7
 800200a:	616b      	str	r3, [r5, #20]
 800200c:	696b      	ldr	r3, [r5, #20]
  HAL_NVIC_SetPriority(DMA1_Channel1_IRQn, 0, 0);
 800200e:	4621      	mov	r1, r4
  __HAL_RCC_DMA1_CLK_ENABLE();
 8002010:	403b      	ands	r3, r7
  HAL_NVIC_SetPriority(DMA1_Channel1_IRQn, 0, 0);
 8002012:	200b      	movs	r0, #11
  __HAL_RCC_DMA1_CLK_ENABLE();
 8002014:	9301      	str	r3, [sp, #4]
 8002016:	9b01      	ldr	r3, [sp, #4]
  HAL_NVIC_SetPriority(DMA1_Channel1_IRQn, 0, 0);
 8002018:	f003 fb78 	bl	800570c <HAL_NVIC_SetPriority>
  HAL_NVIC_EnableIRQ(DMA1_Channel1_IRQn);
 800201c:	200b      	movs	r0, #11
 800201e:	f003 fbb1 	bl	8005784 <HAL_NVIC_EnableIRQ>
  hadc1.Instance = ADC1;
 8002022:	4b74      	ldr	r3, [pc, #464]	@ (80021f4 <main+0x2c0>)
  hadc1.Init.ExternalTrigConv = ADC_SOFTWARE_START;
 8002024:	f44f 2160 	mov.w	r1, #917504	@ 0xe0000
  hadc1.Init.DataAlign = ADC_DATAALIGN_RIGHT;
 8002028:	f44f 7280 	mov.w	r2, #256	@ 0x100
  hadc1.Instance = ADC1;
 800202c:	6033      	str	r3, [r6, #0]
  hadc1.Init.NbrOfConversion = 3;
 800202e:	2303      	movs	r3, #3
  if (HAL_ADC_Init(&hadc1) != HAL_OK)
 8002030:	4630      	mov	r0, r6
  ADC_ChannelConfTypeDef sConfig = {0};
 8002032:	e9cd 4414 	strd	r4, r4, [sp, #80]	@ 0x50
 8002036:	9416      	str	r4, [sp, #88]	@ 0x58
  hadc1.Init.ContinuousConvMode = DISABLE;
 8002038:	7334      	strb	r4, [r6, #12]
  hadc1.Init.DiscontinuousConvMode = DISABLE;
 800203a:	7534      	strb	r4, [r6, #20]
  hadc1.Init.DataAlign = ADC_DATAALIGN_RIGHT;
 800203c:	6074      	str	r4, [r6, #4]
  hadc1.Init.ExternalTrigConv = ADC_SOFTWARE_START;
 800203e:	61f1      	str	r1, [r6, #28]
  hadc1.Init.DataAlign = ADC_DATAALIGN_RIGHT;
 8002040:	60b2      	str	r2, [r6, #8]
  hadc1.Init.NbrOfConversion = 3;
 8002042:	6133      	str	r3, [r6, #16]
  if (HAL_ADC_Init(&hadc1) != HAL_OK)
 8002044:	f003 faac 	bl	80055a0 <HAL_ADC_Init>
 8002048:	b108      	cbz	r0, 800204e <main+0x11a>
 800204a:	b672      	cpsid	i
  while (1)
 800204c:	e7fe      	b.n	800204c <main+0x118>
  sConfig.Channel = ADC_CHANNEL_0;
 800204e:	2400      	movs	r4, #0
 8002050:	2501      	movs	r5, #1
  sConfig.SamplingTime = ADC_SAMPLETIME_239CYCLES_5;
 8002052:	2307      	movs	r3, #7
  if (HAL_ADC_ConfigChannel(&hadc1, &sConfig) != HAL_OK)
 8002054:	4630      	mov	r0, r6
 8002056:	a914      	add	r1, sp, #80	@ 0x50
  sConfig.Channel = ADC_CHANNEL_0;
 8002058:	e9cd 4514 	strd	r4, r5, [sp, #80]	@ 0x50
  sConfig.SamplingTime = ADC_SAMPLETIME_239CYCLES_5;
 800205c:	9316      	str	r3, [sp, #88]	@ 0x58
  if (HAL_ADC_ConfigChannel(&hadc1, &sConfig) != HAL_OK)
 800205e:	f003 f911 	bl	8005284 <HAL_ADC_ConfigChannel>
 8002062:	b108      	cbz	r0, 8002068 <main+0x134>
 8002064:	b672      	cpsid	i
  while (1)
 8002066:	e7fe      	b.n	8002066 <main+0x132>
  sConfig.Channel = ADC_CHANNEL_9;
 8002068:	2209      	movs	r2, #9
 800206a:	2302      	movs	r3, #2
  if (HAL_ADC_ConfigChannel(&hadc1, &sConfig) != HAL_OK)
 800206c:	4630      	mov	r0, r6
 800206e:	a914      	add	r1, sp, #80	@ 0x50
  sConfig.Channel = ADC_CHANNEL_9;
 8002070:	e9cd 2314 	strd	r2, r3, [sp, #80]	@ 0x50
  if (HAL_ADC_ConfigChannel(&hadc1, &sConfig) != HAL_OK)
 8002074:	f003 f906 	bl	8005284 <HAL_ADC_ConfigChannel>
 8002078:	b108      	cbz	r0, 800207e <main+0x14a>
 800207a:	b672      	cpsid	i
  while (1)
 800207c:	e7fe      	b.n	800207c <main+0x148>
  sConfig.Channel = ADC_CHANNEL_8;
 800207e:	2303      	movs	r3, #3
 8002080:	2208      	movs	r2, #8
  if (HAL_ADC_ConfigChannel(&hadc1, &sConfig) != HAL_OK)
 8002082:	4630      	mov	r0, r6
 8002084:	a914      	add	r1, sp, #80	@ 0x50
  sConfig.Channel = ADC_CHANNEL_8;
 8002086:	e9cd 2314 	strd	r2, r3, [sp, #80]	@ 0x50
  if (HAL_ADC_ConfigChannel(&hadc1, &sConfig) != HAL_OK)
 800208a:	f003 f8fb 	bl	8005284 <HAL_ADC_ConfigChannel>
 800208e:	4603      	mov	r3, r0
 8002090:	b108      	cbz	r0, 8002096 <main+0x162>
 8002092:	b672      	cpsid	i
  while (1)
 8002094:	e7fe      	b.n	8002094 <main+0x160>
  hspi2.Instance = SPI2;
 8002096:	4858      	ldr	r0, [pc, #352]	@ (80021f8 <main+0x2c4>)
  hspi2.Init.NSS = SPI_NSS_HARD_OUTPUT;
 8002098:	f44f 2180 	mov.w	r1, #262144	@ 0x40000
  hspi2.Init.BaudRatePrescaler = SPI_BAUDRATEPRESCALER_4;
 800209c:	2208      	movs	r2, #8
  hspi2.Init.Mode = SPI_MODE_MASTER;
 800209e:	f44f 7482 	mov.w	r4, #260	@ 0x104
  hspi2.Init.DataSize = SPI_DATASIZE_8BIT;
 80020a2:	e9c0 3302 	strd	r3, r3, [r0, #8]
  hspi2.Init.CLKPhase = SPI_PHASE_1EDGE;
 80020a6:	e9c0 3304 	strd	r3, r3, [r0, #16]
  hspi2.Init.TIMode = SPI_TIMODE_DISABLE;
 80020aa:	e9c0 3308 	strd	r3, r3, [r0, #32]
 80020ae:	6283      	str	r3, [r0, #40]	@ 0x28
  hspi2.Init.CRCPolynomial = 10;
 80020b0:	230a      	movs	r3, #10
  hspi2.Init.BaudRatePrescaler = SPI_BAUDRATEPRESCALER_4;
 80020b2:	e9c0 1206 	strd	r1, r2, [r0, #24]
  hspi2.Instance = SPI2;
 80020b6:	4a51      	ldr	r2, [pc, #324]	@ (80021fc <main+0x2c8>)
  hspi2.Init.Mode = SPI_MODE_MASTER;
 80020b8:	6044      	str	r4, [r0, #4]
  hspi2.Instance = SPI2;
 80020ba:	6002      	str	r2, [r0, #0]
  hspi2.Init.CRCPolynomial = 10;
 80020bc:	62c3      	str	r3, [r0, #44]	@ 0x2c
  if (HAL_SPI_Init(&hspi2) != HAL_OK)
 80020be:	f004 fa7d 	bl	80065bc <HAL_SPI_Init>
 80020c2:	4604      	mov	r4, r0
 80020c4:	b108      	cbz	r0, 80020ca <main+0x196>
 80020c6:	b672      	cpsid	i
  while (1)
 80020c8:	e7fe      	b.n	80020c8 <main+0x194>
  TIM_BreakDeadTimeConfigTypeDef sBreakDeadTimeConfig = {0};
 80020ca:	4601      	mov	r1, r0
  TIM_ClockConfigTypeDef sClockSourceConfig = {0};
 80020cc:	e9cd 0009 	strd	r0, r0, [sp, #36]	@ 0x24
  TIM_OC_InitTypeDef sConfigOC = {0};
 80020d0:	e9cd 000d 	strd	r0, r0, [sp, #52]	@ 0x34
 80020d4:	e9cd 000f 	strd	r0, r0, [sp, #60]	@ 0x3c
 80020d8:	e9cd 0011 	strd	r0, r0, [sp, #68]	@ 0x44
  TIM_ClockConfigTypeDef sClockSourceConfig = {0};
 80020dc:	9008      	str	r0, [sp, #32]
  TIM_MasterConfigTypeDef sMasterConfig = {0};
 80020de:	9006      	str	r0, [sp, #24]
  TIM_OC_InitTypeDef sConfigOC = {0};
 80020e0:	900c      	str	r0, [sp, #48]	@ 0x30
  TIM_ClockConfigTypeDef sClockSourceConfig = {0};
 80020e2:	900b      	str	r0, [sp, #44]	@ 0x2c
  TIM_MasterConfigTypeDef sMasterConfig = {0};
 80020e4:	9007      	str	r0, [sp, #28]
  TIM_BreakDeadTimeConfigTypeDef sBreakDeadTimeConfig = {0};
 80020e6:	2220      	movs	r2, #32
 80020e8:	a814      	add	r0, sp, #80	@ 0x50
 80020ea:	f005 fc8a 	bl	8007a02 <memset>
  htim1.Init.Period = 65535;
 80020ee:	f64f 73ff 	movw	r3, #65535	@ 0xffff
  htim1.Instance = TIM1;
 80020f2:	4d43      	ldr	r5, [pc, #268]	@ (8002200 <main+0x2cc>)
  htim1.Init.Period = 65535;
 80020f4:	60eb      	str	r3, [r5, #12]
  htim1.Instance = TIM1;
 80020f6:	4b43      	ldr	r3, [pc, #268]	@ (8002204 <main+0x2d0>)
  if (HAL_TIM_Base_Init(&htim1) != HAL_OK)
 80020f8:	4628      	mov	r0, r5
  htim1.Init.CounterMode = TIM_COUNTERMODE_UP;
 80020fa:	e9c5 4401 	strd	r4, r4, [r5, #4]
  htim1.Init.RepetitionCounter = 0;
 80020fe:	e9c5 4404 	strd	r4, r4, [r5, #16]
 8002102:	61ac      	str	r4, [r5, #24]
  htim1.Instance = TIM1;
 8002104:	602b      	str	r3, [r5, #0]
  if (HAL_TIM_Base_Init(&htim1) != HAL_OK)
 8002106:	f004 fd49 	bl	8006b9c <HAL_TIM_Base_Init>
 800210a:	b108      	cbz	r0, 8002110 <main+0x1dc>
 800210c:	b672      	cpsid	i
  while (1)
 800210e:	e7fe      	b.n	800210e <main+0x1da>
  sClockSourceConfig.ClockSource = TIM_CLOCKSOURCE_INTERNAL;
 8002110:	f44f 5380 	mov.w	r3, #4096	@ 0x1000
  if (HAL_TIM_ConfigClockSource(&htim1, &sClockSourceConfig) != HAL_OK)
 8002114:	4628      	mov	r0, r5
 8002116:	a908      	add	r1, sp, #32
  sClockSourceConfig.ClockSource = TIM_CLOCKSOURCE_INTERNAL;
 8002118:	9308      	str	r3, [sp, #32]
  if (HAL_TIM_ConfigClockSource(&htim1, &sClockSourceConfig) != HAL_OK)
 800211a:	f004 fc53 	bl	80069c4 <HAL_TIM_ConfigClockSource>
 800211e:	b108      	cbz	r0, 8002124 <main+0x1f0>
 8002120:	b672      	cpsid	i
  while (1)
 8002122:	e7fe      	b.n	8002122 <main+0x1ee>
  if (HAL_TIM_PWM_Init(&htim1) != HAL_OK)
 8002124:	4628      	mov	r0, r5
 8002126:	f004 fd67 	bl	8006bf8 <HAL_TIM_PWM_Init>
 800212a:	b108      	cbz	r0, 8002130 <main+0x1fc>
 800212c:	b672      	cpsid	i
  while (1)
 800212e:	e7fe      	b.n	800212e <main+0x1fa>
  sMasterConfig.MasterOutputTrigger = TIM_TRGO_RESET;
 8002130:	2600      	movs	r6, #0
 8002132:	2700      	movs	r7, #0
  if (HAL_TIMEx_MasterConfigSynchronization(&htim1, &sMasterConfig) != HAL_OK)
 8002134:	4628      	mov	r0, r5
 8002136:	a906      	add	r1, sp, #24
  sMasterConfig.MasterOutputTrigger = TIM_TRGO_RESET;
 8002138:	e9cd 6706 	strd	r6, r7, [sp, #24]
  if (HAL_TIMEx_MasterConfigSynchronization(&htim1, &sMasterConfig) != HAL_OK)
 800213c:	f004 fe18 	bl	8006d70 <HAL_TIMEx_MasterConfigSynchronization>
 8002140:	4602      	mov	r2, r0
 8002142:	b108      	cbz	r0, 8002148 <main+0x214>
 8002144:	b672      	cpsid	i
  while (1)
 8002146:	e7fe      	b.n	8002146 <main+0x212>
  sConfigOC.OCMode = TIM_OCMODE_PWM1;
 8002148:	2360      	movs	r3, #96	@ 0x60
  sConfigOC.Pulse = 45000;
 800214a:	f64a 74c8 	movw	r4, #45000	@ 0xafc8
  if (HAL_TIM_PWM_ConfigChannel(&htim1, &sConfigOC, TIM_CHANNEL_1) != HAL_OK)
 800214e:	4628      	mov	r0, r5
 8002150:	a90c      	add	r1, sp, #48	@ 0x30
  sConfigOC.OCFastMode = TIM_OCFAST_DISABLE;
 8002152:	e9cd 6710 	strd	r6, r7, [sp, #64]	@ 0x40
  sConfigOC.OCNPolarity = TIM_OCNPOLARITY_HIGH;
 8002156:	e9cd 220e 	strd	r2, r2, [sp, #56]	@ 0x38
  sConfigOC.OCMode = TIM_OCMODE_PWM1;
 800215a:	e9cd 340c 	strd	r3, r4, [sp, #48]	@ 0x30
  sConfigOC.OCNIdleState = TIM_OCNIDLESTATE_RESET;
 800215e:	9212      	str	r2, [sp, #72]	@ 0x48
  if (HAL_TIM_PWM_ConfigChannel(&htim1, &sConfigOC, TIM_CHANNEL_1) != HAL_OK)
 8002160:	f004 fda6 	bl	8006cb0 <HAL_TIM_PWM_ConfigChannel>
 8002164:	b108      	cbz	r0, 800216a <main+0x236>
 8002166:	b672      	cpsid	i
  while (1)
 8002168:	e7fe      	b.n	8002168 <main+0x234>
  sBreakDeadTimeConfig.OffStateRunMode = TIM_OSSR_DISABLE;
 800216a:	2300      	movs	r3, #0
  sBreakDeadTimeConfig.BreakState = TIM_BREAK_DISABLE;
 800216c:	2400      	movs	r4, #0
 800216e:	f44f 5500 	mov.w	r5, #8192	@ 0x2000
  if (HAL_TIMEx_ConfigBreakDeadTime(&htim1, &sBreakDeadTimeConfig) != HAL_OK)
 8002172:	4823      	ldr	r0, [pc, #140]	@ (8002200 <main+0x2cc>)
 8002174:	a914      	add	r1, sp, #80	@ 0x50
  sBreakDeadTimeConfig.BreakState = TIM_BREAK_DISABLE;
 8002176:	e9cd 4518 	strd	r4, r5, [sp, #96]	@ 0x60
  sBreakDeadTimeConfig.LockLevel = TIM_LOCKLEVEL_OFF;
 800217a:	e9cd 3315 	strd	r3, r3, [sp, #84]	@ 0x54
  sBreakDeadTimeConfig.OffStateRunMode = TIM_OSSR_DISABLE;
 800217e:	9314      	str	r3, [sp, #80]	@ 0x50
  sBreakDeadTimeConfig.DeadTime = 0;
 8002180:	9317      	str	r3, [sp, #92]	@ 0x5c
  sBreakDeadTimeConfig.AutomaticOutput = TIM_AUTOMATICOUTPUT_DISABLE;
 8002182:	931b      	str	r3, [sp, #108]	@ 0x6c
  if (HAL_TIMEx_ConfigBreakDeadTime(&htim1, &sBreakDeadTimeConfig) != HAL_OK)
 8002184:	f004 fe26 	bl	8006dd4 <HAL_TIMEx_ConfigBreakDeadTime>
 8002188:	4604      	mov	r4, r0
 800218a:	b108      	cbz	r0, 8002190 <main+0x25c>
 800218c:	b672      	cpsid	i
  while (1)
 800218e:	e7fe      	b.n	800218e <main+0x25a>
  HAL_TIM_MspPostInit(&htim1);
 8002190:	481b      	ldr	r0, [pc, #108]	@ (8002200 <main+0x2cc>)
 8002192:	f001 f8b3 	bl	80032fc <HAL_TIM_MspPostInit>
  hspi1.Init.CRCPolynomial = 10;
 8002196:	230a      	movs	r3, #10
  hspi1.Init.NSS = SPI_NSS_HARD_OUTPUT;
 8002198:	f44f 2180 	mov.w	r1, #262144	@ 0x40000
  hspi1.Init.BaudRatePrescaler = SPI_BAUDRATEPRESCALER_4;
 800219c:	2208      	movs	r2, #8
  hspi1.Init.Mode = SPI_MODE_MASTER;
 800219e:	f44f 7582 	mov.w	r5, #260	@ 0x104
  hspi1.Instance = SPI1;
 80021a2:	4819      	ldr	r0, [pc, #100]	@ (8002208 <main+0x2d4>)
  hspi1.Init.CRCPolynomial = 10;
 80021a4:	62c3      	str	r3, [r0, #44]	@ 0x2c
  hspi1.Instance = SPI1;
 80021a6:	4b19      	ldr	r3, [pc, #100]	@ (800220c <main+0x2d8>)
  hspi1.Init.DataSize = SPI_DATASIZE_8BIT;
 80021a8:	e9c0 4402 	strd	r4, r4, [r0, #8]
  hspi1.Instance = SPI1;
 80021ac:	6003      	str	r3, [r0, #0]
  hspi1.Init.CLKPhase = SPI_PHASE_1EDGE;
 80021ae:	e9c0 4404 	strd	r4, r4, [r0, #16]
  hspi1.Init.TIMode = SPI_TIMODE_DISABLE;
 80021b2:	e9c0 4408 	strd	r4, r4, [r0, #32]
  hspi1.Init.BaudRatePrescaler = SPI_BAUDRATEPRESCALER_4;
 80021b6:	e9c0 1206 	strd	r1, r2, [r0, #24]
  hspi1.Init.TIMode = SPI_TIMODE_DISABLE;
 80021ba:	6284      	str	r4, [r0, #40]	@ 0x28
  hspi1.Init.Mode = SPI_MODE_MASTER;
 80021bc:	6045      	str	r5, [r0, #4]
  if (HAL_SPI_Init(&hspi1) != HAL_OK)
 80021be:	f004 f9fd 	bl	80065bc <HAL_SPI_Init>
 80021c2:	4603      	mov	r3, r0
 80021c4:	b108      	cbz	r0, 80021ca <main+0x296>
 80021c6:	b672      	cpsid	i
  while (1)
 80021c8:	e7fe      	b.n	80021c8 <main+0x294>
  hrtc.Init.AsynchPrediv = 32768;
 80021ca:	f44f 4200 	mov.w	r2, #32768	@ 0x8000
  hrtc.Instance = RTC;
 80021ce:	4810      	ldr	r0, [pc, #64]	@ (8002210 <main+0x2dc>)
 80021d0:	4910      	ldr	r1, [pc, #64]	@ (8002214 <main+0x2e0>)
  hrtc.Init.AsynchPrediv = 32768;
 80021d2:	e880 000e 	stmia.w	r0, {r1, r2, r3}
  if (HAL_RTC_Init(&hrtc) != HAL_OK)
 80021d6:	f004 f8e5 	bl	80063a4 <HAL_RTC_Init>
 80021da:	b1e8      	cbz	r0, 8002218 <main+0x2e4>
 80021dc:	b672      	cpsid	i
  while (1)
 80021de:	e7fe      	b.n	80021de <main+0x2aa>
 80021e0:	40021000 	.word	0x40021000
 80021e4:	40011000 	.word	0x40011000
 80021e8:	20000828 	.word	0x20000828
 80021ec:	40010800 	.word	0x40010800
 80021f0:	40010c00 	.word	0x40010c00
 80021f4:	40012400 	.word	0x40012400
 80021f8:	20000720 	.word	0x20000720
 80021fc:	40003800 	.word	0x40003800
 8002200:	200006d8 	.word	0x200006d8
 8002204:	40012c00 	.word	0x40012c00
 8002208:	20000778 	.word	0x20000778
 800220c:	40013000 	.word	0x40013000
 8002210:	200007d0 	.word	0x200007d0
 8002214:	40002800 	.word	0x40002800
  commoninit();
 8002218:	f7fe fcc4 	bl	8000ba4 <commoninit>
  randinit();
 800221c:	f7fe fc34 	bl	8000a88 <randinit>
  LCD_init();
 8002220:	f7ff f91e 	bl	8001460 <LCD_init>
  LCD_bufupload_buferase();
 8002224:	f7ff f90e 	bl	8001444 <LCD_bufupload_buferase>
  initbuttons();
 8002228:	f7fe fce6 	bl	8000bf8 <initbuttons>
  HAL_ADC_Start_DMA(&hadc1, (uint32_t*)ADC_data.array, 3);
 800222c:	2203      	movs	r2, #3
 800222e:	4906      	ldr	r1, [pc, #24]	@ (8002248 <main+0x314>)
 8002230:	4806      	ldr	r0, [pc, #24]	@ (800224c <main+0x318>)
 8002232:	f003 f901 	bl	8005438 <HAL_ADC_Start_DMA>
  HAL_ADC_Start_DMA(&hadc1, (uint32_t*)ADC_data.array, 3);
 8002236:	2203      	movs	r2, #3
 8002238:	4903      	ldr	r1, [pc, #12]	@ (8002248 <main+0x314>)
 800223a:	4804      	ldr	r0, [pc, #16]	@ (800224c <main+0x318>)
 800223c:	f003 f8fc 	bl	8005438 <HAL_ADC_Start_DMA>
    MainMenu();
 8002240:	f000 fcea 	bl	8002c18 <MainMenu>
  while (1)
 8002244:	e7fc      	b.n	8002240 <main+0x30c>
 8002246:	bf00      	nop
 8002248:	200006d0 	.word	0x200006d0
 800224c:	20000828 	.word	0x20000828

08002250 <HAL_IncTick>:
{
 8002250:	b538      	push	{r3, r4, r5, lr}
  uwTick += uwTickFreq;
 8002252:	490f      	ldr	r1, [pc, #60]	@ (8002290 <HAL_IncTick+0x40>)
  timestamp++;
 8002254:	4c0f      	ldr	r4, [pc, #60]	@ (8002294 <HAL_IncTick+0x44>)
  uwTick += uwTickFreq;
 8002256:	4a10      	ldr	r2, [pc, #64]	@ (8002298 <HAL_IncTick+0x48>)
  timestamp++;
 8002258:	6823      	ldr	r3, [r4, #0]
  uwTick += uwTickFreq;
 800225a:	6808      	ldr	r0, [r1, #0]
 800225c:	7812      	ldrb	r2, [r2, #0]
  if( ((timestamp - timer_adc) > 20) && adc_complete_fl )
 800225e:	4d0f      	ldr	r5, [pc, #60]	@ (800229c <HAL_IncTick+0x4c>)
  timestamp++;
 8002260:	3301      	adds	r3, #1
  uwTick += uwTickFreq;
 8002262:	4402      	add	r2, r0
  timestamp++;
 8002264:	6023      	str	r3, [r4, #0]
  uwTick += uwTickFreq;
 8002266:	600a      	str	r2, [r1, #0]
  SchedPeriodIncr();
 8002268:	f000 feb8 	bl	8002fdc <SchedPeriodIncr>
  if( ((timestamp - timer_adc) > 20) && adc_complete_fl )
 800226c:	6824      	ldr	r4, [r4, #0]
 800226e:	682b      	ldr	r3, [r5, #0]
 8002270:	1ae3      	subs	r3, r4, r3
 8002272:	2b14      	cmp	r3, #20
 8002274:	d902      	bls.n	800227c <HAL_IncTick+0x2c>
 8002276:	4b0a      	ldr	r3, [pc, #40]	@ (80022a0 <HAL_IncTick+0x50>)
 8002278:	781b      	ldrb	r3, [r3, #0]
 800227a:	b903      	cbnz	r3, 800227e <HAL_IncTick+0x2e>
}
 800227c:	bd38      	pop	{r3, r4, r5, pc}
    timer_adc = timestamp;
 800227e:	602c      	str	r4, [r5, #0]
    HAL_ADC_Start_DMA(&hadc1, (uint32_t*)ADC_data.array, 3);
 8002280:	2203      	movs	r2, #3
}
 8002282:	e8bd 4038 	ldmia.w	sp!, {r3, r4, r5, lr}
    HAL_ADC_Start_DMA(&hadc1, (uint32_t*)ADC_data.array, 3);
 8002286:	4907      	ldr	r1, [pc, #28]	@ (80022a4 <HAL_IncTick+0x54>)
 8002288:	4807      	ldr	r0, [pc, #28]	@ (80022a8 <HAL_IncTick+0x58>)
 800228a:	f003 b8d5 	b.w	8005438 <HAL_ADC_Start_DMA>
 800228e:	bf00      	nop
 8002290:	20000bc8 	.word	0x20000bc8
 8002294:	2000025c 	.word	0x2000025c
 8002298:	20000063 	.word	0x20000063
 800229c:	200006c8 	.word	0x200006c8
 80022a0:	200006cc 	.word	0x200006cc
 80022a4:	200006d0 	.word	0x200006d0
 80022a8:	20000828 	.word	0x20000828

080022ac <HAL_ADC_ConvCpltCallback>:
  if(hadc->Instance == ADC1)
 80022ac:	4b0b      	ldr	r3, [pc, #44]	@ (80022dc <HAL_ADC_ConvCpltCallback+0x30>)
 80022ae:	6802      	ldr	r2, [r0, #0]
 80022b0:	429a      	cmp	r2, r3
 80022b2:	d000      	beq.n	80022b6 <HAL_ADC_ConvCpltCallback+0xa>
}
 80022b4:	4770      	bx	lr
    adc_complete_fl = 1;
 80022b6:	f04f 0c01 	mov.w	ip, #1
    joystick.ox = (uint8_t)(ADC_data.jox/16);
 80022ba:	4b09      	ldr	r3, [pc, #36]	@ (80022e0 <HAL_ADC_ConvCpltCallback+0x34>)
 80022bc:	4809      	ldr	r0, [pc, #36]	@ (80022e4 <HAL_ADC_ConvCpltCallback+0x38>)
 80022be:	8859      	ldrh	r1, [r3, #2]
    joystick.oy = (uint8_t)(ADC_data.joy/16);
 80022c0:	889a      	ldrh	r2, [r3, #4]
    joystick.ox = (uint8_t)(ADC_data.jox/16);
 80022c2:	0909      	lsrs	r1, r1, #4
    joystick.oy = (uint8_t)(ADC_data.joy/16);
 80022c4:	0912      	lsrs	r2, r2, #4
    Ubat = (uint8_t)(ADC_data.batlvl/16);
 80022c6:	881b      	ldrh	r3, [r3, #0]
    joystick.ox = (uint8_t)(ADC_data.jox/16);
 80022c8:	7041      	strb	r1, [r0, #1]
    joystick.oy = (uint8_t)(ADC_data.joy/16);
 80022ca:	7082      	strb	r2, [r0, #2]
    Ubat = (uint8_t)(ADC_data.batlvl/16);
 80022cc:	4906      	ldr	r1, [pc, #24]	@ (80022e8 <HAL_ADC_ConvCpltCallback+0x3c>)
    adc_complete_fl = 1;
 80022ce:	4a07      	ldr	r2, [pc, #28]	@ (80022ec <HAL_ADC_ConvCpltCallback+0x40>)
    Ubat = (uint8_t)(ADC_data.batlvl/16);
 80022d0:	091b      	lsrs	r3, r3, #4
 80022d2:	700b      	strb	r3, [r1, #0]
    adc_complete_fl = 1;
 80022d4:	f882 c000 	strb.w	ip, [r2]
}
 80022d8:	4770      	bx	lr
 80022da:	bf00      	nop
 80022dc:	40012400 	.word	0x40012400
 80022e0:	200006d0 	.word	0x200006d0
 80022e4:	20000260 	.word	0x20000260
 80022e8:	2000024f 	.word	0x2000024f
 80022ec:	200006cc 	.word	0x200006cc

080022f0 <Error_Handler>:
 80022f0:	b672      	cpsid	i
  while (1)
 80022f2:	e7fe      	b.n	80022f2 <Error_Handler+0x2>

080022f4 <setdatetime>:
#include "ufo_battle.h"
#include "math.h"


void setdatetime(void)
{
 80022f4:	e92d 4ff0 	stmdb	sp!, {r4, r5, r6, r7, r8, r9, sl, fp, lr}
  uint8 selectpos = 0;
  RTCgetdata(&rtcraw);
  uint8 displaingSaveFlag = 0;
  uint8 displaingSaveLatch = 0;
  uint32 tim = 0;
 80022f8:	f04f 0800 	mov.w	r8, #0
{
 80022fc:	b08b      	sub	sp, #44	@ 0x2c
  RTCgetdata(&rtcraw);
 80022fe:	48bb      	ldr	r0, [pc, #748]	@ (80025ec <setdatetime+0x2f8>)
 8002300:	f8df b2ec 	ldr.w	fp, [pc, #748]	@ 80025f0 <setdatetime+0x2fc>
  uint32 tim = 0;
 8002304:	f8cd 8000 	str.w	r8, [sp]
  RTCgetdata(&rtcraw);
 8002308:	f7fe fef6 	bl	80010f8 <RTCgetdata>
  uint8 displaingSaveLatch = 0;
 800230c:	f8cd 8004 	str.w	r8, [sp, #4]
  while(1)
  {  
    checkjoydir();
 8002310:	f7fe ff68 	bl	80011e4 <checkjoydir>
    TestBtn(&B1); TestBtn(&B2); TestBtn(&B3); TestBtn(&B4);
 8002314:	4658      	mov	r0, fp
 8002316:	f7fe ff01 	bl	800111c <TestBtn>
 800231a:	48b6      	ldr	r0, [pc, #728]	@ (80025f4 <setdatetime+0x300>)
 800231c:	f7fe fefe 	bl	800111c <TestBtn>
 8002320:	48b5      	ldr	r0, [pc, #724]	@ (80025f8 <setdatetime+0x304>)
 8002322:	f7fe fefb 	bl	800111c <TestBtn>
 8002326:	48b5      	ldr	r0, [pc, #724]	@ (80025fc <setdatetime+0x308>)
 8002328:	f7fe fef8 	bl	800111c <TestBtn>
    
    if(B2.BtnON){
 800232c:	4bb1      	ldr	r3, [pc, #708]	@ (80025f4 <setdatetime+0x300>)
 800232e:	7c5f      	ldrb	r7, [r3, #17]
 8002330:	2f00      	cmp	r7, #0
 8002332:	f040 82b6 	bne.w	80028a2 <setdatetime+0x5ae>
      B2.BtnON = 0;
      RTCsenddata(&rtcraw);
      displaingSaveFlag = 1;
    }
    
    if(B1.BtnON){
 8002336:	f89b 1011 	ldrb.w	r1, [fp, #17]
 800233a:	2900      	cmp	r1, #0
 800233c:	f040 82bd 	bne.w	80028ba <setdatetime+0x5c6>
      B1.BtnON = 0;
      return;
    }
    
    if(joystick.right == 1)
 8002340:	4aaf      	ldr	r2, [pc, #700]	@ (8002600 <setdatetime+0x30c>)
 8002342:	7813      	ldrb	r3, [r2, #0]
 8002344:	f013 0008 	ands.w	r0, r3, #8
 8002348:	f000 829a 	beq.w	8002880 <setdatetime+0x58c>
    {
      joystick.right = 0;
      selectpos++;
 800234c:	f108 0001 	add.w	r0, r8, #1
 8002350:	b2c0      	uxtb	r0, r0
      joystick.right = 0;
 8002352:	f361 03c3 	bfi	r3, r1, #3, #1
      if(selectpos == 7) selectpos = 0;
 8002356:	2807      	cmp	r0, #7
      joystick.right = 0;
 8002358:	7013      	strb	r3, [r2, #0]
      if(selectpos == 7) selectpos = 0;
 800235a:	f000 82b4 	beq.w	80028c6 <setdatetime+0x5d2>
    }
    if(joystick.left == 1)
 800235e:	7813      	ldrb	r3, [r2, #0]
 8002360:	075c      	lsls	r4, r3, #29
 8002362:	f140 82b9 	bpl.w	80028d8 <setdatetime+0x5e4>
    {
      joystick.left = 0;
 8002366:	f361 0382 	bfi	r3, r1, #2, #1
 800236a:	7013      	strb	r3, [r2, #0]
      selectpos--;
      if(selectpos == 255) selectpos = 6;
    }


    uint8 day[4] = {dig_to_smb(rtcraw.day/10), dig_to_smb(rtcraw.day%10), '.', '\0'};
 800236c:	4d9f      	ldr	r5, [pc, #636]	@ (80025ec <setdatetime+0x2f8>)
 800236e:	4ca5      	ldr	r4, [pc, #660]	@ (8002604 <setdatetime+0x310>)
 8002370:	78e8      	ldrb	r0, [r5, #3]
 8002372:	f04f 0a2e 	mov.w	sl, #46	@ 0x2e
 8002376:	fba4 3000 	umull	r3, r0, r4, r0
 800237a:	08c0      	lsrs	r0, r0, #3
 800237c:	f7fe fb96 	bl	8000aac <dig_to_smb>
 8002380:	4602      	mov	r2, r0
 8002382:	78e8      	ldrb	r0, [r5, #3]
 8002384:	f88d 2010 	strb.w	r2, [sp, #16]
 8002388:	fba4 1300 	umull	r1, r3, r4, r0
 800238c:	08db      	lsrs	r3, r3, #3
 800238e:	eb03 0383 	add.w	r3, r3, r3, lsl #2
 8002392:	eba0 0043 	sub.w	r0, r0, r3, lsl #1
 8002396:	b2c0      	uxtb	r0, r0
 8002398:	f7fe fb88 	bl	8000aac <dig_to_smb>
 800239c:	f88d 0011 	strb.w	r0, [sp, #17]
	uint8 month[4] = {dig_to_smb(rtcraw.month / 10), dig_to_smb(rtcraw.month % 10), '.', '\0'};
 80023a0:	7968      	ldrb	r0, [r5, #5]
    uint8 day[4] = {dig_to_smb(rtcraw.day/10), dig_to_smb(rtcraw.day%10), '.', '\0'};
 80023a2:	f8ad a012 	strh.w	sl, [sp, #18]
	uint8 month[4] = {dig_to_smb(rtcraw.month / 10), dig_to_smb(rtcraw.month % 10), '.', '\0'};
 80023a6:	fba4 3000 	umull	r3, r0, r4, r0
 80023aa:	08c0      	lsrs	r0, r0, #3
 80023ac:	f7fe fb7e 	bl	8000aac <dig_to_smb>
 80023b0:	f88d 0014 	strb.w	r0, [sp, #20]
 80023b4:	7968      	ldrb	r0, [r5, #5]
	uint8 year[5] = {dig_to_smb(rtcraw.year / 1000), dig_to_smb((rtcraw.year%1000)/100), dig_to_smb((rtcraw.year % 100) / 10), dig_to_smb(rtcraw.year % 10), '\0'};
 80023b6:	2600      	movs	r6, #0
	uint8 month[4] = {dig_to_smb(rtcraw.month / 10), dig_to_smb(rtcraw.month % 10), '.', '\0'};
 80023b8:	fba4 2300 	umull	r2, r3, r4, r0
 80023bc:	08db      	lsrs	r3, r3, #3
 80023be:	eb03 0383 	add.w	r3, r3, r3, lsl #2
 80023c2:	eba0 0043 	sub.w	r0, r0, r3, lsl #1
 80023c6:	b2c0      	uxtb	r0, r0
 80023c8:	f7fe fb70 	bl	8000aac <dig_to_smb>
 80023cc:	f8ad a016 	strh.w	sl, [sp, #22]
 80023d0:	f88d 0015 	strb.w	r0, [sp, #21]
	uint8 year[5] = {dig_to_smb(rtcraw.year / 1000), dig_to_smb((rtcraw.year%1000)/100), dig_to_smb((rtcraw.year % 100) / 10), dig_to_smb(rtcraw.year % 10), '\0'};
 80023d4:	f8df a230 	ldr.w	sl, [pc, #560]	@ 8002608 <setdatetime+0x314>
 80023d8:	68a8      	ldr	r0, [r5, #8]
	LCD_printstr8x5(day, 0, 2);
	LCD_printstr8x5(month, 0, 18);
	LCD_printstr8x5(year, 0, 34);
	uint8 hour[4] = {dig_to_smb(rtcraw.hour / 10), dig_to_smb(rtcraw.hour % 10), ':', '\0'};
 80023da:	f04f 093a 	mov.w	r9, #58	@ 0x3a
	uint8 year[5] = {dig_to_smb(rtcraw.year / 1000), dig_to_smb((rtcraw.year%1000)/100), dig_to_smb((rtcraw.year % 100) / 10), dig_to_smb(rtcraw.year % 10), '\0'};
 80023de:	fbaa 3000 	umull	r3, r0, sl, r0
 80023e2:	f3c0 1087 	ubfx	r0, r0, #6, #8
 80023e6:	f7fe fb61 	bl	8000aac <dig_to_smb>
 80023ea:	f44f 717a 	mov.w	r1, #1000	@ 0x3e8
 80023ee:	68ab      	ldr	r3, [r5, #8]
 80023f0:	f88d 0020 	strb.w	r0, [sp, #32]
 80023f4:	fbaa c203 	umull	ip, r2, sl, r3
 80023f8:	0992      	lsrs	r2, r2, #6
 80023fa:	fb01 3312 	mls	r3, r1, r2, r3
 80023fe:	f8df a20c 	ldr.w	sl, [pc, #524]	@ 800260c <setdatetime+0x318>
 8002402:	fbaa 2303 	umull	r2, r3, sl, r3
 8002406:	f3c3 1047 	ubfx	r0, r3, #5, #8
 800240a:	f7fe fb4f 	bl	8000aac <dig_to_smb>
 800240e:	2264      	movs	r2, #100	@ 0x64
 8002410:	f88d 0021 	strb.w	r0, [sp, #33]	@ 0x21
 8002414:	68a8      	ldr	r0, [r5, #8]
 8002416:	fbaa 1300 	umull	r1, r3, sl, r0
 800241a:	095b      	lsrs	r3, r3, #5
 800241c:	fb02 0013 	mls	r0, r2, r3, r0
 8002420:	fba4 3000 	umull	r3, r0, r4, r0
 8002424:	f3c0 00c7 	ubfx	r0, r0, #3, #8
 8002428:	f7fe fb40 	bl	8000aac <dig_to_smb>
 800242c:	4602      	mov	r2, r0
 800242e:	68a8      	ldr	r0, [r5, #8]
 8002430:	f88d 2022 	strb.w	r2, [sp, #34]	@ 0x22
 8002434:	fba4 1300 	umull	r1, r3, r4, r0
 8002438:	08db      	lsrs	r3, r3, #3
 800243a:	eb03 0383 	add.w	r3, r3, r3, lsl #2
 800243e:	eba0 0043 	sub.w	r0, r0, r3, lsl #1
 8002442:	b2c0      	uxtb	r0, r0
 8002444:	f7fe fb32 	bl	8000aac <dig_to_smb>
	LCD_printstr8x5(day, 0, 2);
 8002448:	2202      	movs	r2, #2
 800244a:	4631      	mov	r1, r6
	uint8 year[5] = {dig_to_smb(rtcraw.year / 1000), dig_to_smb((rtcraw.year%1000)/100), dig_to_smb((rtcraw.year % 100) / 10), dig_to_smb(rtcraw.year % 10), '\0'};
 800244c:	f88d 0023 	strb.w	r0, [sp, #35]	@ 0x23
	LCD_printstr8x5(day, 0, 2);
 8002450:	a804      	add	r0, sp, #16
	uint8 year[5] = {dig_to_smb(rtcraw.year / 1000), dig_to_smb((rtcraw.year%1000)/100), dig_to_smb((rtcraw.year % 100) / 10), dig_to_smb(rtcraw.year % 10), '\0'};
 8002452:	f88d 6024 	strb.w	r6, [sp, #36]	@ 0x24
	LCD_printstr8x5(day, 0, 2);
 8002456:	f7fe ff55 	bl	8001304 <LCD_printstr8x5>
	LCD_printstr8x5(month, 0, 18);
 800245a:	2212      	movs	r2, #18
 800245c:	4631      	mov	r1, r6
 800245e:	a805      	add	r0, sp, #20
 8002460:	f7fe ff50 	bl	8001304 <LCD_printstr8x5>
	LCD_printstr8x5(year, 0, 34);
 8002464:	4631      	mov	r1, r6
 8002466:	2222      	movs	r2, #34	@ 0x22
 8002468:	a808      	add	r0, sp, #32
 800246a:	f7fe ff4b 	bl	8001304 <LCD_printstr8x5>
	uint8 hour[4] = {dig_to_smb(rtcraw.hour / 10), dig_to_smb(rtcraw.hour % 10), ':', '\0'};
 800246e:	78a8      	ldrb	r0, [r5, #2]
 8002470:	fba4 3000 	umull	r3, r0, r4, r0
 8002474:	08c0      	lsrs	r0, r0, #3
 8002476:	f7fe fb19 	bl	8000aac <dig_to_smb>
 800247a:	4602      	mov	r2, r0
 800247c:	78a8      	ldrb	r0, [r5, #2]
 800247e:	f88d 2018 	strb.w	r2, [sp, #24]
 8002482:	fba4 1300 	umull	r1, r3, r4, r0
 8002486:	08db      	lsrs	r3, r3, #3
 8002488:	eb03 0383 	add.w	r3, r3, r3, lsl #2
 800248c:	eba0 0043 	sub.w	r0, r0, r3, lsl #1
 8002490:	b2c0      	uxtb	r0, r0
 8002492:	f7fe fb0b 	bl	8000aac <dig_to_smb>
 8002496:	f88d 0019 	strb.w	r0, [sp, #25]
	uint8 min[4] = {dig_to_smb(rtcraw.min / 10), dig_to_smb(rtcraw.min % 10), ':', '\0'};
 800249a:	7868      	ldrb	r0, [r5, #1]
	uint8 hour[4] = {dig_to_smb(rtcraw.hour / 10), dig_to_smb(rtcraw.hour % 10), ':', '\0'};
 800249c:	f8ad 901a 	strh.w	r9, [sp, #26]
	uint8 min[4] = {dig_to_smb(rtcraw.min / 10), dig_to_smb(rtcraw.min % 10), ':', '\0'};
 80024a0:	fba4 3000 	umull	r3, r0, r4, r0
 80024a4:	08c0      	lsrs	r0, r0, #3
 80024a6:	f7fe fb01 	bl	8000aac <dig_to_smb>
 80024aa:	4602      	mov	r2, r0
 80024ac:	7868      	ldrb	r0, [r5, #1]
 80024ae:	f88d 201c 	strb.w	r2, [sp, #28]
 80024b2:	fba4 1300 	umull	r1, r3, r4, r0
 80024b6:	08db      	lsrs	r3, r3, #3
 80024b8:	eb03 0383 	add.w	r3, r3, r3, lsl #2
 80024bc:	eba0 0043 	sub.w	r0, r0, r3, lsl #1
 80024c0:	b2c0      	uxtb	r0, r0
 80024c2:	f7fe faf3 	bl	8000aac <dig_to_smb>
 80024c6:	4603      	mov	r3, r0
	uint8 sec[3] = {dig_to_smb(rtcraw.sec / 10), dig_to_smb(rtcraw.sec % 10), '\0'};
 80024c8:	7828      	ldrb	r0, [r5, #0]
	uint8 min[4] = {dig_to_smb(rtcraw.min / 10), dig_to_smb(rtcraw.min % 10), ':', '\0'};
 80024ca:	f88d 301d 	strb.w	r3, [sp, #29]
	uint8 sec[3] = {dig_to_smb(rtcraw.sec / 10), dig_to_smb(rtcraw.sec % 10), '\0'};
 80024ce:	fba4 2000 	umull	r2, r0, r4, r0
 80024d2:	08c0      	lsrs	r0, r0, #3
	uint8 min[4] = {dig_to_smb(rtcraw.min / 10), dig_to_smb(rtcraw.min % 10), ':', '\0'};
 80024d4:	f8ad 901e 	strh.w	r9, [sp, #30]
	uint8 sec[3] = {dig_to_smb(rtcraw.sec / 10), dig_to_smb(rtcraw.sec % 10), '\0'};
 80024d8:	f7fe fae8 	bl	8000aac <dig_to_smb>
 80024dc:	4603      	mov	r3, r0
 80024de:	7828      	ldrb	r0, [r5, #0]
 80024e0:	f88d 300c 	strb.w	r3, [sp, #12]
 80024e4:	fba4 2400 	umull	r2, r4, r4, r0
 80024e8:	08e4      	lsrs	r4, r4, #3
 80024ea:	eb04 0484 	add.w	r4, r4, r4, lsl #2
 80024ee:	eba0 0044 	sub.w	r0, r0, r4, lsl #1
 80024f2:	b2c0      	uxtb	r0, r0
 80024f4:	f7fe fada 	bl	8000aac <dig_to_smb>
 80024f8:	4603      	mov	r3, r0
	LCD_printstr8x5(hour, 0, 62);
 80024fa:	223e      	movs	r2, #62	@ 0x3e
 80024fc:	4631      	mov	r1, r6
 80024fe:	a806      	add	r0, sp, #24
	uint8 sec[3] = {dig_to_smb(rtcraw.sec / 10), dig_to_smb(rtcraw.sec % 10), '\0'};
 8002500:	f88d 300d 	strb.w	r3, [sp, #13]
 8002504:	f88d 600e 	strb.w	r6, [sp, #14]
	LCD_printstr8x5(hour, 0, 62);
 8002508:	f7fe fefc 	bl	8001304 <LCD_printstr8x5>
	LCD_printstr8x5(min, 0, 80);
 800250c:	2250      	movs	r2, #80	@ 0x50
 800250e:	4631      	mov	r1, r6
 8002510:	a807      	add	r0, sp, #28
 8002512:	f7fe fef7 	bl	8001304 <LCD_printstr8x5>
	LCD_printstr8x5(sec, 0, 98);
 8002516:	2262      	movs	r2, #98	@ 0x62
 8002518:	4631      	mov	r1, r6
 800251a:	a803      	add	r0, sp, #12
 800251c:	f7fe fef2 	bl	8001304 <LCD_printstr8x5>
	LCD_printweekday(rtcraw.weekday, 0, 115);
 8002520:	2273      	movs	r2, #115	@ 0x73
 8002522:	4631      	mov	r1, r6
 8002524:	7928      	ldrb	r0, [r5, #4]
 8002526:	f7fe ffe1 	bl	80014ec <LCD_printweekday>

        

    switch(selectpos)
 800252a:	f108 33ff 	add.w	r3, r8, #4294967295
 800252e:	2b05      	cmp	r3, #5
 8002530:	f200 81e2 	bhi.w	80028f8 <setdatetime+0x604>
 8002534:	e8df f013 	tbh	[pc, r3, lsl #1]
 8002538:	00f1011a 	.word	0x00f1011a
 800253c:	009f00c9 	.word	0x009f00c9
 8002540:	00060076 	.word	0x00060076
        LCD_printhorline(12, 8, 98);
        if(B3.BtnON || B3.HoldON || B3.StuckON){B3.BtnON = 0; rtcraw.sec--; if(rtcraw.sec > 59) rtcraw.sec = 59; HAL_Delay(200);}
        if(B4.BtnON || B4.HoldON || B4.StuckON){B4.BtnON = 0; rtcraw.sec++; if(rtcraw.sec > 59) rtcraw.sec = 0; HAL_Delay(200);}
      break;
      case 6: 
        LCD_erasestring(128, 1, 0);
 8002544:	2200      	movs	r2, #0
 8002546:	2101      	movs	r1, #1
 8002548:	2080      	movs	r0, #128	@ 0x80
 800254a:	f7fe ff3d 	bl	80013c8 <LCD_erasestring>
        LCD_printhorline(12, 8, 115);
 800254e:	2273      	movs	r2, #115	@ 0x73
 8002550:	2108      	movs	r1, #8
 8002552:	200c      	movs	r0, #12
 8002554:	f7ff fa28 	bl	80019a8 <LCD_printhorline>
        if(B3.BtnON || B3.HoldON || B3.StuckON){B3.BtnON = 0; rtcraw.weekday--; if(rtcraw.weekday > 6) rtcraw.weekday = 6; HAL_Delay(200);}
 8002558:	4b27      	ldr	r3, [pc, #156]	@ (80025f8 <setdatetime+0x304>)
 800255a:	691a      	ldr	r2, [r3, #16]
 800255c:	f012 2fff 	tst.w	r2, #4278255360	@ 0xff00ff00
 8002560:	f040 817b 	bne.w	800285a <setdatetime+0x566>
 8002564:	7d1a      	ldrb	r2, [r3, #20]
 8002566:	2a00      	cmp	r2, #0
 8002568:	f040 8177 	bne.w	800285a <setdatetime+0x566>
        if(B4.BtnON || B4.HoldON || B4.StuckON){B4.BtnON = 0; rtcraw.weekday++; if(rtcraw.weekday > 6) rtcraw.weekday = 0; HAL_Delay(200);}
 800256c:	4b23      	ldr	r3, [pc, #140]	@ (80025fc <setdatetime+0x308>)
 800256e:	691a      	ldr	r2, [r3, #16]
 8002570:	f012 2fff 	tst.w	r2, #4278255360	@ 0xff00ff00
 8002574:	f040 8122 	bne.w	80027bc <setdatetime+0x4c8>
 8002578:	7d1a      	ldrb	r2, [r3, #20]
 800257a:	2a00      	cmp	r2, #0
 800257c:	f040 811e 	bne.w	80027bc <setdatetime+0x4c8>
      break;
    }
    
    LCD_printbutselhint(7, 3, 40);
 8002580:	2228      	movs	r2, #40	@ 0x28
 8002582:	2103      	movs	r1, #3
 8002584:	2007      	movs	r0, #7
 8002586:	f7ff f955 	bl	8001834 <LCD_printbutselhint>
    LCD_printbutselhint(6, 3, 89);
 800258a:	2259      	movs	r2, #89	@ 0x59
 800258c:	2103      	movs	r1, #3
 800258e:	2006      	movs	r0, #6
 8002590:	f7ff f950 	bl	8001834 <LCD_printbutselhint>
    LCD_printstr8x5((uint8*)"", 7, 85);
 8002594:	2255      	movs	r2, #85	@ 0x55
 8002596:	2107      	movs	r1, #7
 8002598:	481d      	ldr	r0, [pc, #116]	@ (8002610 <setdatetime+0x31c>)
 800259a:	f7fe feb3 	bl	8001304 <LCD_printstr8x5>
    LCD_printstr8x5((uint8*)"", 7, 110);
 800259e:	226e      	movs	r2, #110	@ 0x6e
 80025a0:	2107      	movs	r1, #7
 80025a2:	481c      	ldr	r0, [pc, #112]	@ (8002614 <setdatetime+0x320>)
 80025a4:	f7fe feae 	bl	8001304 <LCD_printstr8x5>
    LCD_printstr8x5((uint8*)"-  +", 2, 93); 
 80025a8:	225d      	movs	r2, #93	@ 0x5d
 80025aa:	2102      	movs	r1, #2
 80025ac:	481a      	ldr	r0, [pc, #104]	@ (8002618 <setdatetime+0x324>)
 80025ae:	f7fe fea9 	bl	8001304 <LCD_printstr8x5>
    
    if(displaingSaveFlag) {
 80025b2:	2f00      	cmp	r7, #0
 80025b4:	f000 815e 	beq.w	8002874 <setdatetime+0x580>
      tim = timestamp;
 80025b8:	4c18      	ldr	r4, [pc, #96]	@ (800261c <setdatetime+0x328>)
 80025ba:	6823      	ldr	r3, [r4, #0]
 80025bc:	9300      	str	r3, [sp, #0]
      displaingSaveFlag = 0;
      displaingSaveLatch = 1;
    }
    if(displaingSaveLatch) LCD_printstr8x5((uint8*)"", 7, 2);
 80025be:	2202      	movs	r2, #2
 80025c0:	2107      	movs	r1, #7
 80025c2:	4817      	ldr	r0, [pc, #92]	@ (8002620 <setdatetime+0x32c>)
 80025c4:	f7fe fe9e 	bl	8001304 <LCD_printstr8x5>
    if(((timestamp - tim) > 2000) && displaingSaveLatch) {
 80025c8:	6823      	ldr	r3, [r4, #0]
 80025ca:	9a00      	ldr	r2, [sp, #0]
 80025cc:	1a9b      	subs	r3, r3, r2
 80025ce:	f5b3 6ffa 	cmp.w	r3, #2000	@ 0x7d0
 80025d2:	f240 8183 	bls.w	80028dc <setdatetime+0x5e8>
      LCD_erasestring(128, 7, 0);
 80025d6:	2200      	movs	r2, #0
 80025d8:	2107      	movs	r1, #7
 80025da:	2080      	movs	r0, #128	@ 0x80
 80025dc:	f7fe fef4 	bl	80013c8 <LCD_erasestring>
 80025e0:	2300      	movs	r3, #0
 80025e2:	9301      	str	r3, [sp, #4]
      displaingSaveLatch = 0;
    }
    
    LCD_bufupload_buferase();
 80025e4:	f7fe ff2e 	bl	8001444 <LCD_bufupload_buferase>
  {  
 80025e8:	e692      	b.n	8002310 <setdatetime+0x1c>
 80025ea:	bf00      	nop
 80025ec:	20000250 	.word	0x20000250
 80025f0:	200002ac 	.word	0x200002ac
 80025f4:	20000294 	.word	0x20000294
 80025f8:	2000027c 	.word	0x2000027c
 80025fc:	20000264 	.word	0x20000264
 8002600:	20000260 	.word	0x20000260
 8002604:	cccccccd 	.word	0xcccccccd
 8002608:	10624dd3 	.word	0x10624dd3
 800260c:	51eb851f 	.word	0x51eb851f
 8002610:	0800a6e8 	.word	0x0800a6e8
 8002614:	0800a6ec 	.word	0x0800a6ec
 8002618:	0800a6f0 	.word	0x0800a6f0
 800261c:	2000025c 	.word	0x2000025c
 8002620:	0800a6f8 	.word	0x0800a6f8
        LCD_erasestring(128, 1, 0);
 8002624:	2200      	movs	r2, #0
 8002626:	2101      	movs	r1, #1
 8002628:	2080      	movs	r0, #128	@ 0x80
 800262a:	f7fe fecd 	bl	80013c8 <LCD_erasestring>
        LCD_printhorline(12, 8, 98);
 800262e:	2262      	movs	r2, #98	@ 0x62
 8002630:	2108      	movs	r1, #8
 8002632:	200c      	movs	r0, #12
 8002634:	f7ff f9b8 	bl	80019a8 <LCD_printhorline>
        if(B3.BtnON || B3.HoldON || B3.StuckON){B3.BtnON = 0; rtcraw.sec--; if(rtcraw.sec > 59) rtcraw.sec = 59; HAL_Delay(200);}
 8002638:	4baa      	ldr	r3, [pc, #680]	@ (80028e4 <setdatetime+0x5f0>)
 800263a:	691a      	ldr	r2, [r3, #16]
 800263c:	f012 2fff 	tst.w	r2, #4278255360	@ 0xff00ff00
 8002640:	f040 80fe 	bne.w	8002840 <setdatetime+0x54c>
 8002644:	7d1a      	ldrb	r2, [r3, #20]
 8002646:	2a00      	cmp	r2, #0
 8002648:	f040 80fa 	bne.w	8002840 <setdatetime+0x54c>
        if(B4.BtnON || B4.HoldON || B4.StuckON){B4.BtnON = 0; rtcraw.sec++; if(rtcraw.sec > 59) rtcraw.sec = 0; HAL_Delay(200);}
 800264c:	4ba6      	ldr	r3, [pc, #664]	@ (80028e8 <setdatetime+0x5f4>)
 800264e:	691a      	ldr	r2, [r3, #16]
 8002650:	f012 2fff 	tst.w	r2, #4278255360	@ 0xff00ff00
 8002654:	d102      	bne.n	800265c <setdatetime+0x368>
 8002656:	7d1a      	ldrb	r2, [r3, #20]
 8002658:	2a00      	cmp	r2, #0
 800265a:	d091      	beq.n	8002580 <setdatetime+0x28c>
 800265c:	782a      	ldrb	r2, [r5, #0]
 800265e:	20c8      	movs	r0, #200	@ 0xc8
 8002660:	3201      	adds	r2, #1
 8002662:	b2d2      	uxtb	r2, r2
 8002664:	2a3c      	cmp	r2, #60	@ 0x3c
 8002666:	bf28      	it	cs
 8002668:	2200      	movcs	r2, #0
 800266a:	702a      	strb	r2, [r5, #0]
 800266c:	2200      	movs	r2, #0
 800266e:	745a      	strb	r2, [r3, #17]
 8002670:	f002 fdb6 	bl	80051e0 <HAL_Delay>
 8002674:	e784      	b.n	8002580 <setdatetime+0x28c>
        LCD_erasestring(128, 1, 0); 
 8002676:	2200      	movs	r2, #0
 8002678:	2101      	movs	r1, #1
 800267a:	2080      	movs	r0, #128	@ 0x80
 800267c:	f7fe fea4 	bl	80013c8 <LCD_erasestring>
        LCD_printhorline(12, 8, 80); 
 8002680:	2250      	movs	r2, #80	@ 0x50
 8002682:	2108      	movs	r1, #8
 8002684:	200c      	movs	r0, #12
 8002686:	f7ff f98f 	bl	80019a8 <LCD_printhorline>
        if(B3.BtnON || B3.HoldON || B3.StuckON){B3.BtnON = 0; rtcraw.min--; if(rtcraw.min > 59) rtcraw.min = 59; HAL_Delay(200);}
 800268a:	4b96      	ldr	r3, [pc, #600]	@ (80028e4 <setdatetime+0x5f0>)
 800268c:	691a      	ldr	r2, [r3, #16]
 800268e:	f012 2fff 	tst.w	r2, #4278255360	@ 0xff00ff00
 8002692:	f040 80ad 	bne.w	80027f0 <setdatetime+0x4fc>
 8002696:	7d1a      	ldrb	r2, [r3, #20]
 8002698:	2a00      	cmp	r2, #0
 800269a:	f040 80a9 	bne.w	80027f0 <setdatetime+0x4fc>
        if(B4.BtnON || B4.HoldON || B4.StuckON){B4.BtnON = 0; rtcraw.min++; if(rtcraw.min > 59) rtcraw.min = 0; HAL_Delay(200);}
 800269e:	4b92      	ldr	r3, [pc, #584]	@ (80028e8 <setdatetime+0x5f4>)
 80026a0:	691a      	ldr	r2, [r3, #16]
 80026a2:	f012 2fff 	tst.w	r2, #4278255360	@ 0xff00ff00
 80026a6:	d103      	bne.n	80026b0 <setdatetime+0x3bc>
 80026a8:	7d1a      	ldrb	r2, [r3, #20]
 80026aa:	2a00      	cmp	r2, #0
 80026ac:	f43f af68 	beq.w	8002580 <setdatetime+0x28c>
 80026b0:	786a      	ldrb	r2, [r5, #1]
 80026b2:	20c8      	movs	r0, #200	@ 0xc8
 80026b4:	3201      	adds	r2, #1
 80026b6:	b2d2      	uxtb	r2, r2
 80026b8:	2a3c      	cmp	r2, #60	@ 0x3c
 80026ba:	bf28      	it	cs
 80026bc:	2200      	movcs	r2, #0
 80026be:	706a      	strb	r2, [r5, #1]
 80026c0:	2200      	movs	r2, #0
 80026c2:	745a      	strb	r2, [r3, #17]
 80026c4:	f002 fd8c 	bl	80051e0 <HAL_Delay>
 80026c8:	e75a      	b.n	8002580 <setdatetime+0x28c>
        LCD_erasestring(128, 1, 0); 
 80026ca:	2200      	movs	r2, #0
 80026cc:	2101      	movs	r1, #1
 80026ce:	2080      	movs	r0, #128	@ 0x80
 80026d0:	f7fe fe7a 	bl	80013c8 <LCD_erasestring>
        LCD_printhorline(12, 8, 62);
 80026d4:	223e      	movs	r2, #62	@ 0x3e
 80026d6:	2108      	movs	r1, #8
 80026d8:	200c      	movs	r0, #12
 80026da:	f7ff f965 	bl	80019a8 <LCD_printhorline>
        if(B3.BtnON || B3.HoldON || B3.StuckON){B3.BtnON = 0; rtcraw.hour--; if(rtcraw.hour > 23) rtcraw.hour = 23; HAL_Delay(200);}
 80026de:	4b81      	ldr	r3, [pc, #516]	@ (80028e4 <setdatetime+0x5f0>)
 80026e0:	691a      	ldr	r2, [r3, #16]
 80026e2:	f012 2fff 	tst.w	r2, #4278255360	@ 0xff00ff00
 80026e6:	d176      	bne.n	80027d6 <setdatetime+0x4e2>
 80026e8:	7d1a      	ldrb	r2, [r3, #20]
 80026ea:	2a00      	cmp	r2, #0
 80026ec:	d173      	bne.n	80027d6 <setdatetime+0x4e2>
        if(B4.BtnON || B4.HoldON || B4.StuckON){B4.BtnON = 0; rtcraw.hour++; if(rtcraw.hour > 23) rtcraw.hour = 0; HAL_Delay(200);}
 80026ee:	4b7e      	ldr	r3, [pc, #504]	@ (80028e8 <setdatetime+0x5f4>)
 80026f0:	691a      	ldr	r2, [r3, #16]
 80026f2:	f012 2fff 	tst.w	r2, #4278255360	@ 0xff00ff00
 80026f6:	d103      	bne.n	8002700 <setdatetime+0x40c>
 80026f8:	7d1a      	ldrb	r2, [r3, #20]
 80026fa:	2a00      	cmp	r2, #0
 80026fc:	f43f af40 	beq.w	8002580 <setdatetime+0x28c>
 8002700:	78aa      	ldrb	r2, [r5, #2]
 8002702:	20c8      	movs	r0, #200	@ 0xc8
 8002704:	3201      	adds	r2, #1
 8002706:	b2d2      	uxtb	r2, r2
 8002708:	2a18      	cmp	r2, #24
 800270a:	bf28      	it	cs
 800270c:	2200      	movcs	r2, #0
 800270e:	70aa      	strb	r2, [r5, #2]
 8002710:	2200      	movs	r2, #0
 8002712:	745a      	strb	r2, [r3, #17]
 8002714:	f002 fd64 	bl	80051e0 <HAL_Delay>
 8002718:	e732      	b.n	8002580 <setdatetime+0x28c>
        LCD_erasestring(128, 1, 0); 
 800271a:	2200      	movs	r2, #0
 800271c:	2101      	movs	r1, #1
 800271e:	2080      	movs	r0, #128	@ 0x80
 8002720:	f7fe fe52 	bl	80013c8 <LCD_erasestring>
        LCD_printhorline(24, 8, 34); 
 8002724:	2222      	movs	r2, #34	@ 0x22
 8002726:	2108      	movs	r1, #8
 8002728:	2018      	movs	r0, #24
 800272a:	f7ff f93d 	bl	80019a8 <LCD_printhorline>
        if(B3.BtnON || B3.HoldON || B3.StuckON){B3.BtnON = 0; rtcraw.year--; if(rtcraw.year < 1970) rtcraw.year = 1970; HAL_Delay(200);}
 800272e:	4b6d      	ldr	r3, [pc, #436]	@ (80028e4 <setdatetime+0x5f0>)
 8002730:	691a      	ldr	r2, [r3, #16]
 8002732:	f012 2fff 	tst.w	r2, #4278255360	@ 0xff00ff00
 8002736:	d168      	bne.n	800280a <setdatetime+0x516>
 8002738:	7d1a      	ldrb	r2, [r3, #20]
 800273a:	2a00      	cmp	r2, #0
 800273c:	d165      	bne.n	800280a <setdatetime+0x516>
        if(B4.BtnON || B4.HoldON || B4.StuckON){B4.BtnON = 0; rtcraw.year++; if(rtcraw.year > 2038) rtcraw.year = 2038; HAL_Delay(200);}
 800273e:	4b6a      	ldr	r3, [pc, #424]	@ (80028e8 <setdatetime+0x5f4>)
 8002740:	691a      	ldr	r2, [r3, #16]
 8002742:	f012 2fff 	tst.w	r2, #4278255360	@ 0xff00ff00
 8002746:	d103      	bne.n	8002750 <setdatetime+0x45c>
 8002748:	7d1a      	ldrb	r2, [r3, #20]
 800274a:	2a00      	cmp	r2, #0
 800274c:	f43f af18 	beq.w	8002580 <setdatetime+0x28c>
 8002750:	f240 71f6 	movw	r1, #2038	@ 0x7f6
 8002754:	68aa      	ldr	r2, [r5, #8]
 8002756:	20c8      	movs	r0, #200	@ 0xc8
 8002758:	3201      	adds	r2, #1
 800275a:	428a      	cmp	r2, r1
 800275c:	bf28      	it	cs
 800275e:	460a      	movcs	r2, r1
 8002760:	60aa      	str	r2, [r5, #8]
 8002762:	2200      	movs	r2, #0
 8002764:	745a      	strb	r2, [r3, #17]
 8002766:	f002 fd3b 	bl	80051e0 <HAL_Delay>
 800276a:	e709      	b.n	8002580 <setdatetime+0x28c>
        LCD_erasestring(128, 1, 0); 
 800276c:	2200      	movs	r2, #0
 800276e:	2101      	movs	r1, #1
 8002770:	2080      	movs	r0, #128	@ 0x80
 8002772:	f7fe fe29 	bl	80013c8 <LCD_erasestring>
        LCD_printhorline(12, 8, 18);
 8002776:	2212      	movs	r2, #18
 8002778:	2108      	movs	r1, #8
 800277a:	200c      	movs	r0, #12
 800277c:	f7ff f914 	bl	80019a8 <LCD_printhorline>
        if(B3.BtnON || B3.HoldON || B3.StuckON){B3.BtnON = 0; rtcraw.month--; if(rtcraw.month > 12) rtcraw.month = 12; HAL_Delay(200);}
 8002780:	4b58      	ldr	r3, [pc, #352]	@ (80028e4 <setdatetime+0x5f0>)
 8002782:	691a      	ldr	r2, [r3, #16]
 8002784:	f012 2fff 	tst.w	r2, #4278255360	@ 0xff00ff00
 8002788:	d14d      	bne.n	8002826 <setdatetime+0x532>
 800278a:	7d1a      	ldrb	r2, [r3, #20]
 800278c:	2a00      	cmp	r2, #0
 800278e:	d14a      	bne.n	8002826 <setdatetime+0x532>
        if(B4.BtnON || B4.HoldON || B4.StuckON){B4.BtnON = 0; rtcraw.month++; if(rtcraw.month > 12) rtcraw.month = 0; HAL_Delay(200);}
 8002790:	4b55      	ldr	r3, [pc, #340]	@ (80028e8 <setdatetime+0x5f4>)
 8002792:	691a      	ldr	r2, [r3, #16]
 8002794:	f012 2fff 	tst.w	r2, #4278255360	@ 0xff00ff00
 8002798:	d103      	bne.n	80027a2 <setdatetime+0x4ae>
 800279a:	7d1a      	ldrb	r2, [r3, #20]
 800279c:	2a00      	cmp	r2, #0
 800279e:	f43f aeef 	beq.w	8002580 <setdatetime+0x28c>
 80027a2:	796a      	ldrb	r2, [r5, #5]
 80027a4:	20c8      	movs	r0, #200	@ 0xc8
 80027a6:	3201      	adds	r2, #1
 80027a8:	b2d2      	uxtb	r2, r2
 80027aa:	2a0d      	cmp	r2, #13
 80027ac:	bf28      	it	cs
 80027ae:	2200      	movcs	r2, #0
 80027b0:	716a      	strb	r2, [r5, #5]
 80027b2:	2200      	movs	r2, #0
 80027b4:	745a      	strb	r2, [r3, #17]
 80027b6:	f002 fd13 	bl	80051e0 <HAL_Delay>
 80027ba:	e6e1      	b.n	8002580 <setdatetime+0x28c>
        if(B4.BtnON || B4.HoldON || B4.StuckON){B4.BtnON = 0; rtcraw.weekday++; if(rtcraw.weekday > 6) rtcraw.weekday = 0; HAL_Delay(200);}
 80027bc:	792a      	ldrb	r2, [r5, #4]
 80027be:	20c8      	movs	r0, #200	@ 0xc8
 80027c0:	3201      	adds	r2, #1
 80027c2:	b2d2      	uxtb	r2, r2
 80027c4:	2a07      	cmp	r2, #7
 80027c6:	bf28      	it	cs
 80027c8:	2200      	movcs	r2, #0
 80027ca:	712a      	strb	r2, [r5, #4]
 80027cc:	2200      	movs	r2, #0
 80027ce:	745a      	strb	r2, [r3, #17]
 80027d0:	f002 fd06 	bl	80051e0 <HAL_Delay>
 80027d4:	e6d4      	b.n	8002580 <setdatetime+0x28c>
        if(B3.BtnON || B3.HoldON || B3.StuckON){B3.BtnON = 0; rtcraw.hour--; if(rtcraw.hour > 23) rtcraw.hour = 23; HAL_Delay(200);}
 80027d6:	78aa      	ldrb	r2, [r5, #2]
 80027d8:	20c8      	movs	r0, #200	@ 0xc8
 80027da:	3a01      	subs	r2, #1
 80027dc:	b2d2      	uxtb	r2, r2
 80027de:	2a17      	cmp	r2, #23
 80027e0:	bf28      	it	cs
 80027e2:	2217      	movcs	r2, #23
 80027e4:	70aa      	strb	r2, [r5, #2]
 80027e6:	2200      	movs	r2, #0
 80027e8:	745a      	strb	r2, [r3, #17]
 80027ea:	f002 fcf9 	bl	80051e0 <HAL_Delay>
 80027ee:	e77e      	b.n	80026ee <setdatetime+0x3fa>
        if(B3.BtnON || B3.HoldON || B3.StuckON){B3.BtnON = 0; rtcraw.min--; if(rtcraw.min > 59) rtcraw.min = 59; HAL_Delay(200);}
 80027f0:	786a      	ldrb	r2, [r5, #1]
 80027f2:	20c8      	movs	r0, #200	@ 0xc8
 80027f4:	3a01      	subs	r2, #1
 80027f6:	b2d2      	uxtb	r2, r2
 80027f8:	2a3b      	cmp	r2, #59	@ 0x3b
 80027fa:	bf28      	it	cs
 80027fc:	223b      	movcs	r2, #59	@ 0x3b
 80027fe:	706a      	strb	r2, [r5, #1]
 8002800:	2200      	movs	r2, #0
 8002802:	745a      	strb	r2, [r3, #17]
 8002804:	f002 fcec 	bl	80051e0 <HAL_Delay>
 8002808:	e749      	b.n	800269e <setdatetime+0x3aa>
        if(B3.BtnON || B3.HoldON || B3.StuckON){B3.BtnON = 0; rtcraw.year--; if(rtcraw.year < 1970) rtcraw.year = 1970; HAL_Delay(200);}
 800280a:	f240 71b2 	movw	r1, #1970	@ 0x7b2
 800280e:	68aa      	ldr	r2, [r5, #8]
 8002810:	20c8      	movs	r0, #200	@ 0xc8
 8002812:	3a01      	subs	r2, #1
 8002814:	428a      	cmp	r2, r1
 8002816:	bf38      	it	cc
 8002818:	460a      	movcc	r2, r1
 800281a:	60aa      	str	r2, [r5, #8]
 800281c:	2200      	movs	r2, #0
 800281e:	745a      	strb	r2, [r3, #17]
 8002820:	f002 fcde 	bl	80051e0 <HAL_Delay>
 8002824:	e78b      	b.n	800273e <setdatetime+0x44a>
        if(B3.BtnON || B3.HoldON || B3.StuckON){B3.BtnON = 0; rtcraw.month--; if(rtcraw.month > 12) rtcraw.month = 12; HAL_Delay(200);}
 8002826:	796a      	ldrb	r2, [r5, #5]
 8002828:	20c8      	movs	r0, #200	@ 0xc8
 800282a:	3a01      	subs	r2, #1
 800282c:	b2d2      	uxtb	r2, r2
 800282e:	2a0c      	cmp	r2, #12
 8002830:	bf28      	it	cs
 8002832:	220c      	movcs	r2, #12
 8002834:	716a      	strb	r2, [r5, #5]
 8002836:	2200      	movs	r2, #0
 8002838:	745a      	strb	r2, [r3, #17]
 800283a:	f002 fcd1 	bl	80051e0 <HAL_Delay>
 800283e:	e7a7      	b.n	8002790 <setdatetime+0x49c>
        if(B3.BtnON || B3.HoldON || B3.StuckON){B3.BtnON = 0; rtcraw.sec--; if(rtcraw.sec > 59) rtcraw.sec = 59; HAL_Delay(200);}
 8002840:	782a      	ldrb	r2, [r5, #0]
 8002842:	20c8      	movs	r0, #200	@ 0xc8
 8002844:	3a01      	subs	r2, #1
 8002846:	b2d2      	uxtb	r2, r2
 8002848:	2a3b      	cmp	r2, #59	@ 0x3b
 800284a:	bf28      	it	cs
 800284c:	223b      	movcs	r2, #59	@ 0x3b
 800284e:	702a      	strb	r2, [r5, #0]
 8002850:	2200      	movs	r2, #0
 8002852:	745a      	strb	r2, [r3, #17]
 8002854:	f002 fcc4 	bl	80051e0 <HAL_Delay>
 8002858:	e6f8      	b.n	800264c <setdatetime+0x358>
        if(B3.BtnON || B3.HoldON || B3.StuckON){B3.BtnON = 0; rtcraw.weekday--; if(rtcraw.weekday > 6) rtcraw.weekday = 6; HAL_Delay(200);}
 800285a:	792a      	ldrb	r2, [r5, #4]
 800285c:	20c8      	movs	r0, #200	@ 0xc8
 800285e:	3a01      	subs	r2, #1
 8002860:	b2d2      	uxtb	r2, r2
 8002862:	2a06      	cmp	r2, #6
 8002864:	bf28      	it	cs
 8002866:	2206      	movcs	r2, #6
 8002868:	712a      	strb	r2, [r5, #4]
 800286a:	2200      	movs	r2, #0
 800286c:	745a      	strb	r2, [r3, #17]
 800286e:	f002 fcb7 	bl	80051e0 <HAL_Delay>
 8002872:	e67b      	b.n	800256c <setdatetime+0x278>
    if(displaingSaveLatch) LCD_printstr8x5((uint8*)"", 7, 2);
 8002874:	9b01      	ldr	r3, [sp, #4]
 8002876:	2b00      	cmp	r3, #0
 8002878:	f43f aeb4 	beq.w	80025e4 <setdatetime+0x2f0>
 800287c:	4c1b      	ldr	r4, [pc, #108]	@ (80028ec <setdatetime+0x5f8>)
 800287e:	e69e      	b.n	80025be <setdatetime+0x2ca>
    if(joystick.left == 1)
 8002880:	0759      	lsls	r1, r3, #29
 8002882:	f57f ad73 	bpl.w	800236c <setdatetime+0x78>
      selectpos--;
 8002886:	f108 38ff 	add.w	r8, r8, #4294967295
 800288a:	fa5f f888 	uxtb.w	r8, r8
      joystick.left = 0;
 800288e:	f360 0382 	bfi	r3, r0, #2, #1
      if(selectpos == 255) selectpos = 6;
 8002892:	f1b8 0fff 	cmp.w	r8, #255	@ 0xff
      joystick.left = 0;
 8002896:	7013      	strb	r3, [r2, #0]
      if(selectpos == 255) selectpos = 6;
 8002898:	f47f ad68 	bne.w	800236c <setdatetime+0x78>
 800289c:	f04f 0806 	mov.w	r8, #6
 80028a0:	e564      	b.n	800236c <setdatetime+0x78>
      B2.BtnON = 0;
 80028a2:	2300      	movs	r3, #0
 80028a4:	4a12      	ldr	r2, [pc, #72]	@ (80028f0 <setdatetime+0x5fc>)
      RTCsenddata(&rtcraw);
 80028a6:	4813      	ldr	r0, [pc, #76]	@ (80028f4 <setdatetime+0x600>)
      B2.BtnON = 0;
 80028a8:	7453      	strb	r3, [r2, #17]
      RTCsenddata(&rtcraw);
 80028aa:	f7fe fc2f 	bl	800110c <RTCsenddata>
    if(B1.BtnON){
 80028ae:	f89b 1011 	ldrb.w	r1, [fp, #17]
      displaingSaveFlag = 1;
 80028b2:	2701      	movs	r7, #1
    if(B1.BtnON){
 80028b4:	2900      	cmp	r1, #0
 80028b6:	f43f ad43 	beq.w	8002340 <setdatetime+0x4c>
      B1.BtnON = 0;
 80028ba:	2300      	movs	r3, #0
 80028bc:	f88b 3011 	strb.w	r3, [fp, #17]
  }
}
 80028c0:	b00b      	add	sp, #44	@ 0x2c
 80028c2:	e8bd 8ff0 	ldmia.w	sp!, {r4, r5, r6, r7, r8, r9, sl, fp, pc}
    if(joystick.left == 1)
 80028c6:	b2db      	uxtb	r3, r3
 80028c8:	f013 0804 	ands.w	r8, r3, #4
 80028cc:	f43f ad4e 	beq.w	800236c <setdatetime+0x78>
      joystick.left = 0;
 80028d0:	f361 0382 	bfi	r3, r1, #2, #1
 80028d4:	7013      	strb	r3, [r2, #0]
      if(selectpos == 255) selectpos = 6;
 80028d6:	e7e1      	b.n	800289c <setdatetime+0x5a8>
    if(joystick.left == 1)
 80028d8:	4680      	mov	r8, r0
 80028da:	e547      	b.n	800236c <setdatetime+0x78>
    if(((timestamp - tim) > 2000) && displaingSaveLatch) {
 80028dc:	2301      	movs	r3, #1
 80028de:	9301      	str	r3, [sp, #4]
 80028e0:	e680      	b.n	80025e4 <setdatetime+0x2f0>
 80028e2:	bf00      	nop
 80028e4:	2000027c 	.word	0x2000027c
 80028e8:	20000264 	.word	0x20000264
 80028ec:	2000025c 	.word	0x2000025c
 80028f0:	20000294 	.word	0x20000294
 80028f4:	20000250 	.word	0x20000250
        LCD_erasestring(128, 1, 0); 
 80028f8:	2200      	movs	r2, #0
 80028fa:	2101      	movs	r1, #1
 80028fc:	2080      	movs	r0, #128	@ 0x80
 80028fe:	f7fe fd63 	bl	80013c8 <LCD_erasestring>
        LCD_printhorline(12, 8, 2); 
 8002902:	2202      	movs	r2, #2
 8002904:	2108      	movs	r1, #8
 8002906:	200c      	movs	r0, #12
 8002908:	f7ff f84e 	bl	80019a8 <LCD_printhorline>
        if(B3.BtnON || B3.HoldON || B3.StuckON){B3.BtnON = 0; rtcraw.day--; if(rtcraw.day > 31) rtcraw.day = 31; HAL_Delay(200);}
 800290c:	4b15      	ldr	r3, [pc, #84]	@ (8002964 <setdatetime+0x670>)
 800290e:	691a      	ldr	r2, [r3, #16]
 8002910:	f012 2fff 	tst.w	r2, #4278255360	@ 0xff00ff00
 8002914:	d01d      	beq.n	8002952 <setdatetime+0x65e>
 8002916:	78ea      	ldrb	r2, [r5, #3]
 8002918:	20c8      	movs	r0, #200	@ 0xc8
 800291a:	3a01      	subs	r2, #1
 800291c:	b2d2      	uxtb	r2, r2
 800291e:	2a1f      	cmp	r2, #31
 8002920:	bf28      	it	cs
 8002922:	221f      	movcs	r2, #31
 8002924:	70ea      	strb	r2, [r5, #3]
 8002926:	2200      	movs	r2, #0
 8002928:	745a      	strb	r2, [r3, #17]
 800292a:	f002 fc59 	bl	80051e0 <HAL_Delay>
        if(B4.BtnON || B4.HoldON || B4.StuckON){B4.BtnON = 0; rtcraw.day++; if(rtcraw.day > 31) rtcraw.day = 0; HAL_Delay(200);}
 800292e:	4b0e      	ldr	r3, [pc, #56]	@ (8002968 <setdatetime+0x674>)
 8002930:	691a      	ldr	r2, [r3, #16]
 8002932:	f012 2fff 	tst.w	r2, #4278255360	@ 0xff00ff00
 8002936:	d010      	beq.n	800295a <setdatetime+0x666>
 8002938:	78ea      	ldrb	r2, [r5, #3]
 800293a:	20c8      	movs	r0, #200	@ 0xc8
 800293c:	3201      	adds	r2, #1
 800293e:	b2d2      	uxtb	r2, r2
 8002940:	2a20      	cmp	r2, #32
 8002942:	bf28      	it	cs
 8002944:	2200      	movcs	r2, #0
 8002946:	70ea      	strb	r2, [r5, #3]
 8002948:	2200      	movs	r2, #0
 800294a:	745a      	strb	r2, [r3, #17]
 800294c:	f002 fc48 	bl	80051e0 <HAL_Delay>
 8002950:	e616      	b.n	8002580 <setdatetime+0x28c>
        if(B3.BtnON || B3.HoldON || B3.StuckON){B3.BtnON = 0; rtcraw.day--; if(rtcraw.day > 31) rtcraw.day = 31; HAL_Delay(200);}
 8002952:	7d1a      	ldrb	r2, [r3, #20]
 8002954:	2a00      	cmp	r2, #0
 8002956:	d0ea      	beq.n	800292e <setdatetime+0x63a>
 8002958:	e7dd      	b.n	8002916 <setdatetime+0x622>
        if(B4.BtnON || B4.HoldON || B4.StuckON){B4.BtnON = 0; rtcraw.day++; if(rtcraw.day > 31) rtcraw.day = 0; HAL_Delay(200);}
 800295a:	7d1a      	ldrb	r2, [r3, #20]
 800295c:	2a00      	cmp	r2, #0
 800295e:	f43f ae0f 	beq.w	8002580 <setdatetime+0x28c>
 8002962:	e7e9      	b.n	8002938 <setdatetime+0x644>
 8002964:	2000027c 	.word	0x2000027c
 8002968:	20000264 	.word	0x20000264

0800296c <testscreen>:

void testscreen(void)
{
 800296c:	e92d 4ff0 	stmdb	sp!, {r4, r5, r6, r7, r8, r9, sl, fp, lr}
 8002970:	4d9c      	ldr	r5, [pc, #624]	@ (8002be4 <testscreen+0x278>)
 8002972:	f8df a274 	ldr.w	sl, [pc, #628]	@ 8002be8 <testscreen+0x27c>
 8002976:	f8df b274 	ldr.w	fp, [pc, #628]	@ 8002bec <testscreen+0x280>
  while(1)
  {
    RTCgetdata(&rtcraw);
    uint8 day[4] = {dig_to_smb(rtcraw.day/10), dig_to_smb(rtcraw.day%10), '.', '\0'};
    uint8 month[4] = {dig_to_smb(rtcraw.month / 10), dig_to_smb(rtcraw.month % 10), '.', '\0'};
    uint8 year[5] = {dig_to_smb(rtcraw.year / 1000), dig_to_smb((rtcraw.year%1000)/100), dig_to_smb((rtcraw.year % 100) / 10), dig_to_smb(rtcraw.year % 10), '\0'};
 800297a:	f8df 9274 	ldr.w	r9, [pc, #628]	@ 8002bf0 <testscreen+0x284>
 800297e:	f8df 8274 	ldr.w	r8, [pc, #628]	@ 8002bf4 <testscreen+0x288>
{
 8002982:	b08b      	sub	sp, #44	@ 0x2c
 8002984:	e001      	b.n	800298a <testscreen+0x1e>
  
    LCD_printbutselhint(1, 2, 89);
    LCD_printstr8x5((uint8*)"", 6, 86);
    TestBtn(&B1);
    if(B1.BtnON) {B1.BtnON = 0; return;}
    LCD_bufupload_buferase();
 8002986:	f7fe fd5d 	bl	8001444 <LCD_bufupload_buferase>
    RTCgetdata(&rtcraw);
 800298a:	4628      	mov	r0, r5
    uint8 day[4] = {dig_to_smb(rtcraw.day/10), dig_to_smb(rtcraw.day%10), '.', '\0'};
 800298c:	4c9a      	ldr	r4, [pc, #616]	@ (8002bf8 <testscreen+0x28c>)
    RTCgetdata(&rtcraw);
 800298e:	f7fe fbb3 	bl	80010f8 <RTCgetdata>
    uint8 day[4] = {dig_to_smb(rtcraw.day/10), dig_to_smb(rtcraw.day%10), '.', '\0'};
 8002992:	78e8      	ldrb	r0, [r5, #3]
 8002994:	272e      	movs	r7, #46	@ 0x2e
 8002996:	fba4 3000 	umull	r3, r0, r4, r0
 800299a:	08c0      	lsrs	r0, r0, #3
 800299c:	f7fe f886 	bl	8000aac <dig_to_smb>
 80029a0:	f88d 0008 	strb.w	r0, [sp, #8]
 80029a4:	78e8      	ldrb	r0, [r5, #3]
    uint8 year[5] = {dig_to_smb(rtcraw.year / 1000), dig_to_smb((rtcraw.year%1000)/100), dig_to_smb((rtcraw.year % 100) / 10), dig_to_smb(rtcraw.year % 10), '\0'};
 80029a6:	2600      	movs	r6, #0
    uint8 day[4] = {dig_to_smb(rtcraw.day/10), dig_to_smb(rtcraw.day%10), '.', '\0'};
 80029a8:	fba4 2300 	umull	r2, r3, r4, r0
 80029ac:	08db      	lsrs	r3, r3, #3
 80029ae:	eb03 0383 	add.w	r3, r3, r3, lsl #2
 80029b2:	eba0 0043 	sub.w	r0, r0, r3, lsl #1
 80029b6:	b2c0      	uxtb	r0, r0
 80029b8:	f7fe f878 	bl	8000aac <dig_to_smb>
 80029bc:	f88d 0009 	strb.w	r0, [sp, #9]
    uint8 month[4] = {dig_to_smb(rtcraw.month / 10), dig_to_smb(rtcraw.month % 10), '.', '\0'};
 80029c0:	7968      	ldrb	r0, [r5, #5]
    uint8 day[4] = {dig_to_smb(rtcraw.day/10), dig_to_smb(rtcraw.day%10), '.', '\0'};
 80029c2:	f8ad 700a 	strh.w	r7, [sp, #10]
    uint8 month[4] = {dig_to_smb(rtcraw.month / 10), dig_to_smb(rtcraw.month % 10), '.', '\0'};
 80029c6:	fba4 3000 	umull	r3, r0, r4, r0
 80029ca:	08c0      	lsrs	r0, r0, #3
 80029cc:	f7fe f86e 	bl	8000aac <dig_to_smb>
 80029d0:	f88d 000c 	strb.w	r0, [sp, #12]
 80029d4:	7968      	ldrb	r0, [r5, #5]
 80029d6:	fba4 2300 	umull	r2, r3, r4, r0
 80029da:	08db      	lsrs	r3, r3, #3
 80029dc:	eb03 0383 	add.w	r3, r3, r3, lsl #2
 80029e0:	eba0 0043 	sub.w	r0, r0, r3, lsl #1
 80029e4:	b2c0      	uxtb	r0, r0
 80029e6:	f7fe f861 	bl	8000aac <dig_to_smb>
 80029ea:	f88d 000d 	strb.w	r0, [sp, #13]
    uint8 year[5] = {dig_to_smb(rtcraw.year / 1000), dig_to_smb((rtcraw.year%1000)/100), dig_to_smb((rtcraw.year % 100) / 10), dig_to_smb(rtcraw.year % 10), '\0'};
 80029ee:	68a8      	ldr	r0, [r5, #8]
    uint8 month[4] = {dig_to_smb(rtcraw.month / 10), dig_to_smb(rtcraw.month % 10), '.', '\0'};
 80029f0:	f8ad 700e 	strh.w	r7, [sp, #14]
    uint8 year[5] = {dig_to_smb(rtcraw.year / 1000), dig_to_smb((rtcraw.year%1000)/100), dig_to_smb((rtcraw.year % 100) / 10), dig_to_smb(rtcraw.year % 10), '\0'};
 80029f4:	fba9 3000 	umull	r3, r0, r9, r0
 80029f8:	f3c0 1087 	ubfx	r0, r0, #6, #8
 80029fc:	f7fe f856 	bl	8000aac <dig_to_smb>
 8002a00:	f44f 727a 	mov.w	r2, #1000	@ 0x3e8
 8002a04:	f88d 0018 	strb.w	r0, [sp, #24]
 8002a08:	68a8      	ldr	r0, [r5, #8]
    uint8 hour[4] = {dig_to_smb(rtcraw.hour / 10), dig_to_smb(rtcraw.hour % 10), ':', '\0'};
 8002a0a:	273a      	movs	r7, #58	@ 0x3a
    uint8 year[5] = {dig_to_smb(rtcraw.year / 1000), dig_to_smb((rtcraw.year%1000)/100), dig_to_smb((rtcraw.year % 100) / 10), dig_to_smb(rtcraw.year % 10), '\0'};
 8002a0c:	fba9 1300 	umull	r1, r3, r9, r0
 8002a10:	099b      	lsrs	r3, r3, #6
 8002a12:	fb02 0013 	mls	r0, r2, r3, r0
 8002a16:	fba8 3000 	umull	r3, r0, r8, r0
 8002a1a:	f3c0 1047 	ubfx	r0, r0, #5, #8
 8002a1e:	f7fe f845 	bl	8000aac <dig_to_smb>
 8002a22:	2264      	movs	r2, #100	@ 0x64
 8002a24:	f88d 0019 	strb.w	r0, [sp, #25]
 8002a28:	68a8      	ldr	r0, [r5, #8]
 8002a2a:	fba8 1300 	umull	r1, r3, r8, r0
 8002a2e:	095b      	lsrs	r3, r3, #5
 8002a30:	fb02 0013 	mls	r0, r2, r3, r0
 8002a34:	fba4 3000 	umull	r3, r0, r4, r0
 8002a38:	f3c0 00c7 	ubfx	r0, r0, #3, #8
 8002a3c:	f7fe f836 	bl	8000aac <dig_to_smb>
 8002a40:	f88d 001a 	strb.w	r0, [sp, #26]
 8002a44:	68a8      	ldr	r0, [r5, #8]
 8002a46:	fba4 2300 	umull	r2, r3, r4, r0
 8002a4a:	08db      	lsrs	r3, r3, #3
 8002a4c:	eb03 0383 	add.w	r3, r3, r3, lsl #2
 8002a50:	eba0 0043 	sub.w	r0, r0, r3, lsl #1
 8002a54:	b2c0      	uxtb	r0, r0
 8002a56:	f7fe f829 	bl	8000aac <dig_to_smb>
    LCD_printstr8x5(day, 0, 2);
 8002a5a:	2202      	movs	r2, #2
 8002a5c:	4631      	mov	r1, r6
    uint8 year[5] = {dig_to_smb(rtcraw.year / 1000), dig_to_smb((rtcraw.year%1000)/100), dig_to_smb((rtcraw.year % 100) / 10), dig_to_smb(rtcraw.year % 10), '\0'};
 8002a5e:	f88d 001b 	strb.w	r0, [sp, #27]
    LCD_printstr8x5(day, 0, 2);
 8002a62:	a802      	add	r0, sp, #8
    uint8 year[5] = {dig_to_smb(rtcraw.year / 1000), dig_to_smb((rtcraw.year%1000)/100), dig_to_smb((rtcraw.year % 100) / 10), dig_to_smb(rtcraw.year % 10), '\0'};
 8002a64:	f88d 601c 	strb.w	r6, [sp, #28]
    LCD_printstr8x5(day, 0, 2);
 8002a68:	f7fe fc4c 	bl	8001304 <LCD_printstr8x5>
    LCD_printstr8x5(month, 0, 18);
 8002a6c:	2212      	movs	r2, #18
 8002a6e:	4631      	mov	r1, r6
 8002a70:	a803      	add	r0, sp, #12
 8002a72:	f7fe fc47 	bl	8001304 <LCD_printstr8x5>
    LCD_printstr8x5(year, 0, 34);
 8002a76:	2222      	movs	r2, #34	@ 0x22
 8002a78:	4631      	mov	r1, r6
 8002a7a:	a806      	add	r0, sp, #24
 8002a7c:	f7fe fc42 	bl	8001304 <LCD_printstr8x5>
    uint8 hour[4] = {dig_to_smb(rtcraw.hour / 10), dig_to_smb(rtcraw.hour % 10), ':', '\0'};
 8002a80:	78a8      	ldrb	r0, [r5, #2]
 8002a82:	fba4 3000 	umull	r3, r0, r4, r0
 8002a86:	08c0      	lsrs	r0, r0, #3
 8002a88:	f7fe f810 	bl	8000aac <dig_to_smb>
 8002a8c:	f88d 0010 	strb.w	r0, [sp, #16]
 8002a90:	78a8      	ldrb	r0, [r5, #2]
 8002a92:	fba4 2300 	umull	r2, r3, r4, r0
 8002a96:	08db      	lsrs	r3, r3, #3
 8002a98:	eb03 0383 	add.w	r3, r3, r3, lsl #2
 8002a9c:	eba0 0043 	sub.w	r0, r0, r3, lsl #1
 8002aa0:	b2c0      	uxtb	r0, r0
 8002aa2:	f7fe f803 	bl	8000aac <dig_to_smb>
 8002aa6:	f88d 0011 	strb.w	r0, [sp, #17]
    uint8 min[4] = {dig_to_smb(rtcraw.min / 10), dig_to_smb(rtcraw.min % 10), ':', '\0'};
 8002aaa:	7868      	ldrb	r0, [r5, #1]
    uint8 hour[4] = {dig_to_smb(rtcraw.hour / 10), dig_to_smb(rtcraw.hour % 10), ':', '\0'};
 8002aac:	f8ad 7012 	strh.w	r7, [sp, #18]
    uint8 min[4] = {dig_to_smb(rtcraw.min / 10), dig_to_smb(rtcraw.min % 10), ':', '\0'};
 8002ab0:	fba4 3000 	umull	r3, r0, r4, r0
 8002ab4:	08c0      	lsrs	r0, r0, #3
 8002ab6:	f7fd fff9 	bl	8000aac <dig_to_smb>
 8002aba:	f88d 0014 	strb.w	r0, [sp, #20]
 8002abe:	7868      	ldrb	r0, [r5, #1]
 8002ac0:	fba4 2300 	umull	r2, r3, r4, r0
 8002ac4:	08db      	lsrs	r3, r3, #3
 8002ac6:	eb03 0383 	add.w	r3, r3, r3, lsl #2
 8002aca:	eba0 0043 	sub.w	r0, r0, r3, lsl #1
 8002ace:	b2c0      	uxtb	r0, r0
 8002ad0:	f7fd ffec 	bl	8000aac <dig_to_smb>
 8002ad4:	f88d 0015 	strb.w	r0, [sp, #21]
    uint8 sec[3] = {dig_to_smb(rtcraw.sec / 10), dig_to_smb(rtcraw.sec % 10), '\0'};
 8002ad8:	7828      	ldrb	r0, [r5, #0]
    uint8 min[4] = {dig_to_smb(rtcraw.min / 10), dig_to_smb(rtcraw.min % 10), ':', '\0'};
 8002ada:	f8ad 7016 	strh.w	r7, [sp, #22]
    uint8 sec[3] = {dig_to_smb(rtcraw.sec / 10), dig_to_smb(rtcraw.sec % 10), '\0'};
 8002ade:	fba4 3000 	umull	r3, r0, r4, r0
 8002ae2:	08c0      	lsrs	r0, r0, #3
 8002ae4:	f7fd ffe2 	bl	8000aac <dig_to_smb>
 8002ae8:	f88d 0004 	strb.w	r0, [sp, #4]
 8002aec:	7828      	ldrb	r0, [r5, #0]
 8002aee:	fba4 3400 	umull	r3, r4, r4, r0
 8002af2:	08e4      	lsrs	r4, r4, #3
 8002af4:	eb04 0484 	add.w	r4, r4, r4, lsl #2
 8002af8:	eba0 0044 	sub.w	r0, r0, r4, lsl #1
 8002afc:	b2c0      	uxtb	r0, r0
 8002afe:	f7fd ffd5 	bl	8000aac <dig_to_smb>
    LCD_printstr8x5(hour, 0, 62);
 8002b02:	223e      	movs	r2, #62	@ 0x3e
 8002b04:	4631      	mov	r1, r6
    uint8 sec[3] = {dig_to_smb(rtcraw.sec / 10), dig_to_smb(rtcraw.sec % 10), '\0'};
 8002b06:	f88d 0005 	strb.w	r0, [sp, #5]
    LCD_printstr8x5(hour, 0, 62);
 8002b0a:	a804      	add	r0, sp, #16
    uint8 sec[3] = {dig_to_smb(rtcraw.sec / 10), dig_to_smb(rtcraw.sec % 10), '\0'};
 8002b0c:	f88d 6006 	strb.w	r6, [sp, #6]
    LCD_printstr8x5(hour, 0, 62);
 8002b10:	f7fe fbf8 	bl	8001304 <LCD_printstr8x5>
    LCD_printstr8x5(min, 0, 80);
 8002b14:	2250      	movs	r2, #80	@ 0x50
 8002b16:	4631      	mov	r1, r6
 8002b18:	a805      	add	r0, sp, #20
 8002b1a:	f7fe fbf3 	bl	8001304 <LCD_printstr8x5>
    LCD_printstr8x5(sec, 0, 98);
 8002b1e:	2262      	movs	r2, #98	@ 0x62
 8002b20:	4631      	mov	r1, r6
 8002b22:	a801      	add	r0, sp, #4
 8002b24:	f7fe fbee 	bl	8001304 <LCD_printstr8x5>
    LCD_printweekday(rtcraw.weekday, 0, 115);
 8002b28:	2273      	movs	r2, #115	@ 0x73
 8002b2a:	4631      	mov	r1, r6
 8002b2c:	7928      	ldrb	r0, [r5, #4]
 8002b2e:	f7fe fcdd 	bl	80014ec <LCD_printweekday>
    batcheck();
 8002b32:	f7fe f911 	bl	8000d58 <batcheck>
    LCD_printstr8x5((uint8*)". = ", 2, 2);
 8002b36:	2202      	movs	r2, #2
 8002b38:	4830      	ldr	r0, [pc, #192]	@ (8002bfc <testscreen+0x290>)
 8002b3a:	4611      	mov	r1, r2
 8002b3c:	f7fe fbe2 	bl	8001304 <LCD_printstr8x5>
    u16_to_str(temp, Ubat, DISABLE);
 8002b40:	4b2f      	ldr	r3, [pc, #188]	@ (8002c00 <testscreen+0x294>)
 8002b42:	4632      	mov	r2, r6
 8002b44:	7819      	ldrb	r1, [r3, #0]
 8002b46:	a808      	add	r0, sp, #32
 8002b48:	f7fd ffb6 	bl	8000ab8 <u16_to_str>
    LCD_printstr8x5(temp, 2, 44);
 8002b4c:	222c      	movs	r2, #44	@ 0x2c
 8002b4e:	2102      	movs	r1, #2
 8002b50:	a808      	add	r0, sp, #32
 8002b52:	f7fe fbd7 	bl	8001304 <LCD_printstr8x5>
    LCD_printstr8x5((uint8*)". = ", 3, 2);
 8002b56:	2103      	movs	r1, #3
 8002b58:	2202      	movs	r2, #2
 8002b5a:	482a      	ldr	r0, [pc, #168]	@ (8002c04 <testscreen+0x298>)
 8002b5c:	f7fe fbd2 	bl	8001304 <LCD_printstr8x5>
    u16_to_str(temp, brightPWM, DISABLE);
 8002b60:	4b29      	ldr	r3, [pc, #164]	@ (8002c08 <testscreen+0x29c>)
 8002b62:	4632      	mov	r2, r6
 8002b64:	7819      	ldrb	r1, [r3, #0]
 8002b66:	a808      	add	r0, sp, #32
 8002b68:	f7fd ffa6 	bl	8000ab8 <u16_to_str>
    LCD_printstr8x5(temp, 3, 44);
 8002b6c:	222c      	movs	r2, #44	@ 0x2c
 8002b6e:	2103      	movs	r1, #3
 8002b70:	a808      	add	r0, sp, #32
 8002b72:	f7fe fbc7 	bl	8001304 <LCD_printstr8x5>
    LCD_printstr8x5((uint8*)".X = ", 5, 2);
 8002b76:	2105      	movs	r1, #5
 8002b78:	2202      	movs	r2, #2
 8002b7a:	4824      	ldr	r0, [pc, #144]	@ (8002c0c <testscreen+0x2a0>)
 8002b7c:	f7fe fbc2 	bl	8001304 <LCD_printstr8x5>
    u16_to_str(temp, joystick.ox, DISABLE);
 8002b80:	4632      	mov	r2, r6
 8002b82:	f89a 1001 	ldrb.w	r1, [sl, #1]
 8002b86:	a808      	add	r0, sp, #32
 8002b88:	f7fd ff96 	bl	8000ab8 <u16_to_str>
    LCD_printstr8x5(temp, 5, 44);
 8002b8c:	222c      	movs	r2, #44	@ 0x2c
 8002b8e:	2105      	movs	r1, #5
 8002b90:	a808      	add	r0, sp, #32
 8002b92:	f7fe fbb7 	bl	8001304 <LCD_printstr8x5>
    LCD_printstr8x5((uint8*)".Y = ", 6, 2);
 8002b96:	2106      	movs	r1, #6
 8002b98:	2202      	movs	r2, #2
 8002b9a:	481d      	ldr	r0, [pc, #116]	@ (8002c10 <testscreen+0x2a4>)
 8002b9c:	f7fe fbb2 	bl	8001304 <LCD_printstr8x5>
    u16_to_str(temp, joystick.oy, DISABLE);
 8002ba0:	4632      	mov	r2, r6
 8002ba2:	f89a 1002 	ldrb.w	r1, [sl, #2]
 8002ba6:	a808      	add	r0, sp, #32
 8002ba8:	f7fd ff86 	bl	8000ab8 <u16_to_str>
    LCD_printstr8x5(temp, 6, 44);
 8002bac:	222c      	movs	r2, #44	@ 0x2c
 8002bae:	2106      	movs	r1, #6
 8002bb0:	a808      	add	r0, sp, #32
 8002bb2:	f7fe fba7 	bl	8001304 <LCD_printstr8x5>
    LCD_printbutselhint(1, 2, 89);
 8002bb6:	2259      	movs	r2, #89	@ 0x59
 8002bb8:	2102      	movs	r1, #2
 8002bba:	2001      	movs	r0, #1
 8002bbc:	f7fe fe3a 	bl	8001834 <LCD_printbutselhint>
    LCD_printstr8x5((uint8*)"", 6, 86);
 8002bc0:	2256      	movs	r2, #86	@ 0x56
 8002bc2:	2106      	movs	r1, #6
 8002bc4:	4813      	ldr	r0, [pc, #76]	@ (8002c14 <testscreen+0x2a8>)
 8002bc6:	f7fe fb9d 	bl	8001304 <LCD_printstr8x5>
    TestBtn(&B1);
 8002bca:	4808      	ldr	r0, [pc, #32]	@ (8002bec <testscreen+0x280>)
 8002bcc:	f7fe faa6 	bl	800111c <TestBtn>
    if(B1.BtnON) {B1.BtnON = 0; return;}
 8002bd0:	f89b 3011 	ldrb.w	r3, [fp, #17]
 8002bd4:	2b00      	cmp	r3, #0
 8002bd6:	f43f aed6 	beq.w	8002986 <testscreen+0x1a>
 8002bda:	f88b 6011 	strb.w	r6, [fp, #17]
  }
}
 8002bde:	b00b      	add	sp, #44	@ 0x2c
 8002be0:	e8bd 8ff0 	ldmia.w	sp!, {r4, r5, r6, r7, r8, r9, sl, fp, pc}
 8002be4:	20000250 	.word	0x20000250
 8002be8:	20000260 	.word	0x20000260
 8002bec:	200002ac 	.word	0x200002ac
 8002bf0:	10624dd3 	.word	0x10624dd3
 8002bf4:	51eb851f 	.word	0x51eb851f
 8002bf8:	cccccccd 	.word	0xcccccccd
 8002bfc:	0800a704 	.word	0x0800a704
 8002c00:	2000024f 	.word	0x2000024f
 8002c04:	0800a70c 	.word	0x0800a70c
 8002c08:	2000000c 	.word	0x2000000c
 8002c0c:	0800a714 	.word	0x0800a714
 8002c10:	0800a71c 	.word	0x0800a71c
 8002c14:	0800a724 	.word	0x0800a724

08002c18 <MainMenu>:
  
void MainMenu(void)
{
 8002c18:	b538      	push	{r3, r4, r5, lr}
  //--------------------START MENU-------------------
  if(CFlags.MenuFl)
 8002c1a:	4cb9      	ldr	r4, [pc, #740]	@ (8002f00 <MainMenu+0x2e8>)
 8002c1c:	7823      	ldrb	r3, [r4, #0]
 8002c1e:	07d8      	lsls	r0, r3, #31
 8002c20:	d434      	bmi.n	8002c8c <MainMenu+0x74>
    LCD_printstr8x5((uint8*)"", 6, 93);
  }  
  //-------------------------------------------------
  
  //--------------------SETTINGS---------------------
  if(CFlags.MenuSettingsFl)
 8002c22:	075d      	lsls	r5, r3, #29
 8002c24:	f100 808c 	bmi.w	8002d40 <MainMenu+0x128>
    LCD_printstr8x5((uint8*)"/", 4, 19);
    LCD_printstr8x5((uint8*)"", 6, 19);
  }
  //-------------------------------------------------
  
  batcheck();
 8002c28:	f7fe f896 	bl	8000d58 <batcheck>
  BrightPWMgen(brightPWM);
 8002c2c:	4bb5      	ldr	r3, [pc, #724]	@ (8002f04 <MainMenu+0x2ec>)
 8002c2e:	7818      	ldrb	r0, [r3, #0]
 8002c30:	f7fe f910 	bl	8000e54 <BrightPWMgen>
  getbrightlvl();
 8002c34:	f7fe f8ba 	bl	8000dac <getbrightlvl>
  RTCgetdata(&rtcraw);
 8002c38:	48b3      	ldr	r0, [pc, #716]	@ (8002f08 <MainMenu+0x2f0>)
 8002c3a:	f7fe fa5d 	bl	80010f8 <RTCgetdata>
  
  LCD_printclockanddate(0, 26);
 8002c3e:	211a      	movs	r1, #26
 8002c40:	2000      	movs	r0, #0
 8002c42:	f7fe fc5b 	bl	80014fc <LCD_printclockanddate>
  LCD_printbatlevel(batlvl, 0, 105);
 8002c46:	4bb1      	ldr	r3, [pc, #708]	@ (8002f0c <MainMenu+0x2f4>)
 8002c48:	2269      	movs	r2, #105	@ 0x69
 8002c4a:	7818      	ldrb	r0, [r3, #0]
 8002c4c:	2100      	movs	r1, #0
 8002c4e:	f7fe fd79 	bl	8001744 <LCD_printbatlevel>
  LCD_printbrightnes(0, 0);
 8002c52:	2100      	movs	r1, #0
 8002c54:	4608      	mov	r0, r1
 8002c56:	f7fe fd0b 	bl	8001670 <LCD_printbrightnes>
  LCD_printvertline(55, 8, 80);
 8002c5a:	2250      	movs	r2, #80	@ 0x50
 8002c5c:	2108      	movs	r1, #8
 8002c5e:	2037      	movs	r0, #55	@ 0x37
 8002c60:	f7fe fe18 	bl	8001894 <LCD_printvertline>
  LCD_printvertline(55, 8, 0);
 8002c64:	2200      	movs	r2, #0
 8002c66:	2108      	movs	r1, #8
 8002c68:	2037      	movs	r0, #55	@ 0x37
 8002c6a:	f7fe fe13 	bl	8001894 <LCD_printvertline>
  LCD_printvertline(55, 8, 126);
 8002c6e:	227e      	movs	r2, #126	@ 0x7e
 8002c70:	2108      	movs	r1, #8
 8002c72:	2037      	movs	r0, #55	@ 0x37
 8002c74:	f7fe fe0e 	bl	8001894 <LCD_printvertline>

  LCD_bufupload_buferase();
 8002c78:	f7fe fbe4 	bl	8001444 <LCD_bufupload_buferase>
  HAL_Delay(50);
 8002c7c:	2032      	movs	r0, #50	@ 0x32
 8002c7e:	f002 faaf 	bl	80051e0 <HAL_Delay>
  
  //----------------------GAME-----------------------
  if(CFlags.RunGameFl)
 8002c82:	7823      	ldrb	r3, [r4, #0]
 8002c84:	079b      	lsls	r3, r3, #30
 8002c86:	f100 80ac 	bmi.w	8002de2 <MainMenu+0x1ca>
  {
    ufobattle();
  }
  //-------------------------------------------------
  
}
 8002c8a:	bd38      	pop	{r3, r4, r5, pc}
    TestBtn(&B2);
 8002c8c:	4da0      	ldr	r5, [pc, #640]	@ (8002f10 <MainMenu+0x2f8>)
    checkjoydir();
 8002c8e:	f7fe faa9 	bl	80011e4 <checkjoydir>
    TestBtn(&B2);
 8002c92:	4628      	mov	r0, r5
 8002c94:	f7fe fa42 	bl	800111c <TestBtn>
    if(B2.BtnON) 
 8002c98:	7c6b      	ldrb	r3, [r5, #17]
 8002c9a:	b183      	cbz	r3, 8002cbe <MainMenu+0xa6>
      B2.BtnON = 0;
 8002c9c:	2100      	movs	r1, #0
      switch(CFlags.coursorpos) { 
 8002c9e:	7823      	ldrb	r3, [r4, #0]
      B2.BtnON = 0;
 8002ca0:	7469      	strb	r1, [r5, #17]
      switch(CFlags.coursorpos) { 
 8002ca2:	095a      	lsrs	r2, r3, #5
 8002ca4:	2a02      	cmp	r2, #2
 8002ca6:	f000 8154 	beq.w	8002f52 <MainMenu+0x33a>
 8002caa:	2a03      	cmp	r2, #3
 8002cac:	f000 8157 	beq.w	8002f5e <MainMenu+0x346>
 8002cb0:	2a01      	cmp	r2, #1
 8002cb2:	d104      	bne.n	8002cbe <MainMenu+0xa6>
        case 1: CFlags.MenuFl = 0; CFlags.RunGameFl = 1; CFlags.coursorpos = 1; break;
 8002cb4:	f003 031c 	and.w	r3, r3, #28
 8002cb8:	f043 0322 	orr.w	r3, r3, #34	@ 0x22
 8002cbc:	7023      	strb	r3, [r4, #0]
    if(joystick.down == 1)
 8002cbe:	4a95      	ldr	r2, [pc, #596]	@ (8002f14 <MainMenu+0x2fc>)
 8002cc0:	7813      	ldrb	r3, [r2, #0]
 8002cc2:	0799      	lsls	r1, r3, #30
 8002cc4:	d510      	bpl.n	8002ce8 <MainMenu+0xd0>
      CFlags.coursorpos++;
 8002cc6:	2501      	movs	r5, #1
 8002cc8:	7821      	ldrb	r1, [r4, #0]
      joystick.down = 0;
 8002cca:	f36f 0341 	bfc	r3, #1, #1
      CFlags.coursorpos++;
 8002cce:	3120      	adds	r1, #32
      if(CFlags.coursorpos == 4) CFlags.coursorpos = 1;
 8002cd0:	f001 00e0 	and.w	r0, r1, #224	@ 0xe0
      CFlags.coursorpos++;
 8002cd4:	7021      	strb	r1, [r4, #0]
      if(CFlags.coursorpos == 4) CFlags.coursorpos = 1;
 8002cd6:	2880      	cmp	r0, #128	@ 0x80
 8002cd8:	b2c9      	uxtb	r1, r1
      joystick.down = 0;
 8002cda:	7013      	strb	r3, [r2, #0]
      if(CFlags.coursorpos == 4) CFlags.coursorpos = 1;
 8002cdc:	bf05      	ittet	eq
 8002cde:	f365 1147 	bfieq	r1, r5, #5, #3
    if(joystick.up == 1)
 8002ce2:	7813      	ldrbeq	r3, [r2, #0]
 8002ce4:	b2db      	uxtbne	r3, r3
      if(CFlags.coursorpos == 4) CFlags.coursorpos = 1;
 8002ce6:	7021      	strbeq	r1, [r4, #0]
    if(joystick.up == 1)
 8002ce8:	07db      	lsls	r3, r3, #31
 8002cea:	f100 808e 	bmi.w	8002e0a <MainMenu+0x1f2>
    if(CFlags.coursorpos == 1) LCD_printmenucoursor(2, 4);
 8002cee:	7823      	ldrb	r3, [r4, #0]
 8002cf0:	f003 03e0 	and.w	r3, r3, #224	@ 0xe0
 8002cf4:	2b20      	cmp	r3, #32
 8002cf6:	f000 80b5 	beq.w	8002e64 <MainMenu+0x24c>
    if(CFlags.coursorpos == 2) LCD_printmenucoursor(4, 4);
 8002cfa:	2b40      	cmp	r3, #64	@ 0x40
 8002cfc:	f000 80aa 	beq.w	8002e54 <MainMenu+0x23c>
    if(CFlags.coursorpos == 3) LCD_printmenucoursor(6, 4);
 8002d00:	2b60      	cmp	r3, #96	@ 0x60
 8002d02:	f000 80a2 	beq.w	8002e4a <MainMenu+0x232>
    LCD_printstr8x5((uint8*)"", 2, 19);
 8002d06:	2213      	movs	r2, #19
 8002d08:	2102      	movs	r1, #2
 8002d0a:	4883      	ldr	r0, [pc, #524]	@ (8002f18 <MainMenu+0x300>)
 8002d0c:	f7fe fafa 	bl	8001304 <LCD_printstr8x5>
    LCD_printstr8x5((uint8*)"", 4, 19);
 8002d10:	2213      	movs	r2, #19
 8002d12:	2104      	movs	r1, #4
 8002d14:	4881      	ldr	r0, [pc, #516]	@ (8002f1c <MainMenu+0x304>)
 8002d16:	f7fe faf5 	bl	8001304 <LCD_printstr8x5>
    LCD_printstr8x5((uint8*)"", 6, 19);
 8002d1a:	2213      	movs	r2, #19
 8002d1c:	2106      	movs	r1, #6
 8002d1e:	4880      	ldr	r0, [pc, #512]	@ (8002f20 <MainMenu+0x308>)
 8002d20:	f7fe faf0 	bl	8001304 <LCD_printstr8x5>
    LCD_printbutselhint(0, 2, 89);
 8002d24:	2259      	movs	r2, #89	@ 0x59
 8002d26:	2102      	movs	r1, #2
 8002d28:	2000      	movs	r0, #0
 8002d2a:	f7fe fd83 	bl	8001834 <LCD_printbutselhint>
    LCD_printstr8x5((uint8*)"", 6, 93);
 8002d2e:	225d      	movs	r2, #93	@ 0x5d
 8002d30:	2106      	movs	r1, #6
 8002d32:	487c      	ldr	r0, [pc, #496]	@ (8002f24 <MainMenu+0x30c>)
 8002d34:	f7fe fae6 	bl	8001304 <LCD_printstr8x5>
  if(CFlags.MenuSettingsFl)
 8002d38:	7823      	ldrb	r3, [r4, #0]
 8002d3a:	075d      	lsls	r5, r3, #29
 8002d3c:	f57f af74 	bpl.w	8002c28 <MainMenu+0x10>
    TestBtn(&B1); TestBtn(&B2);
 8002d40:	4d73      	ldr	r5, [pc, #460]	@ (8002f10 <MainMenu+0x2f8>)
    checkjoydir();
 8002d42:	f7fe fa4f 	bl	80011e4 <checkjoydir>
    TestBtn(&B1); TestBtn(&B2);
 8002d46:	4878      	ldr	r0, [pc, #480]	@ (8002f28 <MainMenu+0x310>)
 8002d48:	f7fe f9e8 	bl	800111c <TestBtn>
 8002d4c:	4628      	mov	r0, r5
 8002d4e:	f7fe f9e5 	bl	800111c <TestBtn>
    if(B2.BtnON) 
 8002d52:	7c6b      	ldrb	r3, [r5, #17]
 8002d54:	b153      	cbz	r3, 8002d6c <MainMenu+0x154>
      B2.BtnON = 0;
 8002d56:	2200      	movs	r2, #0
      switch(CFlags.coursorpos) { 
 8002d58:	7823      	ldrb	r3, [r4, #0]
      B2.BtnON = 0;
 8002d5a:	746a      	strb	r2, [r5, #17]
      switch(CFlags.coursorpos) { 
 8002d5c:	095b      	lsrs	r3, r3, #5
 8002d5e:	2b02      	cmp	r3, #2
 8002d60:	f000 80f4 	beq.w	8002f4c <MainMenu+0x334>
 8002d64:	2b03      	cmp	r3, #3
 8002d66:	d101      	bne.n	8002d6c <MainMenu+0x154>
        case 3: testscreen(); break;
 8002d68:	f7ff fe00 	bl	800296c <testscreen>
    if(B1.BtnON) 
 8002d6c:	4a6e      	ldr	r2, [pc, #440]	@ (8002f28 <MainMenu+0x310>)
 8002d6e:	7c53      	ldrb	r3, [r2, #17]
 8002d70:	b13b      	cbz	r3, 8002d82 <MainMenu+0x16a>
      B1.BtnON = 0;
 8002d72:	2100      	movs	r1, #0
      CFlags.MenuFl = 1;
 8002d74:	7823      	ldrb	r3, [r4, #0]
      B1.BtnON = 0;
 8002d76:	7451      	strb	r1, [r2, #17]
      CFlags.MenuFl = 1;
 8002d78:	f003 031a 	and.w	r3, r3, #26
 8002d7c:	f043 0341 	orr.w	r3, r3, #65	@ 0x41
 8002d80:	7023      	strb	r3, [r4, #0]
    if(joystick.down == 1)
 8002d82:	4a64      	ldr	r2, [pc, #400]	@ (8002f14 <MainMenu+0x2fc>)
 8002d84:	7813      	ldrb	r3, [r2, #0]
 8002d86:	0798      	lsls	r0, r3, #30
 8002d88:	d510      	bpl.n	8002dac <MainMenu+0x194>
      CFlags.coursorpos++;
 8002d8a:	2501      	movs	r5, #1
 8002d8c:	7821      	ldrb	r1, [r4, #0]
      joystick.down = 0;
 8002d8e:	f36f 0341 	bfc	r3, #1, #1
      CFlags.coursorpos++;
 8002d92:	3120      	adds	r1, #32
      if(CFlags.coursorpos == 4) CFlags.coursorpos = 1;
 8002d94:	f001 00e0 	and.w	r0, r1, #224	@ 0xe0
      CFlags.coursorpos++;
 8002d98:	7021      	strb	r1, [r4, #0]
      if(CFlags.coursorpos == 4) CFlags.coursorpos = 1;
 8002d9a:	2880      	cmp	r0, #128	@ 0x80
 8002d9c:	b2c9      	uxtb	r1, r1
      joystick.down = 0;
 8002d9e:	7013      	strb	r3, [r2, #0]
      if(CFlags.coursorpos == 4) CFlags.coursorpos = 1;
 8002da0:	bf05      	ittet	eq
 8002da2:	f365 1147 	bfieq	r1, r5, #5, #3
    if(joystick.up == 1)
 8002da6:	7813      	ldrbeq	r3, [r2, #0]
 8002da8:	b2db      	uxtbne	r3, r3
      if(CFlags.coursorpos == 4) CFlags.coursorpos = 1;
 8002daa:	7021      	strbeq	r1, [r4, #0]
    if(joystick.up == 1)
 8002dac:	07d9      	lsls	r1, r3, #31
 8002dae:	d41c      	bmi.n	8002dea <MainMenu+0x1d2>
    if(CFlags.coursorpos == 1) {
 8002db0:	7823      	ldrb	r3, [r4, #0]
 8002db2:	f003 03e0 	and.w	r3, r3, #224	@ 0xe0
 8002db6:	2b20      	cmp	r3, #32
 8002db8:	d06e      	beq.n	8002e98 <MainMenu+0x280>
    if(CFlags.coursorpos == 2) {
 8002dba:	2b40      	cmp	r3, #64	@ 0x40
 8002dbc:	d05a      	beq.n	8002e74 <MainMenu+0x25c>
    if(CFlags.coursorpos == 3) {
 8002dbe:	2b60      	cmp	r3, #96	@ 0x60
 8002dc0:	d034      	beq.n	8002e2c <MainMenu+0x214>
    LCD_printstr8x5((uint8*)"", 2, 19);
 8002dc2:	2213      	movs	r2, #19
 8002dc4:	2102      	movs	r1, #2
 8002dc6:	4859      	ldr	r0, [pc, #356]	@ (8002f2c <MainMenu+0x314>)
 8002dc8:	f7fe fa9c 	bl	8001304 <LCD_printstr8x5>
    LCD_printstr8x5((uint8*)"/", 4, 19);
 8002dcc:	2213      	movs	r2, #19
 8002dce:	2104      	movs	r1, #4
 8002dd0:	4857      	ldr	r0, [pc, #348]	@ (8002f30 <MainMenu+0x318>)
 8002dd2:	f7fe fa97 	bl	8001304 <LCD_printstr8x5>
    LCD_printstr8x5((uint8*)"", 6, 19);
 8002dd6:	2213      	movs	r2, #19
 8002dd8:	2106      	movs	r1, #6
 8002dda:	4856      	ldr	r0, [pc, #344]	@ (8002f34 <MainMenu+0x31c>)
 8002ddc:	f7fe fa92 	bl	8001304 <LCD_printstr8x5>
 8002de0:	e722      	b.n	8002c28 <MainMenu+0x10>
}
 8002de2:	e8bd 4038 	ldmia.w	sp!, {r3, r4, r5, lr}
    ufobattle();
 8002de6:	f002 b90f 	b.w	8005008 <ufobattle>
      CFlags.coursorpos--;
 8002dea:	7821      	ldrb	r1, [r4, #0]
      joystick.up = 0;
 8002dec:	7810      	ldrb	r0, [r2, #0]
      CFlags.coursorpos--;
 8002dee:	31e0      	adds	r1, #224	@ 0xe0
      if(CFlags.coursorpos == 0) CFlags.coursorpos = 3;
 8002df0:	b2cb      	uxtb	r3, r1
      joystick.up = 0;
 8002df2:	f36f 0000 	bfc	r0, #0, #1
      if(CFlags.coursorpos == 0) CFlags.coursorpos = 3;
 8002df6:	2b1f      	cmp	r3, #31
      joystick.up = 0;
 8002df8:	7010      	strb	r0, [r2, #0]
      CFlags.coursorpos--;
 8002dfa:	7021      	strb	r1, [r4, #0]
      if(CFlags.coursorpos == 0) CFlags.coursorpos = 3;
 8002dfc:	d8d9      	bhi.n	8002db2 <MainMenu+0x19a>
 8002dfe:	2203      	movs	r2, #3
 8002e00:	f362 1347 	bfi	r3, r2, #5, #3
 8002e04:	7023      	strb	r3, [r4, #0]
    if(CFlags.coursorpos == 1) {
 8002e06:	b2db      	uxtb	r3, r3
 8002e08:	e7d3      	b.n	8002db2 <MainMenu+0x19a>
      CFlags.coursorpos--;
 8002e0a:	7821      	ldrb	r1, [r4, #0]
      joystick.up = 0;
 8002e0c:	7810      	ldrb	r0, [r2, #0]
      CFlags.coursorpos--;
 8002e0e:	31e0      	adds	r1, #224	@ 0xe0
      if(CFlags.coursorpos == 0) CFlags.coursorpos = 3;
 8002e10:	b2cb      	uxtb	r3, r1
      joystick.up = 0;
 8002e12:	f36f 0000 	bfc	r0, #0, #1
      if(CFlags.coursorpos == 0) CFlags.coursorpos = 3;
 8002e16:	2b1f      	cmp	r3, #31
      joystick.up = 0;
 8002e18:	7010      	strb	r0, [r2, #0]
      CFlags.coursorpos--;
 8002e1a:	7021      	strb	r1, [r4, #0]
      if(CFlags.coursorpos == 0) CFlags.coursorpos = 3;
 8002e1c:	f63f af68 	bhi.w	8002cf0 <MainMenu+0xd8>
 8002e20:	2203      	movs	r2, #3
 8002e22:	f362 1347 	bfi	r3, r2, #5, #3
 8002e26:	7023      	strb	r3, [r4, #0]
    if(CFlags.coursorpos == 1) LCD_printmenucoursor(2, 4);
 8002e28:	b2db      	uxtb	r3, r3
 8002e2a:	e761      	b.n	8002cf0 <MainMenu+0xd8>
      LCD_printmenucoursor(6, 4);
 8002e2c:	2104      	movs	r1, #4
 8002e2e:	2006      	movs	r0, #6
 8002e30:	f7fe fcc6 	bl	80017c0 <LCD_printmenucoursor>
      LCD_printbutselhint(5, 2, 89);
 8002e34:	2259      	movs	r2, #89	@ 0x59
 8002e36:	2102      	movs	r1, #2
 8002e38:	2005      	movs	r0, #5
 8002e3a:	f7fe fcfb 	bl	8001834 <LCD_printbutselhint>
      LCD_printstr8x5((uint8*)"..", 6, 86);
 8002e3e:	2256      	movs	r2, #86	@ 0x56
 8002e40:	2106      	movs	r1, #6
 8002e42:	483d      	ldr	r0, [pc, #244]	@ (8002f38 <MainMenu+0x320>)
 8002e44:	f7fe fa5e 	bl	8001304 <LCD_printstr8x5>
 8002e48:	e7bb      	b.n	8002dc2 <MainMenu+0x1aa>
    if(CFlags.coursorpos == 3) LCD_printmenucoursor(6, 4);
 8002e4a:	2104      	movs	r1, #4
 8002e4c:	2006      	movs	r0, #6
 8002e4e:	f7fe fcb7 	bl	80017c0 <LCD_printmenucoursor>
 8002e52:	e758      	b.n	8002d06 <MainMenu+0xee>
    if(CFlags.coursorpos == 2) LCD_printmenucoursor(4, 4);
 8002e54:	2104      	movs	r1, #4
 8002e56:	4608      	mov	r0, r1
 8002e58:	f7fe fcb2 	bl	80017c0 <LCD_printmenucoursor>
    if(CFlags.coursorpos == 3) LCD_printmenucoursor(6, 4);
 8002e5c:	7823      	ldrb	r3, [r4, #0]
 8002e5e:	f003 03e0 	and.w	r3, r3, #224	@ 0xe0
 8002e62:	e74d      	b.n	8002d00 <MainMenu+0xe8>
    if(CFlags.coursorpos == 1) LCD_printmenucoursor(2, 4);
 8002e64:	2104      	movs	r1, #4
 8002e66:	2002      	movs	r0, #2
 8002e68:	f7fe fcaa 	bl	80017c0 <LCD_printmenucoursor>
    if(CFlags.coursorpos == 2) LCD_printmenucoursor(4, 4);
 8002e6c:	7823      	ldrb	r3, [r4, #0]
 8002e6e:	f003 03e0 	and.w	r3, r3, #224	@ 0xe0
 8002e72:	e742      	b.n	8002cfa <MainMenu+0xe2>
      LCD_printmenucoursor(4, 4);
 8002e74:	2104      	movs	r1, #4
 8002e76:	4608      	mov	r0, r1
 8002e78:	f7fe fca2 	bl	80017c0 <LCD_printmenucoursor>
      LCD_printbutselhint(5, 2, 89);
 8002e7c:	2259      	movs	r2, #89	@ 0x59
 8002e7e:	2102      	movs	r1, #2
 8002e80:	2005      	movs	r0, #5
 8002e82:	f7fe fcd7 	bl	8001834 <LCD_printbutselhint>
      LCD_printstr8x5((uint8*)"..", 6, 86);
 8002e86:	2256      	movs	r2, #86	@ 0x56
 8002e88:	2106      	movs	r1, #6
 8002e8a:	482b      	ldr	r0, [pc, #172]	@ (8002f38 <MainMenu+0x320>)
 8002e8c:	f7fe fa3a 	bl	8001304 <LCD_printstr8x5>
    if(CFlags.coursorpos == 3) {
 8002e90:	7823      	ldrb	r3, [r4, #0]
 8002e92:	f003 03e0 	and.w	r3, r3, #224	@ 0xe0
 8002e96:	e792      	b.n	8002dbe <MainMenu+0x1a6>
      TestBtn(&B3); TestBtn(&B4);
 8002e98:	4d28      	ldr	r5, [pc, #160]	@ (8002f3c <MainMenu+0x324>)
 8002e9a:	4628      	mov	r0, r5
 8002e9c:	f7fe f93e 	bl	800111c <TestBtn>
 8002ea0:	4827      	ldr	r0, [pc, #156]	@ (8002f40 <MainMenu+0x328>)
 8002ea2:	f7fe f93b 	bl	800111c <TestBtn>
      if(B3.BtnON || B3.HoldON || B3.StuckON) {B3.BtnON = 0; decbright();}
 8002ea6:	692b      	ldr	r3, [r5, #16]
 8002ea8:	f013 2fff 	tst.w	r3, #4278255360	@ 0xff00ff00
 8002eac:	d101      	bne.n	8002eb2 <MainMenu+0x29a>
 8002eae:	7d2b      	ldrb	r3, [r5, #20]
 8002eb0:	b11b      	cbz	r3, 8002eba <MainMenu+0x2a2>
 8002eb2:	2300      	movs	r3, #0
 8002eb4:	746b      	strb	r3, [r5, #17]
 8002eb6:	f7fd ff8d 	bl	8000dd4 <decbright>
      if(B4.BtnON || B4.HoldON || B4.StuckON) {B4.BtnON = 0; incbright();}      
 8002eba:	4b21      	ldr	r3, [pc, #132]	@ (8002f40 <MainMenu+0x328>)
 8002ebc:	691a      	ldr	r2, [r3, #16]
 8002ebe:	f012 2fff 	tst.w	r2, #4278255360	@ 0xff00ff00
 8002ec2:	d101      	bne.n	8002ec8 <MainMenu+0x2b0>
 8002ec4:	7d1a      	ldrb	r2, [r3, #20]
 8002ec6:	b11a      	cbz	r2, 8002ed0 <MainMenu+0x2b8>
 8002ec8:	2200      	movs	r2, #0
 8002eca:	745a      	strb	r2, [r3, #17]
 8002ecc:	f7fd ffa2 	bl	8000e14 <incbright>
      LCD_printmenucoursor(2, 4);
 8002ed0:	2104      	movs	r1, #4
 8002ed2:	2002      	movs	r0, #2
 8002ed4:	f7fe fc74 	bl	80017c0 <LCD_printmenucoursor>
      LCD_printbutselhint(4, 2, 89);
 8002ed8:	2259      	movs	r2, #89	@ 0x59
 8002eda:	2102      	movs	r1, #2
 8002edc:	2004      	movs	r0, #4
 8002ede:	f7fe fca9 	bl	8001834 <LCD_printbutselhint>
      LCD_printstr8x5((uint8*)".", 6, 86);
 8002ee2:	2256      	movs	r2, #86	@ 0x56
 8002ee4:	2106      	movs	r1, #6
 8002ee6:	4817      	ldr	r0, [pc, #92]	@ (8002f44 <MainMenu+0x32c>)
 8002ee8:	f7fe fa0c 	bl	8001304 <LCD_printstr8x5>
      LCD_printstr8x5((uint8*)"-  +", 1, 93);
 8002eec:	225d      	movs	r2, #93	@ 0x5d
 8002eee:	2101      	movs	r1, #1
 8002ef0:	4815      	ldr	r0, [pc, #84]	@ (8002f48 <MainMenu+0x330>)
 8002ef2:	f7fe fa07 	bl	8001304 <LCD_printstr8x5>
    if(CFlags.coursorpos == 2) {
 8002ef6:	7823      	ldrb	r3, [r4, #0]
 8002ef8:	f003 03e0 	and.w	r3, r3, #224	@ 0xe0
 8002efc:	e75d      	b.n	8002dba <MainMenu+0x1a2>
 8002efe:	bf00      	nop
 8002f00:	20000010 	.word	0x20000010
 8002f04:	2000000c 	.word	0x2000000c
 8002f08:	20000250 	.word	0x20000250
 8002f0c:	2000024e 	.word	0x2000024e
 8002f10:	20000294 	.word	0x20000294
 8002f14:	20000260 	.word	0x20000260
 8002f18:	0800a72c 	.word	0x0800a72c
 8002f1c:	0800a734 	.word	0x0800a734
 8002f20:	0800a740 	.word	0x0800a740
 8002f24:	0800a74c 	.word	0x0800a74c
 8002f28:	200002ac 	.word	0x200002ac
 8002f2c:	0800a764 	.word	0x0800a764
 8002f30:	0800a76c 	.word	0x0800a76c
 8002f34:	0800a778 	.word	0x0800a778
 8002f38:	0800a75c 	.word	0x0800a75c
 8002f3c:	2000027c 	.word	0x2000027c
 8002f40:	20000264 	.word	0x20000264
 8002f44:	0800a754 	.word	0x0800a754
 8002f48:	0800a6f0 	.word	0x0800a6f0
        case 2: setdatetime(); break;
 8002f4c:	f7ff f9d2 	bl	80022f4 <setdatetime>
 8002f50:	e70c      	b.n	8002d6c <MainMenu+0x154>
        case 2: CFlags.MenuFl = 0; CFlags.MenuSettingsFl = 1; CFlags.coursorpos = 1; break;
 8002f52:	f003 031a 	and.w	r3, r3, #26
 8002f56:	f043 0324 	orr.w	r3, r3, #36	@ 0x24
 8002f5a:	7023      	strb	r3, [r4, #0]
 8002f5c:	e6af      	b.n	8002cbe <MainMenu+0xa6>
        case 3: ShutDown(); break;
 8002f5e:	f7fd ff0b 	bl	8000d78 <ShutDown>
 8002f62:	e6ac      	b.n	8002cbe <MainMenu+0xa6>

08002f64 <SchedAddEvent>:

static uint8 SchedulerRegistredEvents = 0;
tEvent SchedulerEvent[MAX_EVENT];

uint8 SchedAddEvent(void (*func)(void), uint16 period)
{
 8002f64:	b510      	push	{r4, lr}
  SchedulerEvent[SchedulerRegistredEvents].callfunc = func;
  SchedulerEvent[SchedulerRegistredEvents].period = period;
  SchedulerEvent[SchedulerRegistredEvents].run_flag = ON;
 8002f66:	f04f 0e01 	mov.w	lr, #1
{
 8002f6a:	4604      	mov	r4, r0
  SchedulerEvent[SchedulerRegistredEvents].callfunc = func;
 8002f6c:	4b07      	ldr	r3, [pc, #28]	@ (8002f8c <SchedAddEvent+0x28>)
 8002f6e:	4a08      	ldr	r2, [pc, #32]	@ (8002f90 <SchedAddEvent+0x2c>)
 8002f70:	7818      	ldrb	r0, [r3, #0]
 8002f72:	eb02 1c00 	add.w	ip, r2, r0, lsl #4
  SchedulerEvent[SchedulerRegistredEvents].period = period;
 8002f76:	f8cc 1004 	str.w	r1, [ip, #4]
  return SchedulerRegistredEvents++;
 8002f7a:	eb00 010e 	add.w	r1, r0, lr
 8002f7e:	7019      	strb	r1, [r3, #0]
  SchedulerEvent[SchedulerRegistredEvents].run_flag = ON;
 8002f80:	f88c e00c 	strb.w	lr, [ip, #12]
  SchedulerEvent[SchedulerRegistredEvents].callfunc = func;
 8002f84:	0103      	lsls	r3, r0, #4
 8002f86:	50d4      	str	r4, [r2, r3]
}
 8002f88:	bd10      	pop	{r4, pc}
 8002f8a:	bf00      	nop
 8002f8c:	20000a38 	.word	0x20000a38
 8002f90:	20000858 	.word	0x20000858

08002f94 <SchedRemoveAllEvents>:

void SchedRemoveAllEvents(void)
{
  SchedulerRegistredEvents = 0;
 8002f94:	2200      	movs	r2, #0
 8002f96:	4b01      	ldr	r3, [pc, #4]	@ (8002f9c <SchedRemoveAllEvents+0x8>)
 8002f98:	701a      	strb	r2, [r3, #0]
}
 8002f9a:	4770      	bx	lr
 8002f9c:	20000a38 	.word	0x20000a38

08002fa0 <SchedEventProcess>:

void SchedEventProcess(void)
{
 8002fa0:	b5f8      	push	{r3, r4, r5, r6, r7, lr}
  for(uint8 i = 0; i < SchedulerRegistredEvents; i++)
 8002fa2:	4f0c      	ldr	r7, [pc, #48]	@ (8002fd4 <SchedEventProcess+0x34>)
 8002fa4:	783b      	ldrb	r3, [r7, #0]
 8002fa6:	b1a3      	cbz	r3, 8002fd2 <SchedEventProcess+0x32>
 8002fa8:	2400      	movs	r4, #0
 8002faa:	4623      	mov	r3, r4
  {
    if(SchedulerEvent[i].eventcounter >= SchedulerEvent[i].period)
    {
      SchedulerEvent[i].eventcounter = 0;
 8002fac:	4625      	mov	r5, r4
 8002fae:	4e0a      	ldr	r6, [pc, #40]	@ (8002fd8 <SchedEventProcess+0x38>)
    if(SchedulerEvent[i].eventcounter >= SchedulerEvent[i].period)
 8002fb0:	eb06 1203 	add.w	r2, r6, r3, lsl #4
 8002fb4:	e9d2 1001 	ldrd	r1, r0, [r2, #4]
 8002fb8:	4288      	cmp	r0, r1
  for(uint8 i = 0; i < SchedulerRegistredEvents; i++)
 8002fba:	f104 0401 	add.w	r4, r4, #1
    if(SchedulerEvent[i].eventcounter >= SchedulerEvent[i].period)
 8002fbe:	ea4f 1303 	mov.w	r3, r3, lsl #4
 8002fc2:	d302      	bcc.n	8002fca <SchedEventProcess+0x2a>
      SchedulerEvent[i].callfunc();
 8002fc4:	58f3      	ldr	r3, [r6, r3]
      SchedulerEvent[i].eventcounter = 0;
 8002fc6:	6095      	str	r5, [r2, #8]
      SchedulerEvent[i].callfunc();
 8002fc8:	4798      	blx	r3
  for(uint8 i = 0; i < SchedulerRegistredEvents; i++)
 8002fca:	783a      	ldrb	r2, [r7, #0]
 8002fcc:	b2e3      	uxtb	r3, r4
 8002fce:	429a      	cmp	r2, r3
 8002fd0:	d8ee      	bhi.n	8002fb0 <SchedEventProcess+0x10>
    }
  }
}
 8002fd2:	bdf8      	pop	{r3, r4, r5, r6, r7, pc}
 8002fd4:	20000a38 	.word	0x20000a38
 8002fd8:	20000858 	.word	0x20000858

08002fdc <SchedPeriodIncr>:

void SchedPeriodIncr(void)
{
  for(uint8 i = 0; i < SchedulerRegistredEvents; i++) {
 8002fdc:	4b07      	ldr	r3, [pc, #28]	@ (8002ffc <SchedPeriodIncr+0x20>)
 8002fde:	7819      	ldrb	r1, [r3, #0]
 8002fe0:	b151      	cbz	r1, 8002ff8 <SchedPeriodIncr+0x1c>
 8002fe2:	4b07      	ldr	r3, [pc, #28]	@ (8003000 <SchedPeriodIncr+0x24>)
 8002fe4:	eb03 1101 	add.w	r1, r3, r1, lsl #4
    if(SchedulerEvent[i].run_flag) 
 8002fe8:	7b1a      	ldrb	r2, [r3, #12]
 8002fea:	b112      	cbz	r2, 8002ff2 <SchedPeriodIncr+0x16>
      SchedulerEvent[i].eventcounter++;
 8002fec:	689a      	ldr	r2, [r3, #8]
 8002fee:	3201      	adds	r2, #1
 8002ff0:	609a      	str	r2, [r3, #8]
  for(uint8 i = 0; i < SchedulerRegistredEvents; i++) {
 8002ff2:	3310      	adds	r3, #16
 8002ff4:	428b      	cmp	r3, r1
 8002ff6:	d1f7      	bne.n	8002fe8 <SchedPeriodIncr+0xc>
  }
}
 8002ff8:	4770      	bx	lr
 8002ffa:	bf00      	nop
 8002ffc:	20000a38 	.word	0x20000a38
 8003000:	20000858 	.word	0x20000858

08003004 <SchedRemoveEvent>:

void  SchedRemoveEvent(void (*func)(void))
{
 8003004:	b570      	push	{r4, r5, r6, lr}
    uint8 temp_fl = 0;
    for(uint8 i = 0; i < SchedulerRegistredEvents; i++){
 8003006:	4d0e      	ldr	r5, [pc, #56]	@ (8003040 <SchedRemoveEvent+0x3c>)
 8003008:	782c      	ldrb	r4, [r5, #0]
 800300a:	b1c4      	cbz	r4, 800303e <SchedRemoveEvent+0x3a>
    uint8 temp_fl = 0;
 800300c:	2100      	movs	r1, #0
 800300e:	4b0d      	ldr	r3, [pc, #52]	@ (8003044 <SchedRemoveEvent+0x40>)
 8003010:	eb03 1e04 	add.w	lr, r3, r4, lsl #4
        if(SchedulerEvent[i].callfunc == func || temp_fl) {
 8003014:	681a      	ldr	r2, [r3, #0]
 8003016:	4282      	cmp	r2, r0
 8003018:	d000      	beq.n	800301c <SchedRemoveEvent+0x18>
 800301a:	b151      	cbz	r1, 8003032 <SchedRemoveEvent+0x2e>
            temp_fl = 1;
 800301c:	2101      	movs	r1, #1
            SchedulerEvent[i].callfunc = SchedulerEvent[i+1].callfunc;
 800301e:	691e      	ldr	r6, [r3, #16]
            SchedulerEvent[i].period = SchedulerEvent[i+1].period;
 8003020:	699a      	ldr	r2, [r3, #24]
            SchedulerEvent[i].callfunc = SchedulerEvent[i+1].callfunc;
 8003022:	601e      	str	r6, [r3, #0]
            SchedulerEvent[i].period = SchedulerEvent[i+1].period;
 8003024:	695e      	ldr	r6, [r3, #20]
            SchedulerEvent[i].run_flag = SchedulerEvent[i+1].run_flag;
 8003026:	f893 c01c 	ldrb.w	ip, [r3, #28]
            SchedulerEvent[i].period = SchedulerEvent[i+1].period;
 800302a:	e9c3 6201 	strd	r6, r2, [r3, #4]
            SchedulerEvent[i].run_flag = SchedulerEvent[i+1].run_flag;
 800302e:	f883 c00c 	strb.w	ip, [r3, #12]
    for(uint8 i = 0; i < SchedulerRegistredEvents; i++){
 8003032:	3310      	adds	r3, #16
 8003034:	4573      	cmp	r3, lr
 8003036:	d1ed      	bne.n	8003014 <SchedRemoveEvent+0x10>
            SchedulerEvent[i].eventcounter = SchedulerEvent[i+1].eventcounter;
        }
    }
    if(temp_fl) SchedulerRegistredEvents--;
 8003038:	b109      	cbz	r1, 800303e <SchedRemoveEvent+0x3a>
 800303a:	3c01      	subs	r4, #1
 800303c:	702c      	strb	r4, [r5, #0]
}
 800303e:	bd70      	pop	{r4, r5, r6, pc}
 8003040:	20000a38 	.word	0x20000a38
 8003044:	20000858 	.word	0x20000858

08003048 <SchedPauseEvent>:

void  SchedPauseEvent(void (*func)(void))
{
    for(uint8 i = 0; i < SchedulerRegistredEvents; i ++){
 8003048:	4b08      	ldr	r3, [pc, #32]	@ (800306c <SchedPauseEvent+0x24>)
 800304a:	7819      	ldrb	r1, [r3, #0]
 800304c:	b161      	cbz	r1, 8003068 <SchedPauseEvent+0x20>
        if(SchedulerEvent[i].callfunc == func){
            SchedulerEvent[i].run_flag = OFF;
 800304e:	f04f 0c00 	mov.w	ip, #0
 8003052:	4b07      	ldr	r3, [pc, #28]	@ (8003070 <SchedPauseEvent+0x28>)
 8003054:	eb03 1101 	add.w	r1, r3, r1, lsl #4
        if(SchedulerEvent[i].callfunc == func){
 8003058:	681a      	ldr	r2, [r3, #0]
    for(uint8 i = 0; i < SchedulerRegistredEvents; i ++){
 800305a:	3310      	adds	r3, #16
        if(SchedulerEvent[i].callfunc == func){
 800305c:	4282      	cmp	r2, r0
            SchedulerEvent[i].run_flag = OFF;
 800305e:	bf08      	it	eq
 8003060:	f803 cc04 	strbeq.w	ip, [r3, #-4]
    for(uint8 i = 0; i < SchedulerRegistredEvents; i ++){
 8003064:	428b      	cmp	r3, r1
 8003066:	d1f7      	bne.n	8003058 <SchedPauseEvent+0x10>
        }
    }
}
 8003068:	4770      	bx	lr
 800306a:	bf00      	nop
 800306c:	20000a38 	.word	0x20000a38
 8003070:	20000858 	.word	0x20000858

08003074 <SchedResumeEvent>:
void  SchedResumeEvent(void (*func)(void))
{
    for(uint8 i = 0; i < SchedulerRegistredEvents; i ++){
 8003074:	4b08      	ldr	r3, [pc, #32]	@ (8003098 <SchedResumeEvent+0x24>)
 8003076:	7819      	ldrb	r1, [r3, #0]
 8003078:	b161      	cbz	r1, 8003094 <SchedResumeEvent+0x20>
        if(SchedulerEvent[i].callfunc == func){
            SchedulerEvent[i].run_flag = ON;
 800307a:	f04f 0c01 	mov.w	ip, #1
 800307e:	4b07      	ldr	r3, [pc, #28]	@ (800309c <SchedResumeEvent+0x28>)
 8003080:	eb03 1101 	add.w	r1, r3, r1, lsl #4
        if(SchedulerEvent[i].callfunc == func){
 8003084:	681a      	ldr	r2, [r3, #0]
    for(uint8 i = 0; i < SchedulerRegistredEvents; i ++){
 8003086:	3310      	adds	r3, #16
        if(SchedulerEvent[i].callfunc == func){
 8003088:	4282      	cmp	r2, r0
            SchedulerEvent[i].run_flag = ON;
 800308a:	bf08      	it	eq
 800308c:	f803 cc04 	strbeq.w	ip, [r3, #-4]
    for(uint8 i = 0; i < SchedulerRegistredEvents; i ++){
 8003090:	428b      	cmp	r3, r1
 8003092:	d1f7      	bne.n	8003084 <SchedResumeEvent+0x10>
        }
    }
}
 8003094:	4770      	bx	lr
 8003096:	bf00      	nop
 8003098:	20000a38 	.word	0x20000a38
 800309c:	20000858 	.word	0x20000858

080030a0 <SchedEventSetPeriod>:

void  SchedEventSetPeriod(void (*func)(void), uint16 period)
{
    for(uint8 i = 0; i < SchedulerRegistredEvents; i ++){
 80030a0:	4b07      	ldr	r3, [pc, #28]	@ (80030c0 <SchedEventSetPeriod+0x20>)
 80030a2:	781a      	ldrb	r2, [r3, #0]
 80030a4:	b152      	cbz	r2, 80030bc <SchedEventSetPeriod+0x1c>
 80030a6:	4b07      	ldr	r3, [pc, #28]	@ (80030c4 <SchedEventSetPeriod+0x24>)
 80030a8:	eb03 1c02 	add.w	ip, r3, r2, lsl #4
        if(SchedulerEvent[i].callfunc == func){
 80030ac:	681a      	ldr	r2, [r3, #0]
    for(uint8 i = 0; i < SchedulerRegistredEvents; i ++){
 80030ae:	3310      	adds	r3, #16
        if(SchedulerEvent[i].callfunc == func){
 80030b0:	4282      	cmp	r2, r0
            SchedulerEvent[i].period = period;
 80030b2:	bf08      	it	eq
 80030b4:	f843 1c0c 	streq.w	r1, [r3, #-12]
    for(uint8 i = 0; i < SchedulerRegistredEvents; i ++){
 80030b8:	4563      	cmp	r3, ip
 80030ba:	d1f7      	bne.n	80030ac <SchedEventSetPeriod+0xc>
        }
    }
}
 80030bc:	4770      	bx	lr
 80030be:	bf00      	nop
 80030c0:	20000a38 	.word	0x20000a38
 80030c4:	20000858 	.word	0x20000858

080030c8 <HAL_MspInit>:

  /* USER CODE BEGIN MspInit 0 */

  /* USER CODE END MspInit 0 */

  __HAL_RCC_AFIO_CLK_ENABLE();
 80030c8:	4b0e      	ldr	r3, [pc, #56]	@ (8003104 <HAL_MspInit+0x3c>)
{
 80030ca:	b082      	sub	sp, #8
  __HAL_RCC_AFIO_CLK_ENABLE();
 80030cc:	699a      	ldr	r2, [r3, #24]

  /* System interrupt init*/

  /** NOJTAG: JTAG-DP Disabled and SW-DP Enabled
  */
  __HAL_AFIO_REMAP_SWJ_NOJTAG();
 80030ce:	490e      	ldr	r1, [pc, #56]	@ (8003108 <HAL_MspInit+0x40>)
  __HAL_RCC_AFIO_CLK_ENABLE();
 80030d0:	f042 0201 	orr.w	r2, r2, #1
 80030d4:	619a      	str	r2, [r3, #24]
 80030d6:	699a      	ldr	r2, [r3, #24]
 80030d8:	f002 0201 	and.w	r2, r2, #1
 80030dc:	9200      	str	r2, [sp, #0]
 80030de:	9a00      	ldr	r2, [sp, #0]
  __HAL_RCC_PWR_CLK_ENABLE();
 80030e0:	69da      	ldr	r2, [r3, #28]
 80030e2:	f042 5280 	orr.w	r2, r2, #268435456	@ 0x10000000
 80030e6:	61da      	str	r2, [r3, #28]
 80030e8:	69db      	ldr	r3, [r3, #28]
 80030ea:	f003 5380 	and.w	r3, r3, #268435456	@ 0x10000000
 80030ee:	9301      	str	r3, [sp, #4]
 80030f0:	9b01      	ldr	r3, [sp, #4]
  __HAL_AFIO_REMAP_SWJ_NOJTAG();
 80030f2:	684b      	ldr	r3, [r1, #4]
 80030f4:	f023 63e0 	bic.w	r3, r3, #117440512	@ 0x7000000
 80030f8:	f043 7300 	orr.w	r3, r3, #33554432	@ 0x2000000
 80030fc:	604b      	str	r3, [r1, #4]

  /* USER CODE BEGIN MspInit 1 */

  /* USER CODE END MspInit 1 */
}
 80030fe:	b002      	add	sp, #8
 8003100:	4770      	bx	lr
 8003102:	bf00      	nop
 8003104:	40021000 	.word	0x40021000
 8003108:	40010000 	.word	0x40010000

0800310c <HAL_ADC_MspInit>:
* This function configures the hardware resources used in this example
* @param hadc: ADC handle pointer
* @retval None
*/
void HAL_ADC_MspInit(ADC_HandleTypeDef* hadc)
{
 800310c:	b570      	push	{r4, r5, r6, lr}
  GPIO_InitTypeDef GPIO_InitStruct = {0};
 800310e:	2400      	movs	r4, #0
  if(hadc->Instance==ADC1)
 8003110:	4b29      	ldr	r3, [pc, #164]	@ (80031b8 <HAL_ADC_MspInit+0xac>)
 8003112:	6802      	ldr	r2, [r0, #0]
{
 8003114:	b088      	sub	sp, #32
  if(hadc->Instance==ADC1)
 8003116:	429a      	cmp	r2, r3
  GPIO_InitTypeDef GPIO_InitStruct = {0};
 8003118:	e9cd 4404 	strd	r4, r4, [sp, #16]
 800311c:	e9cd 4406 	strd	r4, r4, [sp, #24]
  if(hadc->Instance==ADC1)
 8003120:	d001      	beq.n	8003126 <HAL_ADC_MspInit+0x1a>

  /* USER CODE END ADC1_MspInit 1 */

  }

}
 8003122:	b008      	add	sp, #32
 8003124:	bd70      	pop	{r4, r5, r6, pc}
    __HAL_RCC_ADC1_CLK_ENABLE();
 8003126:	f503 436c 	add.w	r3, r3, #60416	@ 0xec00
 800312a:	699a      	ldr	r2, [r3, #24]
 800312c:	4605      	mov	r5, r0
 800312e:	f442 7200 	orr.w	r2, r2, #512	@ 0x200
 8003132:	619a      	str	r2, [r3, #24]
 8003134:	699a      	ldr	r2, [r3, #24]
    HAL_GPIO_Init(BAT_LVL_CTRL_GPIO_Port, &GPIO_InitStruct);
 8003136:	4821      	ldr	r0, [pc, #132]	@ (80031bc <HAL_ADC_MspInit+0xb0>)
    __HAL_RCC_ADC1_CLK_ENABLE();
 8003138:	f402 7200 	and.w	r2, r2, #512	@ 0x200
 800313c:	9201      	str	r2, [sp, #4]
 800313e:	9a01      	ldr	r2, [sp, #4]
    __HAL_RCC_GPIOA_CLK_ENABLE();
 8003140:	699a      	ldr	r2, [r3, #24]
    hdma_adc1.Instance = DMA1_Channel1;
 8003142:	4e1f      	ldr	r6, [pc, #124]	@ (80031c0 <HAL_ADC_MspInit+0xb4>)
    __HAL_RCC_GPIOA_CLK_ENABLE();
 8003144:	f042 0204 	orr.w	r2, r2, #4
 8003148:	619a      	str	r2, [r3, #24]
 800314a:	699a      	ldr	r2, [r3, #24]
 800314c:	f002 0204 	and.w	r2, r2, #4
 8003150:	9202      	str	r2, [sp, #8]
 8003152:	9a02      	ldr	r2, [sp, #8]
    __HAL_RCC_GPIOB_CLK_ENABLE();
 8003154:	699a      	ldr	r2, [r3, #24]
 8003156:	f042 0208 	orr.w	r2, r2, #8
 800315a:	619a      	str	r2, [r3, #24]
 800315c:	699b      	ldr	r3, [r3, #24]
    GPIO_InitStruct.Pin = BAT_LVL_CTRL_Pin;
 800315e:	2201      	movs	r2, #1
    __HAL_RCC_GPIOB_CLK_ENABLE();
 8003160:	f003 0308 	and.w	r3, r3, #8
 8003164:	9303      	str	r3, [sp, #12]
    GPIO_InitStruct.Pin = BAT_LVL_CTRL_Pin;
 8003166:	2303      	movs	r3, #3
    __HAL_RCC_GPIOB_CLK_ENABLE();
 8003168:	9903      	ldr	r1, [sp, #12]
    HAL_GPIO_Init(BAT_LVL_CTRL_GPIO_Port, &GPIO_InitStruct);
 800316a:	a904      	add	r1, sp, #16
    GPIO_InitStruct.Pin = BAT_LVL_CTRL_Pin;
 800316c:	e9cd 2304 	strd	r2, r3, [sp, #16]
    HAL_GPIO_Init(BAT_LVL_CTRL_GPIO_Port, &GPIO_InitStruct);
 8003170:	f002 fc3e 	bl	80059f0 <HAL_GPIO_Init>
    GPIO_InitStruct.Pin = JOYSTICK_OX_Pin|JOYSTICK_OY_Pin;
 8003174:	2203      	movs	r2, #3
 8003176:	2303      	movs	r3, #3
    HAL_GPIO_Init(GPIOB, &GPIO_InitStruct);
 8003178:	4812      	ldr	r0, [pc, #72]	@ (80031c4 <HAL_ADC_MspInit+0xb8>)
 800317a:	a904      	add	r1, sp, #16
    GPIO_InitStruct.Pin = JOYSTICK_OX_Pin|JOYSTICK_OY_Pin;
 800317c:	e9cd 2304 	strd	r2, r3, [sp, #16]
    HAL_GPIO_Init(GPIOB, &GPIO_InitStruct);
 8003180:	f002 fc36 	bl	80059f0 <HAL_GPIO_Init>
    hdma_adc1.Instance = DMA1_Channel1;
 8003184:	4910      	ldr	r1, [pc, #64]	@ (80031c8 <HAL_ADC_MspInit+0xbc>)
    hdma_adc1.Init.MemInc = DMA_MINC_ENABLE;
 8003186:	2280      	movs	r2, #128	@ 0x80
    hdma_adc1.Init.PeriphDataAlignment = DMA_PDATAALIGN_HALFWORD;
 8003188:	f44f 7380 	mov.w	r3, #256	@ 0x100
    hdma_adc1.Init.Direction = DMA_PERIPH_TO_MEMORY;
 800318c:	e9c6 1400 	strd	r1, r4, [r6]
    hdma_adc1.Init.MemDataAlignment = DMA_MDATAALIGN_HALFWORD;
 8003190:	f44f 6180 	mov.w	r1, #1024	@ 0x400
    if (HAL_DMA_Init(&hdma_adc1) != HAL_OK)
 8003194:	4630      	mov	r0, r6
    hdma_adc1.Init.Priority = DMA_PRIORITY_LOW;
 8003196:	e9c6 4406 	strd	r4, r4, [r6, #24]
    hdma_adc1.Init.PeriphDataAlignment = DMA_PDATAALIGN_HALFWORD;
 800319a:	e9c6 2303 	strd	r2, r3, [r6, #12]
    hdma_adc1.Init.PeriphInc = DMA_PINC_DISABLE;
 800319e:	60b4      	str	r4, [r6, #8]
    hdma_adc1.Init.MemDataAlignment = DMA_MDATAALIGN_HALFWORD;
 80031a0:	6171      	str	r1, [r6, #20]
    if (HAL_DMA_Init(&hdma_adc1) != HAL_OK)
 80031a2:	f002 fb15 	bl	80057d0 <HAL_DMA_Init>
 80031a6:	b918      	cbnz	r0, 80031b0 <HAL_ADC_MspInit+0xa4>
    __HAL_LINKDMA(hadc,DMA_Handle,hdma_adc1);
 80031a8:	622e      	str	r6, [r5, #32]
 80031aa:	6275      	str	r5, [r6, #36]	@ 0x24
}
 80031ac:	b008      	add	sp, #32
 80031ae:	bd70      	pop	{r4, r5, r6, pc}
      Error_Handler();
 80031b0:	f7ff f89e 	bl	80022f0 <Error_Handler>
 80031b4:	e7f8      	b.n	80031a8 <HAL_ADC_MspInit+0x9c>
 80031b6:	bf00      	nop
 80031b8:	40012400 	.word	0x40012400
 80031bc:	40010800 	.word	0x40010800
 80031c0:	200007e4 	.word	0x200007e4
 80031c4:	40010c00 	.word	0x40010c00
 80031c8:	40020008 	.word	0x40020008

080031cc <HAL_RTC_MspInit>:
* @param hrtc: RTC handle pointer
* @retval None
*/
void HAL_RTC_MspInit(RTC_HandleTypeDef* hrtc)
{
  if(hrtc->Instance==RTC)
 80031cc:	4b0c      	ldr	r3, [pc, #48]	@ (8003200 <HAL_RTC_MspInit+0x34>)
 80031ce:	6802      	ldr	r2, [r0, #0]
 80031d0:	429a      	cmp	r2, r3
 80031d2:	d000      	beq.n	80031d6 <HAL_RTC_MspInit+0xa>
 80031d4:	4770      	bx	lr
{
 80031d6:	b500      	push	{lr}
 80031d8:	b083      	sub	sp, #12
  {
  /* USER CODE BEGIN RTC_MspInit 0 */

  /* USER CODE END RTC_MspInit 0 */
    HAL_PWR_EnableBkUpAccess();
 80031da:	f002 fd2f 	bl	8005c3c <HAL_PWR_EnableBkUpAccess>
    /* Enable BKP CLK enable for backup registers */
    __HAL_RCC_BKP_CLK_ENABLE();
    /* Peripheral clock enable */
    __HAL_RCC_RTC_ENABLE();
 80031de:	2001      	movs	r0, #1
    __HAL_RCC_BKP_CLK_ENABLE();
 80031e0:	4b08      	ldr	r3, [pc, #32]	@ (8003204 <HAL_RTC_MspInit+0x38>)
    __HAL_RCC_RTC_ENABLE();
 80031e2:	4909      	ldr	r1, [pc, #36]	@ (8003208 <HAL_RTC_MspInit+0x3c>)
    __HAL_RCC_BKP_CLK_ENABLE();
 80031e4:	69da      	ldr	r2, [r3, #28]
 80031e6:	f042 6200 	orr.w	r2, r2, #134217728	@ 0x8000000
 80031ea:	61da      	str	r2, [r3, #28]
 80031ec:	69db      	ldr	r3, [r3, #28]
 80031ee:	f003 6300 	and.w	r3, r3, #134217728	@ 0x8000000
 80031f2:	9301      	str	r3, [sp, #4]
 80031f4:	9b01      	ldr	r3, [sp, #4]
    __HAL_RCC_RTC_ENABLE();
 80031f6:	f8c1 043c 	str.w	r0, [r1, #1084]	@ 0x43c

  /* USER CODE END RTC_MspInit 1 */

  }

}
 80031fa:	b003      	add	sp, #12
 80031fc:	f85d fb04 	ldr.w	pc, [sp], #4
 8003200:	40002800 	.word	0x40002800
 8003204:	40021000 	.word	0x40021000
 8003208:	42420000 	.word	0x42420000

0800320c <HAL_SPI_MspInit>:
* This function configures the hardware resources used in this example
* @param hspi: SPI handle pointer
* @retval None
*/
void HAL_SPI_MspInit(SPI_HandleTypeDef* hspi)
{
 800320c:	b5f0      	push	{r4, r5, r6, r7, lr}
  GPIO_InitTypeDef GPIO_InitStruct = {0};
 800320e:	2400      	movs	r4, #0
  if(hspi->Instance==SPI1)
 8003210:	4a2a      	ldr	r2, [pc, #168]	@ (80032bc <HAL_SPI_MspInit+0xb0>)
 8003212:	6803      	ldr	r3, [r0, #0]
{
 8003214:	b089      	sub	sp, #36	@ 0x24
  if(hspi->Instance==SPI1)
 8003216:	4293      	cmp	r3, r2
  GPIO_InitTypeDef GPIO_InitStruct = {0};
 8003218:	e9cd 4404 	strd	r4, r4, [sp, #16]
 800321c:	e9cd 4406 	strd	r4, r4, [sp, #24]
  if(hspi->Instance==SPI1)
 8003220:	d004      	beq.n	800322c <HAL_SPI_MspInit+0x20>

  /* USER CODE BEGIN SPI1_MspInit 1 */

  /* USER CODE END SPI1_MspInit 1 */
  }
  else if(hspi->Instance==SPI2)
 8003222:	4a27      	ldr	r2, [pc, #156]	@ (80032c0 <HAL_SPI_MspInit+0xb4>)
 8003224:	4293      	cmp	r3, r2
 8003226:	d029      	beq.n	800327c <HAL_SPI_MspInit+0x70>
  /* USER CODE BEGIN SPI2_MspInit 1 */

  /* USER CODE END SPI2_MspInit 1 */
  }

}
 8003228:	b009      	add	sp, #36	@ 0x24
 800322a:	bdf0      	pop	{r4, r5, r6, r7, pc}
    __HAL_RCC_SPI1_CLK_ENABLE();
 800322c:	4b25      	ldr	r3, [pc, #148]	@ (80032c4 <HAL_SPI_MspInit+0xb8>)
    GPIO_InitStruct.Pin = GPIO_PIN_4|GPIO_PIN_5|GPIO_PIN_7;
 800322e:	26b0      	movs	r6, #176	@ 0xb0
    __HAL_RCC_SPI1_CLK_ENABLE();
 8003230:	699a      	ldr	r2, [r3, #24]
    GPIO_InitStruct.Pin = GPIO_PIN_4|GPIO_PIN_5|GPIO_PIN_7;
 8003232:	2702      	movs	r7, #2
    __HAL_RCC_SPI1_CLK_ENABLE();
 8003234:	f442 5280 	orr.w	r2, r2, #4096	@ 0x1000
 8003238:	619a      	str	r2, [r3, #24]
 800323a:	699a      	ldr	r2, [r3, #24]
    HAL_GPIO_Init(GPIOA, &GPIO_InitStruct);
 800323c:	a904      	add	r1, sp, #16
    __HAL_RCC_SPI1_CLK_ENABLE();
 800323e:	f402 5280 	and.w	r2, r2, #4096	@ 0x1000
 8003242:	9200      	str	r2, [sp, #0]
 8003244:	9a00      	ldr	r2, [sp, #0]
    __HAL_RCC_GPIOA_CLK_ENABLE();
 8003246:	699a      	ldr	r2, [r3, #24]
    HAL_GPIO_Init(GPIOA, &GPIO_InitStruct);
 8003248:	481f      	ldr	r0, [pc, #124]	@ (80032c8 <HAL_SPI_MspInit+0xbc>)
    __HAL_RCC_GPIOA_CLK_ENABLE();
 800324a:	f042 0204 	orr.w	r2, r2, #4
 800324e:	619a      	str	r2, [r3, #24]
 8003250:	699b      	ldr	r3, [r3, #24]
    GPIO_InitStruct.Pin = GPIO_PIN_4|GPIO_PIN_5|GPIO_PIN_7;
 8003252:	e9cd 6704 	strd	r6, r7, [sp, #16]
    __HAL_RCC_GPIOA_CLK_ENABLE();
 8003256:	f003 0304 	and.w	r3, r3, #4
 800325a:	9301      	str	r3, [sp, #4]
    GPIO_InitStruct.Speed = GPIO_SPEED_FREQ_HIGH;
 800325c:	2303      	movs	r3, #3
    __HAL_RCC_GPIOA_CLK_ENABLE();
 800325e:	9a01      	ldr	r2, [sp, #4]
    GPIO_InitStruct.Speed = GPIO_SPEED_FREQ_HIGH;
 8003260:	9307      	str	r3, [sp, #28]
    HAL_GPIO_Init(GPIOA, &GPIO_InitStruct);
 8003262:	f002 fbc5 	bl	80059f0 <HAL_GPIO_Init>
    GPIO_InitStruct.Pin = GPIO_PIN_6;
 8003266:	2240      	movs	r2, #64	@ 0x40
 8003268:	2300      	movs	r3, #0
    HAL_GPIO_Init(GPIOA, &GPIO_InitStruct);
 800326a:	4817      	ldr	r0, [pc, #92]	@ (80032c8 <HAL_SPI_MspInit+0xbc>)
 800326c:	a904      	add	r1, sp, #16
    GPIO_InitStruct.Pin = GPIO_PIN_6;
 800326e:	e9cd 2304 	strd	r2, r3, [sp, #16]
    GPIO_InitStruct.Pull = GPIO_NOPULL;
 8003272:	9406      	str	r4, [sp, #24]
    HAL_GPIO_Init(GPIOA, &GPIO_InitStruct);
 8003274:	f002 fbbc 	bl	80059f0 <HAL_GPIO_Init>
}
 8003278:	b009      	add	sp, #36	@ 0x24
 800327a:	bdf0      	pop	{r4, r5, r6, r7, pc}
    GPIO_InitStruct.Pin = DISP_SPI_CS_Pin|DISP_SPI_SCK_Pin|DISP_SPI_MOSI_Pin;
 800327c:	f44f 4430 	mov.w	r4, #45056	@ 0xb000
 8003280:	2502      	movs	r5, #2
    GPIO_InitStruct.Speed = GPIO_SPEED_FREQ_HIGH;
 8003282:	2603      	movs	r6, #3
    __HAL_RCC_SPI2_CLK_ENABLE();
 8003284:	4b0f      	ldr	r3, [pc, #60]	@ (80032c4 <HAL_SPI_MspInit+0xb8>)
    HAL_GPIO_Init(GPIOB, &GPIO_InitStruct);
 8003286:	4811      	ldr	r0, [pc, #68]	@ (80032cc <HAL_SPI_MspInit+0xc0>)
    __HAL_RCC_SPI2_CLK_ENABLE();
 8003288:	69da      	ldr	r2, [r3, #28]
    HAL_GPIO_Init(GPIOB, &GPIO_InitStruct);
 800328a:	a904      	add	r1, sp, #16
    __HAL_RCC_SPI2_CLK_ENABLE();
 800328c:	f442 4280 	orr.w	r2, r2, #16384	@ 0x4000
 8003290:	61da      	str	r2, [r3, #28]
 8003292:	69da      	ldr	r2, [r3, #28]
 8003294:	f402 4280 	and.w	r2, r2, #16384	@ 0x4000
 8003298:	9202      	str	r2, [sp, #8]
 800329a:	9a02      	ldr	r2, [sp, #8]
    __HAL_RCC_GPIOB_CLK_ENABLE();
 800329c:	699a      	ldr	r2, [r3, #24]
 800329e:	f042 0208 	orr.w	r2, r2, #8
 80032a2:	619a      	str	r2, [r3, #24]
 80032a4:	699b      	ldr	r3, [r3, #24]
    GPIO_InitStruct.Pin = DISP_SPI_CS_Pin|DISP_SPI_SCK_Pin|DISP_SPI_MOSI_Pin;
 80032a6:	e9cd 4504 	strd	r4, r5, [sp, #16]
    __HAL_RCC_GPIOB_CLK_ENABLE();
 80032aa:	f003 0308 	and.w	r3, r3, #8
 80032ae:	9303      	str	r3, [sp, #12]
 80032b0:	9b03      	ldr	r3, [sp, #12]
    GPIO_InitStruct.Speed = GPIO_SPEED_FREQ_HIGH;
 80032b2:	9607      	str	r6, [sp, #28]
    HAL_GPIO_Init(GPIOB, &GPIO_InitStruct);
 80032b4:	f002 fb9c 	bl	80059f0 <HAL_GPIO_Init>
}
 80032b8:	b009      	add	sp, #36	@ 0x24
 80032ba:	bdf0      	pop	{r4, r5, r6, r7, pc}
 80032bc:	40013000 	.word	0x40013000
 80032c0:	40003800 	.word	0x40003800
 80032c4:	40021000 	.word	0x40021000
 80032c8:	40010800 	.word	0x40010800
 80032cc:	40010c00 	.word	0x40010c00

080032d0 <HAL_TIM_Base_MspInit>:
* @param htim_base: TIM_Base handle pointer
* @retval None
*/
void HAL_TIM_Base_MspInit(TIM_HandleTypeDef* htim_base)
{
  if(htim_base->Instance==TIM1)
 80032d0:	4b09      	ldr	r3, [pc, #36]	@ (80032f8 <HAL_TIM_Base_MspInit+0x28>)
 80032d2:	6802      	ldr	r2, [r0, #0]
 80032d4:	429a      	cmp	r2, r3
 80032d6:	d000      	beq.n	80032da <HAL_TIM_Base_MspInit+0xa>
 80032d8:	4770      	bx	lr
  {
  /* USER CODE BEGIN TIM1_MspInit 0 */

  /* USER CODE END TIM1_MspInit 0 */
    /* Peripheral clock enable */
    __HAL_RCC_TIM1_CLK_ENABLE();
 80032da:	f503 4364 	add.w	r3, r3, #58368	@ 0xe400
 80032de:	699a      	ldr	r2, [r3, #24]
{
 80032e0:	b082      	sub	sp, #8
    __HAL_RCC_TIM1_CLK_ENABLE();
 80032e2:	f442 6200 	orr.w	r2, r2, #2048	@ 0x800
 80032e6:	619a      	str	r2, [r3, #24]
 80032e8:	699b      	ldr	r3, [r3, #24]
 80032ea:	f403 6300 	and.w	r3, r3, #2048	@ 0x800
 80032ee:	9301      	str	r3, [sp, #4]
 80032f0:	9b01      	ldr	r3, [sp, #4]

  /* USER CODE END TIM1_MspInit 1 */

  }

}
 80032f2:	b002      	add	sp, #8
 80032f4:	4770      	bx	lr
 80032f6:	bf00      	nop
 80032f8:	40012c00 	.word	0x40012c00

080032fc <HAL_TIM_MspPostInit>:

void HAL_TIM_MspPostInit(TIM_HandleTypeDef* htim)
{
  GPIO_InitTypeDef GPIO_InitStruct = {0};
 80032fc:	2300      	movs	r3, #0
{
 80032fe:	b570      	push	{r4, r5, r6, lr}
  if(htim->Instance==TIM1)
 8003300:	4a12      	ldr	r2, [pc, #72]	@ (800334c <HAL_TIM_MspPostInit+0x50>)
 8003302:	6801      	ldr	r1, [r0, #0]
{
 8003304:	b086      	sub	sp, #24
  if(htim->Instance==TIM1)
 8003306:	4291      	cmp	r1, r2
  GPIO_InitTypeDef GPIO_InitStruct = {0};
 8003308:	e9cd 3302 	strd	r3, r3, [sp, #8]
 800330c:	e9cd 3304 	strd	r3, r3, [sp, #16]
  if(htim->Instance==TIM1)
 8003310:	d001      	beq.n	8003316 <HAL_TIM_MspPostInit+0x1a>
  /* USER CODE BEGIN TIM1_MspPostInit 1 */

  /* USER CODE END TIM1_MspPostInit 1 */
  }

}
 8003312:	b006      	add	sp, #24
 8003314:	bd70      	pop	{r4, r5, r6, pc}
    GPIO_InitStruct.Pin = GPIO_PIN_8;
 8003316:	f44f 7480 	mov.w	r4, #256	@ 0x100
 800331a:	2502      	movs	r5, #2
    GPIO_InitStruct.Speed = GPIO_SPEED_FREQ_LOW;
 800331c:	2602      	movs	r6, #2
    __HAL_RCC_GPIOA_CLK_ENABLE();
 800331e:	f103 4380 	add.w	r3, r3, #1073741824	@ 0x40000000
 8003322:	f503 3304 	add.w	r3, r3, #135168	@ 0x21000
 8003326:	699a      	ldr	r2, [r3, #24]
    HAL_GPIO_Init(GPIOA, &GPIO_InitStruct);
 8003328:	4809      	ldr	r0, [pc, #36]	@ (8003350 <HAL_TIM_MspPostInit+0x54>)
    __HAL_RCC_GPIOA_CLK_ENABLE();
 800332a:	f042 0204 	orr.w	r2, r2, #4
 800332e:	619a      	str	r2, [r3, #24]
 8003330:	699b      	ldr	r3, [r3, #24]
    HAL_GPIO_Init(GPIOA, &GPIO_InitStruct);
 8003332:	a902      	add	r1, sp, #8
    __HAL_RCC_GPIOA_CLK_ENABLE();
 8003334:	f003 0304 	and.w	r3, r3, #4
 8003338:	9301      	str	r3, [sp, #4]
    GPIO_InitStruct.Pin = GPIO_PIN_8;
 800333a:	e9cd 4502 	strd	r4, r5, [sp, #8]
    __HAL_RCC_GPIOA_CLK_ENABLE();
 800333e:	9b01      	ldr	r3, [sp, #4]
    GPIO_InitStruct.Speed = GPIO_SPEED_FREQ_LOW;
 8003340:	9605      	str	r6, [sp, #20]
    HAL_GPIO_Init(GPIOA, &GPIO_InitStruct);
 8003342:	f002 fb55 	bl	80059f0 <HAL_GPIO_Init>
}
 8003346:	b006      	add	sp, #24
 8003348:	bd70      	pop	{r4, r5, r6, pc}
 800334a:	bf00      	nop
 800334c:	40012c00 	.word	0x40012c00
 8003350:	40010800 	.word	0x40010800

08003354 <NMI_Handler>:
{
  /* USER CODE BEGIN NonMaskableInt_IRQn 0 */

  /* USER CODE END NonMaskableInt_IRQn 0 */
  /* USER CODE BEGIN NonMaskableInt_IRQn 1 */
  while (1)
 8003354:	e7fe      	b.n	8003354 <NMI_Handler>
 8003356:	bf00      	nop

08003358 <HardFault_Handler>:
  {
    /* USER CODE BEGIN W1_HardFault_IRQn 0 */
  	return;
    /* USER CODE END W1_HardFault_IRQn 0 */
  }
}
 8003358:	4770      	bx	lr
 800335a:	bf00      	nop

0800335c <MemManage_Handler>:
void MemManage_Handler(void)
{
  /* USER CODE BEGIN MemoryManagement_IRQn 0 */

  /* USER CODE END MemoryManagement_IRQn 0 */
  while (1)
 800335c:	e7fe      	b.n	800335c <MemManage_Handler>
 800335e:	bf00      	nop

08003360 <BusFault_Handler>:
void BusFault_Handler(void)
{
  /* USER CODE BEGIN BusFault_IRQn 0 */

  /* USER CODE END BusFault_IRQn 0 */
  while (1)
 8003360:	e7fe      	b.n	8003360 <BusFault_Handler>
 8003362:	bf00      	nop

08003364 <UsageFault_Handler>:
void UsageFault_Handler(void)
{
  /* USER CODE BEGIN UsageFault_IRQn 0 */

  /* USER CODE END UsageFault_IRQn 0 */
  while (1)
 8003364:	e7fe      	b.n	8003364 <UsageFault_Handler>
 8003366:	bf00      	nop

08003368 <SVC_Handler>:
}

/**
  * @brief This function handles System service call via SWI instruction.
  */
void SVC_Handler(void)
 8003368:	4770      	bx	lr
 800336a:	bf00      	nop

0800336c <DebugMon_Handler>:
}

/**
  * @brief This function handles Debug monitor.
  */
void DebugMon_Handler(void)
 800336c:	4770      	bx	lr
 800336e:	bf00      	nop

08003370 <PendSV_Handler>:
}

/**
  * @brief This function handles Pendable request for system service.
  */
void PendSV_Handler(void)
 8003370:	4770      	bx	lr
 8003372:	bf00      	nop

08003374 <SysTick_Handler>:
void SysTick_Handler(void)
{
  /* USER CODE BEGIN SysTick_IRQn 0 */

  /* USER CODE END SysTick_IRQn 0 */
  HAL_IncTick();
 8003374:	f7fe bf6c 	b.w	8002250 <HAL_IncTick>

08003378 <DMA1_Channel1_IRQHandler>:
void DMA1_Channel1_IRQHandler(void)
{
  /* USER CODE BEGIN DMA1_Channel1_IRQn 0 */

  /* USER CODE END DMA1_Channel1_IRQn 0 */
  HAL_DMA_IRQHandler(&hdma_adc1);
 8003378:	4801      	ldr	r0, [pc, #4]	@ (8003380 <DMA1_Channel1_IRQHandler+0x8>)
 800337a:	f002 baa3 	b.w	80058c4 <HAL_DMA_IRQHandler>
 800337e:	bf00      	nop
 8003380:	200007e4 	.word	0x200007e4

08003384 <_getpid>:
}

int _getpid(void)
{
	return 1;
}
 8003384:	2001      	movs	r0, #1
 8003386:	4770      	bx	lr

08003388 <_kill>:

int _kill(int pid, int sig)
{
 8003388:	b508      	push	{r3, lr}
	errno = EINVAL;
 800338a:	f004 fb8d 	bl	8007aa8 <__errno>
 800338e:	2216      	movs	r2, #22
 8003390:	4603      	mov	r3, r0
	return -1;
}
 8003392:	f04f 30ff 	mov.w	r0, #4294967295
	errno = EINVAL;
 8003396:	601a      	str	r2, [r3, #0]
}
 8003398:	bd08      	pop	{r3, pc}
 800339a:	bf00      	nop

0800339c <_exit>:

void _exit (int status)
{
 800339c:	b508      	push	{r3, lr}
	errno = EINVAL;
 800339e:	f004 fb83 	bl	8007aa8 <__errno>
 80033a2:	2316      	movs	r3, #22
 80033a4:	6003      	str	r3, [r0, #0]
	_kill(status, -1);
	while (1) {}		/* Make sure we hang here */
 80033a6:	e7fe      	b.n	80033a6 <_exit+0xa>

080033a8 <_read>:
}

__attribute__((weak)) int _read(int file, char *ptr, int len)
{
 80033a8:	b570      	push	{r4, r5, r6, lr}
	int DataIdx;

	for (DataIdx = 0; DataIdx < len; DataIdx++)
 80033aa:	1e16      	subs	r6, r2, #0
 80033ac:	dd07      	ble.n	80033be <_read+0x16>
 80033ae:	460c      	mov	r4, r1
 80033b0:	198d      	adds	r5, r1, r6
	{
		*ptr++ = __io_getchar();
 80033b2:	f3af 8000 	nop.w
 80033b6:	f804 0b01 	strb.w	r0, [r4], #1
	for (DataIdx = 0; DataIdx < len; DataIdx++)
 80033ba:	42a5      	cmp	r5, r4
 80033bc:	d1f9      	bne.n	80033b2 <_read+0xa>
	}

return len;
}
 80033be:	4630      	mov	r0, r6
 80033c0:	bd70      	pop	{r4, r5, r6, pc}
 80033c2:	bf00      	nop

080033c4 <_close>:
}

int _close(int file)
{
	return -1;
}
 80033c4:	f04f 30ff 	mov.w	r0, #4294967295
 80033c8:	4770      	bx	lr
 80033ca:	bf00      	nop

080033cc <_fstat>:


int _fstat(int file, struct stat *st)
{
	st->st_mode = S_IFCHR;
 80033cc:	f44f 5300 	mov.w	r3, #8192	@ 0x2000
	return 0;
}
 80033d0:	2000      	movs	r0, #0
	st->st_mode = S_IFCHR;
 80033d2:	604b      	str	r3, [r1, #4]
}
 80033d4:	4770      	bx	lr
 80033d6:	bf00      	nop

080033d8 <_isatty>:

int _isatty(int file)
{
	return 1;
}
 80033d8:	2001      	movs	r0, #1
 80033da:	4770      	bx	lr

080033dc <_lseek>:

int _lseek(int file, int ptr, int dir)
{
	return 0;
}
 80033dc:	2000      	movs	r0, #0
 80033de:	4770      	bx	lr

080033e0 <_sbrk>:
  const uint32_t stack_limit = (uint32_t)&_estack - (uint32_t)&_Min_Stack_Size;
  const uint8_t *max_heap = (uint8_t *)stack_limit;
  uint8_t *prev_heap_end;

  /* Initialize heap end at first call */
  if (NULL == __sbrk_heap_end)
 80033e0:	490d      	ldr	r1, [pc, #52]	@ (8003418 <_sbrk+0x38>)
{
 80033e2:	4603      	mov	r3, r0
 80033e4:	b510      	push	{r4, lr}
  const uint32_t stack_limit = (uint32_t)&_estack - (uint32_t)&_Min_Stack_Size;
 80033e6:	4a0d      	ldr	r2, [pc, #52]	@ (800341c <_sbrk+0x3c>)
 80033e8:	4c0d      	ldr	r4, [pc, #52]	@ (8003420 <_sbrk+0x40>)
  if (NULL == __sbrk_heap_end)
 80033ea:	6808      	ldr	r0, [r1, #0]
  const uint32_t stack_limit = (uint32_t)&_estack - (uint32_t)&_Min_Stack_Size;
 80033ec:	1b12      	subs	r2, r2, r4
  if (NULL == __sbrk_heap_end)
 80033ee:	b120      	cbz	r0, 80033fa <_sbrk+0x1a>
  {
    __sbrk_heap_end = &_end;
  }

  /* Protect heap from growing into the reserved MSP stack */
  if (__sbrk_heap_end + incr > max_heap)
 80033f0:	4403      	add	r3, r0
 80033f2:	4293      	cmp	r3, r2
 80033f4:	d807      	bhi.n	8003406 <_sbrk+0x26>
    errno = ENOMEM;
    return (void *)-1;
  }

  prev_heap_end = __sbrk_heap_end;
  __sbrk_heap_end += incr;
 80033f6:	600b      	str	r3, [r1, #0]

  return (void *)prev_heap_end;
}
 80033f8:	bd10      	pop	{r4, pc}
    __sbrk_heap_end = &_end;
 80033fa:	4c0a      	ldr	r4, [pc, #40]	@ (8003424 <_sbrk+0x44>)
 80033fc:	4620      	mov	r0, r4
  if (__sbrk_heap_end + incr > max_heap)
 80033fe:	4403      	add	r3, r0
 8003400:	4293      	cmp	r3, r2
    __sbrk_heap_end = &_end;
 8003402:	600c      	str	r4, [r1, #0]
  if (__sbrk_heap_end + incr > max_heap)
 8003404:	d9f7      	bls.n	80033f6 <_sbrk+0x16>
    errno = ENOMEM;
 8003406:	f004 fb4f 	bl	8007aa8 <__errno>
 800340a:	220c      	movs	r2, #12
 800340c:	4603      	mov	r3, r0
    return (void *)-1;
 800340e:	f04f 30ff 	mov.w	r0, #4294967295
    errno = ENOMEM;
 8003412:	601a      	str	r2, [r3, #0]
}
 8003414:	bd10      	pop	{r4, pc}
 8003416:	bf00      	nop
 8003418:	20000a3c 	.word	0x20000a3c
 800341c:	20005000 	.word	0x20005000
 8003420:	00000400 	.word	0x00000400
 8003424:	20000d18 	.word	0x20000d18

08003428 <SystemInit>:

  /* Configure the Vector Table location -------------------------------------*/
#if defined(USER_VECT_TAB_ADDRESS)
  SCB->VTOR = VECT_TAB_BASE_ADDRESS | VECT_TAB_OFFSET; /* Vector Table Relocation in Internal SRAM. */
#endif /* USER_VECT_TAB_ADDRESS */
}
 8003428:	4770      	bx	lr
 800342a:	bf00      	nop

0800342c <energyregen>:
    }
  )
}

void energyregen(void) {
  if ((Gamer.energy < Gamer.energymax) && (Gamer.health > 0)) Gamer.energy++;
 800342c:	4b06      	ldr	r3, [pc, #24]	@ (8003448 <energyregen+0x1c>)
 800342e:	f993 2001 	ldrsb.w	r2, [r3, #1]
 8003432:	f993 1002 	ldrsb.w	r1, [r3, #2]
 8003436:	4291      	cmp	r1, r2
 8003438:	dd05      	ble.n	8003446 <energyregen+0x1a>
 800343a:	f993 1000 	ldrsb.w	r1, [r3]
 800343e:	2900      	cmp	r1, #0
 8003440:	bfc4      	itt	gt
 8003442:	3201      	addgt	r2, #1
 8003444:	705a      	strbgt	r2, [r3, #1]
}
 8003446:	4770      	bx	lr
 8003448:	20000bb8 	.word	0x20000bb8

0800344c <movbullet>:
      if(GameFlags.WinTheGame) EvilStar[i].state = 2; 
    }
  }
}

void movbullet(void) {
 800344c:	b510      	push	{r4, lr}
      Bullet[i].cl += 2;
      if (Bullet[i].cl > 126 || Bullet[i].cl <= 0) {
        Bullet[i].state = 0;
        Bullet[i].cl = 0;
      }
      if(GameFlags.WinTheGame) Bullet[i].state = 0; 
 800344e:	f04f 0e00 	mov.w	lr, #0
 8003452:	4a10      	ldr	r2, [pc, #64]	@ (8003494 <movbullet+0x48>)
 8003454:	4b10      	ldr	r3, [pc, #64]	@ (8003498 <movbullet+0x4c>)
 8003456:	7814      	ldrb	r4, [r2, #0]
 8003458:	f103 0c4b 	add.w	ip, r3, #75	@ 0x4b
 800345c:	1c9a      	adds	r2, r3, #2
 800345e:	f004 0410 	and.w	r4, r4, #16
    if (Bullet[i].state) {
 8003462:	f812 1c02 	ldrb.w	r1, [r2, #-2]
 8003466:	b171      	cbz	r1, 8003486 <movbullet+0x3a>
      Bullet[i].cl += 2;
 8003468:	7899      	ldrb	r1, [r3, #2]
      if (Bullet[i].cl > 126 || Bullet[i].cl <= 0) {
 800346a:	1c48      	adds	r0, r1, #1
 800346c:	b2c0      	uxtb	r0, r0
 800346e:	287d      	cmp	r0, #125	@ 0x7d
      Bullet[i].cl += 2;
 8003470:	f101 0102 	add.w	r1, r1, #2
 8003474:	7099      	strb	r1, [r3, #2]
        Bullet[i].state = 0;
 8003476:	bf84      	itt	hi
 8003478:	f802 ec02 	strbhi.w	lr, [r2, #-2]
        Bullet[i].cl = 0;
 800347c:	f883 e002 	strbhi.w	lr, [r3, #2]
      if(GameFlags.WinTheGame) Bullet[i].state = 0; 
 8003480:	b10c      	cbz	r4, 8003486 <movbullet+0x3a>
 8003482:	f802 ec02 	strb.w	lr, [r2, #-2]
  for (uint8 i = 0; i < BULLET_MAX; i++) {
 8003486:	3303      	adds	r3, #3
 8003488:	459c      	cmp	ip, r3
 800348a:	f102 0203 	add.w	r2, r2, #3
 800348e:	d1e8      	bne.n	8003462 <movbullet+0x16>
    }
  }
}
 8003490:	bd10      	pop	{r4, pc}
 8003492:	bf00      	nop
 8003494:	20000a50 	.word	0x20000a50
 8003498:	20000b6c 	.word	0x20000b6c

0800349c <magaz_buybomb>:
}

//------------------magazin buygoods functions----------------------
void magaz_buybomb(void)
{
  if(Gamer.money >= BOMB_MONEY_COST && Gamer.bombs < 99){
 800349c:	4b07      	ldr	r3, [pc, #28]	@ (80034bc <magaz_buybomb+0x20>)
 800349e:	795a      	ldrb	r2, [r3, #5]
 80034a0:	2a04      	cmp	r2, #4
 80034a2:	d906      	bls.n	80034b2 <magaz_buybomb+0x16>
 80034a4:	7919      	ldrb	r1, [r3, #4]
 80034a6:	2962      	cmp	r1, #98	@ 0x62
 80034a8:	d803      	bhi.n	80034b2 <magaz_buybomb+0x16>
    Gamer.money -= BOMB_MONEY_COST;
 80034aa:	3a05      	subs	r2, #5
    Gamer.bombs++;
 80034ac:	3101      	adds	r1, #1
    Gamer.money -= BOMB_MONEY_COST;
 80034ae:	715a      	strb	r2, [r3, #5]
    Gamer.bombs++;
 80034b0:	7119      	strb	r1, [r3, #4]
  }
  gameevent = EVENT_NONE;
 80034b2:	2200      	movs	r2, #0
 80034b4:	4b02      	ldr	r3, [pc, #8]	@ (80034c0 <magaz_buybomb+0x24>)
 80034b6:	701a      	strb	r2, [r3, #0]
}
 80034b8:	4770      	bx	lr
 80034ba:	bf00      	nop
 80034bc:	20000bb8 	.word	0x20000bb8
 80034c0:	20000a4c 	.word	0x20000a4c

080034c4 <magaz_buygasmask>:
void magaz_buygasmask(void)
{
  if(Gamer.money >= GASMASK_MONEY_COST && Gamer.gasmask_health <= 0){
 80034c4:	4b09      	ldr	r3, [pc, #36]	@ (80034ec <magaz_buygasmask+0x28>)
 80034c6:	795a      	ldrb	r2, [r3, #5]
 80034c8:	2a0e      	cmp	r2, #14
 80034ca:	d903      	bls.n	80034d4 <magaz_buygasmask+0x10>
 80034cc:	f993 1003 	ldrsb.w	r1, [r3, #3]
 80034d0:	2900      	cmp	r1, #0
 80034d2:	dd03      	ble.n	80034dc <magaz_buygasmask+0x18>
    Gamer.money -= GASMASK_MONEY_COST;
    Gamer.gasmask_health = 12;
  }
  gameevent = EVENT_NONE;
 80034d4:	2200      	movs	r2, #0
 80034d6:	4b06      	ldr	r3, [pc, #24]	@ (80034f0 <magaz_buygasmask+0x2c>)
 80034d8:	701a      	strb	r2, [r3, #0]
}
 80034da:	4770      	bx	lr
    Gamer.gasmask_health = 12;
 80034dc:	210c      	movs	r1, #12
    Gamer.money -= GASMASK_MONEY_COST;
 80034de:	3a0f      	subs	r2, #15
 80034e0:	715a      	strb	r2, [r3, #5]
  gameevent = EVENT_NONE;
 80034e2:	2200      	movs	r2, #0
    Gamer.gasmask_health = 12;
 80034e4:	70d9      	strb	r1, [r3, #3]
  gameevent = EVENT_NONE;
 80034e6:	4b02      	ldr	r3, [pc, #8]	@ (80034f0 <magaz_buygasmask+0x2c>)
 80034e8:	701a      	strb	r2, [r3, #0]
}
 80034ea:	4770      	bx	lr
 80034ec:	20000bb8 	.word	0x20000bb8
 80034f0:	20000a4c 	.word	0x20000a4c

080034f4 <magaz_buyenergy>:
void magaz_buyenergy(void)
{
  if(Gamer.money >= BATTERY_MONEY_COST && Gamer.energymax < GAMER_ENERGY_MAX){
 80034f4:	4b0e      	ldr	r3, [pc, #56]	@ (8003530 <magaz_buyenergy+0x3c>)
 80034f6:	7959      	ldrb	r1, [r3, #5]
 80034f8:	2931      	cmp	r1, #49	@ 0x31
 80034fa:	d915      	bls.n	8003528 <magaz_buyenergy+0x34>
 80034fc:	f993 2002 	ldrsb.w	r2, [r3, #2]
 8003500:	2a17      	cmp	r2, #23
 8003502:	dc11      	bgt.n	8003528 <magaz_buyenergy+0x34>
    Gamer.money -= BATTERY_MONEY_COST;
    Gamer.energymax += BATTERY_ENERGY_BUST;
    Gamer.energy = Gamer.energymax;
 8003504:	f04f 0000 	mov.w	r0, #0
    Gamer.energymax += BATTERY_ENERGY_BUST;
 8003508:	3204      	adds	r2, #4
 800350a:	b252      	sxtb	r2, r2
    Gamer.energy = Gamer.energymax;
 800350c:	f362 0007 	bfi	r0, r2, #0, #8
    if(Gamer.energymax > GAMER_ENERGY_MAX) Gamer.energymax = GAMER_ENERGY_MAX;
 8003510:	2a18      	cmp	r2, #24
    Gamer.energy = Gamer.energymax;
 8003512:	f362 200f 	bfi	r0, r2, #8, #8
    if(Gamer.energymax > GAMER_ENERGY_MAX) Gamer.energymax = GAMER_ENERGY_MAX;
 8003516:	bfc8      	it	gt
 8003518:	2218      	movgt	r2, #24
    Gamer.money -= BATTERY_MONEY_COST;
 800351a:	f1a1 0132 	sub.w	r1, r1, #50	@ 0x32
    Gamer.energy = Gamer.energymax;
 800351e:	f8a3 0001 	strh.w	r0, [r3, #1]
    Gamer.money -= BATTERY_MONEY_COST;
 8003522:	7159      	strb	r1, [r3, #5]
    if(Gamer.energymax > GAMER_ENERGY_MAX) Gamer.energymax = GAMER_ENERGY_MAX;
 8003524:	bfc8      	it	gt
 8003526:	709a      	strbgt	r2, [r3, #2]
  }
  gameevent = EVENT_NONE;
 8003528:	2200      	movs	r2, #0
 800352a:	4b02      	ldr	r3, [pc, #8]	@ (8003534 <magaz_buyenergy+0x40>)
 800352c:	701a      	strb	r2, [r3, #0]
}
 800352e:	4770      	bx	lr
 8003530:	20000bb8 	.word	0x20000bb8
 8003534:	20000a4c 	.word	0x20000a4c

08003538 <magaz_buyhealth>:
void magaz_buyhealth(void)
{
  if(Gamer.money >= HEALTH_MONEY_COST && Gamer.health < GAMER_HEALTH_MAX){
 8003538:	4b0a      	ldr	r3, [pc, #40]	@ (8003564 <magaz_buyhealth+0x2c>)
 800353a:	795a      	ldrb	r2, [r3, #5]
 800353c:	2a04      	cmp	r2, #4
 800353e:	d90c      	bls.n	800355a <magaz_buyhealth+0x22>
 8003540:	f993 1000 	ldrsb.w	r1, [r3]
 8003544:	2917      	cmp	r1, #23
 8003546:	dc08      	bgt.n	800355a <magaz_buyhealth+0x22>
    Gamer.money -= HEALTH_MONEY_COST;
    Gamer.health += HEALTH_REGEN; 
 8003548:	3104      	adds	r1, #4
 800354a:	b249      	sxtb	r1, r1
    Gamer.money -= HEALTH_MONEY_COST;
 800354c:	3a05      	subs	r2, #5
    if(Gamer.health > GAMER_HEALTH_MAX) Gamer.health = GAMER_HEALTH_MAX;
 800354e:	2918      	cmp	r1, #24
    Gamer.money -= HEALTH_MONEY_COST;
 8003550:	715a      	strb	r2, [r3, #5]
    if(Gamer.health > GAMER_HEALTH_MAX) Gamer.health = GAMER_HEALTH_MAX;
 8003552:	bfca      	itet	gt
 8003554:	2218      	movgt	r2, #24
    Gamer.health += HEALTH_REGEN; 
 8003556:	7019      	strble	r1, [r3, #0]
    if(Gamer.health > GAMER_HEALTH_MAX) Gamer.health = GAMER_HEALTH_MAX;
 8003558:	701a      	strbgt	r2, [r3, #0]
  }
  gameevent = EVENT_NONE;
 800355a:	2200      	movs	r2, #0
 800355c:	4b02      	ldr	r3, [pc, #8]	@ (8003568 <magaz_buyhealth+0x30>)
 800355e:	701a      	strb	r2, [r3, #0]
}
 8003560:	4770      	bx	lr
 8003562:	bf00      	nop
 8003564:	20000bb8 	.word	0x20000bb8
 8003568:	20000a4c 	.word	0x20000a4c

0800356c <gamestatesprocess>:
  screenupdate();
}

void gamestatesprocess(void)
{
  gamestate_transition_table[gamestate][gameevent]();
 800356c:	4b05      	ldr	r3, [pc, #20]	@ (8003584 <gamestatesprocess+0x18>)
 800356e:	4a06      	ldr	r2, [pc, #24]	@ (8003588 <gamestatesprocess+0x1c>)
 8003570:	781b      	ldrb	r3, [r3, #0]
 8003572:	7812      	ldrb	r2, [r2, #0]
 8003574:	4905      	ldr	r1, [pc, #20]	@ (800358c <gamestatesprocess+0x20>)
 8003576:	eb03 0383 	add.w	r3, r3, r3, lsl #2
 800357a:	eb02 0343 	add.w	r3, r2, r3, lsl #1
 800357e:	f851 3023 	ldr.w	r3, [r1, r3, lsl #2]
 8003582:	4718      	bx	r3
 8003584:	20000a4e 	.word	0x20000a4e
 8003588:	20000a4c 	.word	0x20000a4c
 800358c:	0800a924 	.word	0x0800a924

08003590 <createevilstar>:
  for(int i = 0; i < EVILSTAR_MAX; i++) {
 8003590:	2300      	movs	r3, #0
void createevilstar(void) {
 8003592:	b510      	push	{r4, lr}
 8003594:	4a0d      	ldr	r2, [pc, #52]	@ (80035cc <createevilstar+0x3c>)
    if (!EvilStar[i].state) {
 8003596:	f812 1023 	ldrb.w	r1, [r2, r3, lsl #2]
 800359a:	eb02 0483 	add.w	r4, r2, r3, lsl #2
 800359e:	b119      	cbz	r1, 80035a8 <createevilstar+0x18>
  for(int i = 0; i < EVILSTAR_MAX; i++) {
 80035a0:	3301      	adds	r3, #1
 80035a2:	2b0f      	cmp	r3, #15
 80035a4:	d1f7      	bne.n	8003596 <createevilstar+0x6>
}
 80035a6:	bd10      	pop	{r4, pc}
      EvilStar[i].state = 1;
 80035a8:	2001      	movs	r0, #1
      EvilStar[i].cl = 127;
 80035aa:	f04f 0c7f 	mov.w	ip, #127	@ 0x7f
      TotalStars++;
 80035ae:	4908      	ldr	r1, [pc, #32]	@ (80035d0 <createevilstar+0x40>)
      EvilStar[i].state = 1;
 80035b0:	f802 0023 	strb.w	r0, [r2, r3, lsl #2]
      TotalStars++;
 80035b4:	680b      	ldr	r3, [r1, #0]
      EvilStar[i].ln = (int8)getrand(40) + 8;
 80035b6:	2028      	movs	r0, #40	@ 0x28
      TotalStars++;
 80035b8:	3301      	adds	r3, #1
      EvilStar[i].cl = 127;
 80035ba:	f884 c002 	strb.w	ip, [r4, #2]
      TotalStars++;
 80035be:	600b      	str	r3, [r1, #0]
      EvilStar[i].ln = (int8)getrand(40) + 8;
 80035c0:	f7fd fa68 	bl	8000a94 <getrand>
 80035c4:	3008      	adds	r0, #8
 80035c6:	7060      	strb	r0, [r4, #1]
}
 80035c8:	bd10      	pop	{r4, pc}
 80035ca:	bf00      	nop
 80035cc:	20000ae0 	.word	0x20000ae0
 80035d0:	20000a60 	.word	0x20000a60

080035d4 <statehandler_gamesave>:
{
 80035d4:	b5f0      	push	{r4, r5, r6, r7, lr}
  if(coursorpos == COURS_POS_1){
 80035d6:	4c5a      	ldr	r4, [pc, #360]	@ (8003740 <statehandler_gamesave+0x16c>)
{
 80035d8:	b083      	sub	sp, #12
  if(coursorpos == COURS_POS_1){
 80035da:	7823      	ldrb	r3, [r4, #0]
 80035dc:	b19b      	cbz	r3, 8003606 <statehandler_gamesave+0x32>
  if(coursorpos == COURS_POS_2){
 80035de:	2b01      	cmp	r3, #1
 80035e0:	d060      	beq.n	80036a4 <statehandler_gamesave+0xd0>
  LCD_bufupload_buferase();
 80035e2:	f7fd ff2f 	bl	8001444 <LCD_bufupload_buferase>
  LCD_printstr8x5((uint8*)"", 3, 36);
 80035e6:	2224      	movs	r2, #36	@ 0x24
 80035e8:	2103      	movs	r1, #3
 80035ea:	4856      	ldr	r0, [pc, #344]	@ (8003744 <statehandler_gamesave+0x170>)
 80035ec:	f7fd fe8a 	bl	8001304 <LCD_printstr8x5>
  LCD_bufupload_buferase();
 80035f0:	f7fd ff28 	bl	8001444 <LCD_bufupload_buferase>
  HAL_Delay(1000);
 80035f4:	f44f 707a 	mov.w	r0, #1000	@ 0x3e8
 80035f8:	f001 fdf2 	bl	80051e0 <HAL_Delay>
  gameevent = EVENT_NONE;
 80035fc:	2200      	movs	r2, #0
 80035fe:	4b52      	ldr	r3, [pc, #328]	@ (8003748 <statehandler_gamesave+0x174>)
 8003600:	701a      	strb	r2, [r3, #0]
}
 8003602:	b003      	add	sp, #12
 8003604:	bdf0      	pop	{r4, r5, r6, r7, pc}
	EEPROM_writebyte(2, rtcraw.day);
 8003606:	4d51      	ldr	r5, [pc, #324]	@ (800374c <statehandler_gamesave+0x178>)
 8003608:	2002      	movs	r0, #2
 800360a:	78e9      	ldrb	r1, [r5, #3]
 800360c:	f7fd fe4a 	bl	80012a4 <EEPROM_writebyte>
	temp = (EEPROM_readbyte(3) & 0x0F) + 1;
 8003610:	2003      	movs	r0, #3
 8003612:	f7fd fe67 	bl	80012e4 <EEPROM_readbyte>
 8003616:	4601      	mov	r1, r0
 8003618:	f001 010f 	and.w	r1, r1, #15
	if(temp > 15) temp = 0;
 800361c:	290f      	cmp	r1, #15
	temp = (EEPROM_readbyte(3) & 0x0F) + 1;
 800361e:	f101 0101 	add.w	r1, r1, #1
	if(temp > 15) temp = 0;
 8003622:	bf08      	it	eq
 8003624:	2100      	moveq	r1, #0
	EEPROM_writebyte(3, temp | (rtcraw.month << 4));
 8003626:	796b      	ldrb	r3, [r5, #5]
 8003628:	2003      	movs	r0, #3
 800362a:	ea41 1103 	orr.w	r1, r1, r3, lsl #4
 800362e:	b2c9      	uxtb	r1, r1
 8003630:	f7fd fe38 	bl	80012a4 <EEPROM_writebyte>
	sprintf((char*)gameslot1, ".1 - %2.2d.%2.2d_%d", EEPROM_readbyte(2), EEPROM_readbyte(3) >> 4,  EEPROM_readbyte(3) & 0x0F);
 8003634:	2002      	movs	r0, #2
 8003636:	f7fd fe55 	bl	80012e4 <EEPROM_readbyte>
 800363a:	4607      	mov	r7, r0
 800363c:	2003      	movs	r0, #3
 800363e:	f7fd fe51 	bl	80012e4 <EEPROM_readbyte>
 8003642:	4606      	mov	r6, r0
 8003644:	2003      	movs	r0, #3
 8003646:	f7fd fe4d 	bl	80012e4 <EEPROM_readbyte>
 800364a:	4684      	mov	ip, r0
 800364c:	f3c6 1307 	ubfx	r3, r6, #4, #8
	EEPROM_writebyte(4, Gamer.health);
 8003650:	4d3f      	ldr	r5, [pc, #252]	@ (8003750 <statehandler_gamesave+0x17c>)
	sprintf((char*)gameslot1, ".1 - %2.2d.%2.2d_%d", EEPROM_readbyte(2), EEPROM_readbyte(3) >> 4,  EEPROM_readbyte(3) & 0x0F);
 8003652:	f00c 060f 	and.w	r6, ip, #15
 8003656:	463a      	mov	r2, r7
 8003658:	493e      	ldr	r1, [pc, #248]	@ (8003754 <statehandler_gamesave+0x180>)
 800365a:	483f      	ldr	r0, [pc, #252]	@ (8003758 <statehandler_gamesave+0x184>)
 800365c:	9600      	str	r6, [sp, #0]
 800365e:	f004 f96d 	bl	800793c <siprintf>
	EEPROM_writebyte(4, Gamer.health);
 8003662:	2004      	movs	r0, #4
 8003664:	7829      	ldrb	r1, [r5, #0]
 8003666:	f7fd fe1d 	bl	80012a4 <EEPROM_writebyte>
	EEPROM_writebyte(5, Gamer.energymax);
 800366a:	2005      	movs	r0, #5
 800366c:	78a9      	ldrb	r1, [r5, #2]
 800366e:	f7fd fe19 	bl	80012a4 <EEPROM_writebyte>
	EEPROM_writebyte(6, Gamer.gasmask_health);
 8003672:	2006      	movs	r0, #6
 8003674:	78e9      	ldrb	r1, [r5, #3]
 8003676:	f7fd fe15 	bl	80012a4 <EEPROM_writebyte>
	EEPROM_writebyte(7, Gamer.bombs);
 800367a:	2007      	movs	r0, #7
 800367c:	7929      	ldrb	r1, [r5, #4]
 800367e:	f7fd fe11 	bl	80012a4 <EEPROM_writebyte>
	EEPROM_writebyte(8, Gamer.money);
 8003682:	2008      	movs	r0, #8
 8003684:	7969      	ldrb	r1, [r5, #5]
 8003686:	f7fd fe0d 	bl	80012a4 <EEPROM_writebyte>
	EEPROM_writebyte(9, Game.level_progress);
 800368a:	4b34      	ldr	r3, [pc, #208]	@ (800375c <statehandler_gamesave+0x188>)
 800368c:	2009      	movs	r0, #9
 800368e:	7859      	ldrb	r1, [r3, #1]
 8003690:	f7fd fe08 	bl	80012a4 <EEPROM_writebyte>
	EEPROM_writebyte(10, GameFlags.gameflagsreg);
 8003694:	4b32      	ldr	r3, [pc, #200]	@ (8003760 <statehandler_gamesave+0x18c>)
 8003696:	200a      	movs	r0, #10
 8003698:	7819      	ldrb	r1, [r3, #0]
 800369a:	f7fd fe03 	bl	80012a4 <EEPROM_writebyte>
  if(coursorpos == COURS_POS_2){
 800369e:	7823      	ldrb	r3, [r4, #0]
 80036a0:	2b01      	cmp	r3, #1
 80036a2:	d19e      	bne.n	80035e2 <statehandler_gamesave+0xe>
	EEPROM_writebyte(11, rtcraw.day);
 80036a4:	4d29      	ldr	r5, [pc, #164]	@ (800374c <statehandler_gamesave+0x178>)
 80036a6:	200b      	movs	r0, #11
 80036a8:	78e9      	ldrb	r1, [r5, #3]
 80036aa:	f7fd fdfb 	bl	80012a4 <EEPROM_writebyte>
	temp = (EEPROM_readbyte(12) & 0x0F) + 1;
 80036ae:	200c      	movs	r0, #12
 80036b0:	f7fd fe18 	bl	80012e4 <EEPROM_readbyte>
 80036b4:	4601      	mov	r1, r0
 80036b6:	f001 010f 	and.w	r1, r1, #15
	if(temp > 15) temp = 0;
 80036ba:	290f      	cmp	r1, #15
	temp = (EEPROM_readbyte(12) & 0x0F) + 1;
 80036bc:	f101 0101 	add.w	r1, r1, #1
	if(temp > 15) temp = 0;
 80036c0:	bf08      	it	eq
 80036c2:	2100      	moveq	r1, #0
	EEPROM_writebyte(12, temp | (rtcraw.month << 4));
 80036c4:	796b      	ldrb	r3, [r5, #5]
 80036c6:	200c      	movs	r0, #12
 80036c8:	ea41 1103 	orr.w	r1, r1, r3, lsl #4
 80036cc:	b2c9      	uxtb	r1, r1
 80036ce:	f7fd fde9 	bl	80012a4 <EEPROM_writebyte>
	sprintf((char*)gameslot2, ".2 - %2.2d.%2.2d_%d", EEPROM_readbyte(11), EEPROM_readbyte(12) >> 4,  EEPROM_readbyte(12) & 0x0F);
 80036d2:	200b      	movs	r0, #11
 80036d4:	f7fd fe06 	bl	80012e4 <EEPROM_readbyte>
 80036d8:	4607      	mov	r7, r0
 80036da:	200c      	movs	r0, #12
 80036dc:	f7fd fe02 	bl	80012e4 <EEPROM_readbyte>
 80036e0:	4606      	mov	r6, r0
 80036e2:	200c      	movs	r0, #12
 80036e4:	f7fd fdfe 	bl	80012e4 <EEPROM_readbyte>
 80036e8:	4605      	mov	r5, r0
	EEPROM_writebyte(13, Gamer.health);
 80036ea:	4c19      	ldr	r4, [pc, #100]	@ (8003750 <statehandler_gamesave+0x17c>)
	sprintf((char*)gameslot2, ".2 - %2.2d.%2.2d_%d", EEPROM_readbyte(11), EEPROM_readbyte(12) >> 4,  EEPROM_readbyte(12) & 0x0F);
 80036ec:	f005 050f 	and.w	r5, r5, #15
 80036f0:	463a      	mov	r2, r7
 80036f2:	f3c6 1307 	ubfx	r3, r6, #4, #8
 80036f6:	491b      	ldr	r1, [pc, #108]	@ (8003764 <statehandler_gamesave+0x190>)
 80036f8:	9500      	str	r5, [sp, #0]
 80036fa:	481b      	ldr	r0, [pc, #108]	@ (8003768 <statehandler_gamesave+0x194>)
 80036fc:	f004 f91e 	bl	800793c <siprintf>
	EEPROM_writebyte(13, Gamer.health);
 8003700:	7821      	ldrb	r1, [r4, #0]
 8003702:	200d      	movs	r0, #13
 8003704:	f7fd fdce 	bl	80012a4 <EEPROM_writebyte>
	EEPROM_writebyte(14, Gamer.energymax);
 8003708:	78a1      	ldrb	r1, [r4, #2]
 800370a:	200e      	movs	r0, #14
 800370c:	f7fd fdca 	bl	80012a4 <EEPROM_writebyte>
	EEPROM_writebyte(15, Gamer.gasmask_health);
 8003710:	78e1      	ldrb	r1, [r4, #3]
 8003712:	200f      	movs	r0, #15
 8003714:	f7fd fdc6 	bl	80012a4 <EEPROM_writebyte>
	EEPROM_writebyte(16, Gamer.bombs);
 8003718:	7921      	ldrb	r1, [r4, #4]
 800371a:	2010      	movs	r0, #16
 800371c:	f7fd fdc2 	bl	80012a4 <EEPROM_writebyte>
	EEPROM_writebyte(17, Gamer.money);
 8003720:	7961      	ldrb	r1, [r4, #5]
 8003722:	2011      	movs	r0, #17
 8003724:	f7fd fdbe 	bl	80012a4 <EEPROM_writebyte>
	EEPROM_writebyte(18, Game.level_progress);
 8003728:	4b0c      	ldr	r3, [pc, #48]	@ (800375c <statehandler_gamesave+0x188>)
 800372a:	2012      	movs	r0, #18
 800372c:	7859      	ldrb	r1, [r3, #1]
 800372e:	f7fd fdb9 	bl	80012a4 <EEPROM_writebyte>
	EEPROM_writebyte(19, GameFlags.gameflagsreg);
 8003732:	4b0b      	ldr	r3, [pc, #44]	@ (8003760 <statehandler_gamesave+0x18c>)
 8003734:	2013      	movs	r0, #19
 8003736:	7819      	ldrb	r1, [r3, #0]
 8003738:	f7fd fdb4 	bl	80012a4 <EEPROM_writebyte>
 800373c:	e751      	b.n	80035e2 <statehandler_gamesave+0xe>
 800373e:	bf00      	nop
 8003740:	20000a4d 	.word	0x20000a4d
 8003744:	0800a6f8 	.word	0x0800a6f8
 8003748:	20000a4c 	.word	0x20000a4c
 800374c:	20000250 	.word	0x20000250
 8003750:	20000bb8 	.word	0x20000bb8
 8003754:	0800a798 	.word	0x0800a798
 8003758:	20000038 	.word	0x20000038
 800375c:	20000bc0 	.word	0x20000bc0
 8003760:	20000a50 	.word	0x20000a50
 8003764:	0800a7b0 	.word	0x0800a7b0
 8003768:	2000001c 	.word	0x2000001c

0800376c <stateinit_gameexit>:
  CFlags.MenuFl = 1;
 800376c:	4a04      	ldr	r2, [pc, #16]	@ (8003780 <stateinit_gameexit+0x14>)
 800376e:	7813      	ldrb	r3, [r2, #0]
 8003770:	f023 0303 	bic.w	r3, r3, #3
 8003774:	f043 0301 	orr.w	r3, r3, #1
 8003778:	7013      	strb	r3, [r2, #0]
  SchedRemoveAllEvents();
 800377a:	f7ff bc0b 	b.w	8002f94 <SchedRemoveAllEvents>
 800377e:	bf00      	nop
 8003780:	20000010 	.word	0x20000010

08003784 <system_events_period50ms>:
  check_btn_jstk();
 8003784:	f7fd bd74 	b.w	8001270 <check_btn_jstk>

08003788 <createbullet>:
  IF_BTN_B2_PRESS(
 8003788:	4a1b      	ldr	r2, [pc, #108]	@ (80037f8 <createbullet+0x70>)
 800378a:	6913      	ldr	r3, [r2, #16]
 800378c:	f013 2fff 	tst.w	r3, #4278255360	@ 0xff00ff00
 8003790:	d101      	bne.n	8003796 <createbullet+0xe>
 8003792:	7d13      	ldrb	r3, [r2, #20]
 8003794:	b373      	cbz	r3, 80037f4 <createbullet+0x6c>
 8003796:	2300      	movs	r3, #0
void createbullet(void) {
 8003798:	b510      	push	{r4, lr}
  IF_BTN_B2_PRESS(
 800379a:	4c18      	ldr	r4, [pc, #96]	@ (80037fc <createbullet+0x74>)
 800379c:	7453      	strb	r3, [r2, #17]
 800379e:	f994 1000 	ldrsb.w	r1, [r4]
 80037a2:	4299      	cmp	r1, r3
 80037a4:	dd25      	ble.n	80037f2 <createbullet+0x6a>
 80037a6:	f994 e001 	ldrsb.w	lr, [r4, #1]
 80037aa:	f1be 0f01 	cmp.w	lr, #1
 80037ae:	dd20      	ble.n	80037f2 <createbullet+0x6a>
 80037b0:	4913      	ldr	r1, [pc, #76]	@ (8003800 <createbullet+0x78>)
 80037b2:	e001      	b.n	80037b8 <createbullet+0x30>
 80037b4:	2b19      	cmp	r3, #25
 80037b6:	d01c      	beq.n	80037f2 <createbullet+0x6a>
 80037b8:	eb03 0243 	add.w	r2, r3, r3, lsl #1
 80037bc:	5c88      	ldrb	r0, [r1, r2]
 80037be:	3301      	adds	r3, #1
 80037c0:	eb01 0c02 	add.w	ip, r1, r2
 80037c4:	2800      	cmp	r0, #0
 80037c6:	d1f5      	bne.n	80037b4 <createbullet+0x2c>
 80037c8:	f1ae 0e02 	sub.w	lr, lr, #2
 80037cc:	f884 e001 	strb.w	lr, [r4, #1]
 80037d0:	f04f 0e01 	mov.w	lr, #1
 80037d4:	79e3      	ldrb	r3, [r4, #7]
 80037d6:	79a0      	ldrb	r0, [r4, #6]
 80037d8:	3318      	adds	r3, #24
 80037da:	f88c 0001 	strb.w	r0, [ip, #1]
 80037de:	f88c 3002 	strb.w	r3, [ip, #2]
 80037e2:	f801 e002 	strb.w	lr, [r1, r2]
 80037e6:	f44f 70c8 	mov.w	r0, #400	@ 0x190
}
 80037ea:	e8bd 4010 	ldmia.w	sp!, {r4, lr}
  IF_BTN_B2_PRESS(
 80037ee:	f7fd bb3d 	b.w	8000e6c <Sounds>
}
 80037f2:	bd10      	pop	{r4, pc}
 80037f4:	4770      	bx	lr
 80037f6:	bf00      	nop
 80037f8:	20000294 	.word	0x20000294
 80037fc:	20000bb8 	.word	0x20000bb8
 8003800:	20000b6c 	.word	0x20000b6c

08003804 <createbomb>:
  IF_BTN_B1_PRESS(
 8003804:	4a16      	ldr	r2, [pc, #88]	@ (8003860 <createbomb+0x5c>)
 8003806:	6913      	ldr	r3, [r2, #16]
 8003808:	f013 2fff 	tst.w	r3, #4278255360	@ 0xff00ff00
 800380c:	d101      	bne.n	8003812 <createbomb+0xe>
 800380e:	7d13      	ldrb	r3, [r2, #20]
 8003810:	b1a3      	cbz	r3, 800383c <createbomb+0x38>
 8003812:	2300      	movs	r3, #0
 8003814:	4813      	ldr	r0, [pc, #76]	@ (8003864 <createbomb+0x60>)
 8003816:	7453      	strb	r3, [r2, #17]
 8003818:	f990 1000 	ldrsb.w	r1, [r0]
 800381c:	4299      	cmp	r1, r3
 800381e:	dd0d      	ble.n	800383c <createbomb+0x38>
void createbomb(void) {
 8003820:	b410      	push	{r4}
  IF_BTN_B1_PRESS(
 8003822:	7904      	ldrb	r4, [r0, #4]
 8003824:	b144      	cbz	r4, 8003838 <createbomb+0x34>
 8003826:	4a10      	ldr	r2, [pc, #64]	@ (8003868 <createbomb+0x64>)
 8003828:	f812 1033 	ldrb.w	r1, [r2, r3, lsl #3]
 800382c:	eb02 0cc3 	add.w	ip, r2, r3, lsl #3
 8003830:	b129      	cbz	r1, 800383e <createbomb+0x3a>
 8003832:	3301      	adds	r3, #1
 8003834:	2b0a      	cmp	r3, #10
 8003836:	d1f7      	bne.n	8003828 <createbomb+0x24>
}
 8003838:	bc10      	pop	{r4}
 800383a:	4770      	bx	lr
 800383c:	4770      	bx	lr
  IF_BTN_B1_PRESS(
 800383e:	3c01      	subs	r4, #1
 8003840:	7104      	strb	r4, [r0, #4]
 8003842:	2401      	movs	r4, #1
 8003844:	79c1      	ldrb	r1, [r0, #7]
 8003846:	7980      	ldrb	r0, [r0, #6]
 8003848:	3118      	adds	r1, #24
 800384a:	f88c 0001 	strb.w	r0, [ip, #1]
 800384e:	f88c 1002 	strb.w	r1, [ip, #2]
 8003852:	f802 4033 	strb.w	r4, [r2, r3, lsl #3]
 8003856:	f44f 707a 	mov.w	r0, #1000	@ 0x3e8
}
 800385a:	bc10      	pop	{r4}
  IF_BTN_B1_PRESS(
 800385c:	f7fd bb06 	b.w	8000e6c <Sounds>
 8003860:	200002ac 	.word	0x200002ac
 8003864:	20000bb8 	.word	0x20000bb8
 8003868:	20000b1c 	.word	0x20000b1c

0800386c <gameprogress>:
{
 800386c:	b5f8      	push	{r3, r4, r5, r6, r7, lr}
  if(Gamer.health > 0)
 800386e:	4b21      	ldr	r3, [pc, #132]	@ (80038f4 <gameprogress+0x88>)
 8003870:	f993 3000 	ldrsb.w	r3, [r3]
 8003874:	2b00      	cmp	r3, #0
 8003876:	dd25      	ble.n	80038c4 <gameprogress+0x58>
	PRD_EVILSTAR_CREATE = PRD_EVILSTAR_CREATE_INITVAL - 100 * (Game.level_progress / 15);
 8003878:	4c1f      	ldr	r4, [pc, #124]	@ (80038f8 <gameprogress+0x8c>)
 800387a:	4a20      	ldr	r2, [pc, #128]	@ (80038fc <gameprogress+0x90>)
 800387c:	7866      	ldrb	r6, [r4, #1]
 800387e:	f06f 0063 	mvn.w	r0, #99	@ 0x63
 8003882:	fba2 3206 	umull	r3, r2, r2, r6
 8003886:	08d3      	lsrs	r3, r2, #3
 8003888:	461a      	mov	r2, r3
 800388a:	fb02 f000 	mul.w	r0, r2, r0
 800388e:	491c      	ldr	r1, [pc, #112]	@ (8003900 <gameprogress+0x94>)
    if((Game.level_progress % 15 == 0) && counter == 0 && Game.level_progress){
 8003890:	4d1c      	ldr	r5, [pc, #112]	@ (8003904 <gameprogress+0x98>)
	PRD_EVILSTAR_CREATE = PRD_EVILSTAR_CREATE_INITVAL - 100 * (Game.level_progress / 15);
 8003892:	f500 60af 	add.w	r0, r0, #1400	@ 0x578
    if((Game.level_progress % 15 == 0) && counter == 0 && Game.level_progress){
 8003896:	ebc3 1303 	rsb	r3, r3, r3, lsl #4
	PRD_EVILSTAR_CREATE = PRD_EVILSTAR_CREATE_INITVAL - 100 * (Game.level_progress / 15);
 800389a:	6008      	str	r0, [r1, #0]
    if((Game.level_progress % 15 == 0) && counter == 0 && Game.level_progress){
 800389c:	7829      	ldrb	r1, [r5, #0]
 800389e:	1af3      	subs	r3, r6, r3
	PRD_ENEMY_MOVE = PRD_ENEMY_MOVE_INITVAL - (Game.level_progress / 15);
 80038a0:	4f19      	ldr	r7, [pc, #100]	@ (8003908 <gameprogress+0x9c>)
    if((Game.level_progress % 15 == 0) && counter == 0 && Game.level_progress){
 80038a2:	430b      	orrs	r3, r1
	PRD_ENEMY_MOVE = PRD_ENEMY_MOVE_INITVAL - (Game.level_progress / 15);
 80038a4:	f1c2 0218 	rsb	r2, r2, #24
    if((Game.level_progress % 15 == 0) && counter == 0 && Game.level_progress){
 80038a8:	b2db      	uxtb	r3, r3
	PRD_ENEMY_MOVE = PRD_ENEMY_MOVE_INITVAL - (Game.level_progress / 15);
 80038aa:	703a      	strb	r2, [r7, #0]
    if((Game.level_progress % 15 == 0) && counter == 0 && Game.level_progress){
 80038ac:	b9bb      	cbnz	r3, 80038de <gameprogress+0x72>
 80038ae:	b13e      	cbz	r6, 80038c0 <gameprogress+0x54>
	  if(PRD_EVILSTAR_CREATE < 500) GameFlags.WinTheGame = 1;
 80038b0:	f5b0 7ffa 	cmp.w	r0, #500	@ 0x1f4
 80038b4:	d207      	bcs.n	80038c6 <gameprogress+0x5a>
 80038b6:	4a15      	ldr	r2, [pc, #84]	@ (800390c <gameprogress+0xa0>)
 80038b8:	7813      	ldrb	r3, [r2, #0]
 80038ba:	f043 0310 	orr.w	r3, r3, #16
 80038be:	7013      	strb	r3, [r2, #0]
    counter++;
 80038c0:	2301      	movs	r3, #1
 80038c2:	702b      	strb	r3, [r5, #0]
}
 80038c4:	bdf8      	pop	{r3, r4, r5, r6, r7, pc}
		MinMagaz.state = 1;
 80038c6:	2101      	movs	r1, #1
		MinMagaz.cl = 127;
 80038c8:	227f      	movs	r2, #127	@ 0x7f
		MinMagaz.state = 1;
 80038ca:	4b11      	ldr	r3, [pc, #68]	@ (8003910 <gameprogress+0xa4>)
		SchedPauseEvent(createevilstar);
 80038cc:	4811      	ldr	r0, [pc, #68]	@ (8003914 <gameprogress+0xa8>)
		MinMagaz.state = 1;
 80038ce:	7019      	strb	r1, [r3, #0]
		MinMagaz.cl = 127;
 80038d0:	709a      	strb	r2, [r3, #2]
		SchedPauseEvent(createevilstar);
 80038d2:	f7ff fbb9 	bl	8003048 <SchedPauseEvent>
		SchedPauseEvent(gameprogress);
 80038d6:	4810      	ldr	r0, [pc, #64]	@ (8003918 <gameprogress+0xac>)
 80038d8:	f7ff fbb6 	bl	8003048 <SchedPauseEvent>
    counter++;
 80038dc:	7829      	ldrb	r1, [r5, #0]
 80038de:	3101      	adds	r1, #1
 80038e0:	b2c9      	uxtb	r1, r1
    if(counter == GAME_PROGRESS_PERIOD_CALLS)
 80038e2:	2932      	cmp	r1, #50	@ 0x32
    counter++;
 80038e4:	7029      	strb	r1, [r5, #0]
    if(counter == GAME_PROGRESS_PERIOD_CALLS)
 80038e6:	d1ed      	bne.n	80038c4 <gameprogress+0x58>
      counter = 0;
 80038e8:	2200      	movs	r2, #0
      Game.level_progress++;
 80038ea:	7863      	ldrb	r3, [r4, #1]
      counter = 0;
 80038ec:	702a      	strb	r2, [r5, #0]
      Game.level_progress++;
 80038ee:	3301      	adds	r3, #1
 80038f0:	7063      	strb	r3, [r4, #1]
}
 80038f2:	bdf8      	pop	{r3, r4, r5, r6, r7, pc}
 80038f4:	20000bb8 	.word	0x20000bb8
 80038f8:	20000bc0 	.word	0x20000bc0
 80038fc:	88888889 	.word	0x88888889
 8003900:	2000005c 	.word	0x2000005c
 8003904:	20000a48 	.word	0x20000a48
 8003908:	20000058 	.word	0x20000058
 800390c:	20000a50 	.word	0x20000a50
 8003910:	20000060 	.word	0x20000060
 8003914:	08003591 	.word	0x08003591
 8003918:	0800386d 	.word	0x0800386d

0800391c <movgamer.part.0>:
    if (joystick.oy > 140 && joystick.oy <= 210){Gamer.ln -= 1; if(Gamer.ln < 8) Gamer.ln = 8;}
 800391c:	494a      	ldr	r1, [pc, #296]	@ (8003a48 <movgamer.part.0+0x12c>)
 800391e:	788a      	ldrb	r2, [r1, #2]
 8003920:	f102 0373 	add.w	r3, r2, #115	@ 0x73
 8003924:	b2db      	uxtb	r3, r3
 8003926:	2b45      	cmp	r3, #69	@ 0x45
 8003928:	d822      	bhi.n	8003970 <movgamer.part.0+0x54>
 800392a:	4b48      	ldr	r3, [pc, #288]	@ (8003a4c <movgamer.part.0+0x130>)
 800392c:	799a      	ldrb	r2, [r3, #6]
 800392e:	3a01      	subs	r2, #1
 8003930:	b252      	sxtb	r2, r2
 8003932:	2a07      	cmp	r2, #7
 8003934:	719a      	strb	r2, [r3, #6]
 8003936:	dd27      	ble.n	8003988 <movgamer.part.0+0x6c>
    if (joystick.ox > 140 && joystick.ox <= 210){Gamer.cl += 1; if(Gamer.cl > 94)Gamer.cl = 94;}
 8003938:	784a      	ldrb	r2, [r1, #1]
 800393a:	f102 0373 	add.w	r3, r2, #115	@ 0x73
 800393e:	b2db      	uxtb	r3, r3
 8003940:	2b45      	cmp	r3, #69	@ 0x45
 8003942:	d807      	bhi.n	8003954 <movgamer.part.0+0x38>
 8003944:	4a41      	ldr	r2, [pc, #260]	@ (8003a4c <movgamer.part.0+0x130>)
 8003946:	79d3      	ldrb	r3, [r2, #7]
 8003948:	3301      	adds	r3, #1
 800394a:	b25b      	sxtb	r3, r3
 800394c:	2b5e      	cmp	r3, #94	@ 0x5e
 800394e:	dc0c      	bgt.n	800396a <movgamer.part.0+0x4e>
 8003950:	71d3      	strb	r3, [r2, #7]
}
 8003952:	4770      	bx	lr
    if (joystick.ox > 210 && joystick.ox <= 250){Gamer.cl += 2; if(Gamer.cl > 94)Gamer.cl = 94;}
 8003954:	f102 032d 	add.w	r3, r2, #45	@ 0x2d
 8003958:	b2db      	uxtb	r3, r3
 800395a:	2b27      	cmp	r3, #39	@ 0x27
 800395c:	d817      	bhi.n	800398e <movgamer.part.0+0x72>
 800395e:	4a3b      	ldr	r2, [pc, #236]	@ (8003a4c <movgamer.part.0+0x130>)
 8003960:	79d3      	ldrb	r3, [r2, #7]
 8003962:	3302      	adds	r3, #2
 8003964:	b25b      	sxtb	r3, r3
 8003966:	2b5e      	cmp	r3, #94	@ 0x5e
 8003968:	ddf2      	ble.n	8003950 <movgamer.part.0+0x34>
    if (joystick.ox > 250){Gamer.cl += 5; if(Gamer.cl > 94)Gamer.cl = 94;}
 800396a:	235e      	movs	r3, #94	@ 0x5e
 800396c:	71d3      	strb	r3, [r2, #7]
    if (joystick.ox < 10){Gamer.cl -= 5; if(Gamer.cl < -8)Gamer.cl = -8;}
 800396e:	4770      	bx	lr
    if (joystick.oy > 210 && joystick.oy <= 250){Gamer.ln -= 2;if(Gamer.ln < 8) Gamer.ln = 8;}
 8003970:	f102 032d 	add.w	r3, r2, #45	@ 0x2d
 8003974:	b2db      	uxtb	r3, r3
 8003976:	2b27      	cmp	r3, #39	@ 0x27
 8003978:	d812      	bhi.n	80039a0 <movgamer.part.0+0x84>
 800397a:	4b34      	ldr	r3, [pc, #208]	@ (8003a4c <movgamer.part.0+0x130>)
 800397c:	799a      	ldrb	r2, [r3, #6]
 800397e:	3a02      	subs	r2, #2
 8003980:	b252      	sxtb	r2, r2
 8003982:	2a07      	cmp	r2, #7
 8003984:	719a      	strb	r2, [r3, #6]
 8003986:	dcd7      	bgt.n	8003938 <movgamer.part.0+0x1c>
    if (joystick.oy > 140 && joystick.oy <= 210){Gamer.ln -= 1; if(Gamer.ln < 8) Gamer.ln = 8;}
 8003988:	2208      	movs	r2, #8
 800398a:	719a      	strb	r2, [r3, #6]
    if (joystick.oy < 50 && joystick.oy >= 10){Gamer.ln += 2; if(Gamer.ln > 48)Gamer.ln = 48;}
 800398c:	e7d4      	b.n	8003938 <movgamer.part.0+0x1c>
    if (joystick.ox > 250){Gamer.cl += 5; if(Gamer.cl > 94)Gamer.cl = 94;}
 800398e:	2afa      	cmp	r2, #250	@ 0xfa
 8003990:	d91f      	bls.n	80039d2 <movgamer.part.0+0xb6>
 8003992:	4a2e      	ldr	r2, [pc, #184]	@ (8003a4c <movgamer.part.0+0x130>)
 8003994:	79d3      	ldrb	r3, [r2, #7]
 8003996:	3305      	adds	r3, #5
 8003998:	b25b      	sxtb	r3, r3
 800399a:	2b5e      	cmp	r3, #94	@ 0x5e
 800399c:	dce5      	bgt.n	800396a <movgamer.part.0+0x4e>
 800399e:	e7d7      	b.n	8003950 <movgamer.part.0+0x34>
    if (joystick.oy > 250){Gamer.ln -= 5; if(Gamer.ln < 8)Gamer.ln = 8;}
 80039a0:	2afa      	cmp	r2, #250	@ 0xfa
 80039a2:	d908      	bls.n	80039b6 <movgamer.part.0+0x9a>
 80039a4:	4a29      	ldr	r2, [pc, #164]	@ (8003a4c <movgamer.part.0+0x130>)
 80039a6:	7993      	ldrb	r3, [r2, #6]
 80039a8:	3b05      	subs	r3, #5
 80039aa:	b25b      	sxtb	r3, r3
 80039ac:	2b07      	cmp	r3, #7
 80039ae:	bfd8      	it	le
 80039b0:	2308      	movle	r3, #8
 80039b2:	7193      	strb	r3, [r2, #6]
    if (joystick.oy < 10){Gamer.ln += 5; if(Gamer.ln > 48)Gamer.ln = 48;}
 80039b4:	e7c0      	b.n	8003938 <movgamer.part.0+0x1c>
    if (joystick.oy < 120 && joystick.oy >= 50){Gamer.ln += 1; if(Gamer.ln > 48)Gamer.ln = 48;}
 80039b6:	f1a2 0332 	sub.w	r3, r2, #50	@ 0x32
 80039ba:	2b45      	cmp	r3, #69	@ 0x45
 80039bc:	d817      	bhi.n	80039ee <movgamer.part.0+0xd2>
 80039be:	4b23      	ldr	r3, [pc, #140]	@ (8003a4c <movgamer.part.0+0x130>)
 80039c0:	799a      	ldrb	r2, [r3, #6]
 80039c2:	3201      	adds	r2, #1
 80039c4:	b252      	sxtb	r2, r2
 80039c6:	2a30      	cmp	r2, #48	@ 0x30
 80039c8:	719a      	strb	r2, [r3, #6]
 80039ca:	ddb5      	ble.n	8003938 <movgamer.part.0+0x1c>
 80039cc:	2230      	movs	r2, #48	@ 0x30
 80039ce:	719a      	strb	r2, [r3, #6]
    if (joystick.oy < 10){Gamer.ln += 5; if(Gamer.ln > 48)Gamer.ln = 48;}
 80039d0:	e7b2      	b.n	8003938 <movgamer.part.0+0x1c>
    if (joystick.ox < 120 && joystick.ox >= 50){Gamer.cl -= 1; if(Gamer.cl < -8)Gamer.cl = -8;}
 80039d2:	f1a2 0332 	sub.w	r3, r2, #50	@ 0x32
 80039d6:	2b45      	cmp	r3, #69	@ 0x45
 80039d8:	d815      	bhi.n	8003a06 <movgamer.part.0+0xea>
 80039da:	4b1c      	ldr	r3, [pc, #112]	@ (8003a4c <movgamer.part.0+0x130>)
 80039dc:	79da      	ldrb	r2, [r3, #7]
 80039de:	3a01      	subs	r2, #1
 80039e0:	b252      	sxtb	r2, r2
 80039e2:	71da      	strb	r2, [r3, #7]
 80039e4:	3208      	adds	r2, #8
 80039e6:	dab4      	bge.n	8003952 <movgamer.part.0+0x36>
 80039e8:	22f8      	movs	r2, #248	@ 0xf8
 80039ea:	71da      	strb	r2, [r3, #7]
    if (joystick.ox < 10){Gamer.cl -= 5; if(Gamer.cl < -8)Gamer.cl = -8;}
 80039ec:	4770      	bx	lr
    if (joystick.oy < 50 && joystick.oy >= 10){Gamer.ln += 2; if(Gamer.ln > 48)Gamer.ln = 48;}
 80039ee:	f1a2 030a 	sub.w	r3, r2, #10
 80039f2:	2b27      	cmp	r3, #39	@ 0x27
 80039f4:	d813      	bhi.n	8003a1e <movgamer.part.0+0x102>
 80039f6:	4b15      	ldr	r3, [pc, #84]	@ (8003a4c <movgamer.part.0+0x130>)
 80039f8:	799a      	ldrb	r2, [r3, #6]
 80039fa:	3202      	adds	r2, #2
 80039fc:	b252      	sxtb	r2, r2
 80039fe:	2a30      	cmp	r2, #48	@ 0x30
 8003a00:	719a      	strb	r2, [r3, #6]
 8003a02:	dce3      	bgt.n	80039cc <movgamer.part.0+0xb0>
 8003a04:	e798      	b.n	8003938 <movgamer.part.0+0x1c>
    if (joystick.ox < 50 && joystick.ox >= 10){Gamer.cl -= 2; if(Gamer.cl < -8) Gamer.cl = -8;}
 8003a06:	f1a2 030a 	sub.w	r3, r2, #10
 8003a0a:	2b27      	cmp	r3, #39	@ 0x27
 8003a0c:	d811      	bhi.n	8003a32 <movgamer.part.0+0x116>
 8003a0e:	4b0f      	ldr	r3, [pc, #60]	@ (8003a4c <movgamer.part.0+0x130>)
 8003a10:	79da      	ldrb	r2, [r3, #7]
 8003a12:	3a02      	subs	r2, #2
 8003a14:	b252      	sxtb	r2, r2
 8003a16:	71da      	strb	r2, [r3, #7]
 8003a18:	3208      	adds	r2, #8
 8003a1a:	dbe5      	blt.n	80039e8 <movgamer.part.0+0xcc>
 8003a1c:	4770      	bx	lr
    if (joystick.oy < 10){Gamer.ln += 5; if(Gamer.ln > 48)Gamer.ln = 48;}
 8003a1e:	2a09      	cmp	r2, #9
 8003a20:	d88a      	bhi.n	8003938 <movgamer.part.0+0x1c>
 8003a22:	4b0a      	ldr	r3, [pc, #40]	@ (8003a4c <movgamer.part.0+0x130>)
 8003a24:	799a      	ldrb	r2, [r3, #6]
 8003a26:	3205      	adds	r2, #5
 8003a28:	b252      	sxtb	r2, r2
 8003a2a:	2a30      	cmp	r2, #48	@ 0x30
 8003a2c:	719a      	strb	r2, [r3, #6]
 8003a2e:	dccd      	bgt.n	80039cc <movgamer.part.0+0xb0>
 8003a30:	e782      	b.n	8003938 <movgamer.part.0+0x1c>
    if (joystick.ox < 10){Gamer.cl -= 5; if(Gamer.cl < -8)Gamer.cl = -8;}
 8003a32:	2a09      	cmp	r2, #9
 8003a34:	d88d      	bhi.n	8003952 <movgamer.part.0+0x36>
 8003a36:	4b05      	ldr	r3, [pc, #20]	@ (8003a4c <movgamer.part.0+0x130>)
 8003a38:	79da      	ldrb	r2, [r3, #7]
 8003a3a:	3a05      	subs	r2, #5
 8003a3c:	b252      	sxtb	r2, r2
 8003a3e:	71da      	strb	r2, [r3, #7]
 8003a40:	3208      	adds	r2, #8
 8003a42:	dbd1      	blt.n	80039e8 <movgamer.part.0+0xcc>
 8003a44:	4770      	bx	lr
 8003a46:	bf00      	nop
 8003a48:	20000260 	.word	0x20000260
 8003a4c:	20000bb8 	.word	0x20000bb8

08003a50 <stateinit_gamestop>:
{
 8003a50:	b510      	push	{r4, lr}
  SchedRemoveEvent(createevilstar);
 8003a52:	481c      	ldr	r0, [pc, #112]	@ (8003ac4 <stateinit_gamestop+0x74>)
 8003a54:	f7ff fad6 	bl	8003004 <SchedRemoveEvent>
  SchedRemoveEvent(createbullet);
 8003a58:	481b      	ldr	r0, [pc, #108]	@ (8003ac8 <stateinit_gamestop+0x78>)
 8003a5a:	f7ff fad3 	bl	8003004 <SchedRemoveEvent>
  SchedRemoveEvent(createbomb);
 8003a5e:	481b      	ldr	r0, [pc, #108]	@ (8003acc <stateinit_gamestop+0x7c>)
 8003a60:	f7ff fad0 	bl	8003004 <SchedRemoveEvent>
  SchedRemoveEvent(movbullet);
 8003a64:	481a      	ldr	r0, [pc, #104]	@ (8003ad0 <stateinit_gamestop+0x80>)
 8003a66:	f7ff facd 	bl	8003004 <SchedRemoveEvent>
  SchedRemoveEvent(move_enemy_objects);
 8003a6a:	481a      	ldr	r0, [pc, #104]	@ (8003ad4 <stateinit_gamestop+0x84>)
 8003a6c:	f7ff faca 	bl	8003004 <SchedRemoveEvent>
  SchedRemoveEvent(gameprogress);
 8003a70:	4819      	ldr	r0, [pc, #100]	@ (8003ad8 <stateinit_gamestop+0x88>)
 8003a72:	f7ff fac7 	bl	8003004 <SchedRemoveEvent>
 8003a76:	2300      	movs	r3, #0
  for(uint8 i = 0; i < EVILSTAR_MAX; i++) EvilStar[i].state = 0;
 8003a78:	461a      	mov	r2, r3
 8003a7a:	4918      	ldr	r1, [pc, #96]	@ (8003adc <stateinit_gamestop+0x8c>)
 8003a7c:	f801 2023 	strb.w	r2, [r1, r3, lsl #2]
 8003a80:	3301      	adds	r3, #1
 8003a82:	2b0f      	cmp	r3, #15
 8003a84:	d1fa      	bne.n	8003a7c <stateinit_gamestop+0x2c>
 8003a86:	2300      	movs	r3, #0
  for(uint8 i = 0; i < COIN_MAX; i++) Coin[i].state = 0;
 8003a88:	461a      	mov	r2, r3
 8003a8a:	4915      	ldr	r1, [pc, #84]	@ (8003ae0 <stateinit_gamestop+0x90>)
 8003a8c:	f801 2023 	strb.w	r2, [r1, r3, lsl #2]
 8003a90:	3301      	adds	r3, #1
 8003a92:	2b0f      	cmp	r3, #15
 8003a94:	d1fa      	bne.n	8003a8c <stateinit_gamestop+0x3c>
  for(uint8 i = 0; i < BULLET_MAX; i++) Bullet[i].state = 0;
 8003a96:	2200      	movs	r2, #0
 8003a98:	4b12      	ldr	r3, [pc, #72]	@ (8003ae4 <stateinit_gamestop+0x94>)
 8003a9a:	f103 014b 	add.w	r1, r3, #75	@ 0x4b
 8003a9e:	f803 2b03 	strb.w	r2, [r3], #3
 8003aa2:	428b      	cmp	r3, r1
 8003aa4:	d1fb      	bne.n	8003a9e <stateinit_gamestop+0x4e>
  BTN_HOLD_ON_DELAY = 500;
 8003aa6:	f44f 71fa 	mov.w	r1, #500	@ 0x1f4
  Game.level_progress = 0;
 8003aaa:	480f      	ldr	r0, [pc, #60]	@ (8003ae8 <stateinit_gamestop+0x98>)
  GAME_STORY_STRING_NUM = 0;
 8003aac:	4c0f      	ldr	r4, [pc, #60]	@ (8003aec <stateinit_gamestop+0x9c>)
  Game.level_progress = 0;
 8003aae:	7042      	strb	r2, [r0, #1]
  gameevent = EVENT_NONE;
 8003ab0:	480f      	ldr	r0, [pc, #60]	@ (8003af0 <stateinit_gamestop+0xa0>)
  GAME_STORY_STRING_NUM = 0;
 8003ab2:	7022      	strb	r2, [r4, #0]
  gameevent = EVENT_NONE;
 8003ab4:	7002      	strb	r2, [r0, #0]
  gamestate = STATE_MAINMENU;
 8003ab6:	4c0f      	ldr	r4, [pc, #60]	@ (8003af4 <stateinit_gamestop+0xa4>)
  coursorpos = COURS_POS_1;
 8003ab8:	480f      	ldr	r0, [pc, #60]	@ (8003af8 <stateinit_gamestop+0xa8>)
  BTN_HOLD_ON_DELAY = 500;
 8003aba:	4b10      	ldr	r3, [pc, #64]	@ (8003afc <stateinit_gamestop+0xac>)
  gamestate = STATE_MAINMENU;
 8003abc:	7022      	strb	r2, [r4, #0]
  coursorpos = COURS_POS_1;
 8003abe:	7002      	strb	r2, [r0, #0]
  BTN_HOLD_ON_DELAY = 500;
 8003ac0:	6019      	str	r1, [r3, #0]
}
 8003ac2:	bd10      	pop	{r4, pc}
 8003ac4:	08003591 	.word	0x08003591
 8003ac8:	08003789 	.word	0x08003789
 8003acc:	08003805 	.word	0x08003805
 8003ad0:	0800344d 	.word	0x0800344d
 8003ad4:	08003c1d 	.word	0x08003c1d
 8003ad8:	0800386d 	.word	0x0800386d
 8003adc:	20000ae0 	.word	0x20000ae0
 8003ae0:	20000aa4 	.word	0x20000aa4
 8003ae4:	20000b6c 	.word	0x20000b6c
 8003ae8:	20000bc0 	.word	0x20000bc0
 8003aec:	20000a64 	.word	0x20000a64
 8003af0:	20000a4c 	.word	0x20000a4c
 8003af4:	20000a4e 	.word	0x20000a4e
 8003af8:	20000a4d 	.word	0x20000a4d
 8003afc:	20000008 	.word	0x20000008

08003b00 <createcoin>:
  for(int i = 0; i < COIN_MAX; i++) {
 8003b00:	2300      	movs	r3, #0
 8003b02:	4a0e      	ldr	r2, [pc, #56]	@ (8003b3c <createcoin+0x3c>)
    if (!Coin[i].state) {
 8003b04:	f812 1023 	ldrb.w	r1, [r2, r3, lsl #2]
 8003b08:	eb02 0c83 	add.w	ip, r2, r3, lsl #2
 8003b0c:	b119      	cbz	r1, 8003b16 <createcoin+0x16>
  for(int i = 0; i < COIN_MAX; i++) {
 8003b0e:	3301      	adds	r3, #1
 8003b10:	2b0f      	cmp	r3, #15
 8003b12:	d1f7      	bne.n	8003b04 <createcoin+0x4>
 8003b14:	4770      	bx	lr
void createcoin(tEvilStar* Evil_Star) {
 8003b16:	b570      	push	{r4, r5, r6, lr}
      Coin[i].state = 1;
 8003b18:	2601      	movs	r6, #1
      Coin[i].animation_count = COIN_ANIMATION_PERIOD;
 8003b1a:	f04f 0e0a 	mov.w	lr, #10
      TotalCoins++;
 8003b1e:	4c08      	ldr	r4, [pc, #32]	@ (8003b40 <createcoin+0x40>)
      Coin[i].state = 1;
 8003b20:	f802 6023 	strb.w	r6, [r2, r3, lsl #2]
      TotalCoins++;
 8003b24:	6821      	ldr	r1, [r4, #0]
      Coin[i].ln = Evil_Star->ln;
 8003b26:	4d07      	ldr	r5, [pc, #28]	@ (8003b44 <createcoin+0x44>)
      TotalCoins++;
 8003b28:	4431      	add	r1, r6
 8003b2a:	6021      	str	r1, [r4, #0]
      Coin[i].ln = Evil_Star->ln;
 8003b2c:	f8b0 2001 	ldrh.w	r2, [r0, #1]
 8003b30:	f825 2023 	strh.w	r2, [r5, r3, lsl #2]
      Coin[i].animation_count = COIN_ANIMATION_PERIOD;
 8003b34:	f88c e003 	strb.w	lr, [ip, #3]
}
 8003b38:	bd70      	pop	{r4, r5, r6, pc}
 8003b3a:	bf00      	nop
 8003b3c:	20000aa4 	.word	0x20000aa4
 8003b40:	20000a5c 	.word	0x20000a5c
 8003b44:	20000aa5 	.word	0x20000aa5

08003b48 <movevilstar>:
void movevilstar(void) {
 8003b48:	b510      	push	{r4, lr}
      if(GameFlags.WinTheGame) EvilStar[i].state = 2; 
 8003b4a:	f04f 0e02 	mov.w	lr, #2
 8003b4e:	4b13      	ldr	r3, [pc, #76]	@ (8003b9c <movevilstar+0x54>)
 8003b50:	4a13      	ldr	r2, [pc, #76]	@ (8003ba0 <movevilstar+0x58>)
 8003b52:	781c      	ldrb	r4, [r3, #0]
      if ((EvilStar[i].cl < -29)) EvilStar[i].state = 0;
 8003b54:	f04f 0c00 	mov.w	ip, #0
 8003b58:	eb02 030e 	add.w	r3, r2, lr
      if(GameFlags.WinTheGame) EvilStar[i].state = 2; 
 8003b5c:	f004 0410 	and.w	r4, r4, #16
 8003b60:	f102 003e 	add.w	r0, r2, #62	@ 0x3e
 8003b64:	e004      	b.n	8003b70 <movevilstar+0x28>
  for (uint8 i = 0; i < EVILSTAR_MAX; i++) {
 8003b66:	3304      	adds	r3, #4
 8003b68:	4298      	cmp	r0, r3
 8003b6a:	f102 0204 	add.w	r2, r2, #4
 8003b6e:	d014      	beq.n	8003b9a <movevilstar+0x52>
    if (EvilStar[i].state == 1) {
 8003b70:	f813 1c02 	ldrb.w	r1, [r3, #-2]
 8003b74:	2901      	cmp	r1, #1
 8003b76:	d1f6      	bne.n	8003b66 <movevilstar+0x1e>
      EvilStar[i].cl--;
 8003b78:	7891      	ldrb	r1, [r2, #2]
 8003b7a:	3901      	subs	r1, #1
 8003b7c:	b249      	sxtb	r1, r1
 8003b7e:	7091      	strb	r1, [r2, #2]
      if ((EvilStar[i].cl < -29)) EvilStar[i].state = 0;
 8003b80:	311d      	adds	r1, #29
 8003b82:	bfb8      	it	lt
 8003b84:	f803 cc02 	strblt.w	ip, [r3, #-2]
      if(GameFlags.WinTheGame) EvilStar[i].state = 2; 
 8003b88:	2c00      	cmp	r4, #0
 8003b8a:	d0ec      	beq.n	8003b66 <movevilstar+0x1e>
 8003b8c:	f803 ec02 	strb.w	lr, [r3, #-2]
  for (uint8 i = 0; i < EVILSTAR_MAX; i++) {
 8003b90:	3304      	adds	r3, #4
 8003b92:	4298      	cmp	r0, r3
 8003b94:	f102 0204 	add.w	r2, r2, #4
 8003b98:	d1ea      	bne.n	8003b70 <movevilstar+0x28>
}
 8003b9a:	bd10      	pop	{r4, pc}
 8003b9c:	20000a50 	.word	0x20000a50
 8003ba0:	20000ae0 	.word	0x20000ae0

08003ba4 <movbomb>:
void movbomb(void) {
 8003ba4:	b570      	push	{r4, r5, r6, lr}
 8003ba6:	4c0f      	ldr	r4, [pc, #60]	@ (8003be4 <movbomb+0x40>)
        Bomb[i].state = 2;
 8003ba8:	2602      	movs	r6, #2
 8003baa:	f104 0550 	add.w	r5, r4, #80	@ 0x50
 8003bae:	e002      	b.n	8003bb6 <movbomb+0x12>
  for(int i = 0; i < BOMB_MAX; i++) {
 8003bb0:	3408      	adds	r4, #8
 8003bb2:	42ac      	cmp	r4, r5
 8003bb4:	d015      	beq.n	8003be2 <movbomb+0x3e>
    if (Bomb[i].state == 1){
 8003bb6:	7823      	ldrb	r3, [r4, #0]
 8003bb8:	2b01      	cmp	r3, #1
 8003bba:	d1f9      	bne.n	8003bb0 <movbomb+0xc>
      Bomb[i].cl += BOMB_MOVE_SPEED;
 8003bbc:	78a2      	ldrb	r2, [r4, #2]
 8003bbe:	1dd3      	adds	r3, r2, #7
 8003bc0:	b25b      	sxtb	r3, r3
      if (Bomb[i].cl > 105) {
 8003bc2:	2b69      	cmp	r3, #105	@ 0x69
      Bomb[i].cl += BOMB_MOVE_SPEED;
 8003bc4:	70a3      	strb	r3, [r4, #2]
      if (Bomb[i].cl > 105) {
 8003bc6:	ddf3      	ble.n	8003bb0 <movbomb+0xc>
        Bomb[i].ln -= 16;
 8003bc8:	7863      	ldrb	r3, [r4, #1]
        Bomb[i].cl -= 16;
 8003bca:	3a09      	subs	r2, #9
        Bomb[i].ln -= 16;
 8003bcc:	3b10      	subs	r3, #16
        Bomb[i].state = 2;
 8003bce:	7026      	strb	r6, [r4, #0]
        Bomb[i].cl -= 16;
 8003bd0:	70a2      	strb	r2, [r4, #2]
        Bomb[i].ln -= 16;
 8003bd2:	7063      	strb	r3, [r4, #1]
        Sounds(1200);
 8003bd4:	f44f 6096 	mov.w	r0, #1200	@ 0x4b0
  for(int i = 0; i < BOMB_MAX; i++) {
 8003bd8:	3408      	adds	r4, #8
        Sounds(1200);
 8003bda:	f7fd f947 	bl	8000e6c <Sounds>
  for(int i = 0; i < BOMB_MAX; i++) {
 8003bde:	42ac      	cmp	r4, r5
 8003be0:	d1e9      	bne.n	8003bb6 <movbomb+0x12>
}
 8003be2:	bd70      	pop	{r4, r5, r6, pc}
 8003be4:	20000b1c 	.word	0x20000b1c

08003be8 <movcoin>:
      if (Coin[i].cl < -9) Coin[i].state = 0;
 8003be8:	f04f 0c00 	mov.w	ip, #0
 8003bec:	4b0a      	ldr	r3, [pc, #40]	@ (8003c18 <movcoin+0x30>)
 8003bee:	1c9a      	adds	r2, r3, #2
 8003bf0:	f103 003c 	add.w	r0, r3, #60	@ 0x3c
    if (Coin[i].state == 1) {
 8003bf4:	f812 1c02 	ldrb.w	r1, [r2, #-2]
 8003bf8:	2901      	cmp	r1, #1
 8003bfa:	d107      	bne.n	8003c0c <movcoin+0x24>
      Coin[i].cl -= 1;
 8003bfc:	7899      	ldrb	r1, [r3, #2]
 8003bfe:	3901      	subs	r1, #1
 8003c00:	b249      	sxtb	r1, r1
 8003c02:	7099      	strb	r1, [r3, #2]
      if (Coin[i].cl < -9) Coin[i].state = 0;
 8003c04:	3109      	adds	r1, #9
 8003c06:	bfb8      	it	lt
 8003c08:	f802 cc02 	strblt.w	ip, [r2, #-2]
  for (uint8 i = 0; i < COIN_MAX; i++) {
 8003c0c:	3304      	adds	r3, #4
 8003c0e:	4283      	cmp	r3, r0
 8003c10:	f102 0204 	add.w	r2, r2, #4
 8003c14:	d1ee      	bne.n	8003bf4 <movcoin+0xc>
}
 8003c16:	4770      	bx	lr
 8003c18:	20000aa4 	.word	0x20000aa4

08003c1c <move_enemy_objects>:
void move_enemy_objects(void) {
 8003c1c:	b508      	push	{r3, lr}
  movevilstar();
 8003c1e:	f7ff ff93 	bl	8003b48 <movevilstar>
}
 8003c22:	e8bd 4008 	ldmia.w	sp!, {r3, lr}
  movcoin();
 8003c26:	f7ff bfdf 	b.w	8003be8 <movcoin>
 8003c2a:	bf00      	nop

08003c2c <bullet_evilstar_collision>:
void bullet_evilstar_collision(void) {
 8003c2c:	e92d 47f0 	stmdb	sp!, {r4, r5, r6, r7, r8, r9, sl, lr}
        EvilStar[i].state = 2;
 8003c30:	f04f 0802 	mov.w	r8, #2
        Bullet[j].state = 0;
 8003c34:	2700      	movs	r7, #0
 8003c36:	4d19      	ldr	r5, [pc, #100]	@ (8003c9c <bullet_evilstar_collision+0x70>)
 8003c38:	4e19      	ldr	r6, [pc, #100]	@ (8003ca0 <bullet_evilstar_collision+0x74>)
        StarsKilled++;
 8003c3a:	f8df a068 	ldr.w	sl, [pc, #104]	@ 8003ca4 <bullet_evilstar_collision+0x78>
 8003c3e:	f105 094b 	add.w	r9, r5, #75	@ 0x4b
    for (uint8 i = 0; i < EVILSTAR_MAX; i++) {
 8003c42:	4c19      	ldr	r4, [pc, #100]	@ (8003ca8 <bullet_evilstar_collision+0x7c>)
      if ((EvilStar[i].cl <= Bullet[j].cl) && (EvilStar[i].ln < (Bullet[j].ln + 6)) &&
 8003c44:	f994 2002 	ldrsb.w	r2, [r4, #2]
 8003c48:	f995 3002 	ldrsb.w	r3, [r5, #2]
 8003c4c:	429a      	cmp	r2, r3
 8003c4e:	dc0d      	bgt.n	8003c6c <bullet_evilstar_collision+0x40>
 8003c50:	f995 2001 	ldrsb.w	r2, [r5, #1]
 8003c54:	f994 3001 	ldrsb.w	r3, [r4, #1]
 8003c58:	1d51      	adds	r1, r2, #5
 8003c5a:	4299      	cmp	r1, r3
              ((EvilStar[i].ln + 10) > Bullet[j].ln) && EvilStar[i].state == 1 &&
 8003c5c:	f103 0009 	add.w	r0, r3, #9
      if ((EvilStar[i].cl <= Bullet[j].cl) && (EvilStar[i].ln < (Bullet[j].ln + 6)) &&
 8003c60:	db04      	blt.n	8003c6c <bullet_evilstar_collision+0x40>
 8003c62:	4282      	cmp	r2, r0
 8003c64:	dc02      	bgt.n	8003c6c <bullet_evilstar_collision+0x40>
              ((EvilStar[i].ln + 10) > Bullet[j].ln) && EvilStar[i].state == 1 &&
 8003c66:	7823      	ldrb	r3, [r4, #0]
 8003c68:	2b01      	cmp	r3, #1
 8003c6a:	d007      	beq.n	8003c7c <bullet_evilstar_collision+0x50>
    for (uint8 i = 0; i < EVILSTAR_MAX; i++) {
 8003c6c:	3404      	adds	r4, #4
 8003c6e:	42b4      	cmp	r4, r6
 8003c70:	d1e8      	bne.n	8003c44 <bullet_evilstar_collision+0x18>
  for (uint8 j = 0; j < BULLET_MAX; j++) {
 8003c72:	3503      	adds	r5, #3
 8003c74:	454d      	cmp	r5, r9
 8003c76:	d1e4      	bne.n	8003c42 <bullet_evilstar_collision+0x16>
}
 8003c78:	e8bd 87f0 	ldmia.w	sp!, {r4, r5, r6, r7, r8, r9, sl, pc}
              ((EvilStar[i].ln + 10) > Bullet[j].ln) && EvilStar[i].state == 1 &&
 8003c7c:	782b      	ldrb	r3, [r5, #0]
 8003c7e:	2b00      	cmp	r3, #0
 8003c80:	d0f4      	beq.n	8003c6c <bullet_evilstar_collision+0x40>
        StarsKilled++;
 8003c82:	f8da 3000 	ldr.w	r3, [sl]
        Sounds(500);
 8003c86:	f44f 70fa 	mov.w	r0, #500	@ 0x1f4
        StarsKilled++;
 8003c8a:	3301      	adds	r3, #1
        EvilStar[i].state = 2;
 8003c8c:	f884 8000 	strb.w	r8, [r4]
        Bullet[j].state = 0;
 8003c90:	702f      	strb	r7, [r5, #0]
        StarsKilled++;
 8003c92:	f8ca 3000 	str.w	r3, [sl]
        Sounds(500);
 8003c96:	f7fd f8e9 	bl	8000e6c <Sounds>
 8003c9a:	e7e7      	b.n	8003c6c <bullet_evilstar_collision+0x40>
 8003c9c:	20000b6c 	.word	0x20000b6c
 8003ca0:	20000b1c 	.word	0x20000b1c
 8003ca4:	20000a54 	.word	0x20000a54
 8003ca8:	20000ae0 	.word	0x20000ae0

08003cac <bomb_evilstar_collision>:
void bomb_evilstar_collision(void) {
 8003cac:	b5f8      	push	{r3, r4, r5, r6, r7, lr}
 8003cae:	4d34      	ldr	r5, [pc, #208]	@ (8003d80 <bomb_evilstar_collision+0xd4>)
 8003cb0:	f105 0650 	add.w	r6, r5, #80	@ 0x50
 8003cb4:	e002      	b.n	8003cbc <bomb_evilstar_collision+0x10>
  for(int j = 0; j < BOMB_MAX; j++) {
 8003cb6:	3508      	adds	r5, #8
 8003cb8:	42b5      	cmp	r5, r6
 8003cba:	d054      	beq.n	8003d66 <bomb_evilstar_collision+0xba>
    if(Bomb[j].state == 1){
 8003cbc:	782b      	ldrb	r3, [r5, #0]
 8003cbe:	2b01      	cmp	r3, #1
 8003cc0:	d02e      	beq.n	8003d20 <bomb_evilstar_collision+0x74>
    if(Bomb[j].state > 1){
 8003cc2:	2b01      	cmp	r3, #1
 8003cc4:	d9f7      	bls.n	8003cb6 <bomb_evilstar_collision+0xa>
 8003cc6:	4c2f      	ldr	r4, [pc, #188]	@ (8003d84 <bomb_evilstar_collision+0xd8>)
 8003cc8:	f104 073c 	add.w	r7, r4, #60	@ 0x3c
 8003ccc:	e002      	b.n	8003cd4 <bomb_evilstar_collision+0x28>
      for (uint8 i = 0; i < EVILSTAR_MAX; i++) {
 8003cce:	3404      	adds	r4, #4
 8003cd0:	42a7      	cmp	r7, r4
 8003cd2:	d0f0      	beq.n	8003cb6 <bomb_evilstar_collision+0xa>
        if (((EvilStar[i].cl + 30) >= Bomb[j].cl) && (EvilStar[i].cl <= (Bomb[j].cl + 50)) && (EvilStar[i].ln <= (Bomb[j].ln + 39)) &&
 8003cd4:	f994 2002 	ldrsb.w	r2, [r4, #2]
 8003cd8:	f995 3002 	ldrsb.w	r3, [r5, #2]
 8003cdc:	f102 011e 	add.w	r1, r2, #30
 8003ce0:	4299      	cmp	r1, r3
 8003ce2:	f103 0032 	add.w	r0, r3, #50	@ 0x32
 8003ce6:	dbf2      	blt.n	8003cce <bomb_evilstar_collision+0x22>
 8003ce8:	4282      	cmp	r2, r0
 8003cea:	dcf0      	bgt.n	8003cce <bomb_evilstar_collision+0x22>
 8003cec:	f995 2001 	ldrsb.w	r2, [r5, #1]
 8003cf0:	f994 3001 	ldrsb.w	r3, [r4, #1]
 8003cf4:	f102 0127 	add.w	r1, r2, #39	@ 0x27
 8003cf8:	428b      	cmp	r3, r1
                ((EvilStar[i].ln + 16) > Bomb[j].ln) && EvilStar[i].state == 1) {
 8003cfa:	f103 000f 	add.w	r0, r3, #15
        if (((EvilStar[i].cl + 30) >= Bomb[j].cl) && (EvilStar[i].cl <= (Bomb[j].cl + 50)) && (EvilStar[i].ln <= (Bomb[j].ln + 39)) &&
 8003cfe:	dce6      	bgt.n	8003cce <bomb_evilstar_collision+0x22>
 8003d00:	4282      	cmp	r2, r0
 8003d02:	dce4      	bgt.n	8003cce <bomb_evilstar_collision+0x22>
                ((EvilStar[i].ln + 16) > Bomb[j].ln) && EvilStar[i].state == 1) {
 8003d04:	7823      	ldrb	r3, [r4, #0]
 8003d06:	2b01      	cmp	r3, #1
 8003d08:	d1e1      	bne.n	8003cce <bomb_evilstar_collision+0x22>
          EvilStar[i].state = 2;
 8003d0a:	2102      	movs	r1, #2
          StarsKilled++;
 8003d0c:	4a1e      	ldr	r2, [pc, #120]	@ (8003d88 <bomb_evilstar_collision+0xdc>)
          Sounds(500);
 8003d0e:	f44f 70fa 	mov.w	r0, #500	@ 0x1f4
          StarsKilled++;
 8003d12:	6813      	ldr	r3, [r2, #0]
          EvilStar[i].state = 2;
 8003d14:	7021      	strb	r1, [r4, #0]
          StarsKilled++;
 8003d16:	3301      	adds	r3, #1
 8003d18:	6013      	str	r3, [r2, #0]
          Sounds(500);
 8003d1a:	f7fd f8a7 	bl	8000e6c <Sounds>
 8003d1e:	e7d6      	b.n	8003cce <bomb_evilstar_collision+0x22>
 8003d20:	4c18      	ldr	r4, [pc, #96]	@ (8003d84 <bomb_evilstar_collision+0xd8>)
 8003d22:	f104 073c 	add.w	r7, r4, #60	@ 0x3c
        if(((EvilStar[i].cl + 28) >= Bomb[j].cl) && (EvilStar[i].cl <= (Bomb[j].cl + 8)) && (EvilStar[i].ln <= (Bomb[j].ln + 8)) &&
 8003d26:	f994 2002 	ldrsb.w	r2, [r4, #2]
 8003d2a:	f995 3002 	ldrsb.w	r3, [r5, #2]
 8003d2e:	f102 011c 	add.w	r1, r2, #28
 8003d32:	4299      	cmp	r1, r3
 8003d34:	f103 0008 	add.w	r0, r3, #8
 8003d38:	db10      	blt.n	8003d5c <bomb_evilstar_collision+0xb0>
 8003d3a:	4282      	cmp	r2, r0
 8003d3c:	dc0e      	bgt.n	8003d5c <bomb_evilstar_collision+0xb0>
 8003d3e:	f995 1001 	ldrsb.w	r1, [r5, #1]
 8003d42:	f994 2001 	ldrsb.w	r2, [r4, #1]
 8003d46:	f101 0008 	add.w	r0, r1, #8
 8003d4a:	4282      	cmp	r2, r0
              ((EvilStar[i].ln + 16) > Bomb[j].ln) && EvilStar[i].state == 1){
 8003d4c:	f102 0c0f 	add.w	ip, r2, #15
        if(((EvilStar[i].cl + 28) >= Bomb[j].cl) && (EvilStar[i].cl <= (Bomb[j].cl + 8)) && (EvilStar[i].ln <= (Bomb[j].ln + 8)) &&
 8003d50:	dc04      	bgt.n	8003d5c <bomb_evilstar_collision+0xb0>
 8003d52:	4561      	cmp	r1, ip
 8003d54:	dc02      	bgt.n	8003d5c <bomb_evilstar_collision+0xb0>
              ((EvilStar[i].ln + 16) > Bomb[j].ln) && EvilStar[i].state == 1){
 8003d56:	7822      	ldrb	r2, [r4, #0]
 8003d58:	2a01      	cmp	r2, #1
 8003d5a:	d005      	beq.n	8003d68 <bomb_evilstar_collision+0xbc>
      for (uint8 i = 0; i < EVILSTAR_MAX; i++) {
 8003d5c:	3404      	adds	r4, #4
 8003d5e:	42bc      	cmp	r4, r7
 8003d60:	d1e1      	bne.n	8003d26 <bomb_evilstar_collision+0x7a>
    if(Bomb[j].state > 1){
 8003d62:	782b      	ldrb	r3, [r5, #0]
 8003d64:	e7ad      	b.n	8003cc2 <bomb_evilstar_collision+0x16>
}
 8003d66:	bdf8      	pop	{r3, r4, r5, r6, r7, pc}
          Bomb[j].state = 2;
 8003d68:	2202      	movs	r2, #2
          Bomb[j].cl -= 16;
 8003d6a:	3b10      	subs	r3, #16
          Bomb[j].ln -= 16;
 8003d6c:	3910      	subs	r1, #16
          Sounds(1200);
 8003d6e:	f44f 6096 	mov.w	r0, #1200	@ 0x4b0
          Bomb[j].cl -= 16;
 8003d72:	70ab      	strb	r3, [r5, #2]
          Bomb[j].ln -= 16;
 8003d74:	7069      	strb	r1, [r5, #1]
          Bomb[j].state = 2;
 8003d76:	702a      	strb	r2, [r5, #0]
          Sounds(1200);
 8003d78:	f7fd f878 	bl	8000e6c <Sounds>
 8003d7c:	e7ee      	b.n	8003d5c <bomb_evilstar_collision+0xb0>
 8003d7e:	bf00      	nop
 8003d80:	20000b1c 	.word	0x20000b1c
 8003d84:	20000ae0 	.word	0x20000ae0
 8003d88:	20000a54 	.word	0x20000a54

08003d8c <gamer_evilstar_collision>:
void gamer_evilstar_collision(void) {
 8003d8c:	b570      	push	{r4, r5, r6, lr}
 8003d8e:	4c20      	ldr	r4, [pc, #128]	@ (8003e10 <gamer_evilstar_collision+0x84>)
 8003d90:	4d20      	ldr	r5, [pc, #128]	@ (8003e14 <gamer_evilstar_collision+0x88>)
 8003d92:	f104 063c 	add.w	r6, r4, #60	@ 0x3c
    if ((EvilStar[i].cl <= (Gamer.cl + 29)) && ((EvilStar[i].cl + 25) >= Gamer.cl) &&
 8003d96:	f995 2007 	ldrsb.w	r2, [r5, #7]
 8003d9a:	f994 3002 	ldrsb.w	r3, [r4, #2]
 8003d9e:	f102 011d 	add.w	r1, r2, #29
 8003da2:	428b      	cmp	r3, r1
 8003da4:	dc10      	bgt.n	8003dc8 <gamer_evilstar_collision+0x3c>
 8003da6:	3319      	adds	r3, #25
 8003da8:	429a      	cmp	r2, r3
 8003daa:	dc0d      	bgt.n	8003dc8 <gamer_evilstar_collision+0x3c>
            ((EvilStar[i].ln + 15) > Gamer.ln) && (EvilStar[i].ln < (Gamer.ln + 15)) &&
 8003dac:	f994 2001 	ldrsb.w	r2, [r4, #1]
 8003db0:	f995 3006 	ldrsb.w	r3, [r5, #6]
 8003db4:	f102 010e 	add.w	r1, r2, #14
    if ((EvilStar[i].cl <= (Gamer.cl + 29)) && ((EvilStar[i].cl + 25) >= Gamer.cl) &&
 8003db8:	4299      	cmp	r1, r3
 8003dba:	db05      	blt.n	8003dc8 <gamer_evilstar_collision+0x3c>
            ((EvilStar[i].ln + 15) > Gamer.ln) && (EvilStar[i].ln < (Gamer.ln + 15)) &&
 8003dbc:	330e      	adds	r3, #14
 8003dbe:	429a      	cmp	r2, r3
 8003dc0:	dc02      	bgt.n	8003dc8 <gamer_evilstar_collision+0x3c>
 8003dc2:	7823      	ldrb	r3, [r4, #0]
 8003dc4:	2b01      	cmp	r3, #1
 8003dc6:	d003      	beq.n	8003dd0 <gamer_evilstar_collision+0x44>
  for (uint8 i = 0; i < EVILSTAR_MAX; i++) {
 8003dc8:	3404      	adds	r4, #4
 8003dca:	42b4      	cmp	r4, r6
 8003dcc:	d1e3      	bne.n	8003d96 <gamer_evilstar_collision+0xa>
}
 8003dce:	bd70      	pop	{r4, r5, r6, pc}
            (EvilStar[i].state == 1) && (Gamer.health > 0)) {
 8003dd0:	f995 3000 	ldrsb.w	r3, [r5]
 8003dd4:	2b00      	cmp	r3, #0
 8003dd6:	ddf7      	ble.n	8003dc8 <gamer_evilstar_collision+0x3c>
      EvilStar[i].state = 2;
 8003dd8:	f04f 0c02 	mov.w	ip, #2
      StarsKilled++;
 8003ddc:	480e      	ldr	r0, [pc, #56]	@ (8003e18 <gamer_evilstar_collision+0x8c>)
      if(Gamer.gasmask_health > 0){
 8003dde:	f995 1003 	ldrsb.w	r1, [r5, #3]
      StarsKilled++;
 8003de2:	6802      	ldr	r2, [r0, #0]
      if(Gamer.gasmask_health > 0){
 8003de4:	2900      	cmp	r1, #0
      StarsKilled++;
 8003de6:	f102 0201 	add.w	r2, r2, #1
        Gamer.health -= 2;
 8003dea:	b2db      	uxtb	r3, r3
      StarsKilled++;
 8003dec:	6002      	str	r2, [r0, #0]
      EvilStar[i].state = 2;
 8003dee:	f884 c000 	strb.w	ip, [r4]
      if(Gamer.gasmask_health > 0){
 8003df2:	dd09      	ble.n	8003e08 <gamer_evilstar_collision+0x7c>
        Gamer.health -= 2;
 8003df4:	3b02      	subs	r3, #2
        Gamer.gasmask_health -= 2;
 8003df6:	3902      	subs	r1, #2
        Gamer.health -= 2;
 8003df8:	b25b      	sxtb	r3, r3
        Gamer.gasmask_health -= 2;
 8003dfa:	70e9      	strb	r1, [r5, #3]
      Sounds(600);
 8003dfc:	f44f 7016 	mov.w	r0, #600	@ 0x258
 8003e00:	702b      	strb	r3, [r5, #0]
 8003e02:	f7fd f833 	bl	8000e6c <Sounds>
 8003e06:	e7df      	b.n	8003dc8 <gamer_evilstar_collision+0x3c>
        Gamer.health -= 4;
 8003e08:	3b04      	subs	r3, #4
 8003e0a:	b25b      	sxtb	r3, r3
 8003e0c:	e7f6      	b.n	8003dfc <gamer_evilstar_collision+0x70>
 8003e0e:	bf00      	nop
 8003e10:	20000ae0 	.word	0x20000ae0
 8003e14:	20000bb8 	.word	0x20000bb8
 8003e18:	20000a54 	.word	0x20000a54

08003e1c <gamer_coin_collision>:
void gamer_coin_collision(void) {
 8003e1c:	b570      	push	{r4, r5, r6, lr}
 8003e1e:	4c1a      	ldr	r4, [pc, #104]	@ (8003e88 <gamer_coin_collision+0x6c>)
 8003e20:	4d1a      	ldr	r5, [pc, #104]	@ (8003e8c <gamer_coin_collision+0x70>)
 8003e22:	f104 063c 	add.w	r6, r4, #60	@ 0x3c
    if ((Coin[i].cl <= (Gamer.cl + 29)) && ((Coin[i].cl + 8) >= Gamer.cl) &&
 8003e26:	f995 2007 	ldrsb.w	r2, [r5, #7]
 8003e2a:	f994 3002 	ldrsb.w	r3, [r4, #2]
 8003e2e:	f102 011d 	add.w	r1, r2, #29
 8003e32:	428b      	cmp	r3, r1
 8003e34:	f103 0008 	add.w	r0, r3, #8
 8003e38:	dc0f      	bgt.n	8003e5a <gamer_coin_collision+0x3e>
 8003e3a:	4282      	cmp	r2, r0
 8003e3c:	dc0d      	bgt.n	8003e5a <gamer_coin_collision+0x3e>
            ((Coin[i].ln + 8) > Gamer.ln) && (Coin[i].ln < (Gamer.ln + 15)) &&
 8003e3e:	f994 2001 	ldrsb.w	r2, [r4, #1]
 8003e42:	f995 3006 	ldrsb.w	r3, [r5, #6]
 8003e46:	1dd1      	adds	r1, r2, #7
    if ((Coin[i].cl <= (Gamer.cl + 29)) && ((Coin[i].cl + 8) >= Gamer.cl) &&
 8003e48:	4299      	cmp	r1, r3
            ((Coin[i].ln + 8) > Gamer.ln) && (Coin[i].ln < (Gamer.ln + 15)) &&
 8003e4a:	f103 000e 	add.w	r0, r3, #14
    if ((Coin[i].cl <= (Gamer.cl + 29)) && ((Coin[i].cl + 8) >= Gamer.cl) &&
 8003e4e:	db04      	blt.n	8003e5a <gamer_coin_collision+0x3e>
            ((Coin[i].ln + 8) > Gamer.ln) && (Coin[i].ln < (Gamer.ln + 15)) &&
 8003e50:	4282      	cmp	r2, r0
 8003e52:	dc02      	bgt.n	8003e5a <gamer_coin_collision+0x3e>
 8003e54:	7823      	ldrb	r3, [r4, #0]
 8003e56:	2b01      	cmp	r3, #1
 8003e58:	d003      	beq.n	8003e62 <gamer_coin_collision+0x46>
  for (uint8 i = 0; i < COIN_MAX; i++) {
 8003e5a:	3404      	adds	r4, #4
 8003e5c:	42b4      	cmp	r4, r6
 8003e5e:	d1e2      	bne.n	8003e26 <gamer_coin_collision+0xa>
}
 8003e60:	bd70      	pop	{r4, r5, r6, pc}
            (Coin[i].state == 1) && (Gamer.health > 0)) {
 8003e62:	f995 3000 	ldrsb.w	r3, [r5]
      CoinReceived++;
 8003e66:	4a0a      	ldr	r2, [pc, #40]	@ (8003e90 <gamer_coin_collision+0x74>)
            (Coin[i].state == 1) && (Gamer.health > 0)) {
 8003e68:	2b00      	cmp	r3, #0
 8003e6a:	ddf6      	ble.n	8003e5a <gamer_coin_collision+0x3e>
      Coin[i].state = 0;
 8003e6c:	2100      	movs	r1, #0
      Gamer.money += 1;
 8003e6e:	796b      	ldrb	r3, [r5, #5]
      Sounds(300);
 8003e70:	f44f 7096 	mov.w	r0, #300	@ 0x12c
      Gamer.money += 1;
 8003e74:	3301      	adds	r3, #1
 8003e76:	716b      	strb	r3, [r5, #5]
      CoinReceived++;
 8003e78:	6813      	ldr	r3, [r2, #0]
      Coin[i].state = 0;
 8003e7a:	7021      	strb	r1, [r4, #0]
      CoinReceived++;
 8003e7c:	3301      	adds	r3, #1
 8003e7e:	6013      	str	r3, [r2, #0]
      Sounds(300);
 8003e80:	f7fc fff4 	bl	8000e6c <Sounds>
 8003e84:	e7e9      	b.n	8003e5a <gamer_coin_collision+0x3e>
 8003e86:	bf00      	nop
 8003e88:	20000aa4 	.word	0x20000aa4
 8003e8c:	20000bb8 	.word	0x20000bb8
 8003e90:	20000a58 	.word	0x20000a58

08003e94 <gamer_minmagaz_collision>:
  if(MinMagaz.state){
 8003e94:	4b11      	ldr	r3, [pc, #68]	@ (8003edc <gamer_minmagaz_collision+0x48>)
 8003e96:	781a      	ldrb	r2, [r3, #0]
 8003e98:	b1fa      	cbz	r2, 8003eda <gamer_minmagaz_collision+0x46>
    if ((MinMagaz.cl <= (Gamer.cl + 29)) && ((MinMagaz.cl + 30) >= Gamer.cl) &&
 8003e9a:	4811      	ldr	r0, [pc, #68]	@ (8003ee0 <gamer_minmagaz_collision+0x4c>)
 8003e9c:	f993 2002 	ldrsb.w	r2, [r3, #2]
 8003ea0:	f990 1007 	ldrsb.w	r1, [r0, #7]
 8003ea4:	f101 0c1d 	add.w	ip, r1, #29
 8003ea8:	4562      	cmp	r2, ip
 8003eaa:	dc16      	bgt.n	8003eda <gamer_minmagaz_collision+0x46>
 8003eac:	321e      	adds	r2, #30
 8003eae:	4291      	cmp	r1, r2
 8003eb0:	dc13      	bgt.n	8003eda <gamer_minmagaz_collision+0x46>
            ((MinMagaz.ln + 28) > Gamer.ln) && (MinMagaz.ln < (Gamer.ln + 15)) &&
 8003eb2:	f993 1001 	ldrsb.w	r1, [r3, #1]
 8003eb6:	f990 2006 	ldrsb.w	r2, [r0, #6]
 8003eba:	f101 0c1b 	add.w	ip, r1, #27
    if ((MinMagaz.cl <= (Gamer.cl + 29)) && ((MinMagaz.cl + 30) >= Gamer.cl) &&
 8003ebe:	4594      	cmp	ip, r2
 8003ec0:	db0b      	blt.n	8003eda <gamer_minmagaz_collision+0x46>
            ((MinMagaz.ln + 28) > Gamer.ln) && (MinMagaz.ln < (Gamer.ln + 15)) &&
 8003ec2:	320e      	adds	r2, #14
 8003ec4:	4291      	cmp	r1, r2
 8003ec6:	dc08      	bgt.n	8003eda <gamer_minmagaz_collision+0x46>
 8003ec8:	f990 2000 	ldrsb.w	r2, [r0]
 8003ecc:	2a00      	cmp	r2, #0
 8003ece:	dd04      	ble.n	8003eda <gamer_minmagaz_collision+0x46>
      MinMagaz.state = 0;
 8003ed0:	2000      	movs	r0, #0
      gameevent = EVENT_ENTERMAGAZ;
 8003ed2:	2107      	movs	r1, #7
 8003ed4:	4a03      	ldr	r2, [pc, #12]	@ (8003ee4 <gamer_minmagaz_collision+0x50>)
      MinMagaz.state = 0;
 8003ed6:	7018      	strb	r0, [r3, #0]
      gameevent = EVENT_ENTERMAGAZ;
 8003ed8:	7011      	strb	r1, [r2, #0]
}
 8003eda:	4770      	bx	lr
 8003edc:	20000060 	.word	0x20000060
 8003ee0:	20000bb8 	.word	0x20000bb8
 8003ee4:	20000a4c 	.word	0x20000a4c

08003ee8 <drawevilstar>:
void drawevilstar(void) {
 8003ee8:	e92d 41f0 	stmdb	sp!, {r4, r5, r6, r7, r8, lr}
 8003eec:	4c19      	ldr	r4, [pc, #100]	@ (8003f54 <drawevilstar+0x6c>)
        EvilStar[i].distr_ttl_count = 0;
 8003eee:	f04f 0800 	mov.w	r8, #0
      LCD_printsprite(EvilStar[i].ln, EvilStar[i].cl, &evilstar_sprite);
 8003ef2:	4f19      	ldr	r7, [pc, #100]	@ (8003f58 <drawevilstar+0x70>)
      LCD_printsprite(EvilStar[i].ln, EvilStar[i].cl, &distr_evilstar_sprite);
 8003ef4:	4e19      	ldr	r6, [pc, #100]	@ (8003f5c <drawevilstar+0x74>)
 8003ef6:	f104 053c 	add.w	r5, r4, #60	@ 0x3c
 8003efa:	e004      	b.n	8003f06 <drawevilstar+0x1e>
    if (EvilStar[i].state == 2) {
 8003efc:	2b02      	cmp	r3, #2
 8003efe:	d00f      	beq.n	8003f20 <drawevilstar+0x38>
  for (uint8 i = 0; i < EVILSTAR_MAX; i++) {
 8003f00:	3404      	adds	r4, #4
 8003f02:	42ac      	cmp	r4, r5
 8003f04:	d01c      	beq.n	8003f40 <drawevilstar+0x58>
    if (EvilStar[i].state == 1) {
 8003f06:	7823      	ldrb	r3, [r4, #0]
 8003f08:	2b01      	cmp	r3, #1
 8003f0a:	d1f7      	bne.n	8003efc <drawevilstar+0x14>
      LCD_printsprite(EvilStar[i].ln, EvilStar[i].cl, &evilstar_sprite);
 8003f0c:	463a      	mov	r2, r7
 8003f0e:	f994 1002 	ldrsb.w	r1, [r4, #2]
 8003f12:	f994 0001 	ldrsb.w	r0, [r4, #1]
 8003f16:	f7fd fd85 	bl	8001a24 <LCD_printsprite>
    if (EvilStar[i].state == 2) {
 8003f1a:	7823      	ldrb	r3, [r4, #0]
 8003f1c:	2b02      	cmp	r3, #2
 8003f1e:	d1ef      	bne.n	8003f00 <drawevilstar+0x18>
      LCD_printsprite(EvilStar[i].ln, EvilStar[i].cl, &distr_evilstar_sprite);
 8003f20:	4632      	mov	r2, r6
 8003f22:	f994 1002 	ldrsb.w	r1, [r4, #2]
 8003f26:	f994 0001 	ldrsb.w	r0, [r4, #1]
 8003f2a:	f7fd fd7b 	bl	8001a24 <LCD_printsprite>
      if (EvilStar[i].distr_ttl_count++ >= EVILSTAR_DEATHANIMATION_PERIOD) {
 8003f2e:	78e3      	ldrb	r3, [r4, #3]
 8003f30:	2b01      	cmp	r3, #1
 8003f32:	f103 0301 	add.w	r3, r3, #1
 8003f36:	d805      	bhi.n	8003f44 <drawevilstar+0x5c>
 8003f38:	70e3      	strb	r3, [r4, #3]
  for (uint8 i = 0; i < EVILSTAR_MAX; i++) {
 8003f3a:	3404      	adds	r4, #4
 8003f3c:	42ac      	cmp	r4, r5
 8003f3e:	d1e2      	bne.n	8003f06 <drawevilstar+0x1e>
}
 8003f40:	e8bd 81f0 	ldmia.w	sp!, {r4, r5, r6, r7, r8, pc}
        createcoin(&EvilStar[i]);
 8003f44:	4620      	mov	r0, r4
        EvilStar[i].distr_ttl_count = 0;
 8003f46:	f884 8003 	strb.w	r8, [r4, #3]
        EvilStar[i].state = 0;
 8003f4a:	f884 8000 	strb.w	r8, [r4]
        createcoin(&EvilStar[i]);
 8003f4e:	f7ff fdd7 	bl	8003b00 <createcoin>
 8003f52:	e7d5      	b.n	8003f00 <drawevilstar+0x18>
 8003f54:	20000ae0 	.word	0x20000ae0
 8003f58:	0800b7a8 	.word	0x0800b7a8
 8003f5c:	0800b764 	.word	0x0800b764

08003f60 <drawcoin>:
void drawcoin(void) {
 8003f60:	b5f8      	push	{r3, r4, r5, r6, r7, lr}
 8003f62:	4c17      	ldr	r4, [pc, #92]	@ (8003fc0 <drawcoin+0x60>)
      if (Coin[i].animation_count == 0) Coin[i].animation_count = COIN_ANIMATION_PERIOD;
 8003f64:	270a      	movs	r7, #10
      if (Coin[i].animation_count >= (COIN_ANIMATION_PERIOD / 2)) LCD_printsprite(Coin[i].ln + 1, Coin[i].cl, &coin_sprite);
 8003f66:	4e17      	ldr	r6, [pc, #92]	@ (8003fc4 <drawcoin+0x64>)
 8003f68:	f104 053c 	add.w	r5, r4, #60	@ 0x3c
 8003f6c:	e002      	b.n	8003f74 <drawcoin+0x14>
  for (uint8 i = 0; i < COIN_MAX; i++) {
 8003f6e:	3404      	adds	r4, #4
 8003f70:	42ac      	cmp	r4, r5
 8003f72:	d017      	beq.n	8003fa4 <drawcoin+0x44>
    if (Coin[i].state == 1) {
 8003f74:	7823      	ldrb	r3, [r4, #0]
 8003f76:	2b01      	cmp	r3, #1
 8003f78:	d1f9      	bne.n	8003f6e <drawcoin+0xe>
      Coin[i].animation_count--;
 8003f7a:	78e3      	ldrb	r3, [r4, #3]
 8003f7c:	3b01      	subs	r3, #1
 8003f7e:	b2db      	uxtb	r3, r3
      if (Coin[i].animation_count >= (COIN_ANIMATION_PERIOD / 2)) LCD_printsprite(Coin[i].ln + 1, Coin[i].cl, &coin_sprite);
 8003f80:	2b04      	cmp	r3, #4
      Coin[i].animation_count--;
 8003f82:	70e3      	strb	r3, [r4, #3]
      if (Coin[i].animation_count >= (COIN_ANIMATION_PERIOD / 2)) LCD_printsprite(Coin[i].ln + 1, Coin[i].cl, &coin_sprite);
 8003f84:	d80f      	bhi.n	8003fa6 <drawcoin+0x46>
      if (Coin[i].animation_count < (COIN_ANIMATION_PERIOD / 2)) LCD_printsprite(Coin[i].ln - 1, Coin[i].cl, &coin_sprite);
 8003f86:	7860      	ldrb	r0, [r4, #1]
 8003f88:	4632      	mov	r2, r6
 8003f8a:	3801      	subs	r0, #1
 8003f8c:	f994 1002 	ldrsb.w	r1, [r4, #2]
 8003f90:	b240      	sxtb	r0, r0
 8003f92:	f7fd fd47 	bl	8001a24 <LCD_printsprite>
      if (Coin[i].animation_count == 0) Coin[i].animation_count = COIN_ANIMATION_PERIOD;
 8003f96:	78e3      	ldrb	r3, [r4, #3]
 8003f98:	2b00      	cmp	r3, #0
 8003f9a:	d1e8      	bne.n	8003f6e <drawcoin+0xe>
 8003f9c:	70e7      	strb	r7, [r4, #3]
  for (uint8 i = 0; i < COIN_MAX; i++) {
 8003f9e:	3404      	adds	r4, #4
 8003fa0:	42ac      	cmp	r4, r5
 8003fa2:	d1e7      	bne.n	8003f74 <drawcoin+0x14>
}
 8003fa4:	bdf8      	pop	{r3, r4, r5, r6, r7, pc}
      if (Coin[i].animation_count >= (COIN_ANIMATION_PERIOD / 2)) LCD_printsprite(Coin[i].ln + 1, Coin[i].cl, &coin_sprite);
 8003fa6:	7860      	ldrb	r0, [r4, #1]
 8003fa8:	4632      	mov	r2, r6
 8003faa:	3001      	adds	r0, #1
 8003fac:	f994 1002 	ldrsb.w	r1, [r4, #2]
 8003fb0:	b240      	sxtb	r0, r0
 8003fb2:	f7fd fd37 	bl	8001a24 <LCD_printsprite>
      if (Coin[i].animation_count < (COIN_ANIMATION_PERIOD / 2)) LCD_printsprite(Coin[i].ln - 1, Coin[i].cl, &coin_sprite);
 8003fb6:	78e3      	ldrb	r3, [r4, #3]
 8003fb8:	2b04      	cmp	r3, #4
 8003fba:	d8d8      	bhi.n	8003f6e <drawcoin+0xe>
 8003fbc:	e7e3      	b.n	8003f86 <drawcoin+0x26>
 8003fbe:	bf00      	nop
 8003fc0:	20000aa4 	.word	0x20000aa4
 8003fc4:	0800b20c 	.word	0x0800b20c

08003fc8 <drawgamer>:
  if ((Gamer.health > 0)) {
 8003fc8:	4b09      	ldr	r3, [pc, #36]	@ (8003ff0 <drawgamer+0x28>)
 8003fca:	f993 2000 	ldrsb.w	r2, [r3]
 8003fce:	2a00      	cmp	r2, #0
 8003fd0:	dd0d      	ble.n	8003fee <drawgamer+0x26>
    if (Gamer.gasmask_health > 0) LCD_printsprite(Gamer.ln, Gamer.cl, &gamer_gas_sprite);
 8003fd2:	f993 2003 	ldrsb.w	r2, [r3, #3]
 8003fd6:	f993 0006 	ldrsb.w	r0, [r3, #6]
 8003fda:	2a00      	cmp	r2, #0
 8003fdc:	f993 1007 	ldrsb.w	r1, [r3, #7]
 8003fe0:	dd02      	ble.n	8003fe8 <drawgamer+0x20>
 8003fe2:	4a04      	ldr	r2, [pc, #16]	@ (8003ff4 <drawgamer+0x2c>)
 8003fe4:	f7fd bd1e 	b.w	8001a24 <LCD_printsprite>
    else LCD_printsprite(Gamer.ln, Gamer.cl, &gamer_sprite);
 8003fe8:	4a03      	ldr	r2, [pc, #12]	@ (8003ff8 <drawgamer+0x30>)
 8003fea:	f7fd bd1b 	b.w	8001a24 <LCD_printsprite>
}
 8003fee:	4770      	bx	lr
 8003ff0:	20000bb8 	.word	0x20000bb8
 8003ff4:	0800b89c 	.word	0x0800b89c
 8003ff8:	0800b8ec 	.word	0x0800b8ec

08003ffc <stateinit_exitmagazin>:
{
 8003ffc:	b510      	push	{r4, lr}
  if(++counter < 15) LCD_printsprite((int8)(8 + counter * 4), 64, &magazin_sprite);
 8003ffe:	4a1b      	ldr	r2, [pc, #108]	@ (800406c <stateinit_exitmagazin+0x70>)
 8004000:	7810      	ldrb	r0, [r2, #0]
 8004002:	1c43      	adds	r3, r0, #1
 8004004:	b2db      	uxtb	r3, r3
 8004006:	2b0e      	cmp	r3, #14
 8004008:	7013      	strb	r3, [r2, #0]
 800400a:	d80d      	bhi.n	8004028 <stateinit_exitmagazin+0x2c>
 800400c:	3003      	adds	r0, #3
 800400e:	0080      	lsls	r0, r0, #2
 8004010:	b240      	sxtb	r0, r0
 8004012:	2140      	movs	r1, #64	@ 0x40
 8004014:	4a16      	ldr	r2, [pc, #88]	@ (8004070 <stateinit_exitmagazin+0x74>)
 8004016:	f7fd fd05 	bl	8001a24 <LCD_printsprite>
  drawgamer();
 800401a:	f7ff ffd5 	bl	8003fc8 <drawgamer>
}
 800401e:	e8bd 4010 	ldmia.w	sp!, {r4, lr}
  LCD_printgamestatbar(&Gamer);
 8004022:	4814      	ldr	r0, [pc, #80]	@ (8004074 <stateinit_exitmagazin+0x78>)
 8004024:	f7fd beb0 	b.w	8001d88 <LCD_printgamestatbar>
    counter = 0;
 8004028:	2300      	movs	r3, #0
    gamestate = STATE_RUNGAME;
 800402a:	f04f 0c07 	mov.w	ip, #7
    gameevent = EVENT_NONE;
 800402e:	4912      	ldr	r1, [pc, #72]	@ (8004078 <stateinit_exitmagazin+0x7c>)
    gamestate = STATE_RUNGAME;
 8004030:	4c12      	ldr	r4, [pc, #72]	@ (800407c <stateinit_exitmagazin+0x80>)
  SchedResumeEvent(createevilstar);
 8004032:	4813      	ldr	r0, [pc, #76]	@ (8004080 <stateinit_exitmagazin+0x84>)
    gamestate = STATE_RUNGAME;
 8004034:	f884 c000 	strb.w	ip, [r4]
    counter = 0;
 8004038:	7013      	strb	r3, [r2, #0]
    gameevent = EVENT_NONE;
 800403a:	700b      	strb	r3, [r1, #0]
  SchedResumeEvent(createevilstar);
 800403c:	f7ff f81a 	bl	8003074 <SchedResumeEvent>
  SchedResumeEvent(createbullet);
 8004040:	4810      	ldr	r0, [pc, #64]	@ (8004084 <stateinit_exitmagazin+0x88>)
 8004042:	f7ff f817 	bl	8003074 <SchedResumeEvent>
  SchedResumeEvent(createbomb);
 8004046:	4810      	ldr	r0, [pc, #64]	@ (8004088 <stateinit_exitmagazin+0x8c>)
 8004048:	f7ff f814 	bl	8003074 <SchedResumeEvent>
  SchedResumeEvent(movbullet);
 800404c:	480f      	ldr	r0, [pc, #60]	@ (800408c <stateinit_exitmagazin+0x90>)
 800404e:	f7ff f811 	bl	8003074 <SchedResumeEvent>
  SchedResumeEvent(move_enemy_objects);
 8004052:	480f      	ldr	r0, [pc, #60]	@ (8004090 <stateinit_exitmagazin+0x94>)
 8004054:	f7ff f80e 	bl	8003074 <SchedResumeEvent>
  SchedResumeEvent(gameprogress);
 8004058:	480e      	ldr	r0, [pc, #56]	@ (8004094 <stateinit_exitmagazin+0x98>)
 800405a:	f7ff f80b 	bl	8003074 <SchedResumeEvent>
  drawgamer();
 800405e:	f7ff ffb3 	bl	8003fc8 <drawgamer>
}
 8004062:	e8bd 4010 	ldmia.w	sp!, {r4, lr}
  LCD_printgamestatbar(&Gamer);
 8004066:	4803      	ldr	r0, [pc, #12]	@ (8004074 <stateinit_exitmagazin+0x78>)
 8004068:	f7fd be8e 	b.w	8001d88 <LCD_printgamestatbar>
 800406c:	20000a40 	.word	0x20000a40
 8004070:	0800b598 	.word	0x0800b598
 8004074:	20000bb8 	.word	0x20000bb8
 8004078:	20000a4c 	.word	0x20000a4c
 800407c:	20000a4e 	.word	0x20000a4e
 8004080:	08003591 	.word	0x08003591
 8004084:	08003789 	.word	0x08003789
 8004088:	08003805 	.word	0x08003805
 800408c:	0800344d 	.word	0x0800344d
 8004090:	08003c1d 	.word	0x08003c1d
 8004094:	0800386d 	.word	0x0800386d

08004098 <drawbomb>:
void drawbomb(uint16 period) {
 8004098:	e92d 4ff8 	stmdb	sp!, {r3, r4, r5, r6, r7, r8, r9, sl, fp, lr}
      if (Bomb[i].animation_count >= (3 * period / 4)) LCD_printsprite(Bomb[i].ln, Bomb[i].cl, &bomb_sprite[0]);
 800409c:	eb00 0540 	add.w	r5, r0, r0, lsl #1
 80040a0:	08ad      	lsrs	r5, r5, #2
      if(Bomb[i].animation_count > (period / 2)){
 80040a2:	46aa      	mov	sl, r5
  for(int i = 0; i < BOMB_MAX; i++) {
 80040a4:	f04f 0b00 	mov.w	fp, #0
      if(Bomb[i].animation_count > (period / 2)){
 80040a8:	4605      	mov	r5, r0
 80040aa:	4c43      	ldr	r4, [pc, #268]	@ (80041b8 <drawbomb+0x120>)
          LCD_printsprite(Bomb[i].ln, Bomb[i].cl, &bombshards_sprite[1]);
 80040ac:	f8df 910c 	ldr.w	r9, [pc, #268]	@ 80041bc <drawbomb+0x124>
         (Bomb[i].animation_count >= (2 * period / 4))) LCD_printsprite(Bomb[i].ln, Bomb[i].cl, &bomb_sprite[1]);
 80040b0:	f3c0 075d 	ubfx	r7, r0, #1, #30
         (Bomb[i].animation_count >= (period / 4))) LCD_printsprite(Bomb[i].ln, Bomb[i].cl, &bomb_sprite[2]);
 80040b4:	ea4f 0890 	mov.w	r8, r0, lsr #2
      if(Bomb[i].animation_count > (period / 2)){
 80040b8:	0846      	lsrs	r6, r0, #1
 80040ba:	e01a      	b.n	80040f2 <drawbomb+0x5a>
    if(Bomb[i].state > 1){
 80040bc:	2b01      	cmp	r3, #1
 80040be:	d911      	bls.n	80040e4 <drawbomb+0x4c>
      switch(Bomb[i].state){
 80040c0:	2b03      	cmp	r3, #3
 80040c2:	d054      	beq.n	800416e <drawbomb+0xd6>
 80040c4:	2b04      	cmp	r3, #4
 80040c6:	d040      	beq.n	800414a <drawbomb+0xb2>
 80040c8:	2b02      	cmp	r3, #2
 80040ca:	d058      	beq.n	800417e <drawbomb+0xe6>
      if(Bomb[i].animation_count > (period / 2)){
 80040cc:	6862      	ldr	r2, [r4, #4]
 80040ce:	42b2      	cmp	r2, r6
 80040d0:	d845      	bhi.n	800415e <drawbomb+0xc6>
	    Bomb[i].state++;
 80040d2:	7823      	ldrb	r3, [r4, #0]
	    Bomb[i].animation_count = period;
 80040d4:	6065      	str	r5, [r4, #4]
	    Bomb[i].state++;
 80040d6:	3301      	adds	r3, #1
 80040d8:	b2db      	uxtb	r3, r3
	    if(Bomb[i].state > 4) {
 80040da:	2b04      	cmp	r3, #4
	    Bomb[i].state++;
 80040dc:	7023      	strb	r3, [r4, #0]
	      Bomb[i].state = 0;
 80040de:	bf84      	itt	hi
 80040e0:	2300      	movhi	r3, #0
 80040e2:	7023      	strbhi	r3, [r4, #0]
  for(int i = 0; i < BOMB_MAX; i++) {
 80040e4:	f10b 0b01 	add.w	fp, fp, #1
 80040e8:	f1bb 0f0a 	cmp.w	fp, #10
 80040ec:	f104 0408 	add.w	r4, r4, #8
 80040f0:	d03b      	beq.n	800416a <drawbomb+0xd2>
    if(Bomb[i].state == 1){
 80040f2:	7823      	ldrb	r3, [r4, #0]
 80040f4:	2b01      	cmp	r3, #1
 80040f6:	d1e1      	bne.n	80040bc <drawbomb+0x24>
      if (Bomb[i].animation_count >= (3 * period / 4)) LCD_printsprite(Bomb[i].ln, Bomb[i].cl, &bomb_sprite[0]);
 80040f8:	6862      	ldr	r2, [r4, #4]
 80040fa:	4552      	cmp	r2, sl
 80040fc:	d215      	bcs.n	800412a <drawbomb+0x92>
      if ((Bomb[i].animation_count < (3 * period / 4)) &&
 80040fe:	42ba      	cmp	r2, r7
 8004100:	d248      	bcs.n	8004194 <drawbomb+0xfc>
      if ((Bomb[i].animation_count < (2 * period / 4)) &&
 8004102:	4297      	cmp	r7, r2
 8004104:	4613      	mov	r3, r2
 8004106:	d942      	bls.n	800418e <drawbomb+0xf6>
 8004108:	4598      	cmp	r8, r3
 800410a:	d94c      	bls.n	80041a6 <drawbomb+0x10e>
      if (Bomb[i].animation_count < (period / 4)) LCD_printsprite(Bomb[i].ln, Bomb[i].cl, &bomb_sprite[3]);
 800410c:	4a2c      	ldr	r2, [pc, #176]	@ (80041c0 <drawbomb+0x128>)
 800410e:	f994 1002 	ldrsb.w	r1, [r4, #2]
 8004112:	f994 0001 	ldrsb.w	r0, [r4, #1]
 8004116:	f7fd fc85 	bl	8001a24 <LCD_printsprite>
      if (Bomb[i].animation_count == 0) Bomb[i].animation_count = period;
 800411a:	6863      	ldr	r3, [r4, #4]
 800411c:	2b00      	cmp	r3, #0
 800411e:	bf08      	it	eq
 8004120:	462b      	moveq	r3, r5
      Bomb[i].animation_count--;
 8004122:	3b01      	subs	r3, #1
 8004124:	6063      	str	r3, [r4, #4]
    if(Bomb[i].state > 1){
 8004126:	7823      	ldrb	r3, [r4, #0]
 8004128:	e7c8      	b.n	80040bc <drawbomb+0x24>
      if (Bomb[i].animation_count >= (3 * period / 4)) LCD_printsprite(Bomb[i].ln, Bomb[i].cl, &bomb_sprite[0]);
 800412a:	4a26      	ldr	r2, [pc, #152]	@ (80041c4 <drawbomb+0x12c>)
 800412c:	f994 1002 	ldrsb.w	r1, [r4, #2]
 8004130:	f994 0001 	ldrsb.w	r0, [r4, #1]
 8004134:	f7fd fc76 	bl	8001a24 <LCD_printsprite>
      if ((Bomb[i].animation_count < (3 * period / 4)) &&
 8004138:	6862      	ldr	r2, [r4, #4]
 800413a:	4592      	cmp	sl, r2
 800413c:	4613      	mov	r3, r2
 800413e:	d8de      	bhi.n	80040fe <drawbomb+0x66>
      if ((Bomb[i].animation_count < (2 * period / 4)) &&
 8004140:	429f      	cmp	r7, r3
 8004142:	d8e1      	bhi.n	8004108 <drawbomb+0x70>
      if (Bomb[i].animation_count < (period / 4)) LCD_printsprite(Bomb[i].ln, Bomb[i].cl, &bomb_sprite[3]);
 8004144:	4598      	cmp	r8, r3
 8004146:	d9e9      	bls.n	800411c <drawbomb+0x84>
 8004148:	e7e0      	b.n	800410c <drawbomb+0x74>
          LCD_printsprite(Bomb[i].ln, Bomb[i].cl, &bombshards_sprite[2]);
 800414a:	4a1f      	ldr	r2, [pc, #124]	@ (80041c8 <drawbomb+0x130>)
 800414c:	f994 1002 	ldrsb.w	r1, [r4, #2]
 8004150:	f994 0001 	ldrsb.w	r0, [r4, #1]
 8004154:	f7fd fc66 	bl	8001a24 <LCD_printsprite>
      if(Bomb[i].animation_count > (period / 2)){
 8004158:	6862      	ldr	r2, [r4, #4]
 800415a:	42b2      	cmp	r2, r6
 800415c:	d9b9      	bls.n	80040d2 <drawbomb+0x3a>
  	    Bomb[i].animation_count--;
 800415e:	4b16      	ldr	r3, [pc, #88]	@ (80041b8 <drawbomb+0x120>)
 8004160:	3a01      	subs	r2, #1
 8004162:	eb03 0acb 	add.w	sl, r3, fp, lsl #3
 8004166:	f8ca 2004 	str.w	r2, [sl, #4]
}
 800416a:	e8bd 8ff8 	ldmia.w	sp!, {r3, r4, r5, r6, r7, r8, r9, sl, fp, pc}
          LCD_printsprite(Bomb[i].ln, Bomb[i].cl, &bombshards_sprite[1]);
 800416e:	464a      	mov	r2, r9
 8004170:	f994 1002 	ldrsb.w	r1, [r4, #2]
 8004174:	f994 0001 	ldrsb.w	r0, [r4, #1]
 8004178:	f7fd fc54 	bl	8001a24 <LCD_printsprite>
          break;
 800417c:	e7a6      	b.n	80040cc <drawbomb+0x34>
          LCD_printsprite(Bomb[i].ln, Bomb[i].cl, &bombshards_sprite[0]);
 800417e:	4a13      	ldr	r2, [pc, #76]	@ (80041cc <drawbomb+0x134>)
 8004180:	f994 1002 	ldrsb.w	r1, [r4, #2]
 8004184:	f994 0001 	ldrsb.w	r0, [r4, #1]
 8004188:	f7fd fc4c 	bl	8001a24 <LCD_printsprite>
          break;
 800418c:	e79e      	b.n	80040cc <drawbomb+0x34>
      if (Bomb[i].animation_count < (period / 4)) LCD_printsprite(Bomb[i].ln, Bomb[i].cl, &bomb_sprite[3]);
 800418e:	4590      	cmp	r8, r2
 8004190:	d9c7      	bls.n	8004122 <drawbomb+0x8a>
 8004192:	e7bb      	b.n	800410c <drawbomb+0x74>
         (Bomb[i].animation_count >= (2 * period / 4))) LCD_printsprite(Bomb[i].ln, Bomb[i].cl, &bomb_sprite[1]);
 8004194:	4a0e      	ldr	r2, [pc, #56]	@ (80041d0 <drawbomb+0x138>)
 8004196:	f994 1002 	ldrsb.w	r1, [r4, #2]
 800419a:	f994 0001 	ldrsb.w	r0, [r4, #1]
 800419e:	f7fd fc41 	bl	8001a24 <LCD_printsprite>
      if ((Bomb[i].animation_count < (2 * period / 4)) &&
 80041a2:	6863      	ldr	r3, [r4, #4]
 80041a4:	e7cc      	b.n	8004140 <drawbomb+0xa8>
         (Bomb[i].animation_count >= (period / 4))) LCD_printsprite(Bomb[i].ln, Bomb[i].cl, &bomb_sprite[2]);
 80041a6:	4a0b      	ldr	r2, [pc, #44]	@ (80041d4 <drawbomb+0x13c>)
 80041a8:	f994 1002 	ldrsb.w	r1, [r4, #2]
 80041ac:	f994 0001 	ldrsb.w	r0, [r4, #1]
 80041b0:	f7fd fc38 	bl	8001a24 <LCD_printsprite>
      if (Bomb[i].animation_count < (period / 4)) LCD_printsprite(Bomb[i].ln, Bomb[i].cl, &bomb_sprite[3]);
 80041b4:	6863      	ldr	r3, [r4, #4]
 80041b6:	e7c5      	b.n	8004144 <drawbomb+0xac>
 80041b8:	20000b1c 	.word	0x20000b1c
 80041bc:	0800b22c 	.word	0x0800b22c
 80041c0:	0800b4c0 	.word	0x0800b4c0
 80041c4:	0800b49c 	.word	0x0800b49c
 80041c8:	0800b238 	.word	0x0800b238
 80041cc:	0800b220 	.word	0x0800b220
 80041d0:	0800b4a8 	.word	0x0800b4a8
 80041d4:	0800b4b4 	.word	0x0800b4b4

080041d8 <statehandler_gamerun>:
{
 80041d8:	b5f0      	push	{r4, r5, r6, r7, lr}
  if(gamestate == STATE_PAUSEMENU) SchedGamerunEventsResume();
 80041da:	4cb4      	ldr	r4, [pc, #720]	@ (80044ac <statehandler_gamerun+0x2d4>)
{
 80041dc:	b085      	sub	sp, #20
  if(gamestate == STATE_PAUSEMENU) SchedGamerunEventsResume();
 80041de:	7823      	ldrb	r3, [r4, #0]
 80041e0:	2b03      	cmp	r3, #3
 80041e2:	f000 80f0 	beq.w	80043c6 <statehandler_gamerun+0x1ee>
  gamestate = STATE_RUNGAME;
 80041e6:	2207      	movs	r2, #7
  if(GameFlags.WinTheGame){
 80041e8:	4bb1      	ldr	r3, [pc, #708]	@ (80044b0 <statehandler_gamerun+0x2d8>)
  gamestate = STATE_RUNGAME;
 80041ea:	7022      	strb	r2, [r4, #0]
  if(GameFlags.WinTheGame){
 80041ec:	781b      	ldrb	r3, [r3, #0]
 80041ee:	f013 0310 	ands.w	r3, r3, #16
 80041f2:	f040 809b 	bne.w	800432c <statehandler_gamerun+0x154>
    if(Gamer.health > 0)
 80041f6:	4caf      	ldr	r4, [pc, #700]	@ (80044b4 <statehandler_gamerun+0x2dc>)
 80041f8:	f994 2000 	ldrsb.w	r2, [r4]
 80041fc:	2a00      	cmp	r2, #0
 80041fe:	dd4a      	ble.n	8004296 <statehandler_gamerun+0xbe>
      if(B4.BtnON) {
 8004200:	49ad      	ldr	r1, [pc, #692]	@ (80044b8 <statehandler_gamerun+0x2e0>)
 8004202:	7c4a      	ldrb	r2, [r1, #17]
 8004204:	2a00      	cmp	r2, #0
 8004206:	f040 80f1 	bne.w	80043ec <statehandler_gamerun+0x214>
      else gameevent = EVENT_NONE;
 800420a:	4bac      	ldr	r3, [pc, #688]	@ (80044bc <statehandler_gamerun+0x2e4>)
 800420c:	701a      	strb	r2, [r3, #0]
  SchedEventSetPeriod(createevilstar, PRD_EVILSTAR_CREATE);
 800420e:	4bac      	ldr	r3, [pc, #688]	@ (80044c0 <statehandler_gamerun+0x2e8>)
 8004210:	48ac      	ldr	r0, [pc, #688]	@ (80044c4 <statehandler_gamerun+0x2ec>)
 8004212:	6819      	ldr	r1, [r3, #0]
 8004214:	f7fe ff44 	bl	80030a0 <SchedEventSetPeriod>
  SchedEventSetPeriod(move_enemy_objects, PRD_ENEMY_MOVE);
 8004218:	4bab      	ldr	r3, [pc, #684]	@ (80044c8 <statehandler_gamerun+0x2f0>)
 800421a:	48ac      	ldr	r0, [pc, #688]	@ (80044cc <statehandler_gamerun+0x2f4>)
 800421c:	7819      	ldrb	r1, [r3, #0]
 800421e:	f7fe ff3f 	bl	80030a0 <SchedEventSetPeriod>
  if(Gamer.health > 0)
 8004222:	f994 3000 	ldrsb.w	r3, [r4]
 8004226:	2b00      	cmp	r3, #0
 8004228:	dd01      	ble.n	800422e <statehandler_gamerun+0x56>
 800422a:	f7ff fb77 	bl	800391c <movgamer.part.0>
  movbomb();
 800422e:	f7ff fcb9 	bl	8003ba4 <movbomb>
  bullet_evilstar_collision();
 8004232:	f7ff fcfb 	bl	8003c2c <bullet_evilstar_collision>
  gamer_evilstar_collision();
 8004236:	f7ff fda9 	bl	8003d8c <gamer_evilstar_collision>
  gamer_coin_collision();
 800423a:	f7ff fdef 	bl	8003e1c <gamer_coin_collision>
  gamer_minmagaz_collision();
 800423e:	f7ff fe29 	bl	8003e94 <gamer_minmagaz_collision>
  bomb_evilstar_collision();
 8004242:	f7ff fd33 	bl	8003cac <bomb_evilstar_collision>
  drawevilstar();
 8004246:	f7ff fe4f 	bl	8003ee8 <drawevilstar>
  drawcoin();
 800424a:	f7ff fe89 	bl	8003f60 <drawcoin>
    if (MinMagaz.state) {
 800424e:	4ba0      	ldr	r3, [pc, #640]	@ (80044d0 <statehandler_gamerun+0x2f8>)
 8004250:	781a      	ldrb	r2, [r3, #0]
 8004252:	2a00      	cmp	r2, #0
 8004254:	f040 8113 	bne.w	800447e <statehandler_gamerun+0x2a6>
 8004258:	4c9e      	ldr	r4, [pc, #632]	@ (80044d4 <statehandler_gamerun+0x2fc>)
      LCD_printsprite(Bullet[i].ln, Bullet[i].cl, &bullet_sprite);
 800425a:	4e9f      	ldr	r6, [pc, #636]	@ (80044d8 <statehandler_gamerun+0x300>)
 800425c:	f104 054b 	add.w	r5, r4, #75	@ 0x4b
 8004260:	e002      	b.n	8004268 <statehandler_gamerun+0x90>
  for (uint8 i = 0; i < BULLET_MAX; i++) {
 8004262:	3403      	adds	r4, #3
 8004264:	42a5      	cmp	r5, r4
 8004266:	d00c      	beq.n	8004282 <statehandler_gamerun+0xaa>
    if (Bullet[i].state) {
 8004268:	7823      	ldrb	r3, [r4, #0]
 800426a:	2b00      	cmp	r3, #0
 800426c:	d0f9      	beq.n	8004262 <statehandler_gamerun+0x8a>
      LCD_printsprite(Bullet[i].ln, Bullet[i].cl, &bullet_sprite);
 800426e:	f994 1002 	ldrsb.w	r1, [r4, #2]
 8004272:	f994 0001 	ldrsb.w	r0, [r4, #1]
 8004276:	4632      	mov	r2, r6
  for (uint8 i = 0; i < BULLET_MAX; i++) {
 8004278:	3403      	adds	r4, #3
      LCD_printsprite(Bullet[i].ln, Bullet[i].cl, &bullet_sprite);
 800427a:	f7fd fbd3 	bl	8001a24 <LCD_printsprite>
  for (uint8 i = 0; i < BULLET_MAX; i++) {
 800427e:	42a5      	cmp	r5, r4
 8004280:	d1f2      	bne.n	8004268 <statehandler_gamerun+0x90>
  drawbomb(BOMB_ANIMATION_PERIOD_CALLS);
 8004282:	2004      	movs	r0, #4
 8004284:	f7ff ff08 	bl	8004098 <drawbomb>
  drawgamer();
 8004288:	f7ff fe9e 	bl	8003fc8 <drawgamer>
  LCD_printgamestatbar(&Gamer);
 800428c:	4889      	ldr	r0, [pc, #548]	@ (80044b4 <statehandler_gamerun+0x2dc>)
 800428e:	f7fd fd7b 	bl	8001d88 <LCD_printgamestatbar>
}
 8004292:	b005      	add	sp, #20
 8004294:	bdf0      	pop	{r4, r5, r6, r7, pc}
      if(deadgamerdrawcounter >= (3 * (GAMERDEATH_ANIMATION_PERIOD / 4))){
 8004296:	4d91      	ldr	r5, [pc, #580]	@ (80044dc <statehandler_gamerun+0x304>)
 8004298:	782b      	ldrb	r3, [r5, #0]
 800429a:	2b0e      	cmp	r3, #14
 800429c:	f200 80b9 	bhi.w	8004412 <statehandler_gamerun+0x23a>
      if(deadgamerdrawcounter < (3 * (GAMERDEATH_ANIMATION_PERIOD / 4) + (GAMERDEATH_ANIMATION_PERIOD % 4)) && deadgamerdrawcounter > 0) {
 80042a0:	3b01      	subs	r3, #1
 80042a2:	2b0d      	cmp	r3, #13
 80042a4:	f240 80c7 	bls.w	8004436 <statehandler_gamerun+0x25e>
        LCD_printstr8x5((uint8*)" !", 2, 2);
 80042a8:	2202      	movs	r2, #2
 80042aa:	488d      	ldr	r0, [pc, #564]	@ (80044e0 <statehandler_gamerun+0x308>)
 80042ac:	4611      	mov	r1, r2
 80042ae:	f7fd f829 	bl	8001304 <LCD_printstr8x5>
        u16_to_str(string, StarsKilled, 10);
 80042b2:	4b8c      	ldr	r3, [pc, #560]	@ (80044e4 <statehandler_gamerun+0x30c>)
 80042b4:	220a      	movs	r2, #10
 80042b6:	6819      	ldr	r1, [r3, #0]
 80042b8:	a801      	add	r0, sp, #4
 80042ba:	f7fc fbfd 	bl	8000ab8 <u16_to_str>
		LCD_printstr8x5((uint8*)"   :", 4, 5);
 80042be:	2205      	movs	r2, #5
 80042c0:	2104      	movs	r1, #4
 80042c2:	4889      	ldr	r0, [pc, #548]	@ (80044e8 <statehandler_gamerun+0x310>)
 80042c4:	f7fd f81e 	bl	8001304 <LCD_printstr8x5>
		LCD_printstr8x5((uint8*)string, 4, 90);
 80042c8:	2104      	movs	r1, #4
 80042ca:	225a      	movs	r2, #90	@ 0x5a
 80042cc:	eb0d 0001 	add.w	r0, sp, r1
 80042d0:	f7fd f818 	bl	8001304 <LCD_printstr8x5>
		u16_to_str(string, CoinReceived, 10);
 80042d4:	4b85      	ldr	r3, [pc, #532]	@ (80044ec <statehandler_gamerun+0x314>)
 80042d6:	220a      	movs	r2, #10
 80042d8:	6819      	ldr	r1, [r3, #0]
 80042da:	a801      	add	r0, sp, #4
 80042dc:	f7fc fbec 	bl	8000ab8 <u16_to_str>
		LCD_printstr8x5((uint8*)" :", 5, 5);
 80042e0:	2205      	movs	r2, #5
 80042e2:	4883      	ldr	r0, [pc, #524]	@ (80044f0 <statehandler_gamerun+0x318>)
 80042e4:	4611      	mov	r1, r2
 80042e6:	f7fd f80d 	bl	8001304 <LCD_printstr8x5>
		LCD_printstr8x5((uint8*)string, 5, 90);
 80042ea:	225a      	movs	r2, #90	@ 0x5a
 80042ec:	2105      	movs	r1, #5
 80042ee:	a801      	add	r0, sp, #4
 80042f0:	f7fd f808 	bl	8001304 <LCD_printstr8x5>
        IF_ANY_BTN_PRESS(
 80042f4:	4e7f      	ldr	r6, [pc, #508]	@ (80044f4 <statehandler_gamerun+0x31c>)
 80042f6:	4880      	ldr	r0, [pc, #512]	@ (80044f8 <statehandler_gamerun+0x320>)
 80042f8:	7c73      	ldrb	r3, [r6, #17]
 80042fa:	7c42      	ldrb	r2, [r0, #17]
 80042fc:	497f      	ldr	r1, [pc, #508]	@ (80044fc <statehandler_gamerun+0x324>)
 80042fe:	4313      	orrs	r3, r2
 8004300:	f891 c011 	ldrb.w	ip, [r1, #17]
 8004304:	4a6c      	ldr	r2, [pc, #432]	@ (80044b8 <statehandler_gamerun+0x2e0>)
 8004306:	ea43 030c 	orr.w	r3, r3, ip
 800430a:	f892 c011 	ldrb.w	ip, [r2, #17]
 800430e:	ea53 030c 	orrs.w	r3, r3, ip
 8004312:	f43f af7c 	beq.w	800420e <statehandler_gamerun+0x36>
 8004316:	2300      	movs	r3, #0
 8004318:	744b      	strb	r3, [r1, #17]
 800431a:	7453      	strb	r3, [r2, #17]
 800431c:	2114      	movs	r1, #20
 800431e:	2206      	movs	r2, #6
 8004320:	7473      	strb	r3, [r6, #17]
 8004322:	7443      	strb	r3, [r0, #17]
 8004324:	4b65      	ldr	r3, [pc, #404]	@ (80044bc <statehandler_gamerun+0x2e4>)
 8004326:	7029      	strb	r1, [r5, #0]
 8004328:	701a      	strb	r2, [r3, #0]
 800432a:	e770      	b.n	800420e <statehandler_gamerun+0x36>
  SchedPauseEvent(createevilstar);
 800432c:	4865      	ldr	r0, [pc, #404]	@ (80044c4 <statehandler_gamerun+0x2ec>)
 800432e:	f7fe fe8b 	bl	8003048 <SchedPauseEvent>
  SchedPauseEvent(createbullet);
 8004332:	4873      	ldr	r0, [pc, #460]	@ (8004500 <statehandler_gamerun+0x328>)
 8004334:	f7fe fe88 	bl	8003048 <SchedPauseEvent>
  SchedPauseEvent(createbomb);
 8004338:	4872      	ldr	r0, [pc, #456]	@ (8004504 <statehandler_gamerun+0x32c>)
 800433a:	f7fe fe85 	bl	8003048 <SchedPauseEvent>
  SchedPauseEvent(movbullet);
 800433e:	4872      	ldr	r0, [pc, #456]	@ (8004508 <statehandler_gamerun+0x330>)
 8004340:	f7fe fe82 	bl	8003048 <SchedPauseEvent>
  SchedPauseEvent(move_enemy_objects);
 8004344:	4861      	ldr	r0, [pc, #388]	@ (80044cc <statehandler_gamerun+0x2f4>)
 8004346:	f7fe fe7f 	bl	8003048 <SchedPauseEvent>
  SchedPauseEvent(gameprogress);
 800434a:	4870      	ldr	r0, [pc, #448]	@ (800450c <statehandler_gamerun+0x334>)
 800434c:	f7fe fe7c 	bl	8003048 <SchedPauseEvent>
    LCD_printstr8x5((uint8*)"!!!", 2, 35);
 8004350:	2223      	movs	r2, #35	@ 0x23
 8004352:	2102      	movs	r1, #2
 8004354:	486e      	ldr	r0, [pc, #440]	@ (8004510 <statehandler_gamerun+0x338>)
 8004356:	f7fc ffd5 	bl	8001304 <LCD_printstr8x5>
    u16_to_str(string, StarsKilled, 10);
 800435a:	4b62      	ldr	r3, [pc, #392]	@ (80044e4 <statehandler_gamerun+0x30c>)
 800435c:	220a      	movs	r2, #10
 800435e:	6819      	ldr	r1, [r3, #0]
 8004360:	a801      	add	r0, sp, #4
 8004362:	f7fc fba9 	bl	8000ab8 <u16_to_str>
    LCD_printstr8x5((uint8*)"   :", 4, 5);
 8004366:	2205      	movs	r2, #5
 8004368:	2104      	movs	r1, #4
 800436a:	485f      	ldr	r0, [pc, #380]	@ (80044e8 <statehandler_gamerun+0x310>)
 800436c:	f7fc ffca 	bl	8001304 <LCD_printstr8x5>
    LCD_printstr8x5((uint8*)string, 4, 90);
 8004370:	2104      	movs	r1, #4
 8004372:	225a      	movs	r2, #90	@ 0x5a
 8004374:	eb0d 0001 	add.w	r0, sp, r1
 8004378:	f7fc ffc4 	bl	8001304 <LCD_printstr8x5>
    u16_to_str(string, CoinReceived, 10);
 800437c:	4b5b      	ldr	r3, [pc, #364]	@ (80044ec <statehandler_gamerun+0x314>)
 800437e:	220a      	movs	r2, #10
 8004380:	6819      	ldr	r1, [r3, #0]
 8004382:	a801      	add	r0, sp, #4
 8004384:	f7fc fb98 	bl	8000ab8 <u16_to_str>
    LCD_printstr8x5((uint8*)" :", 5, 5);
 8004388:	2205      	movs	r2, #5
 800438a:	4859      	ldr	r0, [pc, #356]	@ (80044f0 <statehandler_gamerun+0x318>)
 800438c:	4611      	mov	r1, r2
 800438e:	f7fc ffb9 	bl	8001304 <LCD_printstr8x5>
    LCD_printstr8x5((uint8*)string, 5, 90);
 8004392:	225a      	movs	r2, #90	@ 0x5a
 8004394:	2105      	movs	r1, #5
 8004396:	a801      	add	r0, sp, #4
 8004398:	f7fc ffb4 	bl	8001304 <LCD_printstr8x5>
    if(tempcounter++ > 50) {
 800439c:	4b5d      	ldr	r3, [pc, #372]	@ (8004514 <statehandler_gamerun+0x33c>)
 800439e:	681a      	ldr	r2, [r3, #0]
 80043a0:	1c51      	adds	r1, r2, #1
 80043a2:	2a32      	cmp	r2, #50	@ 0x32
 80043a4:	6019      	str	r1, [r3, #0]
 80043a6:	d826      	bhi.n	80043f6 <statehandler_gamerun+0x21e>
    IF_ANY_BTN_PRESS();
 80043a8:	4a52      	ldr	r2, [pc, #328]	@ (80044f4 <statehandler_gamerun+0x31c>)
 80043aa:	4d53      	ldr	r5, [pc, #332]	@ (80044f8 <statehandler_gamerun+0x320>)
 80043ac:	7c53      	ldrb	r3, [r2, #17]
 80043ae:	4853      	ldr	r0, [pc, #332]	@ (80044fc <statehandler_gamerun+0x324>)
 80043b0:	2b00      	cmp	r3, #0
 80043b2:	f000 80b7 	beq.w	8004524 <statehandler_gamerun+0x34c>
 80043b6:	4940      	ldr	r1, [pc, #256]	@ (80044b8 <statehandler_gamerun+0x2e0>)
 80043b8:	2300      	movs	r3, #0
 80043ba:	4c3e      	ldr	r4, [pc, #248]	@ (80044b4 <statehandler_gamerun+0x2dc>)
 80043bc:	7453      	strb	r3, [r2, #17]
 80043be:	746b      	strb	r3, [r5, #17]
 80043c0:	7443      	strb	r3, [r0, #17]
 80043c2:	744b      	strb	r3, [r1, #17]
 80043c4:	e723      	b.n	800420e <statehandler_gamerun+0x36>
  SchedResumeEvent(createevilstar);
 80043c6:	483f      	ldr	r0, [pc, #252]	@ (80044c4 <statehandler_gamerun+0x2ec>)
 80043c8:	f7fe fe54 	bl	8003074 <SchedResumeEvent>
  SchedResumeEvent(createbullet);
 80043cc:	484c      	ldr	r0, [pc, #304]	@ (8004500 <statehandler_gamerun+0x328>)
 80043ce:	f7fe fe51 	bl	8003074 <SchedResumeEvent>
  SchedResumeEvent(createbomb);
 80043d2:	484c      	ldr	r0, [pc, #304]	@ (8004504 <statehandler_gamerun+0x32c>)
 80043d4:	f7fe fe4e 	bl	8003074 <SchedResumeEvent>
  SchedResumeEvent(movbullet);
 80043d8:	484b      	ldr	r0, [pc, #300]	@ (8004508 <statehandler_gamerun+0x330>)
 80043da:	f7fe fe4b 	bl	8003074 <SchedResumeEvent>
  SchedResumeEvent(move_enemy_objects);
 80043de:	483b      	ldr	r0, [pc, #236]	@ (80044cc <statehandler_gamerun+0x2f4>)
 80043e0:	f7fe fe48 	bl	8003074 <SchedResumeEvent>
  SchedResumeEvent(gameprogress);
 80043e4:	4849      	ldr	r0, [pc, #292]	@ (800450c <statehandler_gamerun+0x334>)
 80043e6:	f7fe fe45 	bl	8003074 <SchedResumeEvent>
}
 80043ea:	e6fc      	b.n	80041e6 <statehandler_gamerun+0xe>
        gameevent = EVENT_PAUSE;
 80043ec:	2005      	movs	r0, #5
 80043ee:	4a33      	ldr	r2, [pc, #204]	@ (80044bc <statehandler_gamerun+0x2e4>)
        B4.BtnON = 0;
 80043f0:	744b      	strb	r3, [r1, #17]
        gameevent = EVENT_PAUSE;
 80043f2:	7010      	strb	r0, [r2, #0]
 80043f4:	e70b      	b.n	800420e <statehandler_gamerun+0x36>
		IF_ANY_BTN_PRESS(
 80043f6:	4d3f      	ldr	r5, [pc, #252]	@ (80044f4 <statehandler_gamerun+0x31c>)
 80043f8:	4c3f      	ldr	r4, [pc, #252]	@ (80044f8 <statehandler_gamerun+0x320>)
 80043fa:	7c6a      	ldrb	r2, [r5, #17]
 80043fc:	7c61      	ldrb	r1, [r4, #17]
 80043fe:	483f      	ldr	r0, [pc, #252]	@ (80044fc <statehandler_gamerun+0x324>)
 8004400:	430a      	orrs	r2, r1
 8004402:	7c46      	ldrb	r6, [r0, #17]
 8004404:	492c      	ldr	r1, [pc, #176]	@ (80044b8 <statehandler_gamerun+0x2e0>)
 8004406:	4332      	orrs	r2, r6
 8004408:	7c4e      	ldrb	r6, [r1, #17]
 800440a:	4332      	orrs	r2, r6
 800440c:	d13f      	bne.n	800448e <statehandler_gamerun+0x2b6>
 800440e:	4c29      	ldr	r4, [pc, #164]	@ (80044b4 <statehandler_gamerun+0x2dc>)
 8004410:	e6fd      	b.n	800420e <statehandler_gamerun+0x36>
        LCD_printsprite(Gamer.ln, Gamer.cl, &gamer_dead_0_sprite);
 8004412:	4a41      	ldr	r2, [pc, #260]	@ (8004518 <statehandler_gamerun+0x340>)
 8004414:	f994 1007 	ldrsb.w	r1, [r4, #7]
 8004418:	f994 0006 	ldrsb.w	r0, [r4, #6]
 800441c:	f7fd fb02 	bl	8001a24 <LCD_printsprite>
         deadgamerdrawcounter--;
 8004420:	782a      	ldrb	r2, [r5, #0]
 8004422:	1e53      	subs	r3, r2, #1
      if(deadgamerdrawcounter < (3 * (GAMERDEATH_ANIMATION_PERIOD / 4) + (GAMERDEATH_ANIMATION_PERIOD % 4)) && deadgamerdrawcounter > 0) {
 8004424:	3a02      	subs	r2, #2
         deadgamerdrawcounter--;
 8004426:	b2db      	uxtb	r3, r3
      if(deadgamerdrawcounter < (3 * (GAMERDEATH_ANIMATION_PERIOD / 4) + (GAMERDEATH_ANIMATION_PERIOD % 4)) && deadgamerdrawcounter > 0) {
 8004428:	2a0d      	cmp	r2, #13
         deadgamerdrawcounter--;
 800442a:	702b      	strb	r3, [r5, #0]
      if(deadgamerdrawcounter < (3 * (GAMERDEATH_ANIMATION_PERIOD / 4) + (GAMERDEATH_ANIMATION_PERIOD % 4)) && deadgamerdrawcounter > 0) {
 800442c:	d903      	bls.n	8004436 <statehandler_gamerun+0x25e>
      if(deadgamerdrawcounter == 0)
 800442e:	2b00      	cmp	r3, #0
 8004430:	f47f aeed 	bne.w	800420e <statehandler_gamerun+0x36>
 8004434:	e738      	b.n	80042a8 <statehandler_gamerun+0xd0>
        IF_ANY_BTN_PRESS()
 8004436:	4f2f      	ldr	r7, [pc, #188]	@ (80044f4 <statehandler_gamerun+0x31c>)
 8004438:	4e2f      	ldr	r6, [pc, #188]	@ (80044f8 <statehandler_gamerun+0x320>)
        LCD_printsprite(Gamer.ln, Gamer.cl, &gamer_dead_1_sprite);
 800443a:	4a38      	ldr	r2, [pc, #224]	@ (800451c <statehandler_gamerun+0x344>)
 800443c:	f994 1007 	ldrsb.w	r1, [r4, #7]
 8004440:	f994 0006 	ldrsb.w	r0, [r4, #6]
 8004444:	f7fd faee 	bl	8001a24 <LCD_printsprite>
        IF_ANY_BTN_PRESS()
 8004448:	7c71      	ldrb	r1, [r6, #17]
 800444a:	482c      	ldr	r0, [pc, #176]	@ (80044fc <statehandler_gamerun+0x324>)
 800444c:	7c7a      	ldrb	r2, [r7, #17]
 800444e:	f890 e011 	ldrb.w	lr, [r0, #17]
 8004452:	430a      	orrs	r2, r1
 8004454:	4918      	ldr	r1, [pc, #96]	@ (80044b8 <statehandler_gamerun+0x2e0>)
        deadgamerdrawcounter--;
 8004456:	782b      	ldrb	r3, [r5, #0]
        IF_ANY_BTN_PRESS()
 8004458:	ea42 020e 	orr.w	r2, r2, lr
 800445c:	f891 e011 	ldrb.w	lr, [r1, #17]
        deadgamerdrawcounter--;
 8004460:	3b01      	subs	r3, #1
 8004462:	b2db      	uxtb	r3, r3
        IF_ANY_BTN_PRESS()
 8004464:	ea52 020e 	orrs.w	r2, r2, lr
        deadgamerdrawcounter--;
 8004468:	702b      	strb	r3, [r5, #0]
        IF_ANY_BTN_PRESS()
 800446a:	d0e0      	beq.n	800442e <statehandler_gamerun+0x256>
 800446c:	2200      	movs	r2, #0
 800446e:	747a      	strb	r2, [r7, #17]
 8004470:	7472      	strb	r2, [r6, #17]
 8004472:	7442      	strb	r2, [r0, #17]
 8004474:	744a      	strb	r2, [r1, #17]
      if(deadgamerdrawcounter == 0)
 8004476:	2b00      	cmp	r3, #0
 8004478:	f47f aec9 	bne.w	800420e <statehandler_gamerun+0x36>
 800447c:	e714      	b.n	80042a8 <statehandler_gamerun+0xd0>
      LCD_printsprite(MinMagaz.ln, MinMagaz.cl, &minimag_sprite);
 800447e:	4a28      	ldr	r2, [pc, #160]	@ (8004520 <statehandler_gamerun+0x348>)
 8004480:	f993 1002 	ldrsb.w	r1, [r3, #2]
 8004484:	f993 0001 	ldrsb.w	r0, [r3, #1]
 8004488:	f7fd facc 	bl	8001a24 <LCD_printsprite>
  for (uint8 i = 0; i < BULLET_MAX; i++) {
 800448c:	e6e4      	b.n	8004258 <statehandler_gamerun+0x80>
		IF_ANY_BTN_PRESS(
 800448e:	2200      	movs	r2, #0
 8004490:	2614      	movs	r6, #20
 8004492:	601a      	str	r2, [r3, #0]
 8004494:	746a      	strb	r2, [r5, #17]
 8004496:	7462      	strb	r2, [r4, #17]
 8004498:	7442      	strb	r2, [r0, #17]
 800449a:	744a      	strb	r2, [r1, #17]
 800449c:	2206      	movs	r2, #6
 800449e:	4d0f      	ldr	r5, [pc, #60]	@ (80044dc <statehandler_gamerun+0x304>)
 80044a0:	4b06      	ldr	r3, [pc, #24]	@ (80044bc <statehandler_gamerun+0x2e4>)
 80044a2:	4c04      	ldr	r4, [pc, #16]	@ (80044b4 <statehandler_gamerun+0x2dc>)
 80044a4:	702e      	strb	r6, [r5, #0]
 80044a6:	701a      	strb	r2, [r3, #0]
    IF_ANY_BTN_PRESS();
 80044a8:	e6b1      	b.n	800420e <statehandler_gamerun+0x36>
 80044aa:	bf00      	nop
 80044ac:	20000a4e 	.word	0x20000a4e
 80044b0:	20000a50 	.word	0x20000a50
 80044b4:	20000bb8 	.word	0x20000bb8
 80044b8:	20000264 	.word	0x20000264
 80044bc:	20000a4c 	.word	0x20000a4c
 80044c0:	2000005c 	.word	0x2000005c
 80044c4:	08003591 	.word	0x08003591
 80044c8:	20000058 	.word	0x20000058
 80044cc:	08003c1d 	.word	0x08003c1d
 80044d0:	20000060 	.word	0x20000060
 80044d4:	20000b6c 	.word	0x20000b6c
 80044d8:	0800b7ec 	.word	0x0800b7ec
 80044dc:	2000001a 	.word	0x2000001a
 80044e0:	0800a7f4 	.word	0x0800a7f4
 80044e4:	20000a54 	.word	0x20000a54
 80044e8:	0800a7d4 	.word	0x0800a7d4
 80044ec:	20000a58 	.word	0x20000a58
 80044f0:	0800a7e4 	.word	0x0800a7e4
 80044f4:	200002ac 	.word	0x200002ac
 80044f8:	20000294 	.word	0x20000294
 80044fc:	2000027c 	.word	0x2000027c
 8004500:	08003789 	.word	0x08003789
 8004504:	08003805 	.word	0x08003805
 8004508:	0800344d 	.word	0x0800344d
 800450c:	0800386d 	.word	0x0800386d
 8004510:	0800a7c8 	.word	0x0800a7c8
 8004514:	20000a44 	.word	0x20000a44
 8004518:	0800b84c 	.word	0x0800b84c
 800451c:	0800b7fc 	.word	0x0800b7fc
 8004520:	0800b4ec 	.word	0x0800b4ec
 8004524:	7c41      	ldrb	r1, [r0, #17]
 8004526:	7c6b      	ldrb	r3, [r5, #17]
 8004528:	430b      	orrs	r3, r1
		IF_ANY_BTN_PRESS(
 800452a:	4903      	ldr	r1, [pc, #12]	@ (8004538 <statehandler_gamerun+0x360>)
    IF_ANY_BTN_PRESS();
 800452c:	7c4c      	ldrb	r4, [r1, #17]
 800452e:	4323      	orrs	r3, r4
 8004530:	f47f af42 	bne.w	80043b8 <statehandler_gamerun+0x1e0>
 8004534:	e76b      	b.n	800440e <statehandler_gamerun+0x236>
 8004536:	bf00      	nop
 8004538:	20000264 	.word	0x20000264

0800453c <createsmallstar>:
{
 800453c:	b5f8      	push	{r3, r4, r5, r6, r7, lr}
  if(k == 0) k = create_period;
 800453e:	4e14      	ldr	r6, [pc, #80]	@ (8004590 <createsmallstar+0x54>)
 8004540:	7833      	ldrb	r3, [r6, #0]
 8004542:	b9e3      	cbnz	r3, 800457e <createsmallstar+0x42>
 8004544:	7030      	strb	r0, [r6, #0]
  if(k == create_period)
 8004546:	2300      	movs	r3, #0
 8004548:	4d12      	ldr	r5, [pc, #72]	@ (8004594 <createsmallstar+0x58>)
 800454a:	e001      	b.n	8004550 <createsmallstar+0x14>
    for(int i = 0; i < SMALLSTAR_MAX; i++)
 800454c:	2b14      	cmp	r3, #20
 800454e:	d01b      	beq.n	8004588 <createsmallstar+0x4c>
      if(SmallStar[i].state == 0){
 8004550:	eb03 0443 	add.w	r4, r3, r3, lsl #1
 8004554:	5d2a      	ldrb	r2, [r5, r4]
    for(int i = 0; i < SMALLSTAR_MAX; i++)
 8004556:	3301      	adds	r3, #1
      if(SmallStar[i].state == 0){
 8004558:	192f      	adds	r7, r5, r4
 800455a:	2a00      	cmp	r2, #0
 800455c:	d1f6      	bne.n	800454c <createsmallstar+0x10>
        SmallStar[i].state = getrand(1) + 1;
 800455e:	2001      	movs	r0, #1
 8004560:	f7fc fa98 	bl	8000a94 <getrand>
 8004564:	4603      	mov	r3, r0
        SmallStar[i].ln = (int8)getrand(60);
 8004566:	203c      	movs	r0, #60	@ 0x3c
        SmallStar[i].state = getrand(1) + 1;
 8004568:	3301      	adds	r3, #1
 800456a:	552b      	strb	r3, [r5, r4]
        SmallStar[i].ln = (int8)getrand(60);
 800456c:	f7fc fa92 	bl	8000a94 <getrand>
        SmallStar[i].cl = 127;
 8004570:	227f      	movs	r2, #127	@ 0x7f
  k--;
 8004572:	7833      	ldrb	r3, [r6, #0]
        SmallStar[i].ln = (int8)getrand(60);
 8004574:	7078      	strb	r0, [r7, #1]
  k--;
 8004576:	3b01      	subs	r3, #1
        SmallStar[i].cl = 127;
 8004578:	70ba      	strb	r2, [r7, #2]
  k--;
 800457a:	7033      	strb	r3, [r6, #0]
}
 800457c:	bdf8      	pop	{r3, r4, r5, r6, r7, pc}
  if(k == create_period)
 800457e:	4283      	cmp	r3, r0
 8004580:	d0e1      	beq.n	8004546 <createsmallstar+0xa>
  k--;
 8004582:	3b01      	subs	r3, #1
 8004584:	7033      	strb	r3, [r6, #0]
}
 8004586:	bdf8      	pop	{r3, r4, r5, r6, r7, pc}
 8004588:	4603      	mov	r3, r0
  k--;
 800458a:	3b01      	subs	r3, #1
 800458c:	7033      	strb	r3, [r6, #0]
}
 800458e:	bdf8      	pop	{r3, r4, r5, r6, r7, pc}
 8004590:	20000a4a 	.word	0x20000a4a
 8004594:	20000a68 	.word	0x20000a68

08004598 <movesmallstar>:
{
 8004598:	b510      	push	{r4, lr}
  if(l == 0) l = move_period;
 800459a:	4c11      	ldr	r4, [pc, #68]	@ (80045e0 <movesmallstar+0x48>)
 800459c:	7823      	ldrb	r3, [r4, #0]
 800459e:	b9cb      	cbnz	r3, 80045d4 <movesmallstar+0x3c>
      if(SmallStar[i].cl < -2) SmallStar[i].state = 0;
 80045a0:	f04f 0e00 	mov.w	lr, #0
 80045a4:	4b0f      	ldr	r3, [pc, #60]	@ (80045e4 <movesmallstar+0x4c>)
 80045a6:	1c99      	adds	r1, r3, #2
 80045a8:	f103 0c3c 	add.w	ip, r3, #60	@ 0x3c
      if(SmallStar[i].state != 0) {
 80045ac:	f811 2c02 	ldrb.w	r2, [r1, #-2]
 80045b0:	b13a      	cbz	r2, 80045c2 <movesmallstar+0x2a>
      SmallStar[i].cl -= 1;
 80045b2:	789a      	ldrb	r2, [r3, #2]
 80045b4:	3a01      	subs	r2, #1
 80045b6:	b252      	sxtb	r2, r2
 80045b8:	709a      	strb	r2, [r3, #2]
      if(SmallStar[i].cl < -2) SmallStar[i].state = 0;
 80045ba:	3202      	adds	r2, #2
 80045bc:	bfb8      	it	lt
 80045be:	f801 ec02 	strblt.w	lr, [r1, #-2]
    for(uint8 i = 0; i < SMALLSTAR_MAX; i++)
 80045c2:	3303      	adds	r3, #3
 80045c4:	4563      	cmp	r3, ip
 80045c6:	f101 0103 	add.w	r1, r1, #3
 80045ca:	d1ef      	bne.n	80045ac <movesmallstar+0x14>
 80045cc:	4603      	mov	r3, r0
  l--;
 80045ce:	3b01      	subs	r3, #1
 80045d0:	7023      	strb	r3, [r4, #0]
}
 80045d2:	bd10      	pop	{r4, pc}
  if(l == move_period) {
 80045d4:	4283      	cmp	r3, r0
 80045d6:	d0e3      	beq.n	80045a0 <movesmallstar+0x8>
  l--;
 80045d8:	3b01      	subs	r3, #1
 80045da:	7023      	strb	r3, [r4, #0]
}
 80045dc:	bd10      	pop	{r4, pc}
 80045de:	bf00      	nop
 80045e0:	20000a49 	.word	0x20000a49
 80045e4:	20000a68 	.word	0x20000a68

080045e8 <system_events_period25ms>:
{
 80045e8:	b508      	push	{r3, lr}
  movesmallstar(SMALLSTAR_MOVE_PERIOD_CALLS);
 80045ea:	2002      	movs	r0, #2
 80045ec:	f7ff ffd4 	bl	8004598 <movesmallstar>
  if(MinMagaz.state){
 80045f0:	4a0f      	ldr	r2, [pc, #60]	@ (8004630 <system_events_period25ms+0x48>)
 80045f2:	7813      	ldrb	r3, [r2, #0]
 80045f4:	b133      	cbz	r3, 8004604 <system_events_period25ms+0x1c>
    if(++prd == period)
 80045f6:	490f      	ldr	r1, [pc, #60]	@ (8004634 <system_events_period25ms+0x4c>)
 80045f8:	780b      	ldrb	r3, [r1, #0]
 80045fa:	3301      	adds	r3, #1
 80045fc:	b2db      	uxtb	r3, r3
 80045fe:	2b0a      	cmp	r3, #10
 8004600:	d001      	beq.n	8004606 <system_events_period25ms+0x1e>
 8004602:	700b      	strb	r3, [r1, #0]
}
 8004604:	bd08      	pop	{r3, pc}
      prd = 0;
 8004606:	f04f 0c00 	mov.w	ip, #0
      MinMagaz.cl -= 6;
 800460a:	7893      	ldrb	r3, [r2, #2]
      prd = 0;
 800460c:	f881 c000 	strb.w	ip, [r1]
      MinMagaz.cl -= 6;
 8004610:	3b06      	subs	r3, #6
 8004612:	b25b      	sxtb	r3, r3
      if(MinMagaz.cl < 4) {
 8004614:	2b03      	cmp	r3, #3
      MinMagaz.cl -= 6;
 8004616:	7093      	strb	r3, [r2, #2]
      if(MinMagaz.cl < 4) {
 8004618:	dcf4      	bgt.n	8004604 <system_events_period25ms+0x1c>
        SchedResumeEvent(createevilstar);
 800461a:	4807      	ldr	r0, [pc, #28]	@ (8004638 <system_events_period25ms+0x50>)
        MinMagaz.state = 0;
 800461c:	f882 c000 	strb.w	ip, [r2]
        SchedResumeEvent(createevilstar);
 8004620:	f7fe fd28 	bl	8003074 <SchedResumeEvent>
}
 8004624:	e8bd 4008 	ldmia.w	sp!, {r3, lr}
        SchedResumeEvent(gameprogress);
 8004628:	4804      	ldr	r0, [pc, #16]	@ (800463c <system_events_period25ms+0x54>)
 800462a:	f7fe bd23 	b.w	8003074 <SchedResumeEvent>
 800462e:	bf00      	nop
 8004630:	20000060 	.word	0x20000060
 8004634:	20000a4b 	.word	0x20000a4b
 8004638:	08003591 	.word	0x08003591
 800463c:	0800386d 	.word	0x0800386d

08004640 <drawsmallstar>:
{
 8004640:	b570      	push	{r4, r5, r6, lr}
 8004642:	4c0d      	ldr	r4, [pc, #52]	@ (8004678 <drawsmallstar+0x38>)
      LCD_printsprite(SmallStar[i].ln, SmallStar[i].cl, &smallstar_sprite[SmallStar[i].state - 1]);
 8004644:	4e0d      	ldr	r6, [pc, #52]	@ (800467c <drawsmallstar+0x3c>)
 8004646:	f104 053c 	add.w	r5, r4, #60	@ 0x3c
 800464a:	e002      	b.n	8004652 <drawsmallstar+0x12>
  for(uint8 i = 0; i < SMALLSTAR_MAX; i++)
 800464c:	3403      	adds	r4, #3
 800464e:	42ac      	cmp	r4, r5
 8004650:	d010      	beq.n	8004674 <drawsmallstar+0x34>
    if(SmallStar[i].state) {
 8004652:	7822      	ldrb	r2, [r4, #0]
 8004654:	2a00      	cmp	r2, #0
 8004656:	d0f9      	beq.n	800464c <drawsmallstar+0xc>
      LCD_printsprite(SmallStar[i].ln, SmallStar[i].cl, &smallstar_sprite[SmallStar[i].state - 1]);
 8004658:	3a01      	subs	r2, #1
 800465a:	eb02 0242 	add.w	r2, r2, r2, lsl #1
 800465e:	f994 1002 	ldrsb.w	r1, [r4, #2]
 8004662:	f994 0001 	ldrsb.w	r0, [r4, #1]
 8004666:	eb06 0282 	add.w	r2, r6, r2, lsl #2
  for(uint8 i = 0; i < SMALLSTAR_MAX; i++)
 800466a:	3403      	adds	r4, #3
      LCD_printsprite(SmallStar[i].ln, SmallStar[i].cl, &smallstar_sprite[SmallStar[i].state - 1]);
 800466c:	f7fd f9da 	bl	8001a24 <LCD_printsprite>
  for(uint8 i = 0; i < SMALLSTAR_MAX; i++)
 8004670:	42ac      	cmp	r4, r5
 8004672:	d1ee      	bne.n	8004652 <drawsmallstar+0x12>
}
 8004674:	bd70      	pop	{r4, r5, r6, pc}
 8004676:	bf00      	nop
 8004678:	20000a68 	.word	0x20000a68
 800467c:	0800b194 	.word	0x0800b194

08004680 <system_events_period100ms>:
{
 8004680:	b508      	push	{r3, lr}
  batcheck();
 8004682:	f7fc fb69 	bl	8000d58 <batcheck>
  createsmallstar(SMALLSTAR_CREATE_PERIOD_CALLS);
 8004686:	2005      	movs	r0, #5
 8004688:	f7ff ff58 	bl	800453c <createsmallstar>
  drawsmallstar();  
 800468c:	f7ff ffd8 	bl	8004640 <drawsmallstar>
  check_btn_jstk();
 8004690:	f7fc fdee 	bl	8001270 <check_btn_jstk>
}
 8004694:	e8bd 4008 	ldmia.w	sp!, {r3, lr}
  LCD_bufupload_buferase();
 8004698:	f7fc bed4 	b.w	8001444 <LCD_bufupload_buferase>

0800469c <SchedGamerunEventsAdd>:
{
 800469c:	b508      	push	{r3, lr}
  SchedAddEvent(createevilstar, PRD_EVILSTAR_CREATE);
 800469e:	4b0e      	ldr	r3, [pc, #56]	@ (80046d8 <SchedGamerunEventsAdd+0x3c>)
 80046a0:	480e      	ldr	r0, [pc, #56]	@ (80046dc <SchedGamerunEventsAdd+0x40>)
 80046a2:	6819      	ldr	r1, [r3, #0]
 80046a4:	f7fe fc5e 	bl	8002f64 <SchedAddEvent>
  SchedAddEvent(createbullet, BULLET_GENERATE_PERIOD_MS);
 80046a8:	2182      	movs	r1, #130	@ 0x82
 80046aa:	480d      	ldr	r0, [pc, #52]	@ (80046e0 <SchedGamerunEventsAdd+0x44>)
 80046ac:	f7fe fc5a 	bl	8002f64 <SchedAddEvent>
  SchedAddEvent(createbomb, BOMB_GENERATE_PERIOD_MS);
 80046b0:	f44f 7196 	mov.w	r1, #300	@ 0x12c
 80046b4:	480b      	ldr	r0, [pc, #44]	@ (80046e4 <SchedGamerunEventsAdd+0x48>)
 80046b6:	f7fe fc55 	bl	8002f64 <SchedAddEvent>
  SchedAddEvent(movbullet, BULLET_MOVE_PERIOD_MS);
 80046ba:	210d      	movs	r1, #13
 80046bc:	480a      	ldr	r0, [pc, #40]	@ (80046e8 <SchedGamerunEventsAdd+0x4c>)
 80046be:	f7fe fc51 	bl	8002f64 <SchedAddEvent>
  SchedAddEvent(move_enemy_objects, PRD_ENEMY_MOVE);
 80046c2:	4b0a      	ldr	r3, [pc, #40]	@ (80046ec <SchedGamerunEventsAdd+0x50>)
 80046c4:	480a      	ldr	r0, [pc, #40]	@ (80046f0 <SchedGamerunEventsAdd+0x54>)
 80046c6:	7819      	ldrb	r1, [r3, #0]
 80046c8:	f7fe fc4c 	bl	8002f64 <SchedAddEvent>
}
 80046cc:	e8bd 4008 	ldmia.w	sp!, {r3, lr}
  SchedAddEvent(gameprogress, 75);
 80046d0:	214b      	movs	r1, #75	@ 0x4b
 80046d2:	4808      	ldr	r0, [pc, #32]	@ (80046f4 <SchedGamerunEventsAdd+0x58>)
 80046d4:	f7fe bc46 	b.w	8002f64 <SchedAddEvent>
 80046d8:	2000005c 	.word	0x2000005c
 80046dc:	08003591 	.word	0x08003591
 80046e0:	08003789 	.word	0x08003789
 80046e4:	08003805 	.word	0x08003805
 80046e8:	0800344d 	.word	0x0800344d
 80046ec:	20000058 	.word	0x20000058
 80046f0:	08003c1d 	.word	0x08003c1d
 80046f4:	0800386d 	.word	0x0800386d

080046f8 <statehandler_gameinitnew>:
{
 80046f8:	b5f8      	push	{r3, r4, r5, r6, r7, lr}
  gamestate = STATE_STARTGAME;
 80046fa:	2706      	movs	r7, #6
  gameevent = EVENT_NONE;
 80046fc:	2400      	movs	r4, #0
  if(GAME_STORY_STRING_NUM < 4)
 80046fe:	4d1e      	ldr	r5, [pc, #120]	@ (8004778 <statehandler_gameinitnew+0x80>)
  gamestate = STATE_STARTGAME;
 8004700:	4a1e      	ldr	r2, [pc, #120]	@ (800477c <statehandler_gameinitnew+0x84>)
  if(GAME_STORY_STRING_NUM < 4)
 8004702:	782b      	ldrb	r3, [r5, #0]
  gameevent = EVENT_NONE;
 8004704:	4e1e      	ldr	r6, [pc, #120]	@ (8004780 <statehandler_gameinitnew+0x88>)
  if(GAME_STORY_STRING_NUM < 4)
 8004706:	2b03      	cmp	r3, #3
  gamestate = STATE_STARTGAME;
 8004708:	7017      	strb	r7, [r2, #0]
  gameevent = EVENT_NONE;
 800470a:	7034      	strb	r4, [r6, #0]
  if(GAME_STORY_STRING_NUM < 4)
 800470c:	d820      	bhi.n	8004750 <statehandler_gameinitnew+0x58>
    LCD_printstr8x5(gamestory_string[GAME_STORY_STRING_NUM], 0, 0);
 800470e:	2096      	movs	r0, #150	@ 0x96
 8004710:	4a1c      	ldr	r2, [pc, #112]	@ (8004784 <statehandler_gameinitnew+0x8c>)
 8004712:	4621      	mov	r1, r4
 8004714:	fb00 2003 	mla	r0, r0, r3, r2
 8004718:	4622      	mov	r2, r4
 800471a:	f7fc fdf3 	bl	8001304 <LCD_printstr8x5>
    LCD_printstr8x5((uint8*)"...", 7, 78);
 800471e:	224e      	movs	r2, #78	@ 0x4e
 8004720:	2107      	movs	r1, #7
 8004722:	4819      	ldr	r0, [pc, #100]	@ (8004788 <statehandler_gameinitnew+0x90>)
 8004724:	f7fc fdee 	bl	8001304 <LCD_printstr8x5>
    if(B1.BtnON || B2.BtnON || B3.BtnON || B4.BtnON)
 8004728:	4e18      	ldr	r6, [pc, #96]	@ (800478c <statehandler_gameinitnew+0x94>)
 800472a:	4819      	ldr	r0, [pc, #100]	@ (8004790 <statehandler_gameinitnew+0x98>)
 800472c:	7c73      	ldrb	r3, [r6, #17]
 800472e:	7c42      	ldrb	r2, [r0, #17]
 8004730:	4918      	ldr	r1, [pc, #96]	@ (8004794 <statehandler_gameinitnew+0x9c>)
 8004732:	4313      	orrs	r3, r2
 8004734:	7c4f      	ldrb	r7, [r1, #17]
 8004736:	4a18      	ldr	r2, [pc, #96]	@ (8004798 <statehandler_gameinitnew+0xa0>)
 8004738:	433b      	orrs	r3, r7
 800473a:	7c57      	ldrb	r7, [r2, #17]
 800473c:	433b      	orrs	r3, r7
 800473e:	d006      	beq.n	800474e <statehandler_gameinitnew+0x56>
      GAME_STORY_STRING_NUM++;
 8004740:	782b      	ldrb	r3, [r5, #0]
      B1.BtnON = 0;
 8004742:	7474      	strb	r4, [r6, #17]
      GAME_STORY_STRING_NUM++;
 8004744:	3301      	adds	r3, #1
      B2.BtnON = 0;
 8004746:	7444      	strb	r4, [r0, #17]
      B3.BtnON = 0;
 8004748:	744c      	strb	r4, [r1, #17]
      B4.BtnON = 0;
 800474a:	7454      	strb	r4, [r2, #17]
      GAME_STORY_STRING_NUM++;
 800474c:	702b      	strb	r3, [r5, #0]
}
 800474e:	bdf8      	pop	{r3, r4, r5, r6, r7, pc}
    Gamer.health = 24;
 8004750:	4b12      	ldr	r3, [pc, #72]	@ (800479c <statehandler_gameinitnew+0xa4>)
 8004752:	4a13      	ldr	r2, [pc, #76]	@ (80047a0 <statehandler_gameinitnew+0xa8>)
    BTN_HOLD_ON_DELAY = 50;
 8004754:	2032      	movs	r0, #50	@ 0x32
    Gamer.health = 24;
 8004756:	601a      	str	r2, [r3, #0]
    Gamer.bombs = 10;
 8004758:	f502 2242 	add.w	r2, r2, #794624	@ 0xc2000
 800475c:	f602 52f2 	addw	r2, r2, #3570	@ 0xdf2
 8004760:	605a      	str	r2, [r3, #4]
    GameFlags.gameflagsreg = 0b00001101;
 8004762:	220d      	movs	r2, #13
    Game.level_progress = 0;
 8004764:	4b0f      	ldr	r3, [pc, #60]	@ (80047a4 <statehandler_gameinitnew+0xac>)
    BTN_HOLD_ON_DELAY = 50;
 8004766:	4910      	ldr	r1, [pc, #64]	@ (80047a8 <statehandler_gameinitnew+0xb0>)
    Game.level_progress = 0;
 8004768:	705c      	strb	r4, [r3, #1]
    GameFlags.gameflagsreg = 0b00001101;
 800476a:	4b10      	ldr	r3, [pc, #64]	@ (80047ac <statehandler_gameinitnew+0xb4>)
    BTN_HOLD_ON_DELAY = 50;
 800476c:	6008      	str	r0, [r1, #0]
    GameFlags.gameflagsreg = 0b00001101;
 800476e:	701a      	strb	r2, [r3, #0]
    SchedGamerunEventsAdd();
 8004770:	f7ff ff94 	bl	800469c <SchedGamerunEventsAdd>
    gameevent = EVENT_EXIT; 
 8004774:	7037      	strb	r7, [r6, #0]
}
 8004776:	bdf8      	pop	{r3, r4, r5, r6, r7, pc}
 8004778:	20000a64 	.word	0x20000a64
 800477c:	20000a4e 	.word	0x20000a4e
 8004780:	20000a4c 	.word	0x20000a4c
 8004784:	0800aa8c 	.word	0x0800aa8c
 8004788:	0800a80c 	.word	0x0800a80c
 800478c:	200002ac 	.word	0x200002ac
 8004790:	20000294 	.word	0x20000294
 8004794:	2000027c 	.word	0x2000027c
 8004798:	20000264 	.word	0x20000264
 800479c:	20000bb8 	.word	0x20000bb8
 80047a0:	00040418 	.word	0x00040418
 80047a4:	20000bc0 	.word	0x20000bc0
 80047a8:	20000008 	.word	0x20000008
 80047ac:	20000a50 	.word	0x20000a50

080047b0 <statehandler_gameload>:
{
 80047b0:	b570      	push	{r4, r5, r6, lr}
  if(coursorpos == COURS_POS_1){
 80047b2:	4d36      	ldr	r5, [pc, #216]	@ (800488c <statehandler_gameload+0xdc>)
 80047b4:	782c      	ldrb	r4, [r5, #0]
 80047b6:	b16c      	cbz	r4, 80047d4 <statehandler_gameload+0x24>
  if(coursorpos == COURS_POS_2){
 80047b8:	2c01      	cmp	r4, #1
 80047ba:	d039      	beq.n	8004830 <statehandler_gameload+0x80>
  BTN_HOLD_ON_DELAY = 50;
 80047bc:	2232      	movs	r2, #50	@ 0x32
 80047be:	4b34      	ldr	r3, [pc, #208]	@ (8004890 <statehandler_gameload+0xe0>)
 80047c0:	601a      	str	r2, [r3, #0]
  SchedGamerunEventsAdd();
 80047c2:	f7ff ff6b 	bl	800469c <SchedGamerunEventsAdd>
  gamestate = STATE_RUNGAME;
 80047c6:	2007      	movs	r0, #7
  gameevent = EVENT_NONE;
 80047c8:	2200      	movs	r2, #0
  gamestate = STATE_RUNGAME;
 80047ca:	4932      	ldr	r1, [pc, #200]	@ (8004894 <statehandler_gameload+0xe4>)
  gameevent = EVENT_NONE;
 80047cc:	4b32      	ldr	r3, [pc, #200]	@ (8004898 <statehandler_gameload+0xe8>)
  gamestate = STATE_RUNGAME;
 80047ce:	7008      	strb	r0, [r1, #0]
  gameevent = EVENT_NONE;
 80047d0:	701a      	strb	r2, [r3, #0]
}
 80047d2:	bd70      	pop	{r4, r5, r6, pc}
    Gamer.health = EEPROM_readbyte(4);
 80047d4:	2004      	movs	r0, #4
 80047d6:	f7fc fd85 	bl	80012e4 <EEPROM_readbyte>
 80047da:	4603      	mov	r3, r0
 80047dc:	4e2f      	ldr	r6, [pc, #188]	@ (800489c <statehandler_gameload+0xec>)
    Gamer.energymax = EEPROM_readbyte(5);
 80047de:	2005      	movs	r0, #5
    Gamer.health = EEPROM_readbyte(4);
 80047e0:	7033      	strb	r3, [r6, #0]
    Gamer.energymax = EEPROM_readbyte(5);
 80047e2:	f7fc fd7f 	bl	80012e4 <EEPROM_readbyte>
 80047e6:	4603      	mov	r3, r0
 80047e8:	b25b      	sxtb	r3, r3
    Gamer.energy = Gamer.energymax;
 80047ea:	f363 0407 	bfi	r4, r3, #0, #8
 80047ee:	f363 240f 	bfi	r4, r3, #8, #8
    Gamer.gasmask_health = EEPROM_readbyte(6);
 80047f2:	2006      	movs	r0, #6
    Gamer.energy = Gamer.energymax;
 80047f4:	f8a6 4001 	strh.w	r4, [r6, #1]
    Gamer.gasmask_health = EEPROM_readbyte(6);
 80047f8:	f7fc fd74 	bl	80012e4 <EEPROM_readbyte>
 80047fc:	4603      	mov	r3, r0
    Gamer.bombs = EEPROM_readbyte(7);
 80047fe:	2007      	movs	r0, #7
    Gamer.gasmask_health = EEPROM_readbyte(6);
 8004800:	70f3      	strb	r3, [r6, #3]
    Gamer.bombs = EEPROM_readbyte(7);
 8004802:	f7fc fd6f 	bl	80012e4 <EEPROM_readbyte>
 8004806:	4603      	mov	r3, r0
    Gamer.money = EEPROM_readbyte(8);
 8004808:	2008      	movs	r0, #8
    Gamer.bombs = EEPROM_readbyte(7);
 800480a:	7133      	strb	r3, [r6, #4]
    Gamer.money = EEPROM_readbyte(8);
 800480c:	f7fc fd6a 	bl	80012e4 <EEPROM_readbyte>
 8004810:	4603      	mov	r3, r0
    Game.level_progress = EEPROM_readbyte(9);
 8004812:	2009      	movs	r0, #9
    Gamer.money = EEPROM_readbyte(8);
 8004814:	7173      	strb	r3, [r6, #5]
    Game.level_progress = EEPROM_readbyte(9);
 8004816:	f7fc fd65 	bl	80012e4 <EEPROM_readbyte>
 800481a:	4602      	mov	r2, r0
 800481c:	4b20      	ldr	r3, [pc, #128]	@ (80048a0 <statehandler_gameload+0xf0>)
    GameFlags.gameflagsreg = EEPROM_readbyte(10);
 800481e:	200a      	movs	r0, #10
    Game.level_progress = EEPROM_readbyte(9);
 8004820:	705a      	strb	r2, [r3, #1]
    GameFlags.gameflagsreg = EEPROM_readbyte(10);
 8004822:	f7fc fd5f 	bl	80012e4 <EEPROM_readbyte>
  if(coursorpos == COURS_POS_2){
 8004826:	782c      	ldrb	r4, [r5, #0]
    GameFlags.gameflagsreg = EEPROM_readbyte(10);
 8004828:	4b1e      	ldr	r3, [pc, #120]	@ (80048a4 <statehandler_gameload+0xf4>)
  if(coursorpos == COURS_POS_2){
 800482a:	2c01      	cmp	r4, #1
    GameFlags.gameflagsreg = EEPROM_readbyte(10);
 800482c:	7018      	strb	r0, [r3, #0]
  if(coursorpos == COURS_POS_2){
 800482e:	d1c5      	bne.n	80047bc <statehandler_gameload+0xc>
    Gamer.health = EEPROM_readbyte(13);
 8004830:	200d      	movs	r0, #13
 8004832:	f7fc fd57 	bl	80012e4 <EEPROM_readbyte>
 8004836:	4603      	mov	r3, r0
 8004838:	4c18      	ldr	r4, [pc, #96]	@ (800489c <statehandler_gameload+0xec>)
    Gamer.energymax = EEPROM_readbyte(14);
 800483a:	200e      	movs	r0, #14
    Gamer.health = EEPROM_readbyte(13);
 800483c:	7023      	strb	r3, [r4, #0]
    Gamer.energymax = EEPROM_readbyte(14);
 800483e:	f7fc fd51 	bl	80012e4 <EEPROM_readbyte>
 8004842:	4603      	mov	r3, r0
    Gamer.energy = Gamer.energymax;
 8004844:	f04f 0200 	mov.w	r2, #0
    Gamer.energymax = EEPROM_readbyte(14);
 8004848:	b25b      	sxtb	r3, r3
    Gamer.energy = Gamer.energymax;
 800484a:	f363 0207 	bfi	r2, r3, #0, #8
 800484e:	f363 220f 	bfi	r2, r3, #8, #8
    Gamer.gasmask_health = EEPROM_readbyte(15);
 8004852:	200f      	movs	r0, #15
    Gamer.energy = Gamer.energymax;
 8004854:	f8a4 2001 	strh.w	r2, [r4, #1]
    Gamer.gasmask_health = EEPROM_readbyte(15);
 8004858:	f7fc fd44 	bl	80012e4 <EEPROM_readbyte>
 800485c:	4603      	mov	r3, r0
    Gamer.bombs = EEPROM_readbyte(16);
 800485e:	2010      	movs	r0, #16
    Gamer.gasmask_health = EEPROM_readbyte(15);
 8004860:	70e3      	strb	r3, [r4, #3]
    Gamer.bombs = EEPROM_readbyte(16);
 8004862:	f7fc fd3f 	bl	80012e4 <EEPROM_readbyte>
 8004866:	4603      	mov	r3, r0
    Gamer.money = EEPROM_readbyte(17);
 8004868:	2011      	movs	r0, #17
    Gamer.bombs = EEPROM_readbyte(16);
 800486a:	7123      	strb	r3, [r4, #4]
    Gamer.money = EEPROM_readbyte(17);
 800486c:	f7fc fd3a 	bl	80012e4 <EEPROM_readbyte>
 8004870:	4603      	mov	r3, r0
    Game.level_progress = EEPROM_readbyte(18);
 8004872:	2012      	movs	r0, #18
    Gamer.money = EEPROM_readbyte(17);
 8004874:	7163      	strb	r3, [r4, #5]
    Game.level_progress = EEPROM_readbyte(18);
 8004876:	f7fc fd35 	bl	80012e4 <EEPROM_readbyte>
 800487a:	4602      	mov	r2, r0
 800487c:	4b08      	ldr	r3, [pc, #32]	@ (80048a0 <statehandler_gameload+0xf0>)
    GameFlags.gameflagsreg = EEPROM_readbyte(19);
 800487e:	2013      	movs	r0, #19
    Game.level_progress = EEPROM_readbyte(18);
 8004880:	705a      	strb	r2, [r3, #1]
    GameFlags.gameflagsreg = EEPROM_readbyte(19);
 8004882:	f7fc fd2f 	bl	80012e4 <EEPROM_readbyte>
 8004886:	4b07      	ldr	r3, [pc, #28]	@ (80048a4 <statehandler_gameload+0xf4>)
 8004888:	7018      	strb	r0, [r3, #0]
 800488a:	e797      	b.n	80047bc <statehandler_gameload+0xc>
 800488c:	20000a4d 	.word	0x20000a4d
 8004890:	20000008 	.word	0x20000008
 8004894:	20000a4e 	.word	0x20000a4e
 8004898:	20000a4c 	.word	0x20000a4c
 800489c:	20000bb8 	.word	0x20000bb8
 80048a0:	20000bc0 	.word	0x20000bc0
 80048a4:	20000a50 	.word	0x20000a50

080048a8 <menu_getevent>:
{
 80048a8:	b430      	push	{r4, r5}
  IF_ANY_BTN_PRESS(
 80048aa:	4d1b      	ldr	r5, [pc, #108]	@ (8004918 <menu_getevent+0x70>)
 80048ac:	4c1b      	ldr	r4, [pc, #108]	@ (800491c <menu_getevent+0x74>)
 80048ae:	481c      	ldr	r0, [pc, #112]	@ (8004920 <menu_getevent+0x78>)
 80048b0:	7c62      	ldrb	r2, [r4, #17]
 80048b2:	7c6b      	ldrb	r3, [r5, #17]
 80048b4:	491b      	ldr	r1, [pc, #108]	@ (8004924 <menu_getevent+0x7c>)
 80048b6:	4313      	orrs	r3, r2
 80048b8:	7c42      	ldrb	r2, [r0, #17]
 80048ba:	4313      	orrs	r3, r2
 80048bc:	7c4a      	ldrb	r2, [r1, #17]
 80048be:	4313      	orrs	r3, r2
 80048c0:	d106      	bne.n	80048d0 <menu_getevent+0x28>
  if(somethinghappen) somethinghappen = 0;
 80048c2:	4b19      	ldr	r3, [pc, #100]	@ (8004928 <menu_getevent+0x80>)
 80048c4:	781a      	ldrb	r2, [r3, #0]
 80048c6:	b992      	cbnz	r2, 80048ee <menu_getevent+0x46>
  else gameevent = EVENT_NONE;
 80048c8:	4b18      	ldr	r3, [pc, #96]	@ (800492c <menu_getevent+0x84>)
 80048ca:	701a      	strb	r2, [r3, #0]
}
 80048cc:	bc30      	pop	{r4, r5}
 80048ce:	4770      	bx	lr
  IF_ANY_BTN_PRESS(
 80048d0:	2300      	movs	r3, #0
 80048d2:	4a17      	ldr	r2, [pc, #92]	@ (8004930 <menu_getevent+0x88>)
 80048d4:	746b      	strb	r3, [r5, #17]
 80048d6:	7812      	ldrb	r2, [r2, #0]
 80048d8:	7463      	strb	r3, [r4, #17]
 80048da:	2a04      	cmp	r2, #4
 80048dc:	7443      	strb	r3, [r0, #17]
 80048de:	744b      	strb	r3, [r1, #17]
 80048e0:	d818      	bhi.n	8004914 <menu_getevent+0x6c>
 80048e2:	2a01      	cmp	r2, #1
 80048e4:	d907      	bls.n	80048f6 <menu_getevent+0x4e>
 80048e6:	2103      	movs	r1, #3
 80048e8:	4a10      	ldr	r2, [pc, #64]	@ (800492c <menu_getevent+0x84>)
 80048ea:	4b0f      	ldr	r3, [pc, #60]	@ (8004928 <menu_getevent+0x80>)
 80048ec:	7011      	strb	r1, [r2, #0]
  if(somethinghappen) somethinghappen = 0;
 80048ee:	2200      	movs	r2, #0
 80048f0:	701a      	strb	r2, [r3, #0]
}
 80048f2:	bc30      	pop	{r4, r5}
 80048f4:	4770      	bx	lr
  IF_ANY_BTN_PRESS(
 80048f6:	b132      	cbz	r2, 8004906 <menu_getevent+0x5e>
 80048f8:	2102      	movs	r1, #2
 80048fa:	4a0c      	ldr	r2, [pc, #48]	@ (800492c <menu_getevent+0x84>)
 80048fc:	4b0a      	ldr	r3, [pc, #40]	@ (8004928 <menu_getevent+0x80>)
 80048fe:	7011      	strb	r1, [r2, #0]
  if(somethinghappen) somethinghappen = 0;
 8004900:	2200      	movs	r2, #0
 8004902:	701a      	strb	r2, [r3, #0]
 8004904:	e7f5      	b.n	80048f2 <menu_getevent+0x4a>
  IF_ANY_BTN_PRESS(
 8004906:	2101      	movs	r1, #1
 8004908:	4a08      	ldr	r2, [pc, #32]	@ (800492c <menu_getevent+0x84>)
 800490a:	4b07      	ldr	r3, [pc, #28]	@ (8004928 <menu_getevent+0x80>)
 800490c:	7011      	strb	r1, [r2, #0]
  if(somethinghappen) somethinghappen = 0;
 800490e:	2200      	movs	r2, #0
 8004910:	701a      	strb	r2, [r3, #0]
 8004912:	e7ee      	b.n	80048f2 <menu_getevent+0x4a>
 8004914:	4b04      	ldr	r3, [pc, #16]	@ (8004928 <menu_getevent+0x80>)
 8004916:	e7ea      	b.n	80048ee <menu_getevent+0x46>
 8004918:	200002ac 	.word	0x200002ac
 800491c:	20000294 	.word	0x20000294
 8004920:	2000027c 	.word	0x2000027c
 8004924:	20000264 	.word	0x20000264
 8004928:	20000a42 	.word	0x20000a42
 800492c:	20000a4c 	.word	0x20000a4c
 8004930:	20000a4d 	.word	0x20000a4d

08004934 <magaz_getevent>:
{
 8004934:	b430      	push	{r4, r5}
  IF_ANY_BTN_PRESS(
 8004936:	4825      	ldr	r0, [pc, #148]	@ (80049cc <magaz_getevent+0x98>)
 8004938:	4c25      	ldr	r4, [pc, #148]	@ (80049d0 <magaz_getevent+0x9c>)
 800493a:	7c42      	ldrb	r2, [r0, #17]
 800493c:	4925      	ldr	r1, [pc, #148]	@ (80049d4 <magaz_getevent+0xa0>)
 800493e:	7c63      	ldrb	r3, [r4, #17]
 8004940:	4313      	orrs	r3, r2
 8004942:	7c4a      	ldrb	r2, [r1, #17]
 8004944:	4313      	orrs	r3, r2
 8004946:	4a24      	ldr	r2, [pc, #144]	@ (80049d8 <magaz_getevent+0xa4>)
 8004948:	f892 c011 	ldrb.w	ip, [r2, #17]
 800494c:	ea53 030c 	orrs.w	r3, r3, ip
 8004950:	d106      	bne.n	8004960 <magaz_getevent+0x2c>
  if(somethinghappen) somethinghappen = 0;
 8004952:	4b22      	ldr	r3, [pc, #136]	@ (80049dc <magaz_getevent+0xa8>)
 8004954:	781a      	ldrb	r2, [r3, #0]
 8004956:	b9ba      	cbnz	r2, 8004988 <magaz_getevent+0x54>
  else gameevent = EVENT_NONE;
 8004958:	4b21      	ldr	r3, [pc, #132]	@ (80049e0 <magaz_getevent+0xac>)
 800495a:	701a      	strb	r2, [r3, #0]
}
 800495c:	bc30      	pop	{r4, r5}
 800495e:	4770      	bx	lr
  IF_ANY_BTN_PRESS(
 8004960:	2300      	movs	r3, #0
 8004962:	4d20      	ldr	r5, [pc, #128]	@ (80049e4 <magaz_getevent+0xb0>)
 8004964:	7463      	strb	r3, [r4, #17]
 8004966:	f895 c000 	ldrb.w	ip, [r5]
 800496a:	7443      	strb	r3, [r0, #17]
 800496c:	744b      	strb	r3, [r1, #17]
 800496e:	7453      	strb	r3, [r2, #17]
 8004970:	f1bc 0f04 	cmp.w	ip, #4
 8004974:	d828      	bhi.n	80049c8 <magaz_getevent+0x94>
 8004976:	e8df f00c 	tbb	[pc, ip]
 800497a:	1912      	.short	0x1912
 800497c:	0320      	.short	0x0320
 800497e:	0b          	.byte	0x0b
 800497f:	00          	.byte	0x00
 8004980:	2103      	movs	r1, #3
 8004982:	4a17      	ldr	r2, [pc, #92]	@ (80049e0 <magaz_getevent+0xac>)
 8004984:	4b15      	ldr	r3, [pc, #84]	@ (80049dc <magaz_getevent+0xa8>)
 8004986:	7011      	strb	r1, [r2, #0]
  if(somethinghappen) somethinghappen = 0;
 8004988:	2200      	movs	r2, #0
 800498a:	701a      	strb	r2, [r3, #0]
}
 800498c:	bc30      	pop	{r4, r5}
 800498e:	4770      	bx	lr
  IF_ANY_BTN_PRESS(
 8004990:	2104      	movs	r1, #4
 8004992:	4a13      	ldr	r2, [pc, #76]	@ (80049e0 <magaz_getevent+0xac>)
 8004994:	4b11      	ldr	r3, [pc, #68]	@ (80049dc <magaz_getevent+0xa8>)
 8004996:	7011      	strb	r1, [r2, #0]
  if(somethinghappen) somethinghappen = 0;
 8004998:	2200      	movs	r2, #0
 800499a:	701a      	strb	r2, [r3, #0]
 800499c:	e7f6      	b.n	800498c <magaz_getevent+0x58>
  IF_ANY_BTN_PRESS(
 800499e:	2106      	movs	r1, #6
 80049a0:	4a0f      	ldr	r2, [pc, #60]	@ (80049e0 <magaz_getevent+0xac>)
 80049a2:	4b0e      	ldr	r3, [pc, #56]	@ (80049dc <magaz_getevent+0xa8>)
 80049a4:	7011      	strb	r1, [r2, #0]
  if(somethinghappen) somethinghappen = 0;
 80049a6:	2200      	movs	r2, #0
 80049a8:	701a      	strb	r2, [r3, #0]
 80049aa:	e7ef      	b.n	800498c <magaz_getevent+0x58>
  IF_ANY_BTN_PRESS(
 80049ac:	2101      	movs	r1, #1
 80049ae:	4a0c      	ldr	r2, [pc, #48]	@ (80049e0 <magaz_getevent+0xac>)
 80049b0:	4b0a      	ldr	r3, [pc, #40]	@ (80049dc <magaz_getevent+0xa8>)
 80049b2:	7011      	strb	r1, [r2, #0]
  if(somethinghappen) somethinghappen = 0;
 80049b4:	2200      	movs	r2, #0
 80049b6:	701a      	strb	r2, [r3, #0]
 80049b8:	e7e8      	b.n	800498c <magaz_getevent+0x58>
  IF_ANY_BTN_PRESS(
 80049ba:	2102      	movs	r1, #2
 80049bc:	4a08      	ldr	r2, [pc, #32]	@ (80049e0 <magaz_getevent+0xac>)
 80049be:	4b07      	ldr	r3, [pc, #28]	@ (80049dc <magaz_getevent+0xa8>)
 80049c0:	7011      	strb	r1, [r2, #0]
  if(somethinghappen) somethinghappen = 0;
 80049c2:	2200      	movs	r2, #0
 80049c4:	701a      	strb	r2, [r3, #0]
 80049c6:	e7e1      	b.n	800498c <magaz_getevent+0x58>
 80049c8:	4b04      	ldr	r3, [pc, #16]	@ (80049dc <magaz_getevent+0xa8>)
 80049ca:	e7dd      	b.n	8004988 <magaz_getevent+0x54>
 80049cc:	20000294 	.word	0x20000294
 80049d0:	200002ac 	.word	0x200002ac
 80049d4:	2000027c 	.word	0x2000027c
 80049d8:	20000264 	.word	0x20000264
 80049dc:	20000a41 	.word	0x20000a41
 80049e0:	20000a4c 	.word	0x20000a4c
 80049e4:	20000a4d 	.word	0x20000a4d

080049e8 <coursormovdisp>:
{
 80049e8:	b510      	push	{r4, lr}
  if(gamestate != STATE_MAGAZIN)
 80049ea:	4b76      	ldr	r3, [pc, #472]	@ (8004bc4 <coursormovdisp+0x1dc>)
    if (joystick.down) {
 80049ec:	4876      	ldr	r0, [pc, #472]	@ (8004bc8 <coursormovdisp+0x1e0>)
  if(gamestate != STATE_MAGAZIN)
 80049ee:	7819      	ldrb	r1, [r3, #0]
      coursorpos++; 
 80049f0:	4c76      	ldr	r4, [pc, #472]	@ (8004bcc <coursormovdisp+0x1e4>)
  if(gamestate != STATE_MAGAZIN)
 80049f2:	2908      	cmp	r1, #8
    if (joystick.down) {
 80049f4:	7802      	ldrb	r2, [r0, #0]
      coursorpos++; 
 80049f6:	7823      	ldrb	r3, [r4, #0]
  if(gamestate != STATE_MAGAZIN)
 80049f8:	d032      	beq.n	8004a60 <coursormovdisp+0x78>
    if (joystick.down) {
 80049fa:	0791      	lsls	r1, r2, #30
 80049fc:	d513      	bpl.n	8004a26 <coursormovdisp+0x3e>
      coursorpos++; 
 80049fe:	3301      	adds	r3, #1
 8004a00:	b2db      	uxtb	r3, r3
      joystick.down = 0;
 8004a02:	f36f 0241 	bfc	r2, #1, #1
      if(coursorpos >= COURS_POS_3) coursorpos = COURS_POS_3;
 8004a06:	2b01      	cmp	r3, #1
      coursorpos++; 
 8004a08:	7023      	strb	r3, [r4, #0]
      joystick.down = 0;
 8004a0a:	7002      	strb	r2, [r0, #0]
      if(coursorpos >= COURS_POS_3) coursorpos = COURS_POS_3;
 8004a0c:	d918      	bls.n	8004a40 <coursormovdisp+0x58>
 8004a0e:	2302      	movs	r3, #2
    if (joystick.up){
 8004a10:	7802      	ldrb	r2, [r0, #0]
      if(coursorpos >= COURS_POS_3) coursorpos = COURS_POS_3;
 8004a12:	7023      	strb	r3, [r4, #0]
    if (joystick.up){
 8004a14:	f012 0301 	ands.w	r3, r2, #1
 8004a18:	d00c      	beq.n	8004a34 <coursormovdisp+0x4c>
      if(coursorpos != COURS_POS_1) coursorpos--; 
 8004a1a:	2101      	movs	r1, #1
      joystick.up = 0;
 8004a1c:	f36f 0200 	bfc	r2, #0, #1
 8004a20:	7002      	strb	r2, [r0, #0]
      if(coursorpos != COURS_POS_1) coursorpos--; 
 8004a22:	7021      	strb	r1, [r4, #0]
    switch(coursorpos)
 8004a24:	e004      	b.n	8004a30 <coursormovdisp+0x48>
    if (joystick.up){
 8004a26:	07d1      	lsls	r1, r2, #31
 8004a28:	d40d      	bmi.n	8004a46 <coursormovdisp+0x5e>
    switch(coursorpos)
 8004a2a:	2b04      	cmp	r3, #4
 8004a2c:	f200 80be 	bhi.w	8004bac <coursormovdisp+0x1c4>
 8004a30:	2b01      	cmp	r3, #1
 8004a32:	d95c      	bls.n	8004aee <coursormovdisp+0x106>
}
 8004a34:	e8bd 4010 	ldmia.w	sp!, {r4, lr}
		LCD_printmenucoursor(6, 4);
 8004a38:	2104      	movs	r1, #4
 8004a3a:	2006      	movs	r0, #6
 8004a3c:	f7fc bec0 	b.w	80017c0 <LCD_printmenucoursor>
    if (joystick.up){
 8004a40:	b2d2      	uxtb	r2, r2
 8004a42:	07d2      	lsls	r2, r2, #31
 8004a44:	d553      	bpl.n	8004aee <coursormovdisp+0x106>
      joystick.up = 0;
 8004a46:	7802      	ldrb	r2, [r0, #0]
 8004a48:	f36f 0200 	bfc	r2, #0, #1
 8004a4c:	7002      	strb	r2, [r0, #0]
      if(coursorpos != COURS_POS_1) coursorpos--; 
 8004a4e:	2b00      	cmp	r3, #0
 8004a50:	f040 80ad 	bne.w	8004bae <coursormovdisp+0x1c6>
}
 8004a54:	e8bd 4010 	ldmia.w	sp!, {r4, lr}
		LCD_printmenucoursor(2, 4);
 8004a58:	2104      	movs	r1, #4
 8004a5a:	2002      	movs	r0, #2
 8004a5c:	f7fc beb0 	b.w	80017c0 <LCD_printmenucoursor>
    if (joystick.right) {
 8004a60:	f012 0108 	ands.w	r1, r2, #8
 8004a64:	d11e      	bne.n	8004aa4 <coursormovdisp+0xbc>
    if (joystick.left){
 8004a66:	f012 0f04 	tst.w	r2, #4
 8004a6a:	d064      	beq.n	8004b36 <coursormovdisp+0x14e>
      joystick.left = 0;
 8004a6c:	f361 0282 	bfi	r2, r1, #2, #1
 8004a70:	7002      	strb	r2, [r0, #0]
      if(coursorpos != COURS_POS_1) coursorpos--; 
 8004a72:	2b00      	cmp	r3, #0
 8004a74:	f040 80a2 	bne.w	8004bbc <coursormovdisp+0x1d4>
        LCD_printhorline(26, 63, 36);
 8004a78:	2224      	movs	r2, #36	@ 0x24
 8004a7a:	213f      	movs	r1, #63	@ 0x3f
 8004a7c:	201a      	movs	r0, #26
 8004a7e:	f7fc ff93 	bl	80019a8 <LCD_printhorline>
        LCD_printhorline(26, 54, 36);
 8004a82:	2224      	movs	r2, #36	@ 0x24
 8004a84:	2136      	movs	r1, #54	@ 0x36
 8004a86:	201a      	movs	r0, #26
 8004a88:	f7fc ff8e 	bl	80019a8 <LCD_printhorline>
        LCD_printvertline(9, 54, 36);
 8004a8c:	2224      	movs	r2, #36	@ 0x24
 8004a8e:	2136      	movs	r1, #54	@ 0x36
 8004a90:	2009      	movs	r0, #9
 8004a92:	f7fc feff 	bl	8001894 <LCD_printvertline>
}
 8004a96:	e8bd 4010 	ldmia.w	sp!, {r4, lr}
        LCD_printvertline(9, 54, 62);
 8004a9a:	223e      	movs	r2, #62	@ 0x3e
 8004a9c:	2136      	movs	r1, #54	@ 0x36
 8004a9e:	2009      	movs	r0, #9
 8004aa0:	f7fc bef8 	b.w	8001894 <LCD_printvertline>
      joystick.right = 0;
 8004aa4:	f36f 02c3 	bfc	r2, #3, #1
      if(coursorpos >= COURS_POS_5) coursorpos = COURS_POS_5;
 8004aa8:	2b03      	cmp	r3, #3
      joystick.right = 0;
 8004aaa:	7002      	strb	r2, [r0, #0]
      if(coursorpos >= COURS_POS_5) coursorpos = COURS_POS_5;
 8004aac:	d93d      	bls.n	8004b2a <coursormovdisp+0x142>
 8004aae:	2204      	movs	r2, #4
    if (joystick.left){
 8004ab0:	7803      	ldrb	r3, [r0, #0]
      if(coursorpos >= COURS_POS_5) coursorpos = COURS_POS_5;
 8004ab2:	7022      	strb	r2, [r4, #0]
    if (joystick.left){
 8004ab4:	075a      	lsls	r2, r3, #29
 8004ab6:	d522      	bpl.n	8004afe <coursormovdisp+0x116>
      if(coursorpos != COURS_POS_1) coursorpos--; 
 8004ab8:	2203      	movs	r2, #3
      joystick.left = 0;
 8004aba:	f36f 0382 	bfc	r3, #2, #1
 8004abe:	7003      	strb	r3, [r0, #0]
      if(coursorpos != COURS_POS_1) coursorpos--; 
 8004ac0:	7022      	strb	r2, [r4, #0]
        LCD_printhorline(14, 61, 97);
 8004ac2:	2261      	movs	r2, #97	@ 0x61
 8004ac4:	213d      	movs	r1, #61	@ 0x3d
 8004ac6:	200e      	movs	r0, #14
 8004ac8:	f7fc ff6e 	bl	80019a8 <LCD_printhorline>
        LCD_printhorline(14, 62, 97);
 8004acc:	2261      	movs	r2, #97	@ 0x61
 8004ace:	213e      	movs	r1, #62	@ 0x3e
 8004ad0:	200e      	movs	r0, #14
 8004ad2:	f7fc ff69 	bl	80019a8 <LCD_printhorline>
        LCD_printvertline(3, 58, 97);
 8004ad6:	2261      	movs	r2, #97	@ 0x61
 8004ad8:	213a      	movs	r1, #58	@ 0x3a
 8004ada:	2003      	movs	r0, #3
 8004adc:	f7fc feda 	bl	8001894 <LCD_printvertline>
}
 8004ae0:	e8bd 4010 	ldmia.w	sp!, {r4, lr}
        LCD_printvertline(3, 58, 111);
 8004ae4:	226f      	movs	r2, #111	@ 0x6f
 8004ae6:	213a      	movs	r1, #58	@ 0x3a
 8004ae8:	2003      	movs	r0, #3
 8004aea:	f7fc bed3 	b.w	8001894 <LCD_printvertline>
    switch(coursorpos)
 8004aee:	2b00      	cmp	r3, #0
 8004af0:	d0b0      	beq.n	8004a54 <coursormovdisp+0x6c>
}
 8004af2:	e8bd 4010 	ldmia.w	sp!, {r4, lr}
		LCD_printmenucoursor(4, 4);
 8004af6:	2104      	movs	r1, #4
 8004af8:	4608      	mov	r0, r1
 8004afa:	f7fc be61 	b.w	80017c0 <LCD_printmenucoursor>
        LCD_printhorline(14, 61, 111);
 8004afe:	226f      	movs	r2, #111	@ 0x6f
 8004b00:	213d      	movs	r1, #61	@ 0x3d
 8004b02:	200e      	movs	r0, #14
 8004b04:	f7fc ff50 	bl	80019a8 <LCD_printhorline>
        LCD_printhorline(14, 62, 111);
 8004b08:	226f      	movs	r2, #111	@ 0x6f
 8004b0a:	213e      	movs	r1, #62	@ 0x3e
 8004b0c:	200e      	movs	r0, #14
 8004b0e:	f7fc ff4b 	bl	80019a8 <LCD_printhorline>
        LCD_printvertline(3, 58, 111);
 8004b12:	226f      	movs	r2, #111	@ 0x6f
 8004b14:	213a      	movs	r1, #58	@ 0x3a
 8004b16:	2003      	movs	r0, #3
 8004b18:	f7fc febc 	bl	8001894 <LCD_printvertline>
}
 8004b1c:	e8bd 4010 	ldmia.w	sp!, {r4, lr}
        LCD_printvertline(3, 58, 125);
 8004b20:	227d      	movs	r2, #125	@ 0x7d
 8004b22:	213a      	movs	r1, #58	@ 0x3a
 8004b24:	2003      	movs	r0, #3
 8004b26:	f7fc beb5 	b.w	8001894 <LCD_printvertline>
    if (joystick.left){
 8004b2a:	7802      	ldrb	r2, [r0, #0]
      else coursorpos++; 
 8004b2c:	3301      	adds	r3, #1
 8004b2e:	b2db      	uxtb	r3, r3
    if (joystick.left){
 8004b30:	0751      	lsls	r1, r2, #29
      else coursorpos++; 
 8004b32:	7023      	strb	r3, [r4, #0]
    if (joystick.left){
 8004b34:	d43f      	bmi.n	8004bb6 <coursormovdisp+0x1ce>
    switch(coursorpos)
 8004b36:	2b04      	cmp	r3, #4
 8004b38:	d838      	bhi.n	8004bac <coursormovdisp+0x1c4>
 8004b3a:	a201      	add	r2, pc, #4	@ (adr r2, 8004b40 <coursormovdisp+0x158>)
 8004b3c:	f852 f023 	ldr.w	pc, [r2, r3, lsl #2]
 8004b40:	08004a79 	.word	0x08004a79
 8004b44:	08004b81 	.word	0x08004b81
 8004b48:	08004b55 	.word	0x08004b55
 8004b4c:	08004ac3 	.word	0x08004ac3
 8004b50:	08004aff 	.word	0x08004aff
        LCD_printhorline(18, 61, 78);
 8004b54:	224e      	movs	r2, #78	@ 0x4e
 8004b56:	213d      	movs	r1, #61	@ 0x3d
 8004b58:	2012      	movs	r0, #18
 8004b5a:	f7fc ff25 	bl	80019a8 <LCD_printhorline>
        LCD_printhorline(18, 62, 78);
 8004b5e:	224e      	movs	r2, #78	@ 0x4e
 8004b60:	213e      	movs	r1, #62	@ 0x3e
 8004b62:	2012      	movs	r0, #18
 8004b64:	f7fc ff20 	bl	80019a8 <LCD_printhorline>
        LCD_printvertline(3, 58, 78);
 8004b68:	224e      	movs	r2, #78	@ 0x4e
 8004b6a:	213a      	movs	r1, #58	@ 0x3a
 8004b6c:	2003      	movs	r0, #3
 8004b6e:	f7fc fe91 	bl	8001894 <LCD_printvertline>
}
 8004b72:	e8bd 4010 	ldmia.w	sp!, {r4, lr}
        LCD_printvertline(3, 58, 96);
 8004b76:	2260      	movs	r2, #96	@ 0x60
 8004b78:	213a      	movs	r1, #58	@ 0x3a
 8004b7a:	2003      	movs	r0, #3
 8004b7c:	f7fc be8a 	b.w	8001894 <LCD_printvertline>
        LCD_printhorline(12, 61, 66);
 8004b80:	2242      	movs	r2, #66	@ 0x42
 8004b82:	213d      	movs	r1, #61	@ 0x3d
 8004b84:	200c      	movs	r0, #12
 8004b86:	f7fc ff0f 	bl	80019a8 <LCD_printhorline>
        LCD_printhorline(12, 62, 66);
 8004b8a:	2242      	movs	r2, #66	@ 0x42
 8004b8c:	213e      	movs	r1, #62	@ 0x3e
 8004b8e:	200c      	movs	r0, #12
 8004b90:	f7fc ff0a 	bl	80019a8 <LCD_printhorline>
        LCD_printvertline(3, 58, 66);
 8004b94:	2242      	movs	r2, #66	@ 0x42
 8004b96:	213a      	movs	r1, #58	@ 0x3a
 8004b98:	2003      	movs	r0, #3
 8004b9a:	f7fc fe7b 	bl	8001894 <LCD_printvertline>
}
 8004b9e:	e8bd 4010 	ldmia.w	sp!, {r4, lr}
        LCD_printvertline(3, 58, 78);
 8004ba2:	224e      	movs	r2, #78	@ 0x4e
 8004ba4:	213a      	movs	r1, #58	@ 0x3a
 8004ba6:	2003      	movs	r0, #3
 8004ba8:	f7fc be74 	b.w	8001894 <LCD_printvertline>
}
 8004bac:	bd10      	pop	{r4, pc}
      if(coursorpos != COURS_POS_1) coursorpos--; 
 8004bae:	3b01      	subs	r3, #1
 8004bb0:	b2db      	uxtb	r3, r3
 8004bb2:	7023      	strb	r3, [r4, #0]
 8004bb4:	e739      	b.n	8004a2a <coursormovdisp+0x42>
      joystick.left = 0;
 8004bb6:	f36f 0282 	bfc	r2, #2, #1
 8004bba:	7002      	strb	r2, [r0, #0]
      if(coursorpos != COURS_POS_1) coursorpos--; 
 8004bbc:	3b01      	subs	r3, #1
 8004bbe:	b2db      	uxtb	r3, r3
 8004bc0:	7023      	strb	r3, [r4, #0]
 8004bc2:	e7b8      	b.n	8004b36 <coursormovdisp+0x14e>
 8004bc4:	20000a4e 	.word	0x20000a4e
 8004bc8:	20000260 	.word	0x20000260
 8004bcc:	20000a4d 	.word	0x20000a4d

08004bd0 <statehandler_menumain>:
{
 8004bd0:	b510      	push	{r4, lr}
  gamestate = STATE_MAINMENU;
 8004bd2:	2400      	movs	r4, #0
 8004bd4:	4b10      	ldr	r3, [pc, #64]	@ (8004c18 <statehandler_menumain+0x48>)
 8004bd6:	701c      	strb	r4, [r3, #0]
  menu_getevent();
 8004bd8:	f7ff fe66 	bl	80048a8 <menu_getevent>
  LCD_printstr8x5((uint8*)" ", 0, 0);
 8004bdc:	4622      	mov	r2, r4
 8004bde:	4621      	mov	r1, r4
 8004be0:	480e      	ldr	r0, [pc, #56]	@ (8004c1c <statehandler_menumain+0x4c>)
 8004be2:	f7fc fb8f 	bl	8001304 <LCD_printstr8x5>
  LCD_printstr8x5((uint8*)" ", 2, 19);
 8004be6:	2213      	movs	r2, #19
 8004be8:	2102      	movs	r1, #2
 8004bea:	480d      	ldr	r0, [pc, #52]	@ (8004c20 <statehandler_menumain+0x50>)
 8004bec:	f7fc fb8a 	bl	8001304 <LCD_printstr8x5>
  LCD_printstr8x5((uint8*)" ", 4, 19);
 8004bf0:	2213      	movs	r2, #19
 8004bf2:	2104      	movs	r1, #4
 8004bf4:	480b      	ldr	r0, [pc, #44]	@ (8004c24 <statehandler_menumain+0x54>)
 8004bf6:	f7fc fb85 	bl	8001304 <LCD_printstr8x5>
  LCD_printstr8x5((uint8*)"", 6, 19);
 8004bfa:	2213      	movs	r2, #19
 8004bfc:	2106      	movs	r1, #6
 8004bfe:	480a      	ldr	r0, [pc, #40]	@ (8004c28 <statehandler_menumain+0x58>)
 8004c00:	f7fc fb80 	bl	8001304 <LCD_printstr8x5>
  coursormovdisp();
 8004c04:	f7ff fef0 	bl	80049e8 <coursormovdisp>
  if(gameevent == EVENT_SELPOS_2) coursorpos = COURS_POS_1; // coursor position when entering the load menu in "SLOT1"
 8004c08:	4b08      	ldr	r3, [pc, #32]	@ (8004c2c <statehandler_menumain+0x5c>)
 8004c0a:	781b      	ldrb	r3, [r3, #0]
 8004c0c:	2b02      	cmp	r3, #2
 8004c0e:	bf04      	itt	eq
 8004c10:	4b07      	ldreq	r3, [pc, #28]	@ (8004c30 <statehandler_menumain+0x60>)
 8004c12:	701c      	strbeq	r4, [r3, #0]
}
 8004c14:	bd10      	pop	{r4, pc}
 8004c16:	bf00      	nop
 8004c18:	20000a4e 	.word	0x20000a4e
 8004c1c:	0800a818 	.word	0x0800a818
 8004c20:	0800a830 	.word	0x0800a830
 8004c24:	0800a83c 	.word	0x0800a83c
 8004c28:	0800a84c 	.word	0x0800a84c
 8004c2c:	20000a4c 	.word	0x20000a4c
 8004c30:	20000a4d 	.word	0x20000a4d

08004c34 <statehandler_menuload>:
{ 
 8004c34:	b510      	push	{r4, lr}
  gamestate = STATE_LOADMENU;
 8004c36:	2401      	movs	r4, #1
 8004c38:	4b10      	ldr	r3, [pc, #64]	@ (8004c7c <statehandler_menuload+0x48>)
 8004c3a:	701c      	strb	r4, [r3, #0]
  menu_getevent();
 8004c3c:	f7ff fe34 	bl	80048a8 <menu_getevent>
  LCD_printstr8x5((uint8*)" ", 0, 5);
 8004c40:	2205      	movs	r2, #5
 8004c42:	2100      	movs	r1, #0
 8004c44:	480e      	ldr	r0, [pc, #56]	@ (8004c80 <statehandler_menuload+0x4c>)
 8004c46:	f7fc fb5d 	bl	8001304 <LCD_printstr8x5>
  LCD_printstr8x5(gameslot1, 2, 19);
 8004c4a:	2213      	movs	r2, #19
 8004c4c:	2102      	movs	r1, #2
 8004c4e:	480d      	ldr	r0, [pc, #52]	@ (8004c84 <statehandler_menuload+0x50>)
 8004c50:	f7fc fb58 	bl	8001304 <LCD_printstr8x5>
  LCD_printstr8x5(gameslot2, 4, 19);
 8004c54:	2213      	movs	r2, #19
 8004c56:	2104      	movs	r1, #4
 8004c58:	480b      	ldr	r0, [pc, #44]	@ (8004c88 <statehandler_menuload+0x54>)
 8004c5a:	f7fc fb53 	bl	8001304 <LCD_printstr8x5>
  LCD_printstr8x5((uint8*)"", 6, 19);
 8004c5e:	2213      	movs	r2, #19
 8004c60:	2106      	movs	r1, #6
 8004c62:	480a      	ldr	r0, [pc, #40]	@ (8004c8c <statehandler_menuload+0x58>)
 8004c64:	f7fc fb4e 	bl	8001304 <LCD_printstr8x5>
  coursormovdisp();
 8004c68:	f7ff febe 	bl	80049e8 <coursormovdisp>
  if(gameevent == EVENT_SELPOS_3) coursorpos = COURS_POS_2; // coursor position when returning to the main menu in "LOAD"
 8004c6c:	4b08      	ldr	r3, [pc, #32]	@ (8004c90 <statehandler_menuload+0x5c>)
 8004c6e:	781b      	ldrb	r3, [r3, #0]
 8004c70:	2b03      	cmp	r3, #3
 8004c72:	bf04      	itt	eq
 8004c74:	4b07      	ldreq	r3, [pc, #28]	@ (8004c94 <statehandler_menuload+0x60>)
 8004c76:	701c      	strbeq	r4, [r3, #0]
}
 8004c78:	bd10      	pop	{r4, pc}
 8004c7a:	bf00      	nop
 8004c7c:	20000a4e 	.word	0x20000a4e
 8004c80:	0800a854 	.word	0x0800a854
 8004c84:	20000038 	.word	0x20000038
 8004c88:	2000001c 	.word	0x2000001c
 8004c8c:	0800a864 	.word	0x0800a864
 8004c90:	20000a4c 	.word	0x20000a4c
 8004c94:	20000a4d 	.word	0x20000a4d

08004c98 <statehandler_menupause>:
{
 8004c98:	b510      	push	{r4, lr}
  if(gamestate == STATE_RUNGAME) SchedGamerunEventsPause();
 8004c9a:	4c19      	ldr	r4, [pc, #100]	@ (8004d00 <statehandler_menupause+0x68>)
 8004c9c:	7823      	ldrb	r3, [r4, #0]
 8004c9e:	2b07      	cmp	r3, #7
 8004ca0:	d01b      	beq.n	8004cda <statehandler_menupause+0x42>
  gamestate = STATE_PAUSEMENU;
 8004ca2:	2303      	movs	r3, #3
 8004ca4:	7023      	strb	r3, [r4, #0]
  menu_getevent();
 8004ca6:	f7ff fdff 	bl	80048a8 <menu_getevent>
  LCD_printstr8x5((uint8*)"", 0, 5);
 8004caa:	2205      	movs	r2, #5
 8004cac:	2100      	movs	r1, #0
 8004cae:	4815      	ldr	r0, [pc, #84]	@ (8004d04 <statehandler_menupause+0x6c>)
 8004cb0:	f7fc fb28 	bl	8001304 <LCD_printstr8x5>
  LCD_printstr8x5((uint8*)"", 2, 19);
 8004cb4:	2213      	movs	r2, #19
 8004cb6:	2102      	movs	r1, #2
 8004cb8:	4813      	ldr	r0, [pc, #76]	@ (8004d08 <statehandler_menupause+0x70>)
 8004cba:	f7fc fb23 	bl	8001304 <LCD_printstr8x5>
  LCD_printstr8x5((uint8*)"  ", 4, 19);
 8004cbe:	2213      	movs	r2, #19
 8004cc0:	2104      	movs	r1, #4
 8004cc2:	4812      	ldr	r0, [pc, #72]	@ (8004d0c <statehandler_menupause+0x74>)
 8004cc4:	f7fc fb1e 	bl	8001304 <LCD_printstr8x5>
  LCD_printstr8x5((uint8*)"", 6, 19);
 8004cc8:	2213      	movs	r2, #19
 8004cca:	2106      	movs	r1, #6
 8004ccc:	4810      	ldr	r0, [pc, #64]	@ (8004d10 <statehandler_menupause+0x78>)
 8004cce:	f7fc fb19 	bl	8001304 <LCD_printstr8x5>
}
 8004cd2:	e8bd 4010 	ldmia.w	sp!, {r4, lr}
  coursormovdisp();
 8004cd6:	f7ff be87 	b.w	80049e8 <coursormovdisp>
  SchedPauseEvent(createevilstar);
 8004cda:	480e      	ldr	r0, [pc, #56]	@ (8004d14 <statehandler_menupause+0x7c>)
 8004cdc:	f7fe f9b4 	bl	8003048 <SchedPauseEvent>
  SchedPauseEvent(createbullet);
 8004ce0:	480d      	ldr	r0, [pc, #52]	@ (8004d18 <statehandler_menupause+0x80>)
 8004ce2:	f7fe f9b1 	bl	8003048 <SchedPauseEvent>
  SchedPauseEvent(createbomb);
 8004ce6:	480d      	ldr	r0, [pc, #52]	@ (8004d1c <statehandler_menupause+0x84>)
 8004ce8:	f7fe f9ae 	bl	8003048 <SchedPauseEvent>
  SchedPauseEvent(movbullet);
 8004cec:	480c      	ldr	r0, [pc, #48]	@ (8004d20 <statehandler_menupause+0x88>)
 8004cee:	f7fe f9ab 	bl	8003048 <SchedPauseEvent>
  SchedPauseEvent(move_enemy_objects);
 8004cf2:	480c      	ldr	r0, [pc, #48]	@ (8004d24 <statehandler_menupause+0x8c>)
 8004cf4:	f7fe f9a8 	bl	8003048 <SchedPauseEvent>
  SchedPauseEvent(gameprogress);
 8004cf8:	480b      	ldr	r0, [pc, #44]	@ (8004d28 <statehandler_menupause+0x90>)
 8004cfa:	f7fe f9a5 	bl	8003048 <SchedPauseEvent>
}
 8004cfe:	e7d0      	b.n	8004ca2 <statehandler_menupause+0xa>
 8004d00:	20000a4e 	.word	0x20000a4e
 8004d04:	0800a86c 	.word	0x0800a86c
 8004d08:	0800a874 	.word	0x0800a874
 8004d0c:	0800a880 	.word	0x0800a880
 8004d10:	0800a84c 	.word	0x0800a84c
 8004d14:	08003591 	.word	0x08003591
 8004d18:	08003789 	.word	0x08003789
 8004d1c:	08003805 	.word	0x08003805
 8004d20:	0800344d 	.word	0x0800344d
 8004d24:	08003c1d 	.word	0x08003c1d
 8004d28:	0800386d 	.word	0x0800386d

08004d2c <statehandler_menusave>:
{
 8004d2c:	b510      	push	{r4, lr}
  gamestate = STATE_SAVEMENU;
 8004d2e:	2404      	movs	r4, #4
 8004d30:	4b11      	ldr	r3, [pc, #68]	@ (8004d78 <statehandler_menusave+0x4c>)
 8004d32:	701c      	strb	r4, [r3, #0]
  menu_getevent();
 8004d34:	f7ff fdb8 	bl	80048a8 <menu_getevent>
  LCD_printstr8x5((uint8*)" ", 0, 5);
 8004d38:	2205      	movs	r2, #5
 8004d3a:	2100      	movs	r1, #0
 8004d3c:	480f      	ldr	r0, [pc, #60]	@ (8004d7c <statehandler_menusave+0x50>)
 8004d3e:	f7fc fae1 	bl	8001304 <LCD_printstr8x5>
  LCD_printstr8x5(gameslot1, 2, 19);
 8004d42:	2213      	movs	r2, #19
 8004d44:	2102      	movs	r1, #2
 8004d46:	480e      	ldr	r0, [pc, #56]	@ (8004d80 <statehandler_menusave+0x54>)
 8004d48:	f7fc fadc 	bl	8001304 <LCD_printstr8x5>
  LCD_printstr8x5(gameslot2, 4, 19);
 8004d4c:	2213      	movs	r2, #19
 8004d4e:	4621      	mov	r1, r4
 8004d50:	480c      	ldr	r0, [pc, #48]	@ (8004d84 <statehandler_menusave+0x58>)
 8004d52:	f7fc fad7 	bl	8001304 <LCD_printstr8x5>
  LCD_printstr8x5((uint8*)"", 6, 19);
 8004d56:	2213      	movs	r2, #19
 8004d58:	2106      	movs	r1, #6
 8004d5a:	480b      	ldr	r0, [pc, #44]	@ (8004d88 <statehandler_menusave+0x5c>)
 8004d5c:	f7fc fad2 	bl	8001304 <LCD_printstr8x5>
  coursormovdisp();
 8004d60:	f7ff fe42 	bl	80049e8 <coursormovdisp>
  if(gameevent == EVENT_SELPOS_3) coursorpos = COURS_POS_1; // coursor position when returning to the pause menu in "SAVE"
 8004d64:	4b09      	ldr	r3, [pc, #36]	@ (8004d8c <statehandler_menusave+0x60>)
 8004d66:	781b      	ldrb	r3, [r3, #0]
 8004d68:	2b03      	cmp	r3, #3
 8004d6a:	d000      	beq.n	8004d6e <statehandler_menusave+0x42>
}
 8004d6c:	bd10      	pop	{r4, pc}
  if(gameevent == EVENT_SELPOS_3) coursorpos = COURS_POS_1; // coursor position when returning to the pause menu in "SAVE"
 8004d6e:	2200      	movs	r2, #0
 8004d70:	4b07      	ldr	r3, [pc, #28]	@ (8004d90 <statehandler_menusave+0x64>)
 8004d72:	701a      	strb	r2, [r3, #0]
}
 8004d74:	bd10      	pop	{r4, pc}
 8004d76:	bf00      	nop
 8004d78:	20000a4e 	.word	0x20000a4e
 8004d7c:	0800a894 	.word	0x0800a894
 8004d80:	20000038 	.word	0x20000038
 8004d84:	2000001c 	.word	0x2000001c
 8004d88:	0800a864 	.word	0x0800a864
 8004d8c:	20000a4c 	.word	0x20000a4c
 8004d90:	20000a4d 	.word	0x20000a4d

08004d94 <statehandler_magazin>:
{
 8004d94:	e92d 41f0 	stmdb	sp!, {r4, r5, r6, r7, r8, lr}
  if(gamestate == STATE_RUNGAME) SchedGamerunEventsPause();
 8004d98:	4c7f      	ldr	r4, [pc, #508]	@ (8004f98 <statehandler_magazin+0x204>)
{
 8004d9a:	b082      	sub	sp, #8
  if(gamestate == STATE_RUNGAME) SchedGamerunEventsPause();
 8004d9c:	7823      	ldrb	r3, [r4, #0]
 8004d9e:	2b07      	cmp	r3, #7
 8004da0:	d060      	beq.n	8004e64 <statehandler_magazin+0xd0>
  gamestate = STATE_MAGAZIN; 
 8004da2:	2508      	movs	r5, #8
  if(gameevent == EVENT_ENTERMAGAZ) // entering magazin animation
 8004da4:	4f7d      	ldr	r7, [pc, #500]	@ (8004f9c <statehandler_magazin+0x208>)
  gamestate = STATE_MAGAZIN; 
 8004da6:	7025      	strb	r5, [r4, #0]
  if(gameevent == EVENT_ENTERMAGAZ) // entering magazin animation
 8004da8:	783e      	ldrb	r6, [r7, #0]
 8004daa:	2e07      	cmp	r6, #7
 8004dac:	d139      	bne.n	8004e22 <statehandler_magazin+0x8e>
    if(GameFlags.FirstMagazEnter) {
 8004dae:	f8df 81f0 	ldr.w	r8, [pc, #496]	@ 8004fa0 <statehandler_magazin+0x20c>
 8004db2:	f898 3000 	ldrb.w	r3, [r8]
 8004db6:	f013 0404 	ands.w	r4, r3, #4
 8004dba:	d066      	beq.n	8004e8a <statehandler_magazin+0xf6>
      if(k == 0){
 8004dbc:	4d79      	ldr	r5, [pc, #484]	@ (8004fa4 <statehandler_magazin+0x210>)
 8004dbe:	782c      	ldrb	r4, [r5, #0]
 8004dc0:	2c00      	cmp	r4, #0
 8004dc2:	f000 80c5 	beq.w	8004f50 <statehandler_magazin+0x1bc>
        IF_ANY_BTN_PRESS()
 8004dc6:	4e78      	ldr	r6, [pc, #480]	@ (8004fa8 <statehandler_magazin+0x214>)
 8004dc8:	4878      	ldr	r0, [pc, #480]	@ (8004fac <statehandler_magazin+0x218>)
 8004dca:	7c73      	ldrb	r3, [r6, #17]
 8004dcc:	7c42      	ldrb	r2, [r0, #17]
 8004dce:	4978      	ldr	r1, [pc, #480]	@ (8004fb0 <statehandler_magazin+0x21c>)
 8004dd0:	4313      	orrs	r3, r2
 8004dd2:	7c4f      	ldrb	r7, [r1, #17]
 8004dd4:	4a77      	ldr	r2, [pc, #476]	@ (8004fb4 <statehandler_magazin+0x220>)
 8004dd6:	433b      	orrs	r3, r7
 8004dd8:	7c57      	ldrb	r7, [r2, #17]
 8004dda:	433b      	orrs	r3, r7
 8004ddc:	d11b      	bne.n	8004e16 <statehandler_magazin+0x82>
        k--;
 8004dde:	3c01      	subs	r4, #1
 8004de0:	702c      	strb	r4, [r5, #0]
  if(Gamer.cl > 8) Gamer.cl -= 4; else Gamer.cl = 0;
 8004de2:	4975      	ldr	r1, [pc, #468]	@ (8004fb8 <statehandler_magazin+0x224>)
 8004de4:	f991 3007 	ldrsb.w	r3, [r1, #7]
 8004de8:	2b08      	cmp	r3, #8
 8004dea:	bfc4      	itt	gt
 8004dec:	3b04      	subgt	r3, #4
 8004dee:	b25a      	sxtbgt	r2, r3
  if(Gamer.ln < 40) Gamer.ln += 4; else Gamer.ln = 47;
 8004df0:	f991 3006 	ldrsb.w	r3, [r1, #6]
  if(Gamer.cl > 8) Gamer.cl -= 4; else Gamer.cl = 0;
 8004df4:	bfd8      	it	le
 8004df6:	2200      	movle	r2, #0
  if(Gamer.ln < 40) Gamer.ln += 4; else Gamer.ln = 47;
 8004df8:	2b27      	cmp	r3, #39	@ 0x27
 8004dfa:	bfce      	itee	gt
 8004dfc:	232f      	movgt	r3, #47	@ 0x2f
 8004dfe:	3304      	addle	r3, #4
 8004e00:	b25b      	sxtble	r3, r3
 8004e02:	71ca      	strb	r2, [r1, #7]
 8004e04:	718b      	strb	r3, [r1, #6]
  drawgamer();
 8004e06:	f7ff f8df 	bl	8003fc8 <drawgamer>
  LCD_printgamestatbar(&Gamer);
 8004e0a:	486b      	ldr	r0, [pc, #428]	@ (8004fb8 <statehandler_magazin+0x224>)
}
 8004e0c:	b002      	add	sp, #8
 8004e0e:	e8bd 41f0 	ldmia.w	sp!, {r4, r5, r6, r7, r8, lr}
  LCD_printgamestatbar(&Gamer);
 8004e12:	f7fc bfb9 	b.w	8001d88 <LCD_printgamestatbar>
        IF_ANY_BTN_PRESS()
 8004e16:	2300      	movs	r3, #0
 8004e18:	7473      	strb	r3, [r6, #17]
 8004e1a:	7443      	strb	r3, [r0, #17]
 8004e1c:	744b      	strb	r3, [r1, #17]
 8004e1e:	7453      	strb	r3, [r2, #17]
 8004e20:	e7dd      	b.n	8004dde <statehandler_magazin+0x4a>
    coursormovdisp();
 8004e22:	f7ff fde1 	bl	80049e8 <coursormovdisp>
    magaz_getevent();
 8004e26:	f7ff fd85 	bl	8004934 <magaz_getevent>
    LCD_printsprite(8, 64, &magazin_sprite);
 8004e2a:	2140      	movs	r1, #64	@ 0x40
 8004e2c:	4628      	mov	r0, r5
 8004e2e:	4a63      	ldr	r2, [pc, #396]	@ (8004fbc <statehandler_magazin+0x228>)
 8004e30:	f7fc fdf8 	bl	8001a24 <LCD_printsprite>
    LCD_printstr8x5((uint8*)":", 3, 94);
 8004e34:	225e      	movs	r2, #94	@ 0x5e
 8004e36:	2103      	movs	r1, #3
 8004e38:	4861      	ldr	r0, [pc, #388]	@ (8004fc0 <statehandler_magazin+0x22c>)
 8004e3a:	f7fc fa63 	bl	8001304 <LCD_printstr8x5>
    LCD_printstr8x5((uint8*)"", 1, 80);
 8004e3e:	2250      	movs	r2, #80	@ 0x50
 8004e40:	2101      	movs	r1, #1
 8004e42:	4860      	ldr	r0, [pc, #384]	@ (8004fc4 <statehandler_magazin+0x230>)
 8004e44:	f7fc fa5e 	bl	8001304 <LCD_printstr8x5>
    LCD_printstr8x5((uint8*)".", 7, 38);
 8004e48:	2226      	movs	r2, #38	@ 0x26
 8004e4a:	2107      	movs	r1, #7
 8004e4c:	485e      	ldr	r0, [pc, #376]	@ (8004fc8 <statehandler_magazin+0x234>)
 8004e4e:	f7fc fa59 	bl	8001304 <LCD_printstr8x5>
    switch(coursorpos)
 8004e52:	4b5e      	ldr	r3, [pc, #376]	@ (8004fcc <statehandler_magazin+0x238>)
 8004e54:	781b      	ldrb	r3, [r3, #0]
 8004e56:	2b04      	cmp	r3, #4
 8004e58:	d8c3      	bhi.n	8004de2 <statehandler_magazin+0x4e>
 8004e5a:	e8df f003 	tbb	[pc, r3]
 8004e5e:	6a73      	.short	0x6a73
 8004e60:	5161      	.short	0x5161
 8004e62:	41          	.byte	0x41
 8004e63:	00          	.byte	0x00
  SchedPauseEvent(createevilstar);
 8004e64:	485a      	ldr	r0, [pc, #360]	@ (8004fd0 <statehandler_magazin+0x23c>)
 8004e66:	f7fe f8ef 	bl	8003048 <SchedPauseEvent>
  SchedPauseEvent(createbullet);
 8004e6a:	485a      	ldr	r0, [pc, #360]	@ (8004fd4 <statehandler_magazin+0x240>)
 8004e6c:	f7fe f8ec 	bl	8003048 <SchedPauseEvent>
  SchedPauseEvent(createbomb);
 8004e70:	4859      	ldr	r0, [pc, #356]	@ (8004fd8 <statehandler_magazin+0x244>)
 8004e72:	f7fe f8e9 	bl	8003048 <SchedPauseEvent>
  SchedPauseEvent(movbullet);
 8004e76:	4859      	ldr	r0, [pc, #356]	@ (8004fdc <statehandler_magazin+0x248>)
 8004e78:	f7fe f8e6 	bl	8003048 <SchedPauseEvent>
  SchedPauseEvent(move_enemy_objects);
 8004e7c:	4858      	ldr	r0, [pc, #352]	@ (8004fe0 <statehandler_magazin+0x24c>)
 8004e7e:	f7fe f8e3 	bl	8003048 <SchedPauseEvent>
  SchedPauseEvent(gameprogress);
 8004e82:	4858      	ldr	r0, [pc, #352]	@ (8004fe4 <statehandler_magazin+0x250>)
 8004e84:	f7fe f8e0 	bl	8003048 <SchedPauseEvent>
}
 8004e88:	e78b      	b.n	8004da2 <statehandler_magazin+0xe>
      LCD_printsprite(8, (64 + (int8)j * 4), &magazin_sprite);
 8004e8a:	4e57      	ldr	r6, [pc, #348]	@ (8004fe8 <statehandler_magazin+0x254>)
 8004e8c:	4628      	mov	r0, r5
 8004e8e:	f996 1000 	ldrsb.w	r1, [r6]
 8004e92:	4a4a      	ldr	r2, [pc, #296]	@ (8004fbc <statehandler_magazin+0x228>)
 8004e94:	3110      	adds	r1, #16
 8004e96:	0089      	lsls	r1, r1, #2
 8004e98:	b249      	sxtb	r1, r1
 8004e9a:	f7fc fdc3 	bl	8001a24 <LCD_printsprite>
      IF_ANY_BTN_PRESS()
 8004e9e:	4d43      	ldr	r5, [pc, #268]	@ (8004fac <statehandler_magazin+0x218>)
 8004ea0:	f8df c104 	ldr.w	ip, [pc, #260]	@ 8004fa8 <statehandler_magazin+0x214>
 8004ea4:	7c69      	ldrb	r1, [r5, #17]
 8004ea6:	4842      	ldr	r0, [pc, #264]	@ (8004fb0 <statehandler_magazin+0x21c>)
 8004ea8:	f89c 2011 	ldrb.w	r2, [ip, #17]
 8004eac:	f890 e011 	ldrb.w	lr, [r0, #17]
 8004eb0:	430a      	orrs	r2, r1
 8004eb2:	4940      	ldr	r1, [pc, #256]	@ (8004fb4 <statehandler_magazin+0x220>)
      j--;
 8004eb4:	7833      	ldrb	r3, [r6, #0]
      IF_ANY_BTN_PRESS()
 8004eb6:	ea42 020e 	orr.w	r2, r2, lr
 8004eba:	f891 e011 	ldrb.w	lr, [r1, #17]
      j--;
 8004ebe:	3b01      	subs	r3, #1
 8004ec0:	b2db      	uxtb	r3, r3
      IF_ANY_BTN_PRESS()
 8004ec2:	ea52 020e 	orrs.w	r2, r2, lr
      j--;
 8004ec6:	7033      	strb	r3, [r6, #0]
      IF_ANY_BTN_PRESS()
 8004ec8:	d004      	beq.n	8004ed4 <statehandler_magazin+0x140>
 8004eca:	f88c 4011 	strb.w	r4, [ip, #17]
 8004ece:	746c      	strb	r4, [r5, #17]
 8004ed0:	7444      	strb	r4, [r0, #17]
 8004ed2:	744c      	strb	r4, [r1, #17]
      if(j == 0) {
 8004ed4:	2b00      	cmp	r3, #0
 8004ed6:	d184      	bne.n	8004de2 <statehandler_magazin+0x4e>
        j = MAGAZIN_INTROANIMATION_PERIOD;
 8004ed8:	2210      	movs	r2, #16
        gameevent = EVENT_NONE;
 8004eda:	703b      	strb	r3, [r7, #0]
        j = MAGAZIN_INTROANIMATION_PERIOD;
 8004edc:	7032      	strb	r2, [r6, #0]
 8004ede:	e780      	b.n	8004de2 <statehandler_magazin+0x4e>
        LCD_printstr8x5((uint8*)"!", 2, 0);
 8004ee0:	2200      	movs	r2, #0
 8004ee2:	2102      	movs	r1, #2
 8004ee4:	4841      	ldr	r0, [pc, #260]	@ (8004fec <statehandler_magazin+0x258>)
 8004ee6:	f7fc fa0d 	bl	8001304 <LCD_printstr8x5>
        u16_to_str(price, HEALTH_MONEY_COST, 1);
 8004eea:	2201      	movs	r2, #1
 8004eec:	2105      	movs	r1, #5
 8004eee:	4668      	mov	r0, sp
 8004ef0:	f7fb fde2 	bl	8000ab8 <u16_to_str>
        LCD_printstr8x5((uint8*)price, 4, 100);
 8004ef4:	2264      	movs	r2, #100	@ 0x64
 8004ef6:	2104      	movs	r1, #4
 8004ef8:	4668      	mov	r0, sp
 8004efa:	f7fc fa03 	bl	8001304 <LCD_printstr8x5>
        break;
 8004efe:	e770      	b.n	8004de2 <statehandler_magazin+0x4e>
        LCD_printstr8x5((uint8*)"!", 2, 0);
 8004f00:	2200      	movs	r2, #0
 8004f02:	2102      	movs	r1, #2
 8004f04:	483a      	ldr	r0, [pc, #232]	@ (8004ff0 <statehandler_magazin+0x25c>)
 8004f06:	f7fc f9fd 	bl	8001304 <LCD_printstr8x5>
        u16_to_str(price, BATTERY_MONEY_COST, 2);
 8004f0a:	4668      	mov	r0, sp
 8004f0c:	2202      	movs	r2, #2
 8004f0e:	2132      	movs	r1, #50	@ 0x32
 8004f10:	f7fb fdd2 	bl	8000ab8 <u16_to_str>
        LCD_printstr8x5((uint8*)price, 4, 94);
 8004f14:	225e      	movs	r2, #94	@ 0x5e
 8004f16:	2104      	movs	r1, #4
 8004f18:	4668      	mov	r0, sp
 8004f1a:	f7fc f9f3 	bl	8001304 <LCD_printstr8x5>
        break;
 8004f1e:	e760      	b.n	8004de2 <statehandler_magazin+0x4e>
        LCD_printstr8x5((uint8*)".\n\n.", 2, 0);
 8004f20:	2200      	movs	r2, #0
 8004f22:	2102      	movs	r1, #2
 8004f24:	4833      	ldr	r0, [pc, #204]	@ (8004ff4 <statehandler_magazin+0x260>)
 8004f26:	f7fc f9ed 	bl	8001304 <LCD_printstr8x5>
        u16_to_str(price, GASMASK_MONEY_COST, 2);
 8004f2a:	4668      	mov	r0, sp
 8004f2c:	2202      	movs	r2, #2
 8004f2e:	210f      	movs	r1, #15
 8004f30:	e7ee      	b.n	8004f10 <statehandler_magazin+0x17c>
        LCD_printstr8x5((uint8*)"!!!\n\n!", 2, 0);
 8004f32:	2200      	movs	r2, #0
 8004f34:	2102      	movs	r1, #2
 8004f36:	4830      	ldr	r0, [pc, #192]	@ (8004ff8 <statehandler_magazin+0x264>)
 8004f38:	f7fc f9e4 	bl	8001304 <LCD_printstr8x5>
        u16_to_str(price, BOMB_MONEY_COST, 1);
 8004f3c:	4668      	mov	r0, sp
 8004f3e:	2201      	movs	r2, #1
 8004f40:	2105      	movs	r1, #5
 8004f42:	e7d5      	b.n	8004ef0 <statehandler_magazin+0x15c>
        LCD_printstr8x5((uint8*)"\n!", 2, 0);
 8004f44:	2200      	movs	r2, #0
 8004f46:	2102      	movs	r1, #2
 8004f48:	482c      	ldr	r0, [pc, #176]	@ (8004ffc <statehandler_magazin+0x268>)
 8004f4a:	f7fc f9db 	bl	8001304 <LCD_printstr8x5>
        break;
 8004f4e:	e748      	b.n	8004de2 <statehandler_magazin+0x4e>
        LCD_printstr8x5(gamestory_string[4], 1, 0);
 8004f50:	4622      	mov	r2, r4
 8004f52:	2101      	movs	r1, #1
 8004f54:	482a      	ldr	r0, [pc, #168]	@ (8005000 <statehandler_magazin+0x26c>)
 8004f56:	f7fc f9d5 	bl	8001304 <LCD_printstr8x5>
        LCD_printstr8x5((uint8*)"...", 7, 78);
 8004f5a:	4631      	mov	r1, r6
 8004f5c:	224e      	movs	r2, #78	@ 0x4e
 8004f5e:	4829      	ldr	r0, [pc, #164]	@ (8005004 <statehandler_magazin+0x270>)
 8004f60:	f7fc f9d0 	bl	8001304 <LCD_printstr8x5>
        IF_ANY_BTN_PRESS(
 8004f64:	4e10      	ldr	r6, [pc, #64]	@ (8004fa8 <statehandler_magazin+0x214>)
 8004f66:	4811      	ldr	r0, [pc, #68]	@ (8004fac <statehandler_magazin+0x218>)
 8004f68:	4911      	ldr	r1, [pc, #68]	@ (8004fb0 <statehandler_magazin+0x21c>)
 8004f6a:	7c42      	ldrb	r2, [r0, #17]
 8004f6c:	7c73      	ldrb	r3, [r6, #17]
 8004f6e:	7c4f      	ldrb	r7, [r1, #17]
 8004f70:	4313      	orrs	r3, r2
 8004f72:	4a10      	ldr	r2, [pc, #64]	@ (8004fb4 <statehandler_magazin+0x220>)
 8004f74:	433b      	orrs	r3, r7
 8004f76:	7c57      	ldrb	r7, [r2, #17]
 8004f78:	433b      	orrs	r3, r7
 8004f7a:	f43f af32 	beq.w	8004de2 <statehandler_magazin+0x4e>
 8004f7e:	744c      	strb	r4, [r1, #17]
 8004f80:	210a      	movs	r1, #10
 8004f82:	f898 3000 	ldrb.w	r3, [r8]
 8004f86:	7474      	strb	r4, [r6, #17]
 8004f88:	f364 0382 	bfi	r3, r4, #2, #1
 8004f8c:	7444      	strb	r4, [r0, #17]
 8004f8e:	7454      	strb	r4, [r2, #17]
 8004f90:	f888 3000 	strb.w	r3, [r8]
 8004f94:	7029      	strb	r1, [r5, #0]
 8004f96:	e724      	b.n	8004de2 <statehandler_magazin+0x4e>
 8004f98:	20000a4e 	.word	0x20000a4e
 8004f9c:	20000a4c 	.word	0x20000a4c
 8004fa0:	20000a50 	.word	0x20000a50
 8004fa4:	20000019 	.word	0x20000019
 8004fa8:	200002ac 	.word	0x200002ac
 8004fac:	20000294 	.word	0x20000294
 8004fb0:	2000027c 	.word	0x2000027c
 8004fb4:	20000264 	.word	0x20000264
 8004fb8:	20000bb8 	.word	0x20000bb8
 8004fbc:	0800b598 	.word	0x0800b598
 8004fc0:	0800a8a4 	.word	0x0800a8a4
 8004fc4:	0800a8ac 	.word	0x0800a8ac
 8004fc8:	0800a8b4 	.word	0x0800a8b4
 8004fcc:	20000a4d 	.word	0x20000a4d
 8004fd0:	08003591 	.word	0x08003591
 8004fd4:	08003789 	.word	0x08003789
 8004fd8:	08003805 	.word	0x08003805
 8004fdc:	0800344d 	.word	0x0800344d
 8004fe0:	08003c1d 	.word	0x08003c1d
 8004fe4:	0800386d 	.word	0x0800386d
 8004fe8:	20000018 	.word	0x20000018
 8004fec:	0800a910 	.word	0x0800a910
 8004ff0:	0800a904 	.word	0x0800a904
 8004ff4:	0800a8e8 	.word	0x0800a8e8
 8004ff8:	0800a8cc 	.word	0x0800a8cc
 8004ffc:	0800a8bc 	.word	0x0800a8bc
 8005000:	0800ace4 	.word	0x0800ace4
 8005004:	0800a80c 	.word	0x0800a80c

08005008 <ufobattle>:
/*******************************************************************************
 *                              MAIN ENTRY - GAME CYCLE                     
 *******************************************************************************
 */
void ufobattle(void)
{
 8005008:	b570      	push	{r4, r5, r6, lr}
 800500a:	b082      	sub	sp, #8
  randinit();
 800500c:	f7fb fd3c 	bl	8000a88 <randinit>
  SchedAddEvent(system_events_period25ms, 25);
 8005010:	2119      	movs	r1, #25
 8005012:	4834      	ldr	r0, [pc, #208]	@ (80050e4 <ufobattle+0xdc>)
 8005014:	f7fd ffa6 	bl	8002f64 <SchedAddEvent>
  SchedAddEvent(system_events_period50ms, 50);
 8005018:	2132      	movs	r1, #50	@ 0x32
 800501a:	4833      	ldr	r0, [pc, #204]	@ (80050e8 <ufobattle+0xe0>)
 800501c:	f7fd ffa2 	bl	8002f64 <SchedAddEvent>
  SchedAddEvent(system_events_period100ms, 100);
 8005020:	2164      	movs	r1, #100	@ 0x64
 8005022:	4832      	ldr	r0, [pc, #200]	@ (80050ec <ufobattle+0xe4>)
 8005024:	f7fd ff9e 	bl	8002f64 <SchedAddEvent>
  SchedAddEvent(gamestatesprocess, 75);
 8005028:	214b      	movs	r1, #75	@ 0x4b
 800502a:	4831      	ldr	r0, [pc, #196]	@ (80050f0 <ufobattle+0xe8>)
 800502c:	f7fd ff9a 	bl	8002f64 <SchedAddEvent>
  SchedAddEvent(energyregen, PRD_GAMER_ENERGYREGEN);
 8005030:	4b30      	ldr	r3, [pc, #192]	@ (80050f4 <ufobattle+0xec>)
 8005032:	4831      	ldr	r0, [pc, #196]	@ (80050f8 <ufobattle+0xf0>)
 8005034:	6819      	ldr	r1, [r3, #0]
 8005036:	f7fd ff95 	bl	8002f64 <SchedAddEvent>
  gamestate = STATE_MAINMENU;
 800503a:	2300      	movs	r3, #0
 800503c:	4c2f      	ldr	r4, [pc, #188]	@ (80050fc <ufobattle+0xf4>)
  gameevent = EVENT_NONE;
 800503e:	4930      	ldr	r1, [pc, #192]	@ (8005100 <ufobattle+0xf8>)
  coursorpos = COURS_POS_1;
 8005040:	4a30      	ldr	r2, [pc, #192]	@ (8005104 <ufobattle+0xfc>)
  
  if(EEPROM_readbyte(2)) sprintf((char*)gameslot1, ".1 - %2.2d.%2.2d_%d", EEPROM_readbyte(2), EEPROM_readbyte(3) >> 4,  EEPROM_readbyte(3) & 0x0F);
 8005042:	2002      	movs	r0, #2
  gamestate = STATE_MAINMENU;
 8005044:	7023      	strb	r3, [r4, #0]
  gameevent = EVENT_NONE;
 8005046:	700b      	strb	r3, [r1, #0]
  coursorpos = COURS_POS_1;
 8005048:	7013      	strb	r3, [r2, #0]
  if(EEPROM_readbyte(2)) sprintf((char*)gameslot1, ".1 - %2.2d.%2.2d_%d", EEPROM_readbyte(2), EEPROM_readbyte(3) >> 4,  EEPROM_readbyte(3) & 0x0F);
 800504a:	f7fc f94b 	bl	80012e4 <EEPROM_readbyte>
 800504e:	2800      	cmp	r0, #0
 8005050:	d041      	beq.n	80050d6 <ufobattle+0xce>
 8005052:	2002      	movs	r0, #2
 8005054:	f7fc f946 	bl	80012e4 <EEPROM_readbyte>
 8005058:	4606      	mov	r6, r0
 800505a:	2003      	movs	r0, #3
 800505c:	f7fc f942 	bl	80012e4 <EEPROM_readbyte>
 8005060:	4605      	mov	r5, r0
 8005062:	2003      	movs	r0, #3
 8005064:	f7fc f93e 	bl	80012e4 <EEPROM_readbyte>
 8005068:	4604      	mov	r4, r0
 800506a:	f004 040f 	and.w	r4, r4, #15
 800506e:	4632      	mov	r2, r6
 8005070:	4925      	ldr	r1, [pc, #148]	@ (8005108 <ufobattle+0x100>)
 8005072:	4826      	ldr	r0, [pc, #152]	@ (800510c <ufobattle+0x104>)
 8005074:	f3c5 1307 	ubfx	r3, r5, #4, #8
 8005078:	9400      	str	r4, [sp, #0]
 800507a:	f002 fc5f 	bl	800793c <siprintf>
  else sprintf((char*)gameslot1, "--");
  if(EEPROM_readbyte(11)) sprintf((char*)gameslot2, ".1 - %2.2d.%2.2d_%d", EEPROM_readbyte(11), EEPROM_readbyte(12) >> 4,  EEPROM_readbyte(12) & 0x0F);
 800507e:	200b      	movs	r0, #11
 8005080:	f7fc f930 	bl	80012e4 <EEPROM_readbyte>
 8005084:	b300      	cbz	r0, 80050c8 <ufobattle+0xc0>
 8005086:	200b      	movs	r0, #11
 8005088:	f7fc f92c 	bl	80012e4 <EEPROM_readbyte>
 800508c:	4606      	mov	r6, r0
 800508e:	200c      	movs	r0, #12
 8005090:	f7fc f928 	bl	80012e4 <EEPROM_readbyte>
 8005094:	4605      	mov	r5, r0
 8005096:	200c      	movs	r0, #12
 8005098:	f7fc f924 	bl	80012e4 <EEPROM_readbyte>
 800509c:	4604      	mov	r4, r0
 800509e:	f004 040f 	and.w	r4, r4, #15
 80050a2:	4632      	mov	r2, r6
 80050a4:	4918      	ldr	r1, [pc, #96]	@ (8005108 <ufobattle+0x100>)
 80050a6:	481a      	ldr	r0, [pc, #104]	@ (8005110 <ufobattle+0x108>)
 80050a8:	f3c5 1307 	ubfx	r3, r5, #4, #8
 80050ac:	9400      	str	r4, [sp, #0]
 80050ae:	f002 fc45 	bl	800793c <siprintf>
  else sprintf((char*)gameslot2, "--");

  while (CFlags.RunGameFl)
 80050b2:	4c18      	ldr	r4, [pc, #96]	@ (8005114 <ufobattle+0x10c>)
 80050b4:	7823      	ldrb	r3, [r4, #0]
 80050b6:	079a      	lsls	r2, r3, #30
 80050b8:	d504      	bpl.n	80050c4 <ufobattle+0xbc>
  {
    SchedEventProcess();
 80050ba:	f7fd ff71 	bl	8002fa0 <SchedEventProcess>
  while (CFlags.RunGameFl)
 80050be:	7823      	ldrb	r3, [r4, #0]
 80050c0:	079b      	lsls	r3, r3, #30
 80050c2:	d4fa      	bmi.n	80050ba <ufobattle+0xb2>
  }
}
 80050c4:	b002      	add	sp, #8
 80050c6:	bd70      	pop	{r4, r5, r6, pc}
  else sprintf((char*)gameslot2, "--");
 80050c8:	4b11      	ldr	r3, [pc, #68]	@ (8005110 <ufobattle+0x108>)
 80050ca:	4a13      	ldr	r2, [pc, #76]	@ (8005118 <ufobattle+0x110>)
 80050cc:	e892 0003 	ldmia.w	r2, {r0, r1}
 80050d0:	e883 0003 	stmia.w	r3, {r0, r1}
 80050d4:	e7ed      	b.n	80050b2 <ufobattle+0xaa>
  else sprintf((char*)gameslot1, "--");
 80050d6:	4b0d      	ldr	r3, [pc, #52]	@ (800510c <ufobattle+0x104>)
 80050d8:	4a0f      	ldr	r2, [pc, #60]	@ (8005118 <ufobattle+0x110>)
 80050da:	e892 0003 	ldmia.w	r2, {r0, r1}
 80050de:	e883 0003 	stmia.w	r3, {r0, r1}
 80050e2:	e7cc      	b.n	800507e <ufobattle+0x76>
 80050e4:	080045e9 	.word	0x080045e9
 80050e8:	08003785 	.word	0x08003785
 80050ec:	08004681 	.word	0x08004681
 80050f0:	0800356d 	.word	0x0800356d
 80050f4:	20000054 	.word	0x20000054
 80050f8:	0800342d 	.word	0x0800342d
 80050fc:	20000a4e 	.word	0x20000a4e
 8005100:	20000a4c 	.word	0x20000a4c
 8005104:	20000a4d 	.word	0x20000a4d
 8005108:	0800a798 	.word	0x0800a798
 800510c:	20000038 	.word	0x20000038
 8005110:	2000001c 	.word	0x2000001c
 8005114:	20000010 	.word	0x20000010
 8005118:	0800a91c 	.word	0x0800a91c

0800511c <Reset_Handler>:
  .weak Reset_Handler
  .type Reset_Handler, %function
Reset_Handler:

/* Copy the data segment initializers from flash to SRAM */
  ldr r0, =_sdata
 800511c:	480c      	ldr	r0, [pc, #48]	@ (8005150 <LoopFillZerobss+0x12>)
  ldr r1, =_edata
 800511e:	490d      	ldr	r1, [pc, #52]	@ (8005154 <LoopFillZerobss+0x16>)
  ldr r2, =_sidata
 8005120:	4a0d      	ldr	r2, [pc, #52]	@ (8005158 <LoopFillZerobss+0x1a>)
  movs r3, #0
 8005122:	2300      	movs	r3, #0
  b LoopCopyDataInit
 8005124:	e002      	b.n	800512c <LoopCopyDataInit>

08005126 <CopyDataInit>:

CopyDataInit:
  ldr r4, [r2, r3]
 8005126:	58d4      	ldr	r4, [r2, r3]
  str r4, [r0, r3]
 8005128:	50c4      	str	r4, [r0, r3]
  adds r3, r3, #4
 800512a:	3304      	adds	r3, #4

0800512c <LoopCopyDataInit>:

LoopCopyDataInit:
  adds r4, r0, r3
 800512c:	18c4      	adds	r4, r0, r3
  cmp r4, r1
 800512e:	428c      	cmp	r4, r1
  bcc CopyDataInit
 8005130:	d3f9      	bcc.n	8005126 <CopyDataInit>
  
/* Zero fill the bss segment. */
  ldr r2, =_sbss
 8005132:	4a0a      	ldr	r2, [pc, #40]	@ (800515c <LoopFillZerobss+0x1e>)
  ldr r4, =_ebss
 8005134:	4c0a      	ldr	r4, [pc, #40]	@ (8005160 <LoopFillZerobss+0x22>)
  movs r3, #0
 8005136:	2300      	movs	r3, #0
  b LoopFillZerobss
 8005138:	e001      	b.n	800513e <LoopFillZerobss>

0800513a <FillZerobss>:

FillZerobss:
  str  r3, [r2]
 800513a:	6013      	str	r3, [r2, #0]
  adds r2, r2, #4
 800513c:	3204      	adds	r2, #4

0800513e <LoopFillZerobss>:

LoopFillZerobss:
  cmp r2, r4
 800513e:	42a2      	cmp	r2, r4
  bcc FillZerobss
 8005140:	d3fb      	bcc.n	800513a <FillZerobss>

/* Call the clock system intitialization function.*/
    bl  SystemInit
 8005142:	f7fe f971 	bl	8003428 <SystemInit>
/* Call static constructors */
    bl __libc_init_array
 8005146:	f002 fcb5 	bl	8007ab4 <__libc_init_array>
/* Call the application's entry point.*/
  bl main
 800514a:	f7fc fef3 	bl	8001f34 <main>
  bx lr
 800514e:	4770      	bx	lr
  ldr r0, =_sdata
 8005150:	20000000 	.word	0x20000000
  ldr r1, =_edata
 8005154:	20000230 	.word	0x20000230
  ldr r2, =_sidata
 8005158:	0800bd3c 	.word	0x0800bd3c
  ldr r2, =_sbss
 800515c:	20000230 	.word	0x20000230
  ldr r4, =_ebss
 8005160:	20000d18 	.word	0x20000d18

08005164 <ADC1_2_IRQHandler>:
 * @retval : None
*/
    .section .text.Default_Handler,"ax",%progbits
Default_Handler:
Infinite_Loop:
  b Infinite_Loop
 8005164:	e7fe      	b.n	8005164 <ADC1_2_IRQHandler>
	...

08005168 <HAL_InitTick>:
  *       implementation  in user file.
  * @param TickPriority Tick interrupt priority.
  * @retval HAL status
  */
__weak HAL_StatusTypeDef HAL_InitTick(uint32_t TickPriority)
{
 8005168:	b538      	push	{r3, r4, r5, lr}
  /* Configure the SysTick to have interrupt in 1ms time basis*/
  if (HAL_SYSTICK_Config(SystemCoreClock / (1000U / uwTickFreq)) > 0U)
 800516a:	f44f 737a 	mov.w	r3, #1000	@ 0x3e8
 800516e:	4a0d      	ldr	r2, [pc, #52]	@ (80051a4 <HAL_InitTick+0x3c>)
{
 8005170:	4605      	mov	r5, r0
  if (HAL_SYSTICK_Config(SystemCoreClock / (1000U / uwTickFreq)) > 0U)
 8005172:	7811      	ldrb	r1, [r2, #0]
 8005174:	4a0c      	ldr	r2, [pc, #48]	@ (80051a8 <HAL_InitTick+0x40>)
 8005176:	fbb3 f3f1 	udiv	r3, r3, r1
 800517a:	6812      	ldr	r2, [r2, #0]
 800517c:	fbb2 f0f3 	udiv	r0, r2, r3
 8005180:	f000 fb0e 	bl	80057a0 <HAL_SYSTICK_Config>
 8005184:	b908      	cbnz	r0, 800518a <HAL_InitTick+0x22>
  {
    return HAL_ERROR;
  }

  /* Configure the SysTick IRQ priority */
  if (TickPriority < (1UL << __NVIC_PRIO_BITS))
 8005186:	2d0f      	cmp	r5, #15
 8005188:	d901      	bls.n	800518e <HAL_InitTick+0x26>
    return HAL_ERROR;
 800518a:	2001      	movs	r0, #1
    return HAL_ERROR;
  }

  /* Return function status */
  return HAL_OK;
}
 800518c:	bd38      	pop	{r3, r4, r5, pc}
 800518e:	4604      	mov	r4, r0
    HAL_NVIC_SetPriority(SysTick_IRQn, TickPriority, 0U);
 8005190:	4602      	mov	r2, r0
 8005192:	4629      	mov	r1, r5
 8005194:	f04f 30ff 	mov.w	r0, #4294967295
 8005198:	f000 fab8 	bl	800570c <HAL_NVIC_SetPriority>
    uwTickPrio = TickPriority;
 800519c:	4b03      	ldr	r3, [pc, #12]	@ (80051ac <HAL_InitTick+0x44>)
 800519e:	4620      	mov	r0, r4
 80051a0:	601d      	str	r5, [r3, #0]
}
 80051a2:	bd38      	pop	{r3, r4, r5, pc}
 80051a4:	20000063 	.word	0x20000063
 80051a8:	20000014 	.word	0x20000014
 80051ac:	20000064 	.word	0x20000064

080051b0 <HAL_Init>:
  __HAL_FLASH_PREFETCH_BUFFER_ENABLE();
 80051b0:	4a07      	ldr	r2, [pc, #28]	@ (80051d0 <HAL_Init+0x20>)
{
 80051b2:	b508      	push	{r3, lr}
  __HAL_FLASH_PREFETCH_BUFFER_ENABLE();
 80051b4:	6813      	ldr	r3, [r2, #0]
  HAL_NVIC_SetPriorityGrouping(NVIC_PRIORITYGROUP_4);
 80051b6:	2003      	movs	r0, #3
  __HAL_FLASH_PREFETCH_BUFFER_ENABLE();
 80051b8:	f043 0310 	orr.w	r3, r3, #16
 80051bc:	6013      	str	r3, [r2, #0]
  HAL_NVIC_SetPriorityGrouping(NVIC_PRIORITYGROUP_4);
 80051be:	f000 fa93 	bl	80056e8 <HAL_NVIC_SetPriorityGrouping>
  HAL_InitTick(TICK_INT_PRIORITY);
 80051c2:	200f      	movs	r0, #15
 80051c4:	f7ff ffd0 	bl	8005168 <HAL_InitTick>
  HAL_MspInit();
 80051c8:	f7fd ff7e 	bl	80030c8 <HAL_MspInit>
}
 80051cc:	2000      	movs	r0, #0
 80051ce:	bd08      	pop	{r3, pc}
 80051d0:	40022000 	.word	0x40022000

080051d4 <HAL_GetTick>:
  *       implementations in user file.
  * @retval tick value
  */
__weak uint32_t HAL_GetTick(void)
{
  return uwTick;
 80051d4:	4b01      	ldr	r3, [pc, #4]	@ (80051dc <HAL_GetTick+0x8>)
 80051d6:	6818      	ldr	r0, [r3, #0]
}
 80051d8:	4770      	bx	lr
 80051da:	bf00      	nop
 80051dc:	20000bc8 	.word	0x20000bc8

080051e0 <HAL_Delay>:
  *       implementations in user file.
  * @param Delay specifies the delay time length, in milliseconds.
  * @retval None
  */
__weak void HAL_Delay(uint32_t Delay)
{
 80051e0:	b538      	push	{r3, r4, r5, lr}
 80051e2:	4604      	mov	r4, r0
  uint32_t tickstart = HAL_GetTick();
 80051e4:	f7ff fff6 	bl	80051d4 <HAL_GetTick>
  uint32_t wait = Delay;

  /* Add a freq to guarantee minimum wait */
  if (wait < HAL_MAX_DELAY)
 80051e8:	1c63      	adds	r3, r4, #1
  uint32_t tickstart = HAL_GetTick();
 80051ea:	4605      	mov	r5, r0
  if (wait < HAL_MAX_DELAY)
 80051ec:	d002      	beq.n	80051f4 <HAL_Delay+0x14>
  {
    wait += (uint32_t)(uwTickFreq);
 80051ee:	4b04      	ldr	r3, [pc, #16]	@ (8005200 <HAL_Delay+0x20>)
 80051f0:	781b      	ldrb	r3, [r3, #0]
 80051f2:	441c      	add	r4, r3
  }

  while ((HAL_GetTick() - tickstart) < wait)
 80051f4:	f7ff ffee 	bl	80051d4 <HAL_GetTick>
 80051f8:	1b40      	subs	r0, r0, r5
 80051fa:	42a0      	cmp	r0, r4
 80051fc:	d3fa      	bcc.n	80051f4 <HAL_Delay+0x14>
  {
  }
}
 80051fe:	bd38      	pop	{r3, r4, r5, pc}
 8005200:	20000063 	.word	0x20000063

08005204 <ADC_DMAConvCplt>:
  * @retval None
  */
void ADC_DMAConvCplt(DMA_HandleTypeDef *hdma)
{
  /* Retrieve ADC handle corresponding to current DMA handle */
  ADC_HandleTypeDef* hadc = ( ADC_HandleTypeDef* )((DMA_HandleTypeDef* )hdma)->Parent;
 8005204:	6a43      	ldr	r3, [r0, #36]	@ 0x24
 
  /* Update state machine on conversion status if not in error state */
  if (HAL_IS_BIT_CLR(hadc->State, HAL_ADC_STATE_ERROR_INTERNAL | HAL_ADC_STATE_ERROR_DMA))
 8005206:	6a9a      	ldr	r2, [r3, #40]	@ 0x28
 8005208:	f012 0f50 	tst.w	r2, #80	@ 0x50
 800520c:	d10f      	bne.n	800522e <ADC_DMAConvCplt+0x2a>
  {
    /* Update ADC state machine */
    SET_BIT(hadc->State, HAL_ADC_STATE_REG_EOC);
 800520e:	6a9a      	ldr	r2, [r3, #40]	@ 0x28
    /* Determine whether any further conversion upcoming on group regular     */
    /* by external trigger, continuous mode or scan sequence on going.        */
    /* Note: On STM32F1 devices, in case of sequencer enabled                 */
    /*       (several ranks selected), end of conversion flag is raised       */
    /*       at the end of the sequence.                                      */
    if(ADC_IS_SOFTWARE_START_REGULAR(hadc)        && 
 8005210:	6819      	ldr	r1, [r3, #0]
    SET_BIT(hadc->State, HAL_ADC_STATE_REG_EOC);
 8005212:	f442 7200 	orr.w	r2, r2, #512	@ 0x200
{
 8005216:	b510      	push	{r4, lr}
    SET_BIT(hadc->State, HAL_ADC_STATE_REG_EOC);
 8005218:	629a      	str	r2, [r3, #40]	@ 0x28
    if(ADC_IS_SOFTWARE_START_REGULAR(hadc)        && 
 800521a:	688a      	ldr	r2, [r1, #8]
 800521c:	f402 2260 	and.w	r2, r2, #917504	@ 0xe0000
 8005220:	f5b2 2f60 	cmp.w	r2, #917504	@ 0xe0000
 8005224:	d006      	beq.n	8005234 <ADC_DMAConvCplt+0x30>
    
    /* Conversion complete callback */
#if (USE_HAL_ADC_REGISTER_CALLBACKS == 1)
    hadc->ConvCpltCallback(hadc);
#else
    HAL_ADC_ConvCpltCallback(hadc);
 8005226:	4618      	mov	r0, r3
 8005228:	f7fd f840 	bl	80022ac <HAL_ADC_ConvCpltCallback>
  else
  {
    /* Call DMA error callback */
    hadc->DMA_Handle->XferErrorCallback(hdma);
  }
}
 800522c:	bd10      	pop	{r4, pc}
    hadc->DMA_Handle->XferErrorCallback(hdma);
 800522e:	6a1b      	ldr	r3, [r3, #32]
 8005230:	6b1b      	ldr	r3, [r3, #48]	@ 0x30
 8005232:	4718      	bx	r3
    if(ADC_IS_SOFTWARE_START_REGULAR(hadc)        && 
 8005234:	7b1a      	ldrb	r2, [r3, #12]
 8005236:	2a00      	cmp	r2, #0
 8005238:	d1f5      	bne.n	8005226 <ADC_DMAConvCplt+0x22>
      CLEAR_BIT(hadc->State, HAL_ADC_STATE_REG_BUSY);   
 800523a:	6a9a      	ldr	r2, [r3, #40]	@ 0x28
 800523c:	f422 7280 	bic.w	r2, r2, #256	@ 0x100
 8005240:	629a      	str	r2, [r3, #40]	@ 0x28
      if (HAL_IS_BIT_CLR(hadc->State, HAL_ADC_STATE_INJ_BUSY))
 8005242:	6a9a      	ldr	r2, [r3, #40]	@ 0x28
 8005244:	04d2      	lsls	r2, r2, #19
 8005246:	d4ee      	bmi.n	8005226 <ADC_DMAConvCplt+0x22>
        SET_BIT(hadc->State, HAL_ADC_STATE_READY);
 8005248:	6a9a      	ldr	r2, [r3, #40]	@ 0x28
 800524a:	f042 0201 	orr.w	r2, r2, #1
 800524e:	629a      	str	r2, [r3, #40]	@ 0x28
 8005250:	e7e9      	b.n	8005226 <ADC_DMAConvCplt+0x22>
 8005252:	bf00      	nop

08005254 <HAL_ADC_ConvHalfCpltCallback>:
__weak void HAL_ADC_ConvHalfCpltCallback(ADC_HandleTypeDef* hadc)
 8005254:	4770      	bx	lr
 8005256:	bf00      	nop

08005258 <ADC_DMAHalfConvCplt>:
  * @brief  DMA half transfer complete callback. 
  * @param  hdma: pointer to DMA handle.
  * @retval None
  */
void ADC_DMAHalfConvCplt(DMA_HandleTypeDef *hdma)   
{
 8005258:	b508      	push	{r3, lr}
  
  /* Half conversion callback */
#if (USE_HAL_ADC_REGISTER_CALLBACKS == 1)
    hadc->ConvHalfCpltCallback(hadc);
#else
  HAL_ADC_ConvHalfCpltCallback(hadc);
 800525a:	6a40      	ldr	r0, [r0, #36]	@ 0x24
 800525c:	f7ff fffa 	bl	8005254 <HAL_ADC_ConvHalfCpltCallback>
#endif /* USE_HAL_ADC_REGISTER_CALLBACKS */
}
 8005260:	bd08      	pop	{r3, pc}
 8005262:	bf00      	nop

08005264 <HAL_ADC_ErrorCallback>:
__weak void HAL_ADC_ErrorCallback(ADC_HandleTypeDef *hadc)
 8005264:	4770      	bx	lr
 8005266:	bf00      	nop

08005268 <ADC_DMAError>:
  * @retval None
  */
void ADC_DMAError(DMA_HandleTypeDef *hdma)   
{
  /* Retrieve ADC handle corresponding to current DMA handle */
  ADC_HandleTypeDef* hadc = ( ADC_HandleTypeDef* )((DMA_HandleTypeDef* )hdma)->Parent;
 8005268:	6a40      	ldr	r0, [r0, #36]	@ 0x24
{
 800526a:	b508      	push	{r3, lr}
  
  /* Set ADC state */
  SET_BIT(hadc->State, HAL_ADC_STATE_ERROR_DMA);
 800526c:	6a83      	ldr	r3, [r0, #40]	@ 0x28
 800526e:	f043 0340 	orr.w	r3, r3, #64	@ 0x40
 8005272:	6283      	str	r3, [r0, #40]	@ 0x28
  
  /* Set ADC error code to DMA error */
  SET_BIT(hadc->ErrorCode, HAL_ADC_ERROR_DMA);
 8005274:	6ac3      	ldr	r3, [r0, #44]	@ 0x2c
 8005276:	f043 0304 	orr.w	r3, r3, #4
 800527a:	62c3      	str	r3, [r0, #44]	@ 0x2c
  
  /* Error callback */
#if (USE_HAL_ADC_REGISTER_CALLBACKS == 1)
  hadc->ErrorCallback(hadc);
#else
  HAL_ADC_ErrorCallback(hadc);
 800527c:	f7ff fff2 	bl	8005264 <HAL_ADC_ErrorCallback>
#endif /* USE_HAL_ADC_REGISTER_CALLBACKS */
}
 8005280:	bd08      	pop	{r3, pc}
 8005282:	bf00      	nop

08005284 <HAL_ADC_ConfigChannel>:
  __IO uint32_t wait_loop_index = 0U;
 8005284:	2200      	movs	r2, #0
{ 
 8005286:	b530      	push	{r4, r5, lr}
 8005288:	b083      	sub	sp, #12
  __IO uint32_t wait_loop_index = 0U;
 800528a:	9201      	str	r2, [sp, #4]
  __HAL_LOCK(hadc);
 800528c:	f890 2024 	ldrb.w	r2, [r0, #36]	@ 0x24
 8005290:	2a01      	cmp	r2, #1
 8005292:	d066      	beq.n	8005362 <HAL_ADC_ConfigChannel+0xde>
 8005294:	4603      	mov	r3, r0
 8005296:	2001      	movs	r0, #1
 8005298:	f883 0024 	strb.w	r0, [r3, #36]	@ 0x24
  if (sConfig->Rank < 7U)
 800529c:	684c      	ldr	r4, [r1, #4]
    MODIFY_REG(hadc->Instance->SQR3                        ,
 800529e:	681a      	ldr	r2, [r3, #0]
  if (sConfig->Rank < 7U)
 80052a0:	2c06      	cmp	r4, #6
    MODIFY_REG(hadc->Instance->SQR3                        ,
 80052a2:	6808      	ldr	r0, [r1, #0]
 80052a4:	eb04 0c84 	add.w	ip, r4, r4, lsl #2
  if (sConfig->Rank < 7U)
 80052a8:	d92f      	bls.n	800530a <HAL_ADC_ConfigChannel+0x86>
  else if (sConfig->Rank < 13U)
 80052aa:	2c0c      	cmp	r4, #12
 80052ac:	d84b      	bhi.n	8005346 <HAL_ADC_ConfigChannel+0xc2>
    MODIFY_REG(hadc->Instance->SQR2                        ,
 80052ae:	251f      	movs	r5, #31
 80052b0:	6b14      	ldr	r4, [r2, #48]	@ 0x30
 80052b2:	f1ac 0c23 	sub.w	ip, ip, #35	@ 0x23
 80052b6:	fa05 f50c 	lsl.w	r5, r5, ip
 80052ba:	fa00 fe0c 	lsl.w	lr, r0, ip
 80052be:	ea24 0405 	bic.w	r4, r4, r5
 80052c2:	ea44 040e 	orr.w	r4, r4, lr
 80052c6:	6314      	str	r4, [r2, #48]	@ 0x30
  if (sConfig->Channel >= ADC_CHANNEL_10)
 80052c8:	2809      	cmp	r0, #9
    MODIFY_REG(hadc->Instance->SMPR1                             ,
 80052ca:	6889      	ldr	r1, [r1, #8]
 80052cc:	eb00 0440 	add.w	r4, r0, r0, lsl #1
  if (sConfig->Channel >= ADC_CHANNEL_10)
 80052d0:	d92d      	bls.n	800532e <HAL_ADC_ConfigChannel+0xaa>
    MODIFY_REG(hadc->Instance->SMPR1                             ,
 80052d2:	f04f 0c07 	mov.w	ip, #7
 80052d6:	3c1e      	subs	r4, #30
 80052d8:	40a1      	lsls	r1, r4
 80052da:	fa0c fc04 	lsl.w	ip, ip, r4
 80052de:	68d4      	ldr	r4, [r2, #12]
 80052e0:	ea24 040c 	bic.w	r4, r4, ip
 80052e4:	4321      	orrs	r1, r4
  if ((sConfig->Channel == ADC_CHANNEL_TEMPSENSOR) ||
 80052e6:	f1a0 0410 	sub.w	r4, r0, #16
 80052ea:	2c01      	cmp	r4, #1
    MODIFY_REG(hadc->Instance->SMPR1                             ,
 80052ec:	60d1      	str	r1, [r2, #12]
  if ((sConfig->Channel == ADC_CHANNEL_TEMPSENSOR) ||
 80052ee:	d828      	bhi.n	8005342 <HAL_ADC_ConfigChannel+0xbe>
    if (hadc->Instance == ADC1)
 80052f0:	492c      	ldr	r1, [pc, #176]	@ (80053a4 <HAL_ADC_ConfigChannel+0x120>)
 80052f2:	428a      	cmp	r2, r1
 80052f4:	d038      	beq.n	8005368 <HAL_ADC_ConfigChannel+0xe4>
      tmp_hal_status = HAL_ERROR;
 80052f6:	2001      	movs	r0, #1
      SET_BIT(hadc->State, HAL_ADC_STATE_ERROR_CONFIG);
 80052f8:	6a9a      	ldr	r2, [r3, #40]	@ 0x28
 80052fa:	f042 0220 	orr.w	r2, r2, #32
 80052fe:	629a      	str	r2, [r3, #40]	@ 0x28
  __HAL_UNLOCK(hadc);
 8005300:	2200      	movs	r2, #0
 8005302:	f883 2024 	strb.w	r2, [r3, #36]	@ 0x24
}
 8005306:	b003      	add	sp, #12
 8005308:	bd30      	pop	{r4, r5, pc}
    MODIFY_REG(hadc->Instance->SQR3                        ,
 800530a:	f04f 0e1f 	mov.w	lr, #31
 800530e:	6b54      	ldr	r4, [r2, #52]	@ 0x34
 8005310:	f1ac 0c05 	sub.w	ip, ip, #5
 8005314:	fa00 f50c 	lsl.w	r5, r0, ip
 8005318:	fa0e fc0c 	lsl.w	ip, lr, ip
 800531c:	ea24 040c 	bic.w	r4, r4, ip
 8005320:	432c      	orrs	r4, r5
  if (sConfig->Channel >= ADC_CHANNEL_10)
 8005322:	2809      	cmp	r0, #9
    MODIFY_REG(hadc->Instance->SQR3                        ,
 8005324:	6354      	str	r4, [r2, #52]	@ 0x34
    MODIFY_REG(hadc->Instance->SMPR1                             ,
 8005326:	6889      	ldr	r1, [r1, #8]
 8005328:	eb00 0440 	add.w	r4, r0, r0, lsl #1
  if (sConfig->Channel >= ADC_CHANNEL_10)
 800532c:	d8d1      	bhi.n	80052d2 <HAL_ADC_ConfigChannel+0x4e>
    MODIFY_REG(hadc->Instance->SMPR2                             ,
 800532e:	f04f 0c07 	mov.w	ip, #7
 8005332:	6910      	ldr	r0, [r2, #16]
 8005334:	40a1      	lsls	r1, r4
 8005336:	fa0c f404 	lsl.w	r4, ip, r4
 800533a:	ea20 0004 	bic.w	r0, r0, r4
 800533e:	4301      	orrs	r1, r0
 8005340:	6111      	str	r1, [r2, #16]
  HAL_StatusTypeDef tmp_hal_status = HAL_OK;
 8005342:	2000      	movs	r0, #0
 8005344:	e7dc      	b.n	8005300 <HAL_ADC_ConfigChannel+0x7c>
    MODIFY_REG(hadc->Instance->SQR1                        ,
 8005346:	251f      	movs	r5, #31
 8005348:	6ad4      	ldr	r4, [r2, #44]	@ 0x2c
 800534a:	f1ac 0c41 	sub.w	ip, ip, #65	@ 0x41
 800534e:	fa05 f50c 	lsl.w	r5, r5, ip
 8005352:	fa00 fe0c 	lsl.w	lr, r0, ip
 8005356:	ea24 0405 	bic.w	r4, r4, r5
 800535a:	ea44 040e 	orr.w	r4, r4, lr
 800535e:	62d4      	str	r4, [r2, #44]	@ 0x2c
 8005360:	e7b2      	b.n	80052c8 <HAL_ADC_ConfigChannel+0x44>
  __HAL_LOCK(hadc);
 8005362:	2002      	movs	r0, #2
}
 8005364:	b003      	add	sp, #12
 8005366:	bd30      	pop	{r4, r5, pc}
      if (READ_BIT(hadc->Instance->CR2, ADC_CR2_TSVREFE) == RESET)
 8005368:	6891      	ldr	r1, [r2, #8]
 800536a:	0209      	lsls	r1, r1, #8
 800536c:	d4e9      	bmi.n	8005342 <HAL_ADC_ConfigChannel+0xbe>
        SET_BIT(hadc->Instance->CR2, ADC_CR2_TSVREFE);
 800536e:	6891      	ldr	r1, [r2, #8]
        if (sConfig->Channel == ADC_CHANNEL_TEMPSENSOR)
 8005370:	2810      	cmp	r0, #16
        SET_BIT(hadc->Instance->CR2, ADC_CR2_TSVREFE);
 8005372:	f441 0100 	orr.w	r1, r1, #8388608	@ 0x800000
 8005376:	6091      	str	r1, [r2, #8]
        if (sConfig->Channel == ADC_CHANNEL_TEMPSENSOR)
 8005378:	d1e3      	bne.n	8005342 <HAL_ADC_ConfigChannel+0xbe>
          wait_loop_index = (ADC_TEMPSENSOR_DELAY_US * (SystemCoreClock / 1000000U));
 800537a:	4a0b      	ldr	r2, [pc, #44]	@ (80053a8 <HAL_ADC_ConfigChannel+0x124>)
 800537c:	490b      	ldr	r1, [pc, #44]	@ (80053ac <HAL_ADC_ConfigChannel+0x128>)
 800537e:	6812      	ldr	r2, [r2, #0]
 8005380:	fba1 1202 	umull	r1, r2, r1, r2
 8005384:	0c92      	lsrs	r2, r2, #18
 8005386:	eb02 0282 	add.w	r2, r2, r2, lsl #2
 800538a:	0052      	lsls	r2, r2, #1
 800538c:	9201      	str	r2, [sp, #4]
          while(wait_loop_index != 0U)
 800538e:	9a01      	ldr	r2, [sp, #4]
 8005390:	2a00      	cmp	r2, #0
 8005392:	d0d6      	beq.n	8005342 <HAL_ADC_ConfigChannel+0xbe>
            wait_loop_index--;
 8005394:	9a01      	ldr	r2, [sp, #4]
 8005396:	3a01      	subs	r2, #1
 8005398:	9201      	str	r2, [sp, #4]
          while(wait_loop_index != 0U)
 800539a:	9a01      	ldr	r2, [sp, #4]
 800539c:	2a00      	cmp	r2, #0
 800539e:	d1f9      	bne.n	8005394 <HAL_ADC_ConfigChannel+0x110>
 80053a0:	e7cf      	b.n	8005342 <HAL_ADC_ConfigChannel+0xbe>
 80053a2:	bf00      	nop
 80053a4:	40012400 	.word	0x40012400
 80053a8:	20000014 	.word	0x20000014
 80053ac:	431bde83 	.word	0x431bde83

080053b0 <ADC_Enable>:
  __IO uint32_t wait_loop_index = 0U;
 80053b0:	2300      	movs	r3, #0
{
 80053b2:	b530      	push	{r4, r5, lr}
  if (ADC_IS_ENABLE(hadc) == RESET)
 80053b4:	6802      	ldr	r2, [r0, #0]
{
 80053b6:	b083      	sub	sp, #12
  __IO uint32_t wait_loop_index = 0U;
 80053b8:	9301      	str	r3, [sp, #4]
  if (ADC_IS_ENABLE(hadc) == RESET)
 80053ba:	6893      	ldr	r3, [r2, #8]
 80053bc:	07d9      	lsls	r1, r3, #31
 80053be:	d427      	bmi.n	8005410 <ADC_Enable+0x60>
    wait_loop_index = (ADC_STAB_DELAY_US * (SystemCoreClock / 1000000U));
 80053c0:	4b1b      	ldr	r3, [pc, #108]	@ (8005430 <ADC_Enable+0x80>)
 80053c2:	4604      	mov	r4, r0
 80053c4:	681b      	ldr	r3, [r3, #0]
 80053c6:	481b      	ldr	r0, [pc, #108]	@ (8005434 <ADC_Enable+0x84>)
    __HAL_ADC_ENABLE(hadc);
 80053c8:	6891      	ldr	r1, [r2, #8]
    wait_loop_index = (ADC_STAB_DELAY_US * (SystemCoreClock / 1000000U));
 80053ca:	fba0 0303 	umull	r0, r3, r0, r3
    __HAL_ADC_ENABLE(hadc);
 80053ce:	f041 0101 	orr.w	r1, r1, #1
    wait_loop_index = (ADC_STAB_DELAY_US * (SystemCoreClock / 1000000U));
 80053d2:	0c9b      	lsrs	r3, r3, #18
    __HAL_ADC_ENABLE(hadc);
 80053d4:	6091      	str	r1, [r2, #8]
    wait_loop_index = (ADC_STAB_DELAY_US * (SystemCoreClock / 1000000U));
 80053d6:	9301      	str	r3, [sp, #4]
    while(wait_loop_index != 0U)
 80053d8:	9b01      	ldr	r3, [sp, #4]
 80053da:	b12b      	cbz	r3, 80053e8 <ADC_Enable+0x38>
      wait_loop_index--;
 80053dc:	9b01      	ldr	r3, [sp, #4]
 80053de:	3b01      	subs	r3, #1
 80053e0:	9301      	str	r3, [sp, #4]
    while(wait_loop_index != 0U)
 80053e2:	9b01      	ldr	r3, [sp, #4]
 80053e4:	2b00      	cmp	r3, #0
 80053e6:	d1f9      	bne.n	80053dc <ADC_Enable+0x2c>
    tickstart = HAL_GetTick();
 80053e8:	f7ff fef4 	bl	80051d4 <HAL_GetTick>
    while(ADC_IS_ENABLE(hadc) == RESET)
 80053ec:	6823      	ldr	r3, [r4, #0]
    tickstart = HAL_GetTick();
 80053ee:	4605      	mov	r5, r0
    while(ADC_IS_ENABLE(hadc) == RESET)
 80053f0:	689b      	ldr	r3, [r3, #8]
 80053f2:	07da      	lsls	r2, r3, #31
 80053f4:	d40c      	bmi.n	8005410 <ADC_Enable+0x60>
      if((HAL_GetTick() - tickstart) > ADC_ENABLE_TIMEOUT)
 80053f6:	f7ff feed 	bl	80051d4 <HAL_GetTick>
 80053fa:	1b43      	subs	r3, r0, r5
 80053fc:	2b02      	cmp	r3, #2
        if(ADC_IS_ENABLE(hadc) == RESET)
 80053fe:	6823      	ldr	r3, [r4, #0]
      if((HAL_GetTick() - tickstart) > ADC_ENABLE_TIMEOUT)
 8005400:	d903      	bls.n	800540a <ADC_Enable+0x5a>
        if(ADC_IS_ENABLE(hadc) == RESET)
 8005402:	689a      	ldr	r2, [r3, #8]
 8005404:	f012 0201 	ands.w	r2, r2, #1
 8005408:	d005      	beq.n	8005416 <ADC_Enable+0x66>
    while(ADC_IS_ENABLE(hadc) == RESET)
 800540a:	689b      	ldr	r3, [r3, #8]
 800540c:	07db      	lsls	r3, r3, #31
 800540e:	d5f2      	bpl.n	80053f6 <ADC_Enable+0x46>
  return HAL_OK;
 8005410:	2000      	movs	r0, #0
}
 8005412:	b003      	add	sp, #12
 8005414:	bd30      	pop	{r4, r5, pc}
          return HAL_ERROR;
 8005416:	2001      	movs	r0, #1
          SET_BIT(hadc->State, HAL_ADC_STATE_ERROR_INTERNAL);
 8005418:	6aa3      	ldr	r3, [r4, #40]	@ 0x28
          __HAL_UNLOCK(hadc);
 800541a:	f884 2024 	strb.w	r2, [r4, #36]	@ 0x24
          SET_BIT(hadc->State, HAL_ADC_STATE_ERROR_INTERNAL);
 800541e:	f043 0310 	orr.w	r3, r3, #16
 8005422:	62a3      	str	r3, [r4, #40]	@ 0x28
          SET_BIT(hadc->ErrorCode, HAL_ADC_ERROR_INTERNAL);
 8005424:	6ae3      	ldr	r3, [r4, #44]	@ 0x2c
 8005426:	4303      	orrs	r3, r0
 8005428:	62e3      	str	r3, [r4, #44]	@ 0x2c
}
 800542a:	b003      	add	sp, #12
 800542c:	bd30      	pop	{r4, r5, pc}
 800542e:	bf00      	nop
 8005430:	20000014 	.word	0x20000014
 8005434:	431bde83 	.word	0x431bde83

08005438 <HAL_ADC_Start_DMA>:
{
 8005438:	b5f8      	push	{r3, r4, r5, r6, r7, lr}
 800543a:	4604      	mov	r4, r0
  if(ADC_MULTIMODE_IS_ENABLE(hadc) == RESET)
 800543c:	4d3e      	ldr	r5, [pc, #248]	@ (8005538 <HAL_ADC_Start_DMA+0x100>)
 800543e:	6800      	ldr	r0, [r0, #0]
{
 8005440:	460f      	mov	r7, r1
  if(ADC_MULTIMODE_IS_ENABLE(hadc) == RESET)
 8005442:	42a8      	cmp	r0, r5
{
 8005444:	4616      	mov	r6, r2
  if(ADC_MULTIMODE_IS_ENABLE(hadc) == RESET)
 8005446:	d059      	beq.n	80054fc <HAL_ADC_Start_DMA+0xc4>
 8005448:	4b3c      	ldr	r3, [pc, #240]	@ (800553c <HAL_ADC_Start_DMA+0x104>)
 800544a:	4298      	cmp	r0, r3
 800544c:	d056      	beq.n	80054fc <HAL_ADC_Start_DMA+0xc4>
    __HAL_LOCK(hadc);
 800544e:	f894 3024 	ldrb.w	r3, [r4, #36]	@ 0x24
 8005452:	2b01      	cmp	r3, #1
 8005454:	d05f      	beq.n	8005516 <HAL_ADC_Start_DMA+0xde>
 8005456:	2301      	movs	r3, #1
    tmp_hal_status = ADC_Enable(hadc);
 8005458:	4620      	mov	r0, r4
    __HAL_LOCK(hadc);
 800545a:	f884 3024 	strb.w	r3, [r4, #36]	@ 0x24
    tmp_hal_status = ADC_Enable(hadc);
 800545e:	f7ff ffa7 	bl	80053b0 <ADC_Enable>
    if (tmp_hal_status == HAL_OK)
 8005462:	4605      	mov	r5, r0
 8005464:	2800      	cmp	r0, #0
 8005466:	d151      	bne.n	800550c <HAL_ADC_Start_DMA+0xd4>
      ADC_STATE_CLR_SET(hadc->State,
 8005468:	6aa0      	ldr	r0, [r4, #40]	@ 0x28
    if (ADC_NONMULTIMODE_OR_MULTIMODEMASTER(hadc))
 800546a:	6821      	ldr	r1, [r4, #0]
 800546c:	4b33      	ldr	r3, [pc, #204]	@ (800553c <HAL_ADC_Start_DMA+0x104>)
      ADC_STATE_CLR_SET(hadc->State,
 800546e:	f420 6070 	bic.w	r0, r0, #3840	@ 0xf00
 8005472:	f020 0001 	bic.w	r0, r0, #1
 8005476:	f440 7080 	orr.w	r0, r0, #256	@ 0x100
    if (ADC_NONMULTIMODE_OR_MULTIMODEMASTER(hadc))
 800547a:	4299      	cmp	r1, r3
      ADC_STATE_CLR_SET(hadc->State,
 800547c:	62a0      	str	r0, [r4, #40]	@ 0x28
    if (ADC_NONMULTIMODE_OR_MULTIMODEMASTER(hadc))
 800547e:	d04d      	beq.n	800551c <HAL_ADC_Start_DMA+0xe4>
      CLEAR_BIT(hadc->State, HAL_ADC_STATE_MULTIMODE_SLAVE);
 8005480:	6aa3      	ldr	r3, [r4, #40]	@ 0x28
 8005482:	f423 1380 	bic.w	r3, r3, #1048576	@ 0x100000
 8005486:	62a3      	str	r3, [r4, #40]	@ 0x28
      if (READ_BIT(hadc->Instance->CR1, ADC_CR1_JAUTO) != RESET)
 8005488:	684b      	ldr	r3, [r1, #4]
 800548a:	055a      	lsls	r2, r3, #21
 800548c:	d505      	bpl.n	800549a <HAL_ADC_Start_DMA+0x62>
        ADC_STATE_CLR_SET(hadc->State, HAL_ADC_STATE_INJ_EOC, HAL_ADC_STATE_INJ_BUSY);
 800548e:	6aa3      	ldr	r3, [r4, #40]	@ 0x28
 8005490:	f423 5340 	bic.w	r3, r3, #12288	@ 0x3000
 8005494:	f443 5380 	orr.w	r3, r3, #4096	@ 0x1000
 8005498:	62a3      	str	r3, [r4, #40]	@ 0x28
      if (HAL_IS_BIT_SET(hadc->State, HAL_ADC_STATE_INJ_BUSY))
 800549a:	6aa3      	ldr	r3, [r4, #40]	@ 0x28
      __HAL_UNLOCK(hadc);
 800549c:	2000      	movs	r0, #0
      if (HAL_IS_BIT_SET(hadc->State, HAL_ADC_STATE_INJ_BUSY))
 800549e:	f413 5380 	ands.w	r3, r3, #4096	@ 0x1000
        CLEAR_BIT(hadc->ErrorCode, (HAL_ADC_ERROR_OVR | HAL_ADC_ERROR_DMA));         
 80054a2:	bf18      	it	ne
 80054a4:	6ae3      	ldrne	r3, [r4, #44]	@ 0x2c
      __HAL_UNLOCK(hadc);
 80054a6:	f884 0024 	strb.w	r0, [r4, #36]	@ 0x24
        CLEAR_BIT(hadc->ErrorCode, (HAL_ADC_ERROR_OVR | HAL_ADC_ERROR_DMA));         
 80054aa:	bf18      	it	ne
 80054ac:	f023 0306 	bicne.w	r3, r3, #6
        ADC_CLEAR_ERRORCODE(hadc);
 80054b0:	62e3      	str	r3, [r4, #44]	@ 0x2c
      HAL_DMA_Start_IT(hadc->DMA_Handle, (uint32_t)&hadc->Instance->DR, (uint32_t)pData, Length);
 80054b2:	4633      	mov	r3, r6
      __HAL_ADC_CLEAR_FLAG(hadc, ADC_FLAG_EOC);
 80054b4:	f06f 0602 	mvn.w	r6, #2
      hadc->DMA_Handle->XferCpltCallback = ADC_DMAConvCplt;
 80054b8:	6a20      	ldr	r0, [r4, #32]
      HAL_DMA_Start_IT(hadc->DMA_Handle, (uint32_t)&hadc->Instance->DR, (uint32_t)pData, Length);
 80054ba:	463a      	mov	r2, r7
      hadc->DMA_Handle->XferCpltCallback = ADC_DMAConvCplt;
 80054bc:	4f20      	ldr	r7, [pc, #128]	@ (8005540 <HAL_ADC_Start_DMA+0x108>)
      HAL_DMA_Start_IT(hadc->DMA_Handle, (uint32_t)&hadc->Instance->DR, (uint32_t)pData, Length);
 80054be:	314c      	adds	r1, #76	@ 0x4c
      hadc->DMA_Handle->XferCpltCallback = ADC_DMAConvCplt;
 80054c0:	6287      	str	r7, [r0, #40]	@ 0x28
      hadc->DMA_Handle->XferHalfCpltCallback = ADC_DMAHalfConvCplt;
 80054c2:	4f20      	ldr	r7, [pc, #128]	@ (8005544 <HAL_ADC_Start_DMA+0x10c>)
 80054c4:	62c7      	str	r7, [r0, #44]	@ 0x2c
      hadc->DMA_Handle->XferErrorCallback = ADC_DMAError;
 80054c6:	4f20      	ldr	r7, [pc, #128]	@ (8005548 <HAL_ADC_Start_DMA+0x110>)
 80054c8:	6307      	str	r7, [r0, #48]	@ 0x30
      __HAL_ADC_CLEAR_FLAG(hadc, ADC_FLAG_EOC);
 80054ca:	f841 6c4c 	str.w	r6, [r1, #-76]
      SET_BIT(hadc->Instance->CR2, ADC_CR2_DMA);
 80054ce:	f851 6c44 	ldr.w	r6, [r1, #-68]
 80054d2:	f446 7680 	orr.w	r6, r6, #256	@ 0x100
 80054d6:	f841 6c44 	str.w	r6, [r1, #-68]
      HAL_DMA_Start_IT(hadc->DMA_Handle, (uint32_t)&hadc->Instance->DR, (uint32_t)pData, Length);
 80054da:	f000 f9b1 	bl	8005840 <HAL_DMA_Start_IT>
      if (ADC_IS_SOFTWARE_START_REGULAR(hadc))
 80054de:	6823      	ldr	r3, [r4, #0]
}
 80054e0:	4628      	mov	r0, r5
      if (ADC_IS_SOFTWARE_START_REGULAR(hadc))
 80054e2:	689a      	ldr	r2, [r3, #8]
 80054e4:	f402 2260 	and.w	r2, r2, #917504	@ 0xe0000
 80054e8:	f5b2 2f60 	cmp.w	r2, #917504	@ 0xe0000
        SET_BIT(hadc->Instance->CR2, (ADC_CR2_SWSTART | ADC_CR2_EXTTRIG));
 80054ec:	689a      	ldr	r2, [r3, #8]
 80054ee:	bf0c      	ite	eq
 80054f0:	f442 02a0 	orreq.w	r2, r2, #5242880	@ 0x500000
        SET_BIT(hadc->Instance->CR2, ADC_CR2_EXTTRIG);
 80054f4:	f442 1280 	orrne.w	r2, r2, #1048576	@ 0x100000
 80054f8:	609a      	str	r2, [r3, #8]
}
 80054fa:	bdf8      	pop	{r3, r4, r5, r6, r7, pc}
  if(ADC_MULTIMODE_IS_ENABLE(hadc) == RESET)
 80054fc:	4b0e      	ldr	r3, [pc, #56]	@ (8005538 <HAL_ADC_Start_DMA+0x100>)
 80054fe:	685b      	ldr	r3, [r3, #4]
 8005500:	f413 2f70 	tst.w	r3, #983040	@ 0xf0000
 8005504:	d0a3      	beq.n	800544e <HAL_ADC_Start_DMA+0x16>
    tmp_hal_status = HAL_ERROR;
 8005506:	2501      	movs	r5, #1
}
 8005508:	4628      	mov	r0, r5
 800550a:	bdf8      	pop	{r3, r4, r5, r6, r7, pc}
      __HAL_UNLOCK(hadc);
 800550c:	2300      	movs	r3, #0
 800550e:	f884 3024 	strb.w	r3, [r4, #36]	@ 0x24
}
 8005512:	4628      	mov	r0, r5
 8005514:	bdf8      	pop	{r3, r4, r5, r6, r7, pc}
    __HAL_LOCK(hadc);
 8005516:	2502      	movs	r5, #2
}
 8005518:	4628      	mov	r0, r5
 800551a:	bdf8      	pop	{r3, r4, r5, r6, r7, pc}
    if (ADC_NONMULTIMODE_OR_MULTIMODEMASTER(hadc))
 800551c:	f5a3 6380 	sub.w	r3, r3, #1024	@ 0x400
 8005520:	685a      	ldr	r2, [r3, #4]
 8005522:	f412 2f70 	tst.w	r2, #983040	@ 0xf0000
 8005526:	d0ab      	beq.n	8005480 <HAL_ADC_Start_DMA+0x48>
      SET_BIT(hadc->State, HAL_ADC_STATE_MULTIMODE_SLAVE);
 8005528:	6aa2      	ldr	r2, [r4, #40]	@ 0x28
 800552a:	f442 1280 	orr.w	r2, r2, #1048576	@ 0x100000
 800552e:	62a2      	str	r2, [r4, #40]	@ 0x28
      if (ADC_MULTIMODE_AUTO_INJECTED(hadc))
 8005530:	685b      	ldr	r3, [r3, #4]
 8005532:	055b      	lsls	r3, r3, #21
 8005534:	d5b1      	bpl.n	800549a <HAL_ADC_Start_DMA+0x62>
 8005536:	e7aa      	b.n	800548e <HAL_ADC_Start_DMA+0x56>
 8005538:	40012400 	.word	0x40012400
 800553c:	40012800 	.word	0x40012800
 8005540:	08005205 	.word	0x08005205
 8005544:	08005259 	.word	0x08005259
 8005548:	08005269 	.word	0x08005269

0800554c <ADC_ConversionStop_Disable>:
{
 800554c:	b538      	push	{r3, r4, r5, lr}
  if (ADC_IS_ENABLE(hadc) != RESET)
 800554e:	6803      	ldr	r3, [r0, #0]
 8005550:	689a      	ldr	r2, [r3, #8]
 8005552:	07d4      	lsls	r4, r2, #31
 8005554:	d401      	bmi.n	800555a <ADC_ConversionStop_Disable+0xe>
  return HAL_OK;
 8005556:	2000      	movs	r0, #0
}
 8005558:	bd38      	pop	{r3, r4, r5, pc}
    __HAL_ADC_DISABLE(hadc);
 800555a:	4604      	mov	r4, r0
 800555c:	689a      	ldr	r2, [r3, #8]
 800555e:	f022 0201 	bic.w	r2, r2, #1
 8005562:	609a      	str	r2, [r3, #8]
    tickstart = HAL_GetTick();
 8005564:	f7ff fe36 	bl	80051d4 <HAL_GetTick>
    while(ADC_IS_ENABLE(hadc) != RESET)
 8005568:	6823      	ldr	r3, [r4, #0]
    tickstart = HAL_GetTick();
 800556a:	4605      	mov	r5, r0
    while(ADC_IS_ENABLE(hadc) != RESET)
 800556c:	689b      	ldr	r3, [r3, #8]
 800556e:	07d9      	lsls	r1, r3, #31
 8005570:	d5f1      	bpl.n	8005556 <ADC_ConversionStop_Disable+0xa>
 8005572:	e002      	b.n	800557a <ADC_ConversionStop_Disable+0x2e>
 8005574:	689b      	ldr	r3, [r3, #8]
 8005576:	07db      	lsls	r3, r3, #31
 8005578:	d5ed      	bpl.n	8005556 <ADC_ConversionStop_Disable+0xa>
      if((HAL_GetTick() - tickstart) > ADC_DISABLE_TIMEOUT)
 800557a:	f7ff fe2b 	bl	80051d4 <HAL_GetTick>
 800557e:	1b43      	subs	r3, r0, r5
 8005580:	2b02      	cmp	r3, #2
        if(ADC_IS_ENABLE(hadc) != RESET)
 8005582:	6823      	ldr	r3, [r4, #0]
      if((HAL_GetTick() - tickstart) > ADC_DISABLE_TIMEOUT)
 8005584:	d9f6      	bls.n	8005574 <ADC_ConversionStop_Disable+0x28>
        if(ADC_IS_ENABLE(hadc) != RESET)
 8005586:	689a      	ldr	r2, [r3, #8]
 8005588:	07d2      	lsls	r2, r2, #31
 800558a:	d5f3      	bpl.n	8005574 <ADC_ConversionStop_Disable+0x28>
          return HAL_ERROR;
 800558c:	2001      	movs	r0, #1
          SET_BIT(hadc->State, HAL_ADC_STATE_ERROR_INTERNAL);
 800558e:	6aa3      	ldr	r3, [r4, #40]	@ 0x28
 8005590:	f043 0310 	orr.w	r3, r3, #16
 8005594:	62a3      	str	r3, [r4, #40]	@ 0x28
          SET_BIT(hadc->ErrorCode, HAL_ADC_ERROR_INTERNAL);
 8005596:	6ae3      	ldr	r3, [r4, #44]	@ 0x2c
 8005598:	4303      	orrs	r3, r0
 800559a:	62e3      	str	r3, [r4, #44]	@ 0x2c
}
 800559c:	bd38      	pop	{r3, r4, r5, pc}
 800559e:	bf00      	nop

080055a0 <HAL_ADC_Init>:
  if(hadc == NULL)
 80055a0:	2800      	cmp	r0, #0
 80055a2:	d06f      	beq.n	8005684 <HAL_ADC_Init+0xe4>
{
 80055a4:	b5f8      	push	{r3, r4, r5, r6, r7, lr}
  if (hadc->State == HAL_ADC_STATE_RESET)
 80055a6:	6a83      	ldr	r3, [r0, #40]	@ 0x28
 80055a8:	4604      	mov	r4, r0
 80055aa:	2b00      	cmp	r3, #0
 80055ac:	d052      	beq.n	8005654 <HAL_ADC_Init+0xb4>
  tmp_hal_status = ADC_ConversionStop_Disable(hadc);
 80055ae:	4620      	mov	r0, r4
 80055b0:	f7ff ffcc 	bl	800554c <ADC_ConversionStop_Disable>
  if (HAL_IS_BIT_CLR(hadc->State, HAL_ADC_STATE_ERROR_INTERNAL) &&
 80055b4:	6aa3      	ldr	r3, [r4, #40]	@ 0x28
 80055b6:	f013 0310 	ands.w	r3, r3, #16
 80055ba:	d145      	bne.n	8005648 <HAL_ADC_Init+0xa8>
 80055bc:	2800      	cmp	r0, #0
 80055be:	d143      	bne.n	8005648 <HAL_ADC_Init+0xa8>
    ADC_STATE_CLR_SET(hadc->State,
 80055c0:	6aa2      	ldr	r2, [r4, #40]	@ 0x28
    tmp_cr2 |= (hadc->Init.DataAlign                                          |
 80055c2:	6861      	ldr	r1, [r4, #4]
    ADC_STATE_CLR_SET(hadc->State,
 80055c4:	f422 5288 	bic.w	r2, r2, #4352	@ 0x1100
 80055c8:	f022 0202 	bic.w	r2, r2, #2
 80055cc:	f042 0202 	orr.w	r2, r2, #2
    tmp_cr1 |= (ADC_CR1_SCAN_SET(hadc->Init.ScanConvMode));
 80055d0:	68a5      	ldr	r5, [r4, #8]
    ADC_STATE_CLR_SET(hadc->State,
 80055d2:	62a2      	str	r2, [r4, #40]	@ 0x28
    tmp_cr2 |= (hadc->Init.DataAlign                                          |
 80055d4:	69e2      	ldr	r2, [r4, #28]
                ADC_CR2_CONTINUOUS((uint32_t)hadc->Init.ContinuousConvMode)   );
 80055d6:	7b26      	ldrb	r6, [r4, #12]
    tmp_cr2 |= (hadc->Init.DataAlign                                          |
 80055d8:	4311      	orrs	r1, r2
    tmp_cr1 |= (ADC_CR1_SCAN_SET(hadc->Init.ScanConvMode));
 80055da:	f5b5 7f80 	cmp.w	r5, #256	@ 0x100
      MODIFY_REG(hadc->Instance->CR1,
 80055de:	6822      	ldr	r2, [r4, #0]
    if (hadc->Init.DiscontinuousConvMode == ENABLE)
 80055e0:	f894 e014 	ldrb.w	lr, [r4, #20]
                ADC_CFGR_EXTSEL(hadc, hadc->Init.ExternalTrigConv)            |
 80055e4:	ea41 0146 	orr.w	r1, r1, r6, lsl #1
    tmp_cr1 |= (ADC_CR1_SCAN_SET(hadc->Init.ScanConvMode));
 80055e8:	d03a      	beq.n	8005660 <HAL_ADC_Init+0xc0>
 80055ea:	f1a5 0c01 	sub.w	ip, r5, #1
 80055ee:	fabc fc8c 	clz	ip, ip
    if (hadc->Init.DiscontinuousConvMode == ENABLE)
 80055f2:	f1be 0f01 	cmp.w	lr, #1
    tmp_cr1 |= (ADC_CR1_SCAN_SET(hadc->Init.ScanConvMode));
 80055f6:	ea4f 1c5c 	mov.w	ip, ip, lsr #5
 80055fa:	ea4f 2c0c 	mov.w	ip, ip, lsl #8
    if (hadc->Init.DiscontinuousConvMode == ENABLE)
 80055fe:	d044      	beq.n	800568a <HAL_ADC_Init+0xea>
      MODIFY_REG(hadc->Instance->CR1,
 8005600:	6856      	ldr	r6, [r2, #4]
 8005602:	f426 4669 	bic.w	r6, r6, #59648	@ 0xe900
 8005606:	ea46 060c 	orr.w	r6, r6, ip
 800560a:	6056      	str	r6, [r2, #4]
      MODIFY_REG(hadc->Instance->CR2,
 800560c:	6897      	ldr	r7, [r2, #8]
 800560e:	4e34      	ldr	r6, [pc, #208]	@ (80056e0 <HAL_ADC_Init+0x140>)
 8005610:	403e      	ands	r6, r7
 8005612:	430e      	orrs	r6, r1
 8005614:	6096      	str	r6, [r2, #8]
    if (ADC_CR1_SCAN_SET(hadc->Init.ScanConvMode) == ADC_SCAN_ENABLE)
 8005616:	2d01      	cmp	r5, #1
 8005618:	d030      	beq.n	800567c <HAL_ADC_Init+0xdc>
    MODIFY_REG(hadc->Instance->SQR1,
 800561a:	6ad5      	ldr	r5, [r2, #44]	@ 0x2c
 800561c:	f425 0c70 	bic.w	ip, r5, #15728640	@ 0xf00000
 8005620:	ea4c 0303 	orr.w	r3, ip, r3
 8005624:	62d3      	str	r3, [r2, #44]	@ 0x2c
    if (READ_BIT(hadc->Instance->CR2, ~(ADC_CR2_ADON | ADC_CR2_DMA |
 8005626:	6892      	ldr	r2, [r2, #8]
 8005628:	4b2e      	ldr	r3, [pc, #184]	@ (80056e4 <HAL_ADC_Init+0x144>)
 800562a:	4013      	ands	r3, r2
 800562c:	4299      	cmp	r1, r3
 800562e:	d046      	beq.n	80056be <HAL_ADC_Init+0x11e>
      ADC_STATE_CLR_SET(hadc->State,
 8005630:	6aa3      	ldr	r3, [r4, #40]	@ 0x28
    return HAL_ERROR;
 8005632:	2001      	movs	r0, #1
      ADC_STATE_CLR_SET(hadc->State,
 8005634:	f023 0312 	bic.w	r3, r3, #18
 8005638:	f043 0310 	orr.w	r3, r3, #16
 800563c:	62a3      	str	r3, [r4, #40]	@ 0x28
      SET_BIT(hadc->ErrorCode, HAL_ADC_ERROR_INTERNAL);
 800563e:	6ae3      	ldr	r3, [r4, #44]	@ 0x2c
 8005640:	f043 0301 	orr.w	r3, r3, #1
 8005644:	62e3      	str	r3, [r4, #44]	@ 0x2c
}
 8005646:	bdf8      	pop	{r3, r4, r5, r6, r7, pc}
    SET_BIT(hadc->State, HAL_ADC_STATE_ERROR_INTERNAL);
 8005648:	6aa3      	ldr	r3, [r4, #40]	@ 0x28
    return HAL_ERROR;
 800564a:	2001      	movs	r0, #1
    SET_BIT(hadc->State, HAL_ADC_STATE_ERROR_INTERNAL);
 800564c:	f043 0310 	orr.w	r3, r3, #16
 8005650:	62a3      	str	r3, [r4, #40]	@ 0x28
}
 8005652:	bdf8      	pop	{r3, r4, r5, r6, r7, pc}
    ADC_CLEAR_ERRORCODE(hadc);
 8005654:	62c3      	str	r3, [r0, #44]	@ 0x2c
    hadc->Lock = HAL_UNLOCKED;
 8005656:	f880 3024 	strb.w	r3, [r0, #36]	@ 0x24
    HAL_ADC_MspInit(hadc);
 800565a:	f7fd fd57 	bl	800310c <HAL_ADC_MspInit>
 800565e:	e7a6      	b.n	80055ae <HAL_ADC_Init+0xe>
    if (hadc->Init.DiscontinuousConvMode == ENABLE)
 8005660:	f1be 0f01 	cmp.w	lr, #1
 8005664:	d010      	beq.n	8005688 <HAL_ADC_Init+0xe8>
      MODIFY_REG(hadc->Instance->CR1,
 8005666:	6853      	ldr	r3, [r2, #4]
 8005668:	f423 4369 	bic.w	r3, r3, #59648	@ 0xe900
 800566c:	f443 7380 	orr.w	r3, r3, #256	@ 0x100
 8005670:	6053      	str	r3, [r2, #4]
      MODIFY_REG(hadc->Instance->CR2,
 8005672:	6895      	ldr	r5, [r2, #8]
 8005674:	4b1a      	ldr	r3, [pc, #104]	@ (80056e0 <HAL_ADC_Init+0x140>)
 8005676:	402b      	ands	r3, r5
 8005678:	430b      	orrs	r3, r1
 800567a:	6093      	str	r3, [r2, #8]
      tmp_sqr1 = ADC_SQR1_L_SHIFT(hadc->Init.NbrOfConversion);
 800567c:	6923      	ldr	r3, [r4, #16]
 800567e:	3b01      	subs	r3, #1
 8005680:	051b      	lsls	r3, r3, #20
 8005682:	e7ca      	b.n	800561a <HAL_ADC_Init+0x7a>
    return HAL_ERROR;
 8005684:	2001      	movs	r0, #1
}
 8005686:	4770      	bx	lr
    tmp_cr1 |= (ADC_CR1_SCAN_SET(hadc->Init.ScanConvMode));
 8005688:	46ac      	mov	ip, r5
      if (hadc->Init.ContinuousConvMode == DISABLE)
 800568a:	b30e      	cbz	r6, 80056d0 <HAL_ADC_Init+0x130>
        SET_BIT(hadc->State, HAL_ADC_STATE_ERROR_CONFIG);
 800568c:	6aa6      	ldr	r6, [r4, #40]	@ 0x28
 800568e:	f046 0620 	orr.w	r6, r6, #32
 8005692:	62a6      	str	r6, [r4, #40]	@ 0x28
        SET_BIT(hadc->ErrorCode, HAL_ADC_ERROR_INTERNAL);
 8005694:	6ae6      	ldr	r6, [r4, #44]	@ 0x2c
 8005696:	f046 0601 	orr.w	r6, r6, #1
 800569a:	62e6      	str	r6, [r4, #44]	@ 0x2c
      MODIFY_REG(hadc->Instance->CR1,
 800569c:	6856      	ldr	r6, [r2, #4]
    if (ADC_CR1_SCAN_SET(hadc->Init.ScanConvMode) == ADC_SCAN_ENABLE)
 800569e:	f5b5 7f80 	cmp.w	r5, #256	@ 0x100
      MODIFY_REG(hadc->Instance->CR1,
 80056a2:	f426 4669 	bic.w	r6, r6, #59648	@ 0xe900
 80056a6:	ea46 060c 	orr.w	r6, r6, ip
 80056aa:	6056      	str	r6, [r2, #4]
      MODIFY_REG(hadc->Instance->CR2,
 80056ac:	6897      	ldr	r7, [r2, #8]
 80056ae:	4e0c      	ldr	r6, [pc, #48]	@ (80056e0 <HAL_ADC_Init+0x140>)
 80056b0:	ea06 0607 	and.w	r6, r6, r7
 80056b4:	ea46 0601 	orr.w	r6, r6, r1
 80056b8:	6096      	str	r6, [r2, #8]
    if (ADC_CR1_SCAN_SET(hadc->Init.ScanConvMode) == ADC_SCAN_ENABLE)
 80056ba:	d1ac      	bne.n	8005616 <HAL_ADC_Init+0x76>
 80056bc:	e7de      	b.n	800567c <HAL_ADC_Init+0xdc>
      ADC_CLEAR_ERRORCODE(hadc);
 80056be:	2300      	movs	r3, #0
 80056c0:	62e3      	str	r3, [r4, #44]	@ 0x2c
      ADC_STATE_CLR_SET(hadc->State,
 80056c2:	6aa3      	ldr	r3, [r4, #40]	@ 0x28
 80056c4:	f023 0303 	bic.w	r3, r3, #3
 80056c8:	f043 0301 	orr.w	r3, r3, #1
 80056cc:	62a3      	str	r3, [r4, #40]	@ 0x28
}
 80056ce:	bdf8      	pop	{r3, r4, r5, r6, r7, pc}
        SET_BIT(tmp_cr1, ADC_CR1_DISCEN                                            |
 80056d0:	69a6      	ldr	r6, [r4, #24]
 80056d2:	3e01      	subs	r6, #1
 80056d4:	ea4c 3646 	orr.w	r6, ip, r6, lsl #13
 80056d8:	f446 6c00 	orr.w	ip, r6, #2048	@ 0x800
 80056dc:	e7de      	b.n	800569c <HAL_ADC_Init+0xfc>
 80056de:	bf00      	nop
 80056e0:	ffe1f7fd 	.word	0xffe1f7fd
 80056e4:	ff1f0efe 	.word	0xff1f0efe

080056e8 <HAL_NVIC_SetPriorityGrouping>:
  reg_value &= ~((uint32_t)(SCB_AIRCR_VECTKEY_Msk | SCB_AIRCR_PRIGROUP_Msk)); /* clear bits to change               */
 80056e8:	f64f 0cff 	movw	ip, #63743	@ 0xf8ff
  reg_value  =  SCB->AIRCR;                                                   /* read old register configuration    */
 80056ec:	4906      	ldr	r1, [pc, #24]	@ (8005708 <HAL_NVIC_SetPriorityGrouping+0x20>)
                (PriorityGroupTmp << SCB_AIRCR_PRIGROUP_Pos) );               /* Insert write key and priority group */
 80056ee:	0203      	lsls	r3, r0, #8
  reg_value  =  SCB->AIRCR;                                                   /* read old register configuration    */
 80056f0:	68ca      	ldr	r2, [r1, #12]
                (PriorityGroupTmp << SCB_AIRCR_PRIGROUP_Pos) );               /* Insert write key and priority group */
 80056f2:	f403 63e0 	and.w	r3, r3, #1792	@ 0x700
  reg_value &= ~((uint32_t)(SCB_AIRCR_VECTKEY_Msk | SCB_AIRCR_PRIGROUP_Msk)); /* clear bits to change               */
 80056f6:	ea02 020c 	and.w	r2, r2, ip
                ((uint32_t)0x5FAUL << SCB_AIRCR_VECTKEY_Pos) |
 80056fa:	4313      	orrs	r3, r2
  reg_value  =  (reg_value                                   |
 80056fc:	f043 63bf 	orr.w	r3, r3, #100139008	@ 0x5f80000
 8005700:	f443 3300 	orr.w	r3, r3, #131072	@ 0x20000
  SCB->AIRCR =  reg_value;
 8005704:	60cb      	str	r3, [r1, #12]
  /* Check the parameters */
  assert_param(IS_NVIC_PRIORITY_GROUP(PriorityGroup));
  
  /* Set the PRIGROUP[10:8] bits according to the PriorityGroup parameter value */
  NVIC_SetPriorityGrouping(PriorityGroup);
}
 8005706:	4770      	bx	lr
 8005708:	e000ed00 	.word	0xe000ed00

0800570c <HAL_NVIC_SetPriority>:
  return ((uint32_t)((SCB->AIRCR & SCB_AIRCR_PRIGROUP_Msk) >> SCB_AIRCR_PRIGROUP_Pos));
 800570c:	4b1b      	ldr	r3, [pc, #108]	@ (800577c <HAL_NVIC_SetPriority+0x70>)
  *         This parameter can be a value between 0 and 15
  *         A lower priority value indicates a higher priority.          
  * @retval None
  */
void HAL_NVIC_SetPriority(IRQn_Type IRQn, uint32_t PreemptPriority, uint32_t SubPriority)
{ 
 800570e:	b500      	push	{lr}
 8005710:	68db      	ldr	r3, [r3, #12]
 8005712:	f3c3 2302 	ubfx	r3, r3, #8, #3
  PreemptPriorityBits = ((7UL - PriorityGroupTmp) > (uint32_t)(__NVIC_PRIO_BITS)) ? (uint32_t)(__NVIC_PRIO_BITS) : (uint32_t)(7UL - PriorityGroupTmp);
 8005716:	f1c3 0e07 	rsb	lr, r3, #7
 800571a:	f1be 0f04 	cmp.w	lr, #4
  SubPriorityBits     = ((PriorityGroupTmp + (uint32_t)(__NVIC_PRIO_BITS)) < (uint32_t)7UL) ? (uint32_t)0UL : (uint32_t)((PriorityGroupTmp - 7UL) + (uint32_t)(__NVIC_PRIO_BITS));
 800571e:	f103 0c04 	add.w	ip, r3, #4
  PreemptPriorityBits = ((7UL - PriorityGroupTmp) > (uint32_t)(__NVIC_PRIO_BITS)) ? (uint32_t)(__NVIC_PRIO_BITS) : (uint32_t)(7UL - PriorityGroupTmp);
 8005722:	bf28      	it	cs
 8005724:	f04f 0e04 	movcs.w	lr, #4
  SubPriorityBits     = ((PriorityGroupTmp + (uint32_t)(__NVIC_PRIO_BITS)) < (uint32_t)7UL) ? (uint32_t)0UL : (uint32_t)((PriorityGroupTmp - 7UL) + (uint32_t)(__NVIC_PRIO_BITS));
 8005728:	f1bc 0f06 	cmp.w	ip, #6
 800572c:	d91c      	bls.n	8005768 <HAL_NVIC_SetPriority+0x5c>
 800572e:	f1a3 0c03 	sub.w	ip, r3, #3
           ((SubPriority     & (uint32_t)((1UL << (SubPriorityBits    )) - 1UL)))
 8005732:	f04f 33ff 	mov.w	r3, #4294967295
 8005736:	fa03 f30c 	lsl.w	r3, r3, ip
 800573a:	ea22 0203 	bic.w	r2, r2, r3
           ((PreemptPriority & (uint32_t)((1UL << (PreemptPriorityBits)) - 1UL)) << SubPriorityBits) |
 800573e:	f04f 33ff 	mov.w	r3, #4294967295
 8005742:	fa03 f30e 	lsl.w	r3, r3, lr
 8005746:	ea21 0303 	bic.w	r3, r1, r3
 800574a:	fa03 f30c 	lsl.w	r3, r3, ip
 800574e:	4313      	orrs	r3, r2
    NVIC->IP[((uint32_t)IRQn)]               = (uint8_t)((priority << (8U - __NVIC_PRIO_BITS)) & (uint32_t)0xFFUL);
 8005750:	011b      	lsls	r3, r3, #4
  if ((int32_t)(IRQn) >= 0)
 8005752:	2800      	cmp	r0, #0
    NVIC->IP[((uint32_t)IRQn)]               = (uint8_t)((priority << (8U - __NVIC_PRIO_BITS)) & (uint32_t)0xFFUL);
 8005754:	b2db      	uxtb	r3, r3
  if ((int32_t)(IRQn) >= 0)
 8005756:	db0a      	blt.n	800576e <HAL_NVIC_SetPriority+0x62>
    NVIC->IP[((uint32_t)IRQn)]               = (uint8_t)((priority << (8U - __NVIC_PRIO_BITS)) & (uint32_t)0xFFUL);
 8005758:	f100 4060 	add.w	r0, r0, #3758096384	@ 0xe0000000
 800575c:	f500 4061 	add.w	r0, r0, #57600	@ 0xe100
 8005760:	f880 3300 	strb.w	r3, [r0, #768]	@ 0x300
  assert_param(IS_NVIC_PREEMPTION_PRIORITY(PreemptPriority));
  
  prioritygroup = NVIC_GetPriorityGrouping();
  
  NVIC_SetPriority(IRQn, NVIC_EncodePriority(prioritygroup, PreemptPriority, SubPriority));
}
 8005764:	f85d fb04 	ldr.w	pc, [sp], #4
 8005768:	2200      	movs	r2, #0
  SubPriorityBits     = ((PriorityGroupTmp + (uint32_t)(__NVIC_PRIO_BITS)) < (uint32_t)7UL) ? (uint32_t)0UL : (uint32_t)((PriorityGroupTmp - 7UL) + (uint32_t)(__NVIC_PRIO_BITS));
 800576a:	4694      	mov	ip, r2
 800576c:	e7e7      	b.n	800573e <HAL_NVIC_SetPriority+0x32>
    SCB->SHP[(((uint32_t)IRQn) & 0xFUL)-4UL] = (uint8_t)((priority << (8U - __NVIC_PRIO_BITS)) & (uint32_t)0xFFUL);
 800576e:	4a04      	ldr	r2, [pc, #16]	@ (8005780 <HAL_NVIC_SetPriority+0x74>)
 8005770:	f000 000f 	and.w	r0, r0, #15
 8005774:	4402      	add	r2, r0
 8005776:	7613      	strb	r3, [r2, #24]
 8005778:	f85d fb04 	ldr.w	pc, [sp], #4
 800577c:	e000ed00 	.word	0xe000ed00
 8005780:	e000ecfc 	.word	0xe000ecfc

08005784 <HAL_NVIC_EnableIRQ>:
  if ((int32_t)(IRQn) >= 0)
 8005784:	2800      	cmp	r0, #0
 8005786:	db07      	blt.n	8005798 <HAL_NVIC_EnableIRQ+0x14>
    NVIC->ISER[(((uint32_t)IRQn) >> 5UL)] = (uint32_t)(1UL << (((uint32_t)IRQn) & 0x1FUL));
 8005788:	2301      	movs	r3, #1
 800578a:	f000 011f 	and.w	r1, r0, #31
 800578e:	4a03      	ldr	r2, [pc, #12]	@ (800579c <HAL_NVIC_EnableIRQ+0x18>)
 8005790:	0940      	lsrs	r0, r0, #5
 8005792:	408b      	lsls	r3, r1
 8005794:	f842 3020 	str.w	r3, [r2, r0, lsl #2]
  /* Check the parameters */
  assert_param(IS_NVIC_DEVICE_IRQ(IRQn));

  /* Enable interrupt */
  NVIC_EnableIRQ(IRQn);
}
 8005798:	4770      	bx	lr
 800579a:	bf00      	nop
 800579c:	e000e100 	.word	0xe000e100

080057a0 <HAL_SYSTICK_Config>:
  if ((ticks - 1UL) > SysTick_LOAD_RELOAD_Msk)
 80057a0:	3801      	subs	r0, #1
 80057a2:	f1b0 7f80 	cmp.w	r0, #16777216	@ 0x1000000
 80057a6:	d301      	bcc.n	80057ac <HAL_SYSTICK_Config+0xc>
    return (1UL);                                                   /* Reload value impossible */
 80057a8:	2001      	movs	r0, #1
  *                  - 1  Function failed.
  */
uint32_t HAL_SYSTICK_Config(uint32_t TicksNumb)
{
   return SysTick_Config(TicksNumb);
}
 80057aa:	4770      	bx	lr
  SysTick->LOAD  = (uint32_t)(ticks - 1UL);                         /* set reload register */
 80057ac:	f04f 23e0 	mov.w	r3, #3758153728	@ 0xe000e000
    SCB->SHP[(((uint32_t)IRQn) & 0xFUL)-4UL] = (uint8_t)((priority << (8U - __NVIC_PRIO_BITS)) & (uint32_t)0xFFUL);
 80057b0:	f04f 0cf0 	mov.w	ip, #240	@ 0xf0
  SysTick->VAL   = 0UL;                                             /* Load the SysTick Counter Value */
 80057b4:	2200      	movs	r2, #0
  SysTick->CTRL  = SysTick_CTRL_CLKSOURCE_Msk |
 80057b6:	2107      	movs	r1, #7
{
 80057b8:	b410      	push	{r4}
    SCB->SHP[(((uint32_t)IRQn) & 0xFUL)-4UL] = (uint8_t)((priority << (8U - __NVIC_PRIO_BITS)) & (uint32_t)0xFFUL);
 80057ba:	4c04      	ldr	r4, [pc, #16]	@ (80057cc <HAL_SYSTICK_Config+0x2c>)
  SysTick->LOAD  = (uint32_t)(ticks - 1UL);                         /* set reload register */
 80057bc:	6158      	str	r0, [r3, #20]
    SCB->SHP[(((uint32_t)IRQn) & 0xFUL)-4UL] = (uint8_t)((priority << (8U - __NVIC_PRIO_BITS)) & (uint32_t)0xFFUL);
 80057be:	f884 c023 	strb.w	ip, [r4, #35]	@ 0x23
  return (0UL);                                                     /* Function successful */
 80057c2:	4610      	mov	r0, r2
  SysTick->VAL   = 0UL;                                             /* Load the SysTick Counter Value */
 80057c4:	619a      	str	r2, [r3, #24]
}
 80057c6:	bc10      	pop	{r4}
  SysTick->CTRL  = SysTick_CTRL_CLKSOURCE_Msk |
 80057c8:	6119      	str	r1, [r3, #16]
 80057ca:	4770      	bx	lr
 80057cc:	e000ed00 	.word	0xe000ed00

080057d0 <HAL_DMA_Init>:
HAL_StatusTypeDef HAL_DMA_Init(DMA_HandleTypeDef *hdma)
{
  uint32_t tmp = 0U;

  /* Check the DMA handle allocation */
  if(hdma == NULL)
 80057d0:	b370      	cbz	r0, 8005830 <HAL_DMA_Init+0x60>
    hdma->ChannelIndex = (((uint32_t)hdma->Instance - (uint32_t)DMA2_Channel1) / ((uint32_t)DMA2_Channel2 - (uint32_t)DMA2_Channel1)) << 2;
    hdma->DmaBaseAddress = DMA2;
  }
#else
  /* DMA1 */
  hdma->ChannelIndex = (((uint32_t)hdma->Instance - (uint32_t)DMA1_Channel1) / ((uint32_t)DMA1_Channel2 - (uint32_t)DMA1_Channel1)) << 2;
 80057d2:	4603      	mov	r3, r0
  hdma->DmaBaseAddress = DMA1;
#endif /* DMA2 */

  /* Change DMA peripheral state */
  hdma->State = HAL_DMA_STATE_BUSY;
 80057d4:	2202      	movs	r2, #2
{
 80057d6:	b530      	push	{r4, r5, lr}

  /* Initialise the error code */
  hdma->ErrorCode = HAL_DMA_ERROR_NONE;

  /* Initialize the DMA state*/
  hdma->State = HAL_DMA_STATE_READY;
 80057d8:	f04f 0c01 	mov.w	ip, #1
  hdma->ErrorCode = HAL_DMA_ERROR_NONE;
 80057dc:	2400      	movs	r4, #0
  hdma->ChannelIndex = (((uint32_t)hdma->Instance - (uint32_t)DMA1_Channel1) / ((uint32_t)DMA1_Channel2 - (uint32_t)DMA1_Channel1)) << 2;
 80057de:	6800      	ldr	r0, [r0, #0]
  hdma->State = HAL_DMA_STATE_BUSY;
 80057e0:	f883 2021 	strb.w	r2, [r3, #33]	@ 0x21
  tmp = hdma->Instance->CCR;
 80057e4:	6802      	ldr	r2, [r0, #0]
          hdma->Init.PeriphInc           | hdma->Init.MemInc           |
 80057e6:	68dd      	ldr	r5, [r3, #12]
  tmp &= ((uint32_t)~(DMA_CCR_PL    | DMA_CCR_MSIZE  | DMA_CCR_PSIZE  | \
 80057e8:	f422 5e7f 	bic.w	lr, r2, #16320	@ 0x3fc0
  tmp |=  hdma->Init.Direction        |
 80057ec:	e9d3 2101 	ldrd	r2, r1, [r3, #4]
 80057f0:	430a      	orrs	r2, r1
  hdma->ChannelIndex = (((uint32_t)hdma->Instance - (uint32_t)DMA1_Channel1) / ((uint32_t)DMA1_Channel2 - (uint32_t)DMA1_Channel1)) << 2;
 80057f2:	4910      	ldr	r1, [pc, #64]	@ (8005834 <HAL_DMA_Init+0x64>)
          hdma->Init.PeriphInc           | hdma->Init.MemInc           |
 80057f4:	432a      	orrs	r2, r5
  hdma->ChannelIndex = (((uint32_t)hdma->Instance - (uint32_t)DMA1_Channel1) / ((uint32_t)DMA1_Channel2 - (uint32_t)DMA1_Channel1)) << 2;
 80057f6:	4d10      	ldr	r5, [pc, #64]	@ (8005838 <HAL_DMA_Init+0x68>)
 80057f8:	4401      	add	r1, r0
 80057fa:	fba5 5101 	umull	r5, r1, r5, r1
 80057fe:	0909      	lsrs	r1, r1, #4
 8005800:	0089      	lsls	r1, r1, #2
 8005802:	6419      	str	r1, [r3, #64]	@ 0x40
          hdma->Init.PeriphInc           | hdma->Init.MemInc           |
 8005804:	6919      	ldr	r1, [r3, #16]
  tmp &= ((uint32_t)~(DMA_CCR_PL    | DMA_CCR_MSIZE  | DMA_CCR_PSIZE  | \
 8005806:	f02e 0e30 	bic.w	lr, lr, #48	@ 0x30
          hdma->Init.PeriphInc           | hdma->Init.MemInc           |
 800580a:	430a      	orrs	r2, r1
          hdma->Init.PeriphDataAlignment | hdma->Init.MemDataAlignment |
 800580c:	6959      	ldr	r1, [r3, #20]
 800580e:	430a      	orrs	r2, r1
 8005810:	6999      	ldr	r1, [r3, #24]
 8005812:	430a      	orrs	r2, r1
          hdma->Init.Mode                | hdma->Init.Priority;
 8005814:	69d9      	ldr	r1, [r3, #28]
 8005816:	430a      	orrs	r2, r1
  hdma->DmaBaseAddress = DMA1;
 8005818:	4908      	ldr	r1, [pc, #32]	@ (800583c <HAL_DMA_Init+0x6c>)
  tmp |=  hdma->Init.Direction        |
 800581a:	ea42 020e 	orr.w	r2, r2, lr
  hdma->DmaBaseAddress = DMA1;
 800581e:	63d9      	str	r1, [r3, #60]	@ 0x3c
  hdma->Instance->CCR = tmp;
 8005820:	6002      	str	r2, [r0, #0]
  hdma->ErrorCode = HAL_DMA_ERROR_NONE;
 8005822:	639c      	str	r4, [r3, #56]	@ 0x38
  /* Allocate lock resource and initialize it */
  hdma->Lock = HAL_UNLOCKED;
 8005824:	f883 4020 	strb.w	r4, [r3, #32]
  hdma->State = HAL_DMA_STATE_READY;
 8005828:	f883 c021 	strb.w	ip, [r3, #33]	@ 0x21

  return HAL_OK;
 800582c:	4620      	mov	r0, r4
}
 800582e:	bd30      	pop	{r4, r5, pc}
    return HAL_ERROR;
 8005830:	2001      	movs	r0, #1
}
 8005832:	4770      	bx	lr
 8005834:	bffdfff8 	.word	0xbffdfff8
 8005838:	cccccccd 	.word	0xcccccccd
 800583c:	40020000 	.word	0x40020000

08005840 <HAL_DMA_Start_IT>:
  * @param  DstAddress: The destination memory Buffer address
  * @param  DataLength: The length of data to be transferred from source to destination
  * @retval HAL status
  */
HAL_StatusTypeDef HAL_DMA_Start_IT(DMA_HandleTypeDef *hdma, uint32_t SrcAddress, uint32_t DstAddress, uint32_t DataLength)
{
 8005840:	b470      	push	{r4, r5, r6}

  /* Check the parameters */
  assert_param(IS_DMA_BUFFER_SIZE(DataLength));

  /* Process locked */
  __HAL_LOCK(hdma);
 8005842:	f890 4020 	ldrb.w	r4, [r0, #32]
 8005846:	2c01      	cmp	r4, #1
 8005848:	d00b      	beq.n	8005862 <HAL_DMA_Start_IT+0x22>
 800584a:	2501      	movs	r5, #1
  
  if(HAL_DMA_STATE_READY == hdma->State)
 800584c:	f890 4021 	ldrb.w	r4, [r0, #33]	@ 0x21
  __HAL_LOCK(hdma);
 8005850:	f880 5020 	strb.w	r5, [r0, #32]
  if(HAL_DMA_STATE_READY == hdma->State)
 8005854:	42ac      	cmp	r4, r5
 8005856:	fa5f fc84 	uxtb.w	ip, r4
 800585a:	d005      	beq.n	8005868 <HAL_DMA_Start_IT+0x28>
    __HAL_DMA_ENABLE(hdma);
  }
  else
  {      
    /* Process Unlocked */
    __HAL_UNLOCK(hdma); 
 800585c:	2300      	movs	r3, #0
 800585e:	f880 3020 	strb.w	r3, [r0, #32]
  __HAL_LOCK(hdma);
 8005862:	2002      	movs	r0, #2

    /* Remain BUSY */
    status = HAL_BUSY;
  }    
  return status;
}
 8005864:	bc70      	pop	{r4, r5, r6}
 8005866:	4770      	bx	lr
    hdma->State = HAL_DMA_STATE_BUSY;
 8005868:	2402      	movs	r4, #2
 800586a:	f880 4021 	strb.w	r4, [r0, #33]	@ 0x21
    hdma->ErrorCode = HAL_DMA_ERROR_NONE;
 800586e:	2400      	movs	r4, #0
 8005870:	6384      	str	r4, [r0, #56]	@ 0x38
    __HAL_DMA_DISABLE(hdma);
 8005872:	6804      	ldr	r4, [r0, #0]
  * @retval HAL status
  */
static void DMA_SetConfig(DMA_HandleTypeDef *hdma, uint32_t SrcAddress, uint32_t DstAddress, uint32_t DataLength)
{
  /* Clear all flags */
  hdma->DmaBaseAddress->IFCR = (DMA_ISR_GIF1 << hdma->ChannelIndex);
 8005874:	6c05      	ldr	r5, [r0, #64]	@ 0x40
    __HAL_DMA_DISABLE(hdma);
 8005876:	6826      	ldr	r6, [r4, #0]
  hdma->DmaBaseAddress->IFCR = (DMA_ISR_GIF1 << hdma->ChannelIndex);
 8005878:	fa0c f505 	lsl.w	r5, ip, r5
    __HAL_DMA_DISABLE(hdma);
 800587c:	f026 0601 	bic.w	r6, r6, #1
 8005880:	6026      	str	r6, [r4, #0]
  hdma->DmaBaseAddress->IFCR = (DMA_ISR_GIF1 << hdma->ChannelIndex);
 8005882:	6bc6      	ldr	r6, [r0, #60]	@ 0x3c
 8005884:	6075      	str	r5, [r6, #4]

  /* Configure DMA Channel data length */
  hdma->Instance->CNDTR = DataLength;
 8005886:	6063      	str	r3, [r4, #4]

  /* Memory to Peripheral */
  if((hdma->Init.Direction) == DMA_MEMORY_TO_PERIPH)
 8005888:	6843      	ldr	r3, [r0, #4]
 800588a:	2b10      	cmp	r3, #16
    if(NULL != hdma->XferHalfCpltCallback)
 800588c:	6ac3      	ldr	r3, [r0, #44]	@ 0x2c
  {
    /* Configure DMA Channel destination address */
    hdma->Instance->CPAR = DstAddress;
 800588e:	bf0b      	itete	eq
 8005890:	60a2      	streq	r2, [r4, #8]
  }
  /* Peripheral to Memory */
  else
  {
    /* Configure DMA Channel source address */
    hdma->Instance->CPAR = SrcAddress;
 8005892:	60a1      	strne	r1, [r4, #8]
    hdma->Instance->CMAR = SrcAddress;
 8005894:	60e1      	streq	r1, [r4, #12]

    /* Configure DMA Channel destination address */
    hdma->Instance->CMAR = DstAddress;
 8005896:	60e2      	strne	r2, [r4, #12]
    if(NULL != hdma->XferHalfCpltCallback)
 8005898:	b153      	cbz	r3, 80058b0 <HAL_DMA_Start_IT+0x70>
      __HAL_DMA_ENABLE_IT(hdma, (DMA_IT_TC | DMA_IT_HT | DMA_IT_TE));
 800589a:	6823      	ldr	r3, [r4, #0]
 800589c:	f043 030e 	orr.w	r3, r3, #14
 80058a0:	6023      	str	r3, [r4, #0]
    __HAL_DMA_ENABLE(hdma);
 80058a2:	6823      	ldr	r3, [r4, #0]
  HAL_StatusTypeDef status = HAL_OK;
 80058a4:	2000      	movs	r0, #0
    __HAL_DMA_ENABLE(hdma);
 80058a6:	f043 0301 	orr.w	r3, r3, #1
 80058aa:	6023      	str	r3, [r4, #0]
}
 80058ac:	bc70      	pop	{r4, r5, r6}
 80058ae:	4770      	bx	lr
      __HAL_DMA_DISABLE_IT(hdma, DMA_IT_HT);
 80058b0:	6823      	ldr	r3, [r4, #0]
 80058b2:	f023 0304 	bic.w	r3, r3, #4
 80058b6:	6023      	str	r3, [r4, #0]
      __HAL_DMA_ENABLE_IT(hdma, (DMA_IT_TC | DMA_IT_TE));
 80058b8:	6823      	ldr	r3, [r4, #0]
 80058ba:	f043 030a 	orr.w	r3, r3, #10
 80058be:	6023      	str	r3, [r4, #0]
 80058c0:	e7ef      	b.n	80058a2 <HAL_DMA_Start_IT+0x62>
 80058c2:	bf00      	nop

080058c4 <HAL_DMA_IRQHandler>:
  if (((flag_it & (DMA_FLAG_HT1 << hdma->ChannelIndex)) != RESET) && ((source_it & DMA_IT_HT) != RESET))
 80058c4:	2204      	movs	r2, #4
{
 80058c6:	b470      	push	{r4, r5, r6}
  uint32_t flag_it = hdma->DmaBaseAddress->ISR;
 80058c8:	6bc6      	ldr	r6, [r0, #60]	@ 0x3c
  if (((flag_it & (DMA_FLAG_HT1 << hdma->ChannelIndex)) != RESET) && ((source_it & DMA_IT_HT) != RESET))
 80058ca:	6c01      	ldr	r1, [r0, #64]	@ 0x40
  uint32_t flag_it = hdma->DmaBaseAddress->ISR;
 80058cc:	6834      	ldr	r4, [r6, #0]
  uint32_t source_it = hdma->Instance->CCR;
 80058ce:	6803      	ldr	r3, [r0, #0]
  if (((flag_it & (DMA_FLAG_HT1 << hdma->ChannelIndex)) != RESET) && ((source_it & DMA_IT_HT) != RESET))
 80058d0:	408a      	lsls	r2, r1
 80058d2:	4222      	tst	r2, r4
  uint32_t source_it = hdma->Instance->CCR;
 80058d4:	681d      	ldr	r5, [r3, #0]
  if (((flag_it & (DMA_FLAG_HT1 << hdma->ChannelIndex)) != RESET) && ((source_it & DMA_IT_HT) != RESET))
 80058d6:	d01f      	beq.n	8005918 <HAL_DMA_IRQHandler+0x54>
 80058d8:	076a      	lsls	r2, r5, #29
 80058da:	d51d      	bpl.n	8005918 <HAL_DMA_IRQHandler+0x54>
    if((hdma->Instance->CCR & DMA_CCR_CIRC) == 0U)
 80058dc:	681a      	ldr	r2, [r3, #0]
 80058de:	0691      	lsls	r1, r2, #26
 80058e0:	d403      	bmi.n	80058ea <HAL_DMA_IRQHandler+0x26>
      __HAL_DMA_DISABLE_IT(hdma, DMA_IT_HT);
 80058e2:	681a      	ldr	r2, [r3, #0]
 80058e4:	f022 0204 	bic.w	r2, r2, #4
 80058e8:	601a      	str	r2, [r3, #0]
    __HAL_DMA_CLEAR_FLAG(hdma, __HAL_DMA_GET_HT_FLAG_INDEX(hdma));
 80058ea:	4a3f      	ldr	r2, [pc, #252]	@ (80059e8 <HAL_DMA_IRQHandler+0x124>)
 80058ec:	4293      	cmp	r3, r2
 80058ee:	d05c      	beq.n	80059aa <HAL_DMA_IRQHandler+0xe6>
 80058f0:	3214      	adds	r2, #20
 80058f2:	4293      	cmp	r3, r2
 80058f4:	d061      	beq.n	80059ba <HAL_DMA_IRQHandler+0xf6>
 80058f6:	3214      	adds	r2, #20
 80058f8:	4293      	cmp	r3, r2
 80058fa:	d068      	beq.n	80059ce <HAL_DMA_IRQHandler+0x10a>
 80058fc:	3214      	adds	r2, #20
 80058fe:	4293      	cmp	r3, r2
 8005900:	d06b      	beq.n	80059da <HAL_DMA_IRQHandler+0x116>
 8005902:	3214      	adds	r2, #20
 8005904:	4293      	cmp	r3, r2
 8005906:	d05d      	beq.n	80059c4 <HAL_DMA_IRQHandler+0x100>
 8005908:	3214      	adds	r2, #20
 800590a:	4293      	cmp	r3, r2
 800590c:	bf14      	ite	ne
 800590e:	f04f 6280 	movne.w	r2, #67108864	@ 0x4000000
 8005912:	f44f 0280 	moveq.w	r2, #4194304	@ 0x400000
 8005916:	e049      	b.n	80059ac <HAL_DMA_IRQHandler+0xe8>
  else if (((flag_it & (DMA_FLAG_TC1 << hdma->ChannelIndex)) != RESET) && ((source_it & DMA_IT_TC) != RESET))
 8005918:	2202      	movs	r2, #2
 800591a:	408a      	lsls	r2, r1
 800591c:	4222      	tst	r2, r4
 800591e:	d022      	beq.n	8005966 <HAL_DMA_IRQHandler+0xa2>
 8005920:	07aa      	lsls	r2, r5, #30
 8005922:	d520      	bpl.n	8005966 <HAL_DMA_IRQHandler+0xa2>
    if((hdma->Instance->CCR & DMA_CCR_CIRC) == 0U)
 8005924:	681a      	ldr	r2, [r3, #0]
 8005926:	0691      	lsls	r1, r2, #26
 8005928:	d406      	bmi.n	8005938 <HAL_DMA_IRQHandler+0x74>
      hdma->State = HAL_DMA_STATE_READY;
 800592a:	2101      	movs	r1, #1
      __HAL_DMA_DISABLE_IT(hdma, DMA_IT_TE | DMA_IT_TC);  
 800592c:	681a      	ldr	r2, [r3, #0]
 800592e:	f022 020a 	bic.w	r2, r2, #10
 8005932:	601a      	str	r2, [r3, #0]
      hdma->State = HAL_DMA_STATE_READY;
 8005934:	f880 1021 	strb.w	r1, [r0, #33]	@ 0x21
      __HAL_DMA_CLEAR_FLAG(hdma, __HAL_DMA_GET_TC_FLAG_INDEX(hdma));
 8005938:	4a2b      	ldr	r2, [pc, #172]	@ (80059e8 <HAL_DMA_IRQHandler+0x124>)
 800593a:	4293      	cmp	r3, r2
 800593c:	d02b      	beq.n	8005996 <HAL_DMA_IRQHandler+0xd2>
 800593e:	3214      	adds	r2, #20
 8005940:	4293      	cmp	r3, r2
 8005942:	d042      	beq.n	80059ca <HAL_DMA_IRQHandler+0x106>
 8005944:	3214      	adds	r2, #20
 8005946:	4293      	cmp	r3, r2
 8005948:	d044      	beq.n	80059d4 <HAL_DMA_IRQHandler+0x110>
 800594a:	3214      	adds	r2, #20
 800594c:	4293      	cmp	r3, r2
 800594e:	d036      	beq.n	80059be <HAL_DMA_IRQHandler+0xfa>
 8005950:	3214      	adds	r2, #20
 8005952:	4293      	cmp	r3, r2
 8005954:	d044      	beq.n	80059e0 <HAL_DMA_IRQHandler+0x11c>
 8005956:	3214      	adds	r2, #20
 8005958:	4293      	cmp	r3, r2
 800595a:	bf14      	ite	ne
 800595c:	f04f 7200 	movne.w	r2, #33554432	@ 0x2000000
 8005960:	f44f 1200 	moveq.w	r2, #2097152	@ 0x200000
 8005964:	e018      	b.n	8005998 <HAL_DMA_IRQHandler+0xd4>
  else if (( RESET != (flag_it & (DMA_FLAG_TE1 << hdma->ChannelIndex))) && (RESET != (source_it & DMA_IT_TE)))
 8005966:	2208      	movs	r2, #8
 8005968:	408a      	lsls	r2, r1
 800596a:	4222      	tst	r2, r4
 800596c:	d01b      	beq.n	80059a6 <HAL_DMA_IRQHandler+0xe2>
 800596e:	072a      	lsls	r2, r5, #28
 8005970:	d519      	bpl.n	80059a6 <HAL_DMA_IRQHandler+0xe2>
    __HAL_DMA_DISABLE_IT(hdma, (DMA_IT_TC | DMA_IT_HT | DMA_IT_TE));
 8005972:	681a      	ldr	r2, [r3, #0]
    __HAL_UNLOCK(hdma);
 8005974:	2400      	movs	r4, #0
    __HAL_DMA_DISABLE_IT(hdma, (DMA_IT_TC | DMA_IT_HT | DMA_IT_TE));
 8005976:	f022 020e 	bic.w	r2, r2, #14
 800597a:	601a      	str	r2, [r3, #0]
    hdma->DmaBaseAddress->IFCR = (DMA_ISR_GIF1 << hdma->ChannelIndex);
 800597c:	2301      	movs	r3, #1
    if (hdma->XferErrorCallback != NULL)
 800597e:	6b02      	ldr	r2, [r0, #48]	@ 0x30
    hdma->DmaBaseAddress->IFCR = (DMA_ISR_GIF1 << hdma->ChannelIndex);
 8005980:	fa03 f101 	lsl.w	r1, r3, r1
 8005984:	6071      	str	r1, [r6, #4]
    hdma->ErrorCode = HAL_DMA_ERROR_TE;
 8005986:	6383      	str	r3, [r0, #56]	@ 0x38
    __HAL_UNLOCK(hdma);
 8005988:	f880 4020 	strb.w	r4, [r0, #32]
    hdma->State = HAL_DMA_STATE_READY;
 800598c:	f880 3021 	strb.w	r3, [r0, #33]	@ 0x21
    if (hdma->XferErrorCallback != NULL)
 8005990:	b14a      	cbz	r2, 80059a6 <HAL_DMA_IRQHandler+0xe2>
}
 8005992:	bc70      	pop	{r4, r5, r6}
      hdma->XferErrorCallback(hdma);
 8005994:	4710      	bx	r2
      __HAL_DMA_CLEAR_FLAG(hdma, __HAL_DMA_GET_TC_FLAG_INDEX(hdma));
 8005996:	2202      	movs	r2, #2
    __HAL_UNLOCK(hdma);
 8005998:	2100      	movs	r1, #0
      __HAL_DMA_CLEAR_FLAG(hdma, __HAL_DMA_GET_TC_FLAG_INDEX(hdma));
 800599a:	4c14      	ldr	r4, [pc, #80]	@ (80059ec <HAL_DMA_IRQHandler+0x128>)
    if(hdma->XferCpltCallback != NULL)
 800599c:	6a83      	ldr	r3, [r0, #40]	@ 0x28
      __HAL_DMA_CLEAR_FLAG(hdma, __HAL_DMA_GET_TC_FLAG_INDEX(hdma));
 800599e:	6062      	str	r2, [r4, #4]
    __HAL_UNLOCK(hdma);
 80059a0:	f880 1020 	strb.w	r1, [r0, #32]
    if(hdma->XferCpltCallback != NULL)
 80059a4:	b93b      	cbnz	r3, 80059b6 <HAL_DMA_IRQHandler+0xf2>
}
 80059a6:	bc70      	pop	{r4, r5, r6}
 80059a8:	4770      	bx	lr
    __HAL_DMA_CLEAR_FLAG(hdma, __HAL_DMA_GET_HT_FLAG_INDEX(hdma));
 80059aa:	2204      	movs	r2, #4
 80059ac:	490f      	ldr	r1, [pc, #60]	@ (80059ec <HAL_DMA_IRQHandler+0x128>)
    if(hdma->XferHalfCpltCallback != NULL)
 80059ae:	6ac3      	ldr	r3, [r0, #44]	@ 0x2c
    __HAL_DMA_CLEAR_FLAG(hdma, __HAL_DMA_GET_HT_FLAG_INDEX(hdma));
 80059b0:	604a      	str	r2, [r1, #4]
    if(hdma->XferHalfCpltCallback != NULL)
 80059b2:	2b00      	cmp	r3, #0
 80059b4:	d0f7      	beq.n	80059a6 <HAL_DMA_IRQHandler+0xe2>
}
 80059b6:	bc70      	pop	{r4, r5, r6}
      hdma->XferCpltCallback(hdma);
 80059b8:	4718      	bx	r3
    __HAL_DMA_CLEAR_FLAG(hdma, __HAL_DMA_GET_HT_FLAG_INDEX(hdma));
 80059ba:	2240      	movs	r2, #64	@ 0x40
 80059bc:	e7f6      	b.n	80059ac <HAL_DMA_IRQHandler+0xe8>
      __HAL_DMA_CLEAR_FLAG(hdma, __HAL_DMA_GET_TC_FLAG_INDEX(hdma));
 80059be:	f44f 5200 	mov.w	r2, #8192	@ 0x2000
 80059c2:	e7e9      	b.n	8005998 <HAL_DMA_IRQHandler+0xd4>
    __HAL_DMA_CLEAR_FLAG(hdma, __HAL_DMA_GET_HT_FLAG_INDEX(hdma));
 80059c4:	f44f 2280 	mov.w	r2, #262144	@ 0x40000
 80059c8:	e7f0      	b.n	80059ac <HAL_DMA_IRQHandler+0xe8>
      __HAL_DMA_CLEAR_FLAG(hdma, __HAL_DMA_GET_TC_FLAG_INDEX(hdma));
 80059ca:	2220      	movs	r2, #32
 80059cc:	e7e4      	b.n	8005998 <HAL_DMA_IRQHandler+0xd4>
    __HAL_DMA_CLEAR_FLAG(hdma, __HAL_DMA_GET_HT_FLAG_INDEX(hdma));
 80059ce:	f44f 6280 	mov.w	r2, #1024	@ 0x400
 80059d2:	e7eb      	b.n	80059ac <HAL_DMA_IRQHandler+0xe8>
      __HAL_DMA_CLEAR_FLAG(hdma, __HAL_DMA_GET_TC_FLAG_INDEX(hdma));
 80059d4:	f44f 7200 	mov.w	r2, #512	@ 0x200
 80059d8:	e7de      	b.n	8005998 <HAL_DMA_IRQHandler+0xd4>
    __HAL_DMA_CLEAR_FLAG(hdma, __HAL_DMA_GET_HT_FLAG_INDEX(hdma));
 80059da:	f44f 4280 	mov.w	r2, #16384	@ 0x4000
 80059de:	e7e5      	b.n	80059ac <HAL_DMA_IRQHandler+0xe8>
      __HAL_DMA_CLEAR_FLAG(hdma, __HAL_DMA_GET_TC_FLAG_INDEX(hdma));
 80059e0:	f44f 3200 	mov.w	r2, #131072	@ 0x20000
 80059e4:	e7d8      	b.n	8005998 <HAL_DMA_IRQHandler+0xd4>
 80059e6:	bf00      	nop
 80059e8:	40020008 	.word	0x40020008
 80059ec:	40020000 	.word	0x40020000

080059f0 <HAL_GPIO_Init>:
  * @param  GPIO_Init: pointer to a GPIO_InitTypeDef structure that contains
  *         the configuration information for the specified GPIO peripheral.
  * @retval None
  */
void HAL_GPIO_Init(GPIO_TypeDef  *GPIOx, GPIO_InitTypeDef *GPIO_Init)
{
 80059f0:	e92d 4ff0 	stmdb	sp!, {r4, r5, r6, r7, r8, r9, sl, fp, lr}
  assert_param(IS_GPIO_ALL_INSTANCE(GPIOx));
  assert_param(IS_GPIO_PIN(GPIO_Init->Pin));
  assert_param(IS_GPIO_MODE(GPIO_Init->Mode));

  /* Configure the port pins */
  while (((GPIO_Init->Pin) >> position) != 0x00u)
 80059f4:	680d      	ldr	r5, [r1, #0]
{
 80059f6:	b083      	sub	sp, #12
  while (((GPIO_Init->Pin) >> position) != 0x00u)
 80059f8:	2d00      	cmp	r5, #0
 80059fa:	f000 80c3 	beq.w	8005b84 <HAL_GPIO_Init+0x194>
 80059fe:	2200      	movs	r2, #0
      /*--------------------- EXTI Mode Configuration ------------------------*/
      /* Configure the External Interrupt or event for the current IO */
      if ((GPIO_Init->Mode & EXTI_MODE) == EXTI_MODE)
      {
        /* Enable AFIO Clock */
        __HAL_RCC_AFIO_CLK_ENABLE();
 8005a00:	4e80      	ldr	r6, [pc, #512]	@ (8005c04 <HAL_GPIO_Init+0x214>)
  uint32_t config = 0x00u;
 8005a02:	4692      	mov	sl, r2
  uint32_t position = 0x00u;
 8005a04:	4613      	mov	r3, r2
      switch (GPIO_Init->Mode)
 8005a06:	f8df 8200 	ldr.w	r8, [pc, #512]	@ 8005c08 <HAL_GPIO_Init+0x218>
 8005a0a:	4f80      	ldr	r7, [pc, #512]	@ (8005c0c <HAL_GPIO_Init+0x21c>)
 8005a0c:	e006      	b.n	8005a1c <HAL_GPIO_Init+0x2c>
          CLEAR_BIT(EXTI->IMR, iocurrent);
        }
      }
    }

	position++;
 8005a0e:	3301      	adds	r3, #1
  while (((GPIO_Init->Pin) >> position) != 0x00u)
 8005a10:	fa35 f403 	lsrs.w	r4, r5, r3
 8005a14:	f102 0204 	add.w	r2, r2, #4
 8005a18:	f000 80b4 	beq.w	8005b84 <HAL_GPIO_Init+0x194>
    ioposition = (0x01uL << position);
 8005a1c:	2401      	movs	r4, #1
 8005a1e:	409c      	lsls	r4, r3
    if (iocurrent == ioposition)
 8005a20:	ea34 0e05 	bics.w	lr, r4, r5
    iocurrent = (uint32_t)(GPIO_Init->Pin) & ioposition;
 8005a24:	ea04 0c05 	and.w	ip, r4, r5
    if (iocurrent == ioposition)
 8005a28:	d1f1      	bne.n	8005a0e <HAL_GPIO_Init+0x1e>
      switch (GPIO_Init->Mode)
 8005a2a:	684d      	ldr	r5, [r1, #4]
 8005a2c:	2d12      	cmp	r5, #18
 8005a2e:	f200 80ac 	bhi.w	8005b8a <HAL_GPIO_Init+0x19a>
 8005a32:	2d12      	cmp	r5, #18
 8005a34:	d81a      	bhi.n	8005a6c <HAL_GPIO_Init+0x7c>
 8005a36:	e8df f005 	tbb	[pc, r5]
 8005a3a:	c5b3      	.short	0xc5b3
 8005a3c:	1919ccc1 	.word	0x1919ccc1
 8005a40:	19191919 	.word	0x19191919
 8005a44:	19191919 	.word	0x19191919
 8005a48:	bd191919 	.word	0xbd191919
 8005a4c:	c8          	.byte	0xc8
 8005a4d:	00          	.byte	0x00
 8005a4e:	f8df e1c0 	ldr.w	lr, [pc, #448]	@ 8005c10 <HAL_GPIO_Init+0x220>
 8005a52:	4575      	cmp	r5, lr
 8005a54:	f000 80a4 	beq.w	8005ba0 <HAL_GPIO_Init+0x1b0>
 8005a58:	f50e 2e70 	add.w	lr, lr, #983040	@ 0xf0000
 8005a5c:	4575      	cmp	r5, lr
 8005a5e:	f000 809f 	beq.w	8005ba0 <HAL_GPIO_Init+0x1b0>
 8005a62:	f5ae 1e80 	sub.w	lr, lr, #1048576	@ 0x100000
 8005a66:	4575      	cmp	r5, lr
 8005a68:	f000 809a 	beq.w	8005ba0 <HAL_GPIO_Init+0x1b0>
      configregister = (iocurrent < GPIO_PIN_8) ? &GPIOx->CRL     : &GPIOx->CRH;
 8005a6c:	f1bc 0fff 	cmp.w	ip, #255	@ 0xff
 8005a70:	bf9c      	itt	ls
 8005a72:	4686      	movls	lr, r0
      registeroffset = (iocurrent < GPIO_PIN_8) ? (position << 2u) : ((position - 8u) << 2u);
 8005a74:	4693      	movls	fp, r2
      MODIFY_REG((*configregister), ((GPIO_CRL_MODE0 | GPIO_CRL_CNF0) << registeroffset), (config << registeroffset));
 8005a76:	f04f 050f 	mov.w	r5, #15
      configregister = (iocurrent < GPIO_PIN_8) ? &GPIOx->CRL     : &GPIOx->CRH;
 8005a7a:	bf84      	itt	hi
 8005a7c:	f100 0e04 	addhi.w	lr, r0, #4
      registeroffset = (iocurrent < GPIO_PIN_8) ? (position << 2u) : ((position - 8u) << 2u);
 8005a80:	f1a2 0b20 	subhi.w	fp, r2, #32
      MODIFY_REG((*configregister), ((GPIO_CRL_MODE0 | GPIO_CRL_CNF0) << registeroffset), (config << registeroffset));
 8005a84:	f8de 4000 	ldr.w	r4, [lr]
 8005a88:	fa0a f90b 	lsl.w	r9, sl, fp
 8005a8c:	fa05 fb0b 	lsl.w	fp, r5, fp
 8005a90:	ea24 040b 	bic.w	r4, r4, fp
 8005a94:	ea44 0409 	orr.w	r4, r4, r9
 8005a98:	f8ce 4000 	str.w	r4, [lr]
      if ((GPIO_Init->Mode & EXTI_MODE) == EXTI_MODE)
 8005a9c:	684c      	ldr	r4, [r1, #4]
 8005a9e:	f014 5f80 	tst.w	r4, #268435456	@ 0x10000000
 8005aa2:	f000 8085 	beq.w	8005bb0 <HAL_GPIO_Init+0x1c0>
        __HAL_RCC_AFIO_CLK_ENABLE();
 8005aa6:	f8d6 e018 	ldr.w	lr, [r6, #24]
        CLEAR_BIT(temp, (0x0Fu) << (4u * (position & 0x03u)));
 8005aaa:	f003 0903 	and.w	r9, r3, #3
        __HAL_RCC_AFIO_CLK_ENABLE();
 8005aae:	f04e 0e01 	orr.w	lr, lr, #1
 8005ab2:	f8c6 e018 	str.w	lr, [r6, #24]
 8005ab6:	f8d6 e018 	ldr.w	lr, [r6, #24]
        CLEAR_BIT(temp, (0x0Fu) << (4u * (position & 0x03u)));
 8005aba:	ea4f 0989 	mov.w	r9, r9, lsl #2
        __HAL_RCC_AFIO_CLK_ENABLE();
 8005abe:	f00e 0e01 	and.w	lr, lr, #1
 8005ac2:	f8cd e004 	str.w	lr, [sp, #4]
 8005ac6:	f8dd e004 	ldr.w	lr, [sp, #4]
        temp = AFIO->EXTICR[position >> 2u];
 8005aca:	f023 0e03 	bic.w	lr, r3, #3
 8005ace:	f10e 4e80 	add.w	lr, lr, #1073741824	@ 0x40000000
 8005ad2:	f50e 3e80 	add.w	lr, lr, #65536	@ 0x10000
 8005ad6:	f8de b008 	ldr.w	fp, [lr, #8]
        CLEAR_BIT(temp, (0x0Fu) << (4u * (position & 0x03u)));
 8005ada:	fa05 f509 	lsl.w	r5, r5, r9
 8005ade:	ea2b 0505 	bic.w	r5, fp, r5
        SET_BIT(temp, (GPIO_GET_INDEX(GPIOx)) << (4u * (position & 0x03u)));
 8005ae2:	f8df b130 	ldr.w	fp, [pc, #304]	@ 8005c14 <HAL_GPIO_Init+0x224>
 8005ae6:	4558      	cmp	r0, fp
 8005ae8:	d013      	beq.n	8005b12 <HAL_GPIO_Init+0x122>
 8005aea:	f50b 6b80 	add.w	fp, fp, #1024	@ 0x400
 8005aee:	4558      	cmp	r0, fp
 8005af0:	d079      	beq.n	8005be6 <HAL_GPIO_Init+0x1f6>
 8005af2:	f8df b124 	ldr.w	fp, [pc, #292]	@ 8005c18 <HAL_GPIO_Init+0x228>
 8005af6:	4558      	cmp	r0, fp
 8005af8:	d06e      	beq.n	8005bd8 <HAL_GPIO_Init+0x1e8>
 8005afa:	f8df b120 	ldr.w	fp, [pc, #288]	@ 8005c1c <HAL_GPIO_Init+0x22c>
 8005afe:	4558      	cmp	r0, fp
 8005b00:	bf0c      	ite	eq
 8005b02:	f04f 0b03 	moveq.w	fp, #3
 8005b06:	f04f 0b04 	movne.w	fp, #4
 8005b0a:	fa0b f909 	lsl.w	r9, fp, r9
 8005b0e:	ea45 0509 	orr.w	r5, r5, r9
        AFIO->EXTICR[position >> 2u] = temp;
 8005b12:	f8ce 5008 	str.w	r5, [lr, #8]
          SET_BIT(EXTI->RTSR, iocurrent);
 8005b16:	f8df e108 	ldr.w	lr, [pc, #264]	@ 8005c20 <HAL_GPIO_Init+0x230>
        if ((GPIO_Init->Mode & RISING_EDGE) == RISING_EDGE)
 8005b1a:	f414 1f80 	tst.w	r4, #1048576	@ 0x100000
          SET_BIT(EXTI->RTSR, iocurrent);
 8005b1e:	f8de 5008 	ldr.w	r5, [lr, #8]
 8005b22:	bf14      	ite	ne
 8005b24:	ea45 050c 	orrne.w	r5, r5, ip
          CLEAR_BIT(EXTI->RTSR, iocurrent);
 8005b28:	ea25 050c 	biceq.w	r5, r5, ip
 8005b2c:	f8ce 5008 	str.w	r5, [lr, #8]
          SET_BIT(EXTI->FTSR, iocurrent);
 8005b30:	f8df e0ec 	ldr.w	lr, [pc, #236]	@ 8005c20 <HAL_GPIO_Init+0x230>
        if ((GPIO_Init->Mode & FALLING_EDGE) == FALLING_EDGE)
 8005b34:	f414 1f00 	tst.w	r4, #2097152	@ 0x200000
          SET_BIT(EXTI->FTSR, iocurrent);
 8005b38:	f8de 500c 	ldr.w	r5, [lr, #12]
 8005b3c:	bf14      	ite	ne
 8005b3e:	ea45 050c 	orrne.w	r5, r5, ip
          CLEAR_BIT(EXTI->FTSR, iocurrent);
 8005b42:	ea25 050c 	biceq.w	r5, r5, ip
 8005b46:	f8ce 500c 	str.w	r5, [lr, #12]
          SET_BIT(EXTI->EMR, iocurrent);
 8005b4a:	f8df e0d4 	ldr.w	lr, [pc, #212]	@ 8005c20 <HAL_GPIO_Init+0x230>
        if ((GPIO_Init->Mode & GPIO_MODE_EVT) == GPIO_MODE_EVT)
 8005b4e:	f414 3f00 	tst.w	r4, #131072	@ 0x20000
          SET_BIT(EXTI->EMR, iocurrent);
 8005b52:	f8de 5004 	ldr.w	r5, [lr, #4]
 8005b56:	bf14      	ite	ne
 8005b58:	ea45 050c 	orrne.w	r5, r5, ip
          CLEAR_BIT(EXTI->EMR, iocurrent);
 8005b5c:	ea25 050c 	biceq.w	r5, r5, ip
 8005b60:	f8ce 5004 	str.w	r5, [lr, #4]
          SET_BIT(EXTI->IMR, iocurrent);
 8005b64:	4d2e      	ldr	r5, [pc, #184]	@ (8005c20 <HAL_GPIO_Init+0x230>)
        if ((GPIO_Init->Mode & GPIO_MODE_IT) == GPIO_MODE_IT)
 8005b66:	f414 3f80 	tst.w	r4, #65536	@ 0x10000
          SET_BIT(EXTI->IMR, iocurrent);
 8005b6a:	682c      	ldr	r4, [r5, #0]
        if ((GPIO_Init->Mode & GPIO_MODE_IT) == GPIO_MODE_IT)
 8005b6c:	d01d      	beq.n	8005baa <HAL_GPIO_Init+0x1ba>
          SET_BIT(EXTI->IMR, iocurrent);
 8005b6e:	ea44 040c 	orr.w	r4, r4, ip
 8005b72:	602c      	str	r4, [r5, #0]
 8005b74:	680d      	ldr	r5, [r1, #0]
	position++;
 8005b76:	3301      	adds	r3, #1
  while (((GPIO_Init->Pin) >> position) != 0x00u)
 8005b78:	fa35 f403 	lsrs.w	r4, r5, r3
 8005b7c:	f102 0204 	add.w	r2, r2, #4
 8005b80:	f47f af4c 	bne.w	8005a1c <HAL_GPIO_Init+0x2c>
  }
}
 8005b84:	b003      	add	sp, #12
 8005b86:	e8bd 8ff0 	ldmia.w	sp!, {r4, r5, r6, r7, r8, r9, sl, fp, pc}
      switch (GPIO_Init->Mode)
 8005b8a:	4545      	cmp	r5, r8
 8005b8c:	d008      	beq.n	8005ba0 <HAL_GPIO_Init+0x1b0>
 8005b8e:	f67f af5e 	bls.w	8005a4e <HAL_GPIO_Init+0x5e>
 8005b92:	42bd      	cmp	r5, r7
 8005b94:	d004      	beq.n	8005ba0 <HAL_GPIO_Init+0x1b0>
 8005b96:	f8df e08c 	ldr.w	lr, [pc, #140]	@ 8005c24 <HAL_GPIO_Init+0x234>
 8005b9a:	4575      	cmp	r5, lr
 8005b9c:	f47f af66 	bne.w	8005a6c <HAL_GPIO_Init+0x7c>
          if (GPIO_Init->Pull == GPIO_NOPULL)
 8005ba0:	688d      	ldr	r5, [r1, #8]
 8005ba2:	bb3d      	cbnz	r5, 8005bf4 <HAL_GPIO_Init+0x204>
            config = GPIO_CR_MODE_INPUT + GPIO_CR_CNF_INPUT_FLOATING;
 8005ba4:	f04f 0a04 	mov.w	sl, #4
 8005ba8:	e760      	b.n	8005a6c <HAL_GPIO_Init+0x7c>
          CLEAR_BIT(EXTI->IMR, iocurrent);
 8005baa:	ea24 040c 	bic.w	r4, r4, ip
 8005bae:	602c      	str	r4, [r5, #0]
 8005bb0:	680d      	ldr	r5, [r1, #0]
 8005bb2:	e72c      	b.n	8005a0e <HAL_GPIO_Init+0x1e>
          config = GPIO_Init->Speed + GPIO_CR_CNF_GP_OUTPUT_OD;
 8005bb4:	68cc      	ldr	r4, [r1, #12]
 8005bb6:	f104 0a04 	add.w	sl, r4, #4
          break;
 8005bba:	e757      	b.n	8005a6c <HAL_GPIO_Init+0x7c>
          config = GPIO_Init->Speed + GPIO_CR_CNF_AF_OUTPUT_PP;
 8005bbc:	68cc      	ldr	r4, [r1, #12]
 8005bbe:	f104 0a08 	add.w	sl, r4, #8
          break;
 8005bc2:	e753      	b.n	8005a6c <HAL_GPIO_Init+0x7c>
          config = GPIO_Init->Speed + GPIO_CR_CNF_GP_OUTPUT_PP;
 8005bc4:	f8d1 a00c 	ldr.w	sl, [r1, #12]
          break;
 8005bc8:	e750      	b.n	8005a6c <HAL_GPIO_Init+0x7c>
          config = GPIO_Init->Speed + GPIO_CR_CNF_AF_OUTPUT_OD;
 8005bca:	68cc      	ldr	r4, [r1, #12]
 8005bcc:	f104 0a0c 	add.w	sl, r4, #12
          break;
 8005bd0:	e74c      	b.n	8005a6c <HAL_GPIO_Init+0x7c>
      switch (GPIO_Init->Mode)
 8005bd2:	f04f 0a00 	mov.w	sl, #0
 8005bd6:	e749      	b.n	8005a6c <HAL_GPIO_Init+0x7c>
        SET_BIT(temp, (GPIO_GET_INDEX(GPIOx)) << (4u * (position & 0x03u)));
 8005bd8:	f04f 0b02 	mov.w	fp, #2
 8005bdc:	fa0b f909 	lsl.w	r9, fp, r9
 8005be0:	ea45 0509 	orr.w	r5, r5, r9
 8005be4:	e795      	b.n	8005b12 <HAL_GPIO_Init+0x122>
 8005be6:	f04f 0b01 	mov.w	fp, #1
 8005bea:	fa0b f909 	lsl.w	r9, fp, r9
 8005bee:	ea45 0509 	orr.w	r5, r5, r9
 8005bf2:	e78e      	b.n	8005b12 <HAL_GPIO_Init+0x122>
          else if (GPIO_Init->Pull == GPIO_PULLUP)
 8005bf4:	2d01      	cmp	r5, #1
            config = GPIO_CR_MODE_INPUT + GPIO_CR_CNF_INPUT_PU_PD;
 8005bf6:	f04f 0a08 	mov.w	sl, #8
            GPIOx->BSRR = ioposition;
 8005bfa:	bf0c      	ite	eq
 8005bfc:	6104      	streq	r4, [r0, #16]
            GPIOx->BRR = ioposition;
 8005bfe:	6144      	strne	r4, [r0, #20]
 8005c00:	e734      	b.n	8005a6c <HAL_GPIO_Init+0x7c>
 8005c02:	bf00      	nop
 8005c04:	40021000 	.word	0x40021000
 8005c08:	10220000 	.word	0x10220000
 8005c0c:	10310000 	.word	0x10310000
 8005c10:	10120000 	.word	0x10120000
 8005c14:	40010800 	.word	0x40010800
 8005c18:	40011000 	.word	0x40011000
 8005c1c:	40011400 	.word	0x40011400
 8005c20:	40010400 	.word	0x40010400
 8005c24:	10320000 	.word	0x10320000

08005c28 <HAL_GPIO_ReadPin>:
  GPIO_PinState bitstatus;

  /* Check the parameters */
  assert_param(IS_GPIO_PIN(GPIO_Pin));

  if ((GPIOx->IDR & GPIO_Pin) != (uint32_t)GPIO_PIN_RESET)
 8005c28:	6883      	ldr	r3, [r0, #8]
 8005c2a:	4219      	tst	r1, r3
  else
  {
    bitstatus = GPIO_PIN_RESET;
  }
  return bitstatus;
}
 8005c2c:	bf14      	ite	ne
 8005c2e:	2001      	movne	r0, #1
 8005c30:	2000      	moveq	r0, #0
 8005c32:	4770      	bx	lr

08005c34 <HAL_GPIO_WritePin>:
{
  /* Check the parameters */
  assert_param(IS_GPIO_PIN(GPIO_Pin));
  assert_param(IS_GPIO_PIN_ACTION(PinState));

  if (PinState != GPIO_PIN_RESET)
 8005c34:	b902      	cbnz	r2, 8005c38 <HAL_GPIO_WritePin+0x4>
  {
    GPIOx->BSRR = GPIO_Pin;
  }
  else
  {
    GPIOx->BSRR = (uint32_t)GPIO_Pin << 16u;
 8005c36:	0409      	lsls	r1, r1, #16
 8005c38:	6101      	str	r1, [r0, #16]
  }
}
 8005c3a:	4770      	bx	lr

08005c3c <HAL_PWR_EnableBkUpAccess>:
  * @retval None
  */
void HAL_PWR_EnableBkUpAccess(void)
{
  /* Enable access to RTC and backup registers */
  *(__IO uint32_t *) CR_DBP_BB = (uint32_t)ENABLE;
 8005c3c:	2201      	movs	r2, #1
 8005c3e:	4b01      	ldr	r3, [pc, #4]	@ (8005c44 <HAL_PWR_EnableBkUpAccess+0x8>)
 8005c40:	621a      	str	r2, [r3, #32]
}
 8005c42:	4770      	bx	lr
 8005c44:	420e0000 	.word	0x420e0000

08005c48 <HAL_RCC_OscConfig>:
{
  uint32_t tickstart;
  uint32_t pll_config;

  /* Check Null pointer */
  if (RCC_OscInitStruct == NULL)
 8005c48:	2800      	cmp	r0, #0
 8005c4a:	f000 81e4 	beq.w	8006016 <HAL_RCC_OscConfig+0x3ce>
{
 8005c4e:	e92d 41f0 	stmdb	sp!, {r4, r5, r6, r7, r8, lr}

  /* Check the parameters */
  assert_param(IS_RCC_OSCILLATORTYPE(RCC_OscInitStruct->OscillatorType));

  /*------------------------------- HSE Configuration ------------------------*/
  if (((RCC_OscInitStruct->OscillatorType) & RCC_OSCILLATORTYPE_HSE) == RCC_OSCILLATORTYPE_HSE)
 8005c52:	6803      	ldr	r3, [r0, #0]
 8005c54:	4604      	mov	r4, r0
 8005c56:	07dd      	lsls	r5, r3, #31
{
 8005c58:	b082      	sub	sp, #8
  if (((RCC_OscInitStruct->OscillatorType) & RCC_OSCILLATORTYPE_HSE) == RCC_OSCILLATORTYPE_HSE)
 8005c5a:	d535      	bpl.n	8005cc8 <HAL_RCC_OscConfig+0x80>
  {
    /* Check the parameters */
    assert_param(IS_RCC_HSE(RCC_OscInitStruct->HSEState));

    /* When the HSE is used as system clock or clock source for PLL in these cases it is not allowed to be disabled */
    if ((__HAL_RCC_GET_SYSCLK_SOURCE() == RCC_SYSCLKSOURCE_STATUS_HSE)
 8005c5c:	4999      	ldr	r1, [pc, #612]	@ (8005ec4 <HAL_RCC_OscConfig+0x27c>)
 8005c5e:	684a      	ldr	r2, [r1, #4]
 8005c60:	f002 020c 	and.w	r2, r2, #12
 8005c64:	2a04      	cmp	r2, #4
 8005c66:	f000 80ed 	beq.w	8005e44 <HAL_RCC_OscConfig+0x1fc>
        || ((__HAL_RCC_GET_SYSCLK_SOURCE() == RCC_SYSCLKSOURCE_STATUS_PLLCLK) && (__HAL_RCC_GET_PLL_OSCSOURCE() == RCC_PLLSOURCE_HSE)))
 8005c6a:	684a      	ldr	r2, [r1, #4]
 8005c6c:	f002 020c 	and.w	r2, r2, #12
 8005c70:	2a08      	cmp	r2, #8
 8005c72:	f000 80e3 	beq.w	8005e3c <HAL_RCC_OscConfig+0x1f4>
      }
    }
    else
    {
      /* Set the new HSE configuration ---------------------------------------*/
      __HAL_RCC_HSE_CONFIG(RCC_OscInitStruct->HSEState);
 8005c76:	6863      	ldr	r3, [r4, #4]
 8005c78:	f5b3 3f80 	cmp.w	r3, #65536	@ 0x10000
 8005c7c:	d010      	beq.n	8005ca0 <HAL_RCC_OscConfig+0x58>
 8005c7e:	2b00      	cmp	r3, #0
 8005c80:	f000 810a 	beq.w	8005e98 <HAL_RCC_OscConfig+0x250>
 8005c84:	f5b3 2fa0 	cmp.w	r3, #327680	@ 0x50000
 8005c88:	f000 8180 	beq.w	8005f8c <HAL_RCC_OscConfig+0x344>
 8005c8c:	4b8d      	ldr	r3, [pc, #564]	@ (8005ec4 <HAL_RCC_OscConfig+0x27c>)
 8005c8e:	681a      	ldr	r2, [r3, #0]
 8005c90:	f422 3280 	bic.w	r2, r2, #65536	@ 0x10000
 8005c94:	601a      	str	r2, [r3, #0]
 8005c96:	681a      	ldr	r2, [r3, #0]
 8005c98:	f422 2280 	bic.w	r2, r2, #262144	@ 0x40000
 8005c9c:	601a      	str	r2, [r3, #0]


      /* Check the HSE State */
      if (RCC_OscInitStruct->HSEState != RCC_HSE_OFF)
 8005c9e:	e004      	b.n	8005caa <HAL_RCC_OscConfig+0x62>
      __HAL_RCC_HSE_CONFIG(RCC_OscInitStruct->HSEState);
 8005ca0:	4a88      	ldr	r2, [pc, #544]	@ (8005ec4 <HAL_RCC_OscConfig+0x27c>)
 8005ca2:	6813      	ldr	r3, [r2, #0]
 8005ca4:	f443 3380 	orr.w	r3, r3, #65536	@ 0x10000
 8005ca8:	6013      	str	r3, [r2, #0]
      {
        /* Get Start Tick */
        tickstart = HAL_GetTick();
 8005caa:	f7ff fa93 	bl	80051d4 <HAL_GetTick>

        /* Wait till HSE is ready */
        while (__HAL_RCC_GET_FLAG(RCC_FLAG_HSERDY) == RESET)
 8005cae:	4e85      	ldr	r6, [pc, #532]	@ (8005ec4 <HAL_RCC_OscConfig+0x27c>)
        tickstart = HAL_GetTick();
 8005cb0:	4605      	mov	r5, r0
        while (__HAL_RCC_GET_FLAG(RCC_FLAG_HSERDY) == RESET)
 8005cb2:	e005      	b.n	8005cc0 <HAL_RCC_OscConfig+0x78>
        {
          if ((HAL_GetTick() - tickstart) > HSE_TIMEOUT_VALUE)
 8005cb4:	f7ff fa8e 	bl	80051d4 <HAL_GetTick>
 8005cb8:	1b40      	subs	r0, r0, r5
 8005cba:	2864      	cmp	r0, #100	@ 0x64
 8005cbc:	f200 80e8 	bhi.w	8005e90 <HAL_RCC_OscConfig+0x248>
        while (__HAL_RCC_GET_FLAG(RCC_FLAG_HSERDY) == RESET)
 8005cc0:	6833      	ldr	r3, [r6, #0]
 8005cc2:	039a      	lsls	r2, r3, #14
 8005cc4:	d5f6      	bpl.n	8005cb4 <HAL_RCC_OscConfig+0x6c>
        }
      }
    }
  }
  /*----------------------------- HSI Configuration --------------------------*/
  if (((RCC_OscInitStruct->OscillatorType) & RCC_OSCILLATORTYPE_HSI) == RCC_OSCILLATORTYPE_HSI)
 8005cc6:	6823      	ldr	r3, [r4, #0]
 8005cc8:	079f      	lsls	r7, r3, #30
 8005cca:	d528      	bpl.n	8005d1e <HAL_RCC_OscConfig+0xd6>
    /* Check the parameters */
    assert_param(IS_RCC_HSI(RCC_OscInitStruct->HSIState));
    assert_param(IS_RCC_CALIBRATION_VALUE(RCC_OscInitStruct->HSICalibrationValue));

    /* Check if HSI is used as system clock or as PLL source when PLL is selected as system clock */
    if ((__HAL_RCC_GET_SYSCLK_SOURCE() == RCC_SYSCLKSOURCE_STATUS_HSI)
 8005ccc:	4a7d      	ldr	r2, [pc, #500]	@ (8005ec4 <HAL_RCC_OscConfig+0x27c>)
 8005cce:	6851      	ldr	r1, [r2, #4]
 8005cd0:	f011 0f0c 	tst.w	r1, #12
 8005cd4:	f000 8096 	beq.w	8005e04 <HAL_RCC_OscConfig+0x1bc>
        || ((__HAL_RCC_GET_SYSCLK_SOURCE() == RCC_SYSCLKSOURCE_STATUS_PLLCLK) && (__HAL_RCC_GET_PLL_OSCSOURCE() == RCC_PLLSOURCE_HSI_DIV2)))
 8005cd8:	6851      	ldr	r1, [r2, #4]
 8005cda:	f001 010c 	and.w	r1, r1, #12
 8005cde:	2908      	cmp	r1, #8
 8005ce0:	f000 808c 	beq.w	8005dfc <HAL_RCC_OscConfig+0x1b4>
      }
    }
    else
    {
      /* Check the HSI State */
      if (RCC_OscInitStruct->HSIState != RCC_HSI_OFF)
 8005ce4:	6923      	ldr	r3, [r4, #16]
 8005ce6:	2b00      	cmp	r3, #0
 8005ce8:	f000 8116 	beq.w	8005f18 <HAL_RCC_OscConfig+0x2d0>
      {
        /* Enable the Internal High Speed oscillator (HSI). */
        __HAL_RCC_HSI_ENABLE();
 8005cec:	2201      	movs	r2, #1
 8005cee:	4b76      	ldr	r3, [pc, #472]	@ (8005ec8 <HAL_RCC_OscConfig+0x280>)

        /* Get Start Tick */
        tickstart = HAL_GetTick();

        /* Wait till HSI is ready */
        while (__HAL_RCC_GET_FLAG(RCC_FLAG_HSIRDY) == RESET)
 8005cf0:	4e74      	ldr	r6, [pc, #464]	@ (8005ec4 <HAL_RCC_OscConfig+0x27c>)
        __HAL_RCC_HSI_ENABLE();
 8005cf2:	601a      	str	r2, [r3, #0]
        tickstart = HAL_GetTick();
 8005cf4:	f7ff fa6e 	bl	80051d4 <HAL_GetTick>
 8005cf8:	4605      	mov	r5, r0
        while (__HAL_RCC_GET_FLAG(RCC_FLAG_HSIRDY) == RESET)
 8005cfa:	e005      	b.n	8005d08 <HAL_RCC_OscConfig+0xc0>
        {
          if ((HAL_GetTick() - tickstart) > HSI_TIMEOUT_VALUE)
 8005cfc:	f7ff fa6a 	bl	80051d4 <HAL_GetTick>
 8005d00:	1b40      	subs	r0, r0, r5
 8005d02:	2802      	cmp	r0, #2
 8005d04:	f200 80c4 	bhi.w	8005e90 <HAL_RCC_OscConfig+0x248>
        while (__HAL_RCC_GET_FLAG(RCC_FLAG_HSIRDY) == RESET)
 8005d08:	6833      	ldr	r3, [r6, #0]
 8005d0a:	0798      	lsls	r0, r3, #30
 8005d0c:	d5f6      	bpl.n	8005cfc <HAL_RCC_OscConfig+0xb4>
            return HAL_TIMEOUT;
          }
        }

        /* Adjusts the Internal High Speed oscillator (HSI) calibration value.*/
        __HAL_RCC_HSI_CALIBRATIONVALUE_ADJUST(RCC_OscInitStruct->HSICalibrationValue);
 8005d0e:	6833      	ldr	r3, [r6, #0]
 8005d10:	6962      	ldr	r2, [r4, #20]
 8005d12:	f023 03f8 	bic.w	r3, r3, #248	@ 0xf8
 8005d16:	ea43 03c2 	orr.w	r3, r3, r2, lsl #3
 8005d1a:	6033      	str	r3, [r6, #0]
        }
      }
    }
  }
  /*------------------------------ LSI Configuration -------------------------*/
  if (((RCC_OscInitStruct->OscillatorType) & RCC_OSCILLATORTYPE_LSI) == RCC_OSCILLATORTYPE_LSI)
 8005d1c:	6823      	ldr	r3, [r4, #0]
 8005d1e:	071a      	lsls	r2, r3, #28
 8005d20:	d429      	bmi.n	8005d76 <HAL_RCC_OscConfig+0x12e>
        }
      }
    }
  }
  /*------------------------------ LSE Configuration -------------------------*/
  if (((RCC_OscInitStruct->OscillatorType) & RCC_OSCILLATORTYPE_LSE) == RCC_OSCILLATORTYPE_LSE)
 8005d22:	075d      	lsls	r5, r3, #29
 8005d24:	d54b      	bpl.n	8005dbe <HAL_RCC_OscConfig+0x176>
    /* Check the parameters */
    assert_param(IS_RCC_LSE(RCC_OscInitStruct->LSEState));

    /* Update LSE configuration in Backup Domain control register    */
    /* Requires to enable write access to Backup Domain of necessary */
    if (__HAL_RCC_PWR_IS_CLK_DISABLED())
 8005d26:	4b67      	ldr	r3, [pc, #412]	@ (8005ec4 <HAL_RCC_OscConfig+0x27c>)
 8005d28:	69da      	ldr	r2, [r3, #28]
 8005d2a:	00d0      	lsls	r0, r2, #3
 8005d2c:	f100 8084 	bmi.w	8005e38 <HAL_RCC_OscConfig+0x1f0>
    {
      __HAL_RCC_PWR_CLK_ENABLE();
      pwrclkchanged = SET;
 8005d30:	2501      	movs	r5, #1
      __HAL_RCC_PWR_CLK_ENABLE();
 8005d32:	69da      	ldr	r2, [r3, #28]
 8005d34:	f042 5280 	orr.w	r2, r2, #268435456	@ 0x10000000
 8005d38:	61da      	str	r2, [r3, #28]
 8005d3a:	69db      	ldr	r3, [r3, #28]
 8005d3c:	f003 5380 	and.w	r3, r3, #268435456	@ 0x10000000
 8005d40:	9300      	str	r3, [sp, #0]
 8005d42:	9b00      	ldr	r3, [sp, #0]
    }

    if (HAL_IS_BIT_CLR(PWR->CR, PWR_CR_DBP))
 8005d44:	4e61      	ldr	r6, [pc, #388]	@ (8005ecc <HAL_RCC_OscConfig+0x284>)
 8005d46:	6833      	ldr	r3, [r6, #0]
 8005d48:	05d9      	lsls	r1, r3, #23
 8005d4a:	f140 8091 	bpl.w	8005e70 <HAL_RCC_OscConfig+0x228>
        }
      }
    }

    /* Set the new LSE configuration -----------------------------------------*/
    __HAL_RCC_LSE_CONFIG(RCC_OscInitStruct->LSEState);
 8005d4e:	68e3      	ldr	r3, [r4, #12]
 8005d50:	2b01      	cmp	r3, #1
 8005d52:	f000 80f2 	beq.w	8005f3a <HAL_RCC_OscConfig+0x2f2>
 8005d56:	2b00      	cmp	r3, #0
 8005d58:	f000 80be 	beq.w	8005ed8 <HAL_RCC_OscConfig+0x290>
 8005d5c:	2b05      	cmp	r3, #5
 8005d5e:	4b59      	ldr	r3, [pc, #356]	@ (8005ec4 <HAL_RCC_OscConfig+0x27c>)
 8005d60:	6a1a      	ldr	r2, [r3, #32]
 8005d62:	f000 8120 	beq.w	8005fa6 <HAL_RCC_OscConfig+0x35e>
 8005d66:	f022 0201 	bic.w	r2, r2, #1
 8005d6a:	621a      	str	r2, [r3, #32]
 8005d6c:	6a1a      	ldr	r2, [r3, #32]
 8005d6e:	f022 0204 	bic.w	r2, r2, #4
 8005d72:	621a      	str	r2, [r3, #32]
    /* Check the LSE State */
    if (RCC_OscInitStruct->LSEState != RCC_LSE_OFF)
 8005d74:	e0e6      	b.n	8005f44 <HAL_RCC_OscConfig+0x2fc>
    if (RCC_OscInitStruct->LSIState != RCC_LSI_OFF)
 8005d76:	69a3      	ldr	r3, [r4, #24]
 8005d78:	2b00      	cmp	r3, #0
 8005d7a:	d04c      	beq.n	8005e16 <HAL_RCC_OscConfig+0x1ce>
      __HAL_RCC_LSI_ENABLE();
 8005d7c:	2201      	movs	r2, #1
 8005d7e:	4b52      	ldr	r3, [pc, #328]	@ (8005ec8 <HAL_RCC_OscConfig+0x280>)
      while (__HAL_RCC_GET_FLAG(RCC_FLAG_LSIRDY) == RESET)
 8005d80:	4e50      	ldr	r6, [pc, #320]	@ (8005ec4 <HAL_RCC_OscConfig+0x27c>)
      __HAL_RCC_LSI_ENABLE();
 8005d82:	f8c3 2480 	str.w	r2, [r3, #1152]	@ 0x480
      tickstart = HAL_GetTick();
 8005d86:	f7ff fa25 	bl	80051d4 <HAL_GetTick>
 8005d8a:	4605      	mov	r5, r0
      while (__HAL_RCC_GET_FLAG(RCC_FLAG_LSIRDY) == RESET)
 8005d8c:	e004      	b.n	8005d98 <HAL_RCC_OscConfig+0x150>
        if ((HAL_GetTick() - tickstart) > LSI_TIMEOUT_VALUE)
 8005d8e:	f7ff fa21 	bl	80051d4 <HAL_GetTick>
 8005d92:	1b40      	subs	r0, r0, r5
 8005d94:	2802      	cmp	r0, #2
 8005d96:	d87b      	bhi.n	8005e90 <HAL_RCC_OscConfig+0x248>
      while (__HAL_RCC_GET_FLAG(RCC_FLAG_LSIRDY) == RESET)
 8005d98:	6a73      	ldr	r3, [r6, #36]	@ 0x24
 8005d9a:	079b      	lsls	r3, r3, #30
 8005d9c:	d5f7      	bpl.n	8005d8e <HAL_RCC_OscConfig+0x146>
  * @param  mdelay: specifies the delay time length, in milliseconds.
  * @retval None
  */
static void RCC_Delay(uint32_t mdelay)
{
  __IO uint32_t Delay = mdelay * (SystemCoreClock / 8U / 1000U);
 8005d9e:	4b4c      	ldr	r3, [pc, #304]	@ (8005ed0 <HAL_RCC_OscConfig+0x288>)
 8005da0:	4a4c      	ldr	r2, [pc, #304]	@ (8005ed4 <HAL_RCC_OscConfig+0x28c>)
 8005da2:	681b      	ldr	r3, [r3, #0]
 8005da4:	fba2 2303 	umull	r2, r3, r2, r3
 8005da8:	0a5b      	lsrs	r3, r3, #9
 8005daa:	9301      	str	r3, [sp, #4]
  do
  {
    __NOP();
 8005dac:	bf00      	nop
  }
  while (Delay --);
 8005dae:	9b01      	ldr	r3, [sp, #4]
 8005db0:	1e5a      	subs	r2, r3, #1
 8005db2:	9201      	str	r2, [sp, #4]
 8005db4:	2b00      	cmp	r3, #0
 8005db6:	d1f9      	bne.n	8005dac <HAL_RCC_OscConfig+0x164>
  if (((RCC_OscInitStruct->OscillatorType) & RCC_OSCILLATORTYPE_LSE) == RCC_OSCILLATORTYPE_LSE)
 8005db8:	6823      	ldr	r3, [r4, #0]
 8005dba:	075d      	lsls	r5, r3, #29
 8005dbc:	d4b3      	bmi.n	8005d26 <HAL_RCC_OscConfig+0xde>
  if ((RCC_OscInitStruct->PLL.PLLState) != RCC_PLL_NONE)
 8005dbe:	69e3      	ldr	r3, [r4, #28]
 8005dc0:	b1c3      	cbz	r3, 8005df4 <HAL_RCC_OscConfig+0x1ac>
    if (__HAL_RCC_GET_SYSCLK_SOURCE() != RCC_SYSCLKSOURCE_STATUS_PLLCLK)
 8005dc2:	4d40      	ldr	r5, [pc, #256]	@ (8005ec4 <HAL_RCC_OscConfig+0x27c>)
 8005dc4:	686a      	ldr	r2, [r5, #4]
 8005dc6:	f002 020c 	and.w	r2, r2, #12
 8005dca:	2a08      	cmp	r2, #8
 8005dcc:	f000 80cd 	beq.w	8005f6a <HAL_RCC_OscConfig+0x322>
        __HAL_RCC_PLL_DISABLE();
 8005dd0:	2200      	movs	r2, #0
      if ((RCC_OscInitStruct->PLL.PLLState) == RCC_PLL_ON)
 8005dd2:	2b02      	cmp	r3, #2
        __HAL_RCC_PLL_DISABLE();
 8005dd4:	4b3c      	ldr	r3, [pc, #240]	@ (8005ec8 <HAL_RCC_OscConfig+0x280>)
 8005dd6:	661a      	str	r2, [r3, #96]	@ 0x60
      if ((RCC_OscInitStruct->PLL.PLLState) == RCC_PLL_ON)
 8005dd8:	f000 80ed 	beq.w	8005fb6 <HAL_RCC_OscConfig+0x36e>
        tickstart = HAL_GetTick();
 8005ddc:	f7ff f9fa 	bl	80051d4 <HAL_GetTick>
 8005de0:	4604      	mov	r4, r0
        while (__HAL_RCC_GET_FLAG(RCC_FLAG_PLLRDY)  != RESET)
 8005de2:	e004      	b.n	8005dee <HAL_RCC_OscConfig+0x1a6>
          if ((HAL_GetTick() - tickstart) > PLL_TIMEOUT_VALUE)
 8005de4:	f7ff f9f6 	bl	80051d4 <HAL_GetTick>
 8005de8:	1b00      	subs	r0, r0, r4
 8005dea:	2802      	cmp	r0, #2
 8005dec:	d850      	bhi.n	8005e90 <HAL_RCC_OscConfig+0x248>
        while (__HAL_RCC_GET_FLAG(RCC_FLAG_PLLRDY)  != RESET)
 8005dee:	682b      	ldr	r3, [r5, #0]
 8005df0:	019b      	lsls	r3, r3, #6
 8005df2:	d4f7      	bmi.n	8005de4 <HAL_RCC_OscConfig+0x19c>
  return HAL_OK;
 8005df4:	2000      	movs	r0, #0
}
 8005df6:	b002      	add	sp, #8
 8005df8:	e8bd 81f0 	ldmia.w	sp!, {r4, r5, r6, r7, r8, pc}
        || ((__HAL_RCC_GET_SYSCLK_SOURCE() == RCC_SYSCLKSOURCE_STATUS_PLLCLK) && (__HAL_RCC_GET_PLL_OSCSOURCE() == RCC_PLLSOURCE_HSI_DIV2)))
 8005dfc:	6852      	ldr	r2, [r2, #4]
 8005dfe:	03d6      	lsls	r6, r2, #15
 8005e00:	f53f af70 	bmi.w	8005ce4 <HAL_RCC_OscConfig+0x9c>
      if ((__HAL_RCC_GET_FLAG(RCC_FLAG_HSIRDY) != RESET) && (RCC_OscInitStruct->HSIState != RCC_HSI_ON))
 8005e04:	4a2f      	ldr	r2, [pc, #188]	@ (8005ec4 <HAL_RCC_OscConfig+0x27c>)
 8005e06:	6812      	ldr	r2, [r2, #0]
 8005e08:	0795      	lsls	r5, r2, #30
 8005e0a:	d525      	bpl.n	8005e58 <HAL_RCC_OscConfig+0x210>
 8005e0c:	6922      	ldr	r2, [r4, #16]
 8005e0e:	2a01      	cmp	r2, #1
 8005e10:	d022      	beq.n	8005e58 <HAL_RCC_OscConfig+0x210>
    return HAL_ERROR;
 8005e12:	2001      	movs	r0, #1
 8005e14:	e7ef      	b.n	8005df6 <HAL_RCC_OscConfig+0x1ae>
      __HAL_RCC_LSI_DISABLE();
 8005e16:	4a2c      	ldr	r2, [pc, #176]	@ (8005ec8 <HAL_RCC_OscConfig+0x280>)
      while (__HAL_RCC_GET_FLAG(RCC_FLAG_LSIRDY) != RESET)
 8005e18:	4e2a      	ldr	r6, [pc, #168]	@ (8005ec4 <HAL_RCC_OscConfig+0x27c>)
      __HAL_RCC_LSI_DISABLE();
 8005e1a:	f8c2 3480 	str.w	r3, [r2, #1152]	@ 0x480
      tickstart = HAL_GetTick();
 8005e1e:	f7ff f9d9 	bl	80051d4 <HAL_GetTick>
 8005e22:	4605      	mov	r5, r0
      while (__HAL_RCC_GET_FLAG(RCC_FLAG_LSIRDY) != RESET)
 8005e24:	e004      	b.n	8005e30 <HAL_RCC_OscConfig+0x1e8>
        if ((HAL_GetTick() - tickstart) > LSI_TIMEOUT_VALUE)
 8005e26:	f7ff f9d5 	bl	80051d4 <HAL_GetTick>
 8005e2a:	1b40      	subs	r0, r0, r5
 8005e2c:	2802      	cmp	r0, #2
 8005e2e:	d82f      	bhi.n	8005e90 <HAL_RCC_OscConfig+0x248>
      while (__HAL_RCC_GET_FLAG(RCC_FLAG_LSIRDY) != RESET)
 8005e30:	6a73      	ldr	r3, [r6, #36]	@ 0x24
 8005e32:	079f      	lsls	r7, r3, #30
 8005e34:	d4f7      	bmi.n	8005e26 <HAL_RCC_OscConfig+0x1de>
 8005e36:	e7bf      	b.n	8005db8 <HAL_RCC_OscConfig+0x170>
    FlagStatus       pwrclkchanged = RESET;
 8005e38:	2500      	movs	r5, #0
 8005e3a:	e783      	b.n	8005d44 <HAL_RCC_OscConfig+0xfc>
        || ((__HAL_RCC_GET_SYSCLK_SOURCE() == RCC_SYSCLKSOURCE_STATUS_PLLCLK) && (__HAL_RCC_GET_PLL_OSCSOURCE() == RCC_PLLSOURCE_HSE)))
 8005e3c:	684a      	ldr	r2, [r1, #4]
 8005e3e:	03d0      	lsls	r0, r2, #15
 8005e40:	f57f af19 	bpl.w	8005c76 <HAL_RCC_OscConfig+0x2e>
      if ((__HAL_RCC_GET_FLAG(RCC_FLAG_HSERDY) != RESET) && (RCC_OscInitStruct->HSEState == RCC_HSE_OFF))
 8005e44:	4a1f      	ldr	r2, [pc, #124]	@ (8005ec4 <HAL_RCC_OscConfig+0x27c>)
 8005e46:	6812      	ldr	r2, [r2, #0]
 8005e48:	0391      	lsls	r1, r2, #14
 8005e4a:	f57f af3d 	bpl.w	8005cc8 <HAL_RCC_OscConfig+0x80>
 8005e4e:	6862      	ldr	r2, [r4, #4]
 8005e50:	2a00      	cmp	r2, #0
 8005e52:	f47f af39 	bne.w	8005cc8 <HAL_RCC_OscConfig+0x80>
 8005e56:	e7dc      	b.n	8005e12 <HAL_RCC_OscConfig+0x1ca>
        __HAL_RCC_HSI_CALIBRATIONVALUE_ADJUST(RCC_OscInitStruct->HSICalibrationValue);
 8005e58:	491a      	ldr	r1, [pc, #104]	@ (8005ec4 <HAL_RCC_OscConfig+0x27c>)
 8005e5a:	6960      	ldr	r0, [r4, #20]
 8005e5c:	680a      	ldr	r2, [r1, #0]
 8005e5e:	f022 02f8 	bic.w	r2, r2, #248	@ 0xf8
 8005e62:	ea42 02c0 	orr.w	r2, r2, r0, lsl #3
 8005e66:	600a      	str	r2, [r1, #0]
  if (((RCC_OscInitStruct->OscillatorType) & RCC_OSCILLATORTYPE_LSI) == RCC_OSCILLATORTYPE_LSI)
 8005e68:	071a      	lsls	r2, r3, #28
 8005e6a:	f57f af5a 	bpl.w	8005d22 <HAL_RCC_OscConfig+0xda>
 8005e6e:	e782      	b.n	8005d76 <HAL_RCC_OscConfig+0x12e>
      SET_BIT(PWR->CR, PWR_CR_DBP);
 8005e70:	6833      	ldr	r3, [r6, #0]
 8005e72:	f443 7380 	orr.w	r3, r3, #256	@ 0x100
 8005e76:	6033      	str	r3, [r6, #0]
      tickstart = HAL_GetTick();
 8005e78:	f7ff f9ac 	bl	80051d4 <HAL_GetTick>
 8005e7c:	4607      	mov	r7, r0
      while (HAL_IS_BIT_CLR(PWR->CR, PWR_CR_DBP))
 8005e7e:	6833      	ldr	r3, [r6, #0]
 8005e80:	05da      	lsls	r2, r3, #23
 8005e82:	f53f af64 	bmi.w	8005d4e <HAL_RCC_OscConfig+0x106>
        if ((HAL_GetTick() - tickstart) > RCC_DBP_TIMEOUT_VALUE)
 8005e86:	f7ff f9a5 	bl	80051d4 <HAL_GetTick>
 8005e8a:	1bc0      	subs	r0, r0, r7
 8005e8c:	2864      	cmp	r0, #100	@ 0x64
 8005e8e:	d9f6      	bls.n	8005e7e <HAL_RCC_OscConfig+0x236>
            return HAL_TIMEOUT;
 8005e90:	2003      	movs	r0, #3
}
 8005e92:	b002      	add	sp, #8
 8005e94:	e8bd 81f0 	ldmia.w	sp!, {r4, r5, r6, r7, r8, pc}
      __HAL_RCC_HSE_CONFIG(RCC_OscInitStruct->HSEState);
 8005e98:	4d0a      	ldr	r5, [pc, #40]	@ (8005ec4 <HAL_RCC_OscConfig+0x27c>)
 8005e9a:	682b      	ldr	r3, [r5, #0]
 8005e9c:	f423 3380 	bic.w	r3, r3, #65536	@ 0x10000
 8005ea0:	602b      	str	r3, [r5, #0]
 8005ea2:	682b      	ldr	r3, [r5, #0]
 8005ea4:	f423 2380 	bic.w	r3, r3, #262144	@ 0x40000
 8005ea8:	602b      	str	r3, [r5, #0]
        tickstart = HAL_GetTick();
 8005eaa:	f7ff f993 	bl	80051d4 <HAL_GetTick>
 8005eae:	4606      	mov	r6, r0
        while (__HAL_RCC_GET_FLAG(RCC_FLAG_HSERDY) != RESET)
 8005eb0:	e004      	b.n	8005ebc <HAL_RCC_OscConfig+0x274>
          if ((HAL_GetTick() - tickstart) > HSE_TIMEOUT_VALUE)
 8005eb2:	f7ff f98f 	bl	80051d4 <HAL_GetTick>
 8005eb6:	1b80      	subs	r0, r0, r6
 8005eb8:	2864      	cmp	r0, #100	@ 0x64
 8005eba:	d8e9      	bhi.n	8005e90 <HAL_RCC_OscConfig+0x248>
        while (__HAL_RCC_GET_FLAG(RCC_FLAG_HSERDY) != RESET)
 8005ebc:	682b      	ldr	r3, [r5, #0]
 8005ebe:	039b      	lsls	r3, r3, #14
 8005ec0:	d4f7      	bmi.n	8005eb2 <HAL_RCC_OscConfig+0x26a>
 8005ec2:	e700      	b.n	8005cc6 <HAL_RCC_OscConfig+0x7e>
 8005ec4:	40021000 	.word	0x40021000
 8005ec8:	42420000 	.word	0x42420000
 8005ecc:	40007000 	.word	0x40007000
 8005ed0:	20000014 	.word	0x20000014
 8005ed4:	10624dd3 	.word	0x10624dd3
    __HAL_RCC_LSE_CONFIG(RCC_OscInitStruct->LSEState);
 8005ed8:	4e50      	ldr	r6, [pc, #320]	@ (800601c <HAL_RCC_OscConfig+0x3d4>)
        if ((HAL_GetTick() - tickstart) > RCC_LSE_TIMEOUT_VALUE)
 8005eda:	f241 3888 	movw	r8, #5000	@ 0x1388
    __HAL_RCC_LSE_CONFIG(RCC_OscInitStruct->LSEState);
 8005ede:	6a33      	ldr	r3, [r6, #32]
 8005ee0:	f023 0301 	bic.w	r3, r3, #1
 8005ee4:	6233      	str	r3, [r6, #32]
 8005ee6:	6a33      	ldr	r3, [r6, #32]
 8005ee8:	f023 0304 	bic.w	r3, r3, #4
 8005eec:	6233      	str	r3, [r6, #32]
      tickstart = HAL_GetTick();
 8005eee:	f7ff f971 	bl	80051d4 <HAL_GetTick>
 8005ef2:	4607      	mov	r7, r0
      while (__HAL_RCC_GET_FLAG(RCC_FLAG_LSERDY) != RESET)
 8005ef4:	e004      	b.n	8005f00 <HAL_RCC_OscConfig+0x2b8>
        if ((HAL_GetTick() - tickstart) > RCC_LSE_TIMEOUT_VALUE)
 8005ef6:	f7ff f96d 	bl	80051d4 <HAL_GetTick>
 8005efa:	1bc0      	subs	r0, r0, r7
 8005efc:	4540      	cmp	r0, r8
 8005efe:	d8c7      	bhi.n	8005e90 <HAL_RCC_OscConfig+0x248>
      while (__HAL_RCC_GET_FLAG(RCC_FLAG_LSERDY) != RESET)
 8005f00:	6a33      	ldr	r3, [r6, #32]
 8005f02:	0798      	lsls	r0, r3, #30
 8005f04:	d4f7      	bmi.n	8005ef6 <HAL_RCC_OscConfig+0x2ae>
    if (pwrclkchanged == SET)
 8005f06:	2d00      	cmp	r5, #0
 8005f08:	f43f af59 	beq.w	8005dbe <HAL_RCC_OscConfig+0x176>
      __HAL_RCC_PWR_CLK_DISABLE();
 8005f0c:	4a43      	ldr	r2, [pc, #268]	@ (800601c <HAL_RCC_OscConfig+0x3d4>)
 8005f0e:	69d3      	ldr	r3, [r2, #28]
 8005f10:	f023 5380 	bic.w	r3, r3, #268435456	@ 0x10000000
 8005f14:	61d3      	str	r3, [r2, #28]
 8005f16:	e752      	b.n	8005dbe <HAL_RCC_OscConfig+0x176>
        __HAL_RCC_HSI_DISABLE();
 8005f18:	4a41      	ldr	r2, [pc, #260]	@ (8006020 <HAL_RCC_OscConfig+0x3d8>)
        while (__HAL_RCC_GET_FLAG(RCC_FLAG_HSIRDY) != RESET)
 8005f1a:	4e40      	ldr	r6, [pc, #256]	@ (800601c <HAL_RCC_OscConfig+0x3d4>)
        __HAL_RCC_HSI_DISABLE();
 8005f1c:	6013      	str	r3, [r2, #0]
        tickstart = HAL_GetTick();
 8005f1e:	f7ff f959 	bl	80051d4 <HAL_GetTick>
 8005f22:	4605      	mov	r5, r0
        while (__HAL_RCC_GET_FLAG(RCC_FLAG_HSIRDY) != RESET)
 8005f24:	e004      	b.n	8005f30 <HAL_RCC_OscConfig+0x2e8>
          if ((HAL_GetTick() - tickstart) > HSI_TIMEOUT_VALUE)
 8005f26:	f7ff f955 	bl	80051d4 <HAL_GetTick>
 8005f2a:	1b40      	subs	r0, r0, r5
 8005f2c:	2802      	cmp	r0, #2
 8005f2e:	d8af      	bhi.n	8005e90 <HAL_RCC_OscConfig+0x248>
        while (__HAL_RCC_GET_FLAG(RCC_FLAG_HSIRDY) != RESET)
 8005f30:	6833      	ldr	r3, [r6, #0]
 8005f32:	0799      	lsls	r1, r3, #30
 8005f34:	d4f7      	bmi.n	8005f26 <HAL_RCC_OscConfig+0x2de>
  if (((RCC_OscInitStruct->OscillatorType) & RCC_OSCILLATORTYPE_LSI) == RCC_OSCILLATORTYPE_LSI)
 8005f36:	6823      	ldr	r3, [r4, #0]
 8005f38:	e6f1      	b.n	8005d1e <HAL_RCC_OscConfig+0xd6>
    __HAL_RCC_LSE_CONFIG(RCC_OscInitStruct->LSEState);
 8005f3a:	4a38      	ldr	r2, [pc, #224]	@ (800601c <HAL_RCC_OscConfig+0x3d4>)
 8005f3c:	6a13      	ldr	r3, [r2, #32]
 8005f3e:	f043 0301 	orr.w	r3, r3, #1
 8005f42:	6213      	str	r3, [r2, #32]
      tickstart = HAL_GetTick();
 8005f44:	f7ff f946 	bl	80051d4 <HAL_GetTick>
        if ((HAL_GetTick() - tickstart) > RCC_LSE_TIMEOUT_VALUE)
 8005f48:	f241 3888 	movw	r8, #5000	@ 0x1388
      tickstart = HAL_GetTick();
 8005f4c:	4606      	mov	r6, r0
      while (__HAL_RCC_GET_FLAG(RCC_FLAG_LSERDY) == RESET)
 8005f4e:	4f33      	ldr	r7, [pc, #204]	@ (800601c <HAL_RCC_OscConfig+0x3d4>)
 8005f50:	e004      	b.n	8005f5c <HAL_RCC_OscConfig+0x314>
        if ((HAL_GetTick() - tickstart) > RCC_LSE_TIMEOUT_VALUE)
 8005f52:	f7ff f93f 	bl	80051d4 <HAL_GetTick>
 8005f56:	1b80      	subs	r0, r0, r6
 8005f58:	4540      	cmp	r0, r8
 8005f5a:	d899      	bhi.n	8005e90 <HAL_RCC_OscConfig+0x248>
      while (__HAL_RCC_GET_FLAG(RCC_FLAG_LSERDY) == RESET)
 8005f5c:	6a3b      	ldr	r3, [r7, #32]
 8005f5e:	079b      	lsls	r3, r3, #30
 8005f60:	d5f7      	bpl.n	8005f52 <HAL_RCC_OscConfig+0x30a>
    if (pwrclkchanged == SET)
 8005f62:	2d00      	cmp	r5, #0
 8005f64:	f43f af2b 	beq.w	8005dbe <HAL_RCC_OscConfig+0x176>
 8005f68:	e7d0      	b.n	8005f0c <HAL_RCC_OscConfig+0x2c4>
      if ((RCC_OscInitStruct->PLL.PLLState) == RCC_PLL_OFF)
 8005f6a:	2b01      	cmp	r3, #1
 8005f6c:	f43f af51 	beq.w	8005e12 <HAL_RCC_OscConfig+0x1ca>
        pll_config = RCC->CFGR;
 8005f70:	686b      	ldr	r3, [r5, #4]
        if ((READ_BIT(pll_config, RCC_CFGR_PLLSRC) != RCC_OscInitStruct->PLL.PLLSource) ||
 8005f72:	6a22      	ldr	r2, [r4, #32]
 8005f74:	f403 3180 	and.w	r1, r3, #65536	@ 0x10000
 8005f78:	4291      	cmp	r1, r2
 8005f7a:	f47f af4a 	bne.w	8005e12 <HAL_RCC_OscConfig+0x1ca>
 8005f7e:	6a60      	ldr	r0, [r4, #36]	@ 0x24
            (READ_BIT(pll_config, RCC_CFGR_PLLMULL) != RCC_OscInitStruct->PLL.PLLMUL))
 8005f80:	f403 1370 	and.w	r3, r3, #3932160	@ 0x3c0000
        if ((READ_BIT(pll_config, RCC_CFGR_PLLSRC) != RCC_OscInitStruct->PLL.PLLSource) ||
 8005f84:	1a18      	subs	r0, r3, r0
 8005f86:	bf18      	it	ne
 8005f88:	2001      	movne	r0, #1
 8005f8a:	e734      	b.n	8005df6 <HAL_RCC_OscConfig+0x1ae>
      __HAL_RCC_HSE_CONFIG(RCC_OscInitStruct->HSEState);
 8005f8c:	f103 4380 	add.w	r3, r3, #1073741824	@ 0x40000000
 8005f90:	f5a3 333c 	sub.w	r3, r3, #192512	@ 0x2f000
 8005f94:	681a      	ldr	r2, [r3, #0]
 8005f96:	f442 2280 	orr.w	r2, r2, #262144	@ 0x40000
 8005f9a:	601a      	str	r2, [r3, #0]
 8005f9c:	681a      	ldr	r2, [r3, #0]
 8005f9e:	f442 3280 	orr.w	r2, r2, #65536	@ 0x10000
 8005fa2:	601a      	str	r2, [r3, #0]
      if (RCC_OscInitStruct->HSEState != RCC_HSE_OFF)
 8005fa4:	e681      	b.n	8005caa <HAL_RCC_OscConfig+0x62>
    __HAL_RCC_LSE_CONFIG(RCC_OscInitStruct->LSEState);
 8005fa6:	f042 0204 	orr.w	r2, r2, #4
 8005faa:	621a      	str	r2, [r3, #32]
 8005fac:	6a1a      	ldr	r2, [r3, #32]
 8005fae:	f042 0201 	orr.w	r2, r2, #1
 8005fb2:	621a      	str	r2, [r3, #32]
    if (RCC_OscInitStruct->LSEState != RCC_LSE_OFF)
 8005fb4:	e7c6      	b.n	8005f44 <HAL_RCC_OscConfig+0x2fc>
        tickstart = HAL_GetTick();
 8005fb6:	f7ff f90d 	bl	80051d4 <HAL_GetTick>
 8005fba:	4606      	mov	r6, r0
        while (__HAL_RCC_GET_FLAG(RCC_FLAG_PLLRDY)  != RESET)
 8005fbc:	e005      	b.n	8005fca <HAL_RCC_OscConfig+0x382>
          if ((HAL_GetTick() - tickstart) > PLL_TIMEOUT_VALUE)
 8005fbe:	f7ff f909 	bl	80051d4 <HAL_GetTick>
 8005fc2:	1b80      	subs	r0, r0, r6
 8005fc4:	2802      	cmp	r0, #2
 8005fc6:	f63f af63 	bhi.w	8005e90 <HAL_RCC_OscConfig+0x248>
        while (__HAL_RCC_GET_FLAG(RCC_FLAG_PLLRDY)  != RESET)
 8005fca:	682b      	ldr	r3, [r5, #0]
 8005fcc:	0199      	lsls	r1, r3, #6
 8005fce:	d4f6      	bmi.n	8005fbe <HAL_RCC_OscConfig+0x376>
        if (RCC_OscInitStruct->PLL.PLLSource == RCC_PLLSOURCE_HSE)
 8005fd0:	6a23      	ldr	r3, [r4, #32]
 8005fd2:	f5b3 3f80 	cmp.w	r3, #65536	@ 0x10000
 8005fd6:	d105      	bne.n	8005fe4 <HAL_RCC_OscConfig+0x39c>
          __HAL_RCC_HSE_PREDIV_CONFIG(RCC_OscInitStruct->HSEPredivValue);
 8005fd8:	686a      	ldr	r2, [r5, #4]
 8005fda:	68a1      	ldr	r1, [r4, #8]
 8005fdc:	f422 3200 	bic.w	r2, r2, #131072	@ 0x20000
 8005fe0:	430a      	orrs	r2, r1
 8005fe2:	606a      	str	r2, [r5, #4]
        __HAL_RCC_PLL_ENABLE();
 8005fe4:	2001      	movs	r0, #1
        __HAL_RCC_PLL_CONFIG(RCC_OscInitStruct->PLL.PLLSource,
 8005fe6:	4d0d      	ldr	r5, [pc, #52]	@ (800601c <HAL_RCC_OscConfig+0x3d4>)
 8005fe8:	6a61      	ldr	r1, [r4, #36]	@ 0x24
 8005fea:	686a      	ldr	r2, [r5, #4]
 8005fec:	430b      	orrs	r3, r1
 8005fee:	f422 1274 	bic.w	r2, r2, #3997696	@ 0x3d0000
        __HAL_RCC_PLL_ENABLE();
 8005ff2:	490b      	ldr	r1, [pc, #44]	@ (8006020 <HAL_RCC_OscConfig+0x3d8>)
        __HAL_RCC_PLL_CONFIG(RCC_OscInitStruct->PLL.PLLSource,
 8005ff4:	4313      	orrs	r3, r2
 8005ff6:	606b      	str	r3, [r5, #4]
        __HAL_RCC_PLL_ENABLE();
 8005ff8:	6608      	str	r0, [r1, #96]	@ 0x60
        tickstart = HAL_GetTick();
 8005ffa:	f7ff f8eb 	bl	80051d4 <HAL_GetTick>
 8005ffe:	4604      	mov	r4, r0
        while (__HAL_RCC_GET_FLAG(RCC_FLAG_PLLRDY)  == RESET)
 8006000:	e005      	b.n	800600e <HAL_RCC_OscConfig+0x3c6>
          if ((HAL_GetTick() - tickstart) > PLL_TIMEOUT_VALUE)
 8006002:	f7ff f8e7 	bl	80051d4 <HAL_GetTick>
 8006006:	1b00      	subs	r0, r0, r4
 8006008:	2802      	cmp	r0, #2
 800600a:	f63f af41 	bhi.w	8005e90 <HAL_RCC_OscConfig+0x248>
        while (__HAL_RCC_GET_FLAG(RCC_FLAG_PLLRDY)  == RESET)
 800600e:	682b      	ldr	r3, [r5, #0]
 8006010:	019a      	lsls	r2, r3, #6
 8006012:	d5f6      	bpl.n	8006002 <HAL_RCC_OscConfig+0x3ba>
 8006014:	e6ee      	b.n	8005df4 <HAL_RCC_OscConfig+0x1ac>
    return HAL_ERROR;
 8006016:	2001      	movs	r0, #1
}
 8006018:	4770      	bx	lr
 800601a:	bf00      	nop
 800601c:	40021000 	.word	0x40021000
 8006020:	42420000 	.word	0x42420000

08006024 <HAL_RCC_GetSysClockFreq>:
  tmpreg = RCC->CFGR;
 8006024:	4a0e      	ldr	r2, [pc, #56]	@ (8006060 <HAL_RCC_GetSysClockFreq+0x3c>)
 8006026:	6853      	ldr	r3, [r2, #4]
  switch (tmpreg & RCC_CFGR_SWS)
 8006028:	f003 010c 	and.w	r1, r3, #12
 800602c:	2908      	cmp	r1, #8
 800602e:	d001      	beq.n	8006034 <HAL_RCC_GetSysClockFreq+0x10>
      sysclockfreq = HSE_VALUE;
 8006030:	480c      	ldr	r0, [pc, #48]	@ (8006064 <HAL_RCC_GetSysClockFreq+0x40>)
}
 8006032:	4770      	bx	lr
      pllmul = aPLLMULFactorTable[(uint32_t)(tmpreg & RCC_CFGR_PLLMULL) >> RCC_CFGR_PLLMULL_Pos];
 8006034:	480c      	ldr	r0, [pc, #48]	@ (8006068 <HAL_RCC_GetSysClockFreq+0x44>)
 8006036:	f3c3 4183 	ubfx	r1, r3, #18, #4
      if ((tmpreg & RCC_CFGR_PLLSRC) != RCC_PLLSOURCE_HSI_DIV2)
 800603a:	03db      	lsls	r3, r3, #15
      pllmul = aPLLMULFactorTable[(uint32_t)(tmpreg & RCC_CFGR_PLLMULL) >> RCC_CFGR_PLLMULL_Pos];
 800603c:	5c40      	ldrb	r0, [r0, r1]
      if ((tmpreg & RCC_CFGR_PLLSRC) != RCC_PLLSOURCE_HSI_DIV2)
 800603e:	d50a      	bpl.n	8006056 <HAL_RCC_GetSysClockFreq+0x32>
        pllclk = (uint32_t)((HSE_VALUE  * pllmul) / prediv);
 8006040:	4908      	ldr	r1, [pc, #32]	@ (8006064 <HAL_RCC_GetSysClockFreq+0x40>)
        prediv = aPredivFactorTable[(uint32_t)(RCC->CFGR & RCC_CFGR_PLLXTPRE) >> RCC_CFGR_PLLXTPRE_Pos];
 8006042:	6853      	ldr	r3, [r2, #4]
        pllclk = (uint32_t)((HSE_VALUE  * pllmul) / prediv);
 8006044:	fb01 f000 	mul.w	r0, r1, r0
        prediv = aPredivFactorTable[(uint32_t)(RCC->CFGR & RCC_CFGR_PLLXTPRE) >> RCC_CFGR_PLLXTPRE_Pos];
 8006048:	4a08      	ldr	r2, [pc, #32]	@ (800606c <HAL_RCC_GetSysClockFreq+0x48>)
 800604a:	f3c3 4340 	ubfx	r3, r3, #17, #1
 800604e:	5cd3      	ldrb	r3, [r2, r3]
        pllclk = (uint32_t)((HSE_VALUE  * pllmul) / prediv);
 8006050:	fbb0 f0f3 	udiv	r0, r0, r3
 8006054:	4770      	bx	lr
        pllclk = (uint32_t)((HSI_VALUE >> 1) * pllmul);
 8006056:	4b06      	ldr	r3, [pc, #24]	@ (8006070 <HAL_RCC_GetSysClockFreq+0x4c>)
 8006058:	fb03 f000 	mul.w	r0, r3, r0
 800605c:	4770      	bx	lr
 800605e:	bf00      	nop
 8006060:	40021000 	.word	0x40021000
 8006064:	007a1200 	.word	0x007a1200
 8006068:	0800b940 	.word	0x0800b940
 800606c:	0800b93c 	.word	0x0800b93c
 8006070:	003d0900 	.word	0x003d0900

08006074 <HAL_RCC_ClockConfig>:
  if (RCC_ClkInitStruct == NULL)
 8006074:	2800      	cmp	r0, #0
 8006076:	f000 808c 	beq.w	8006192 <HAL_RCC_ClockConfig+0x11e>
  if (FLatency > __HAL_FLASH_GET_LATENCY())
 800607a:	4a49      	ldr	r2, [pc, #292]	@ (80061a0 <HAL_RCC_ClockConfig+0x12c>)
{
 800607c:	e92d 41f0 	stmdb	sp!, {r4, r5, r6, r7, r8, lr}
  if (FLatency > __HAL_FLASH_GET_LATENCY())
 8006080:	6813      	ldr	r3, [r2, #0]
 8006082:	4604      	mov	r4, r0
 8006084:	f003 0307 	and.w	r3, r3, #7
 8006088:	428b      	cmp	r3, r1
 800608a:	460d      	mov	r5, r1
 800608c:	d20c      	bcs.n	80060a8 <HAL_RCC_ClockConfig+0x34>
    __HAL_FLASH_SET_LATENCY(FLatency);
 800608e:	6813      	ldr	r3, [r2, #0]
 8006090:	f023 0307 	bic.w	r3, r3, #7
 8006094:	430b      	orrs	r3, r1
 8006096:	6013      	str	r3, [r2, #0]
    if (__HAL_FLASH_GET_LATENCY() != FLatency)
 8006098:	6813      	ldr	r3, [r2, #0]
 800609a:	f003 0307 	and.w	r3, r3, #7
 800609e:	428b      	cmp	r3, r1
 80060a0:	d002      	beq.n	80060a8 <HAL_RCC_ClockConfig+0x34>
    return HAL_ERROR;
 80060a2:	2001      	movs	r0, #1
}
 80060a4:	e8bd 81f0 	ldmia.w	sp!, {r4, r5, r6, r7, r8, pc}
if (((RCC_ClkInitStruct->ClockType) & RCC_CLOCKTYPE_HCLK) == RCC_CLOCKTYPE_HCLK)
 80060a8:	6823      	ldr	r3, [r4, #0]
 80060aa:	0798      	lsls	r0, r3, #30
 80060ac:	d514      	bpl.n	80060d8 <HAL_RCC_ClockConfig+0x64>
    if (((RCC_ClkInitStruct->ClockType) & RCC_CLOCKTYPE_PCLK1) == RCC_CLOCKTYPE_PCLK1)
 80060ae:	0759      	lsls	r1, r3, #29
 80060b0:	d504      	bpl.n	80060bc <HAL_RCC_ClockConfig+0x48>
      MODIFY_REG(RCC->CFGR, RCC_CFGR_PPRE1, RCC_HCLK_DIV16);
 80060b2:	493c      	ldr	r1, [pc, #240]	@ (80061a4 <HAL_RCC_ClockConfig+0x130>)
 80060b4:	684a      	ldr	r2, [r1, #4]
 80060b6:	f442 62e0 	orr.w	r2, r2, #1792	@ 0x700
 80060ba:	604a      	str	r2, [r1, #4]
    if (((RCC_ClkInitStruct->ClockType) & RCC_CLOCKTYPE_PCLK2) == RCC_CLOCKTYPE_PCLK2)
 80060bc:	071a      	lsls	r2, r3, #28
 80060be:	d504      	bpl.n	80060ca <HAL_RCC_ClockConfig+0x56>
      MODIFY_REG(RCC->CFGR, RCC_CFGR_PPRE2, (RCC_HCLK_DIV16 << 3));
 80060c0:	4938      	ldr	r1, [pc, #224]	@ (80061a4 <HAL_RCC_ClockConfig+0x130>)
 80060c2:	684a      	ldr	r2, [r1, #4]
 80060c4:	f442 5260 	orr.w	r2, r2, #14336	@ 0x3800
 80060c8:	604a      	str	r2, [r1, #4]
    MODIFY_REG(RCC->CFGR, RCC_CFGR_HPRE, RCC_ClkInitStruct->AHBCLKDivider);
 80060ca:	4936      	ldr	r1, [pc, #216]	@ (80061a4 <HAL_RCC_ClockConfig+0x130>)
 80060cc:	68a0      	ldr	r0, [r4, #8]
 80060ce:	684a      	ldr	r2, [r1, #4]
 80060d0:	f022 02f0 	bic.w	r2, r2, #240	@ 0xf0
 80060d4:	4302      	orrs	r2, r0
 80060d6:	604a      	str	r2, [r1, #4]
  if (((RCC_ClkInitStruct->ClockType) & RCC_CLOCKTYPE_SYSCLK) == RCC_CLOCKTYPE_SYSCLK)
 80060d8:	07df      	lsls	r7, r3, #31
 80060da:	d520      	bpl.n	800611e <HAL_RCC_ClockConfig+0xaa>
    if (RCC_ClkInitStruct->SYSCLKSource == RCC_SYSCLKSOURCE_HSE)
 80060dc:	6862      	ldr	r2, [r4, #4]
      if (__HAL_RCC_GET_FLAG(RCC_FLAG_HSERDY) == RESET)
 80060de:	4b31      	ldr	r3, [pc, #196]	@ (80061a4 <HAL_RCC_ClockConfig+0x130>)
    if (RCC_ClkInitStruct->SYSCLKSource == RCC_SYSCLKSOURCE_HSE)
 80060e0:	2a01      	cmp	r2, #1
      if (__HAL_RCC_GET_FLAG(RCC_FLAG_HSERDY) == RESET)
 80060e2:	681b      	ldr	r3, [r3, #0]
    if (RCC_ClkInitStruct->SYSCLKSource == RCC_SYSCLKSOURCE_HSE)
 80060e4:	d057      	beq.n	8006196 <HAL_RCC_ClockConfig+0x122>
    else if (RCC_ClkInitStruct->SYSCLKSource == RCC_SYSCLKSOURCE_PLLCLK)
 80060e6:	2a02      	cmp	r2, #2
 80060e8:	d050      	beq.n	800618c <HAL_RCC_ClockConfig+0x118>
      if (__HAL_RCC_GET_FLAG(RCC_FLAG_HSIRDY) == RESET)
 80060ea:	0799      	lsls	r1, r3, #30
 80060ec:	d5d9      	bpl.n	80060a2 <HAL_RCC_ClockConfig+0x2e>
    __HAL_RCC_SYSCLK_CONFIG(RCC_ClkInitStruct->SYSCLKSource);
 80060ee:	4e2d      	ldr	r6, [pc, #180]	@ (80061a4 <HAL_RCC_ClockConfig+0x130>)
      if ((HAL_GetTick() - tickstart) > CLOCKSWITCH_TIMEOUT_VALUE)
 80060f0:	f241 3888 	movw	r8, #5000	@ 0x1388
    __HAL_RCC_SYSCLK_CONFIG(RCC_ClkInitStruct->SYSCLKSource);
 80060f4:	6873      	ldr	r3, [r6, #4]
 80060f6:	f023 0303 	bic.w	r3, r3, #3
 80060fa:	4313      	orrs	r3, r2
 80060fc:	6073      	str	r3, [r6, #4]
    tickstart = HAL_GetTick();
 80060fe:	f7ff f869 	bl	80051d4 <HAL_GetTick>
 8006102:	4607      	mov	r7, r0
    while (__HAL_RCC_GET_SYSCLK_SOURCE() != (RCC_ClkInitStruct->SYSCLKSource << RCC_CFGR_SWS_Pos))
 8006104:	e004      	b.n	8006110 <HAL_RCC_ClockConfig+0x9c>
      if ((HAL_GetTick() - tickstart) > CLOCKSWITCH_TIMEOUT_VALUE)
 8006106:	f7ff f865 	bl	80051d4 <HAL_GetTick>
 800610a:	1bc0      	subs	r0, r0, r7
 800610c:	4540      	cmp	r0, r8
 800610e:	d845      	bhi.n	800619c <HAL_RCC_ClockConfig+0x128>
    while (__HAL_RCC_GET_SYSCLK_SOURCE() != (RCC_ClkInitStruct->SYSCLKSource << RCC_CFGR_SWS_Pos))
 8006110:	6873      	ldr	r3, [r6, #4]
 8006112:	6862      	ldr	r2, [r4, #4]
 8006114:	f003 030c 	and.w	r3, r3, #12
 8006118:	ebb3 0f82 	cmp.w	r3, r2, lsl #2
 800611c:	d1f3      	bne.n	8006106 <HAL_RCC_ClockConfig+0x92>
  if (FLatency < __HAL_FLASH_GET_LATENCY())
 800611e:	4a20      	ldr	r2, [pc, #128]	@ (80061a0 <HAL_RCC_ClockConfig+0x12c>)
 8006120:	6813      	ldr	r3, [r2, #0]
 8006122:	f003 0307 	and.w	r3, r3, #7
 8006126:	42ab      	cmp	r3, r5
 8006128:	d909      	bls.n	800613e <HAL_RCC_ClockConfig+0xca>
    __HAL_FLASH_SET_LATENCY(FLatency);
 800612a:	6813      	ldr	r3, [r2, #0]
 800612c:	f023 0307 	bic.w	r3, r3, #7
 8006130:	432b      	orrs	r3, r5
 8006132:	6013      	str	r3, [r2, #0]
    if (__HAL_FLASH_GET_LATENCY() != FLatency)
 8006134:	6813      	ldr	r3, [r2, #0]
 8006136:	f003 0307 	and.w	r3, r3, #7
 800613a:	42ab      	cmp	r3, r5
 800613c:	d1b1      	bne.n	80060a2 <HAL_RCC_ClockConfig+0x2e>
if (((RCC_ClkInitStruct->ClockType) & RCC_CLOCKTYPE_PCLK1) == RCC_CLOCKTYPE_PCLK1)
 800613e:	6823      	ldr	r3, [r4, #0]
 8006140:	075a      	lsls	r2, r3, #29
 8006142:	d506      	bpl.n	8006152 <HAL_RCC_ClockConfig+0xde>
    MODIFY_REG(RCC->CFGR, RCC_CFGR_PPRE1, RCC_ClkInitStruct->APB1CLKDivider);
 8006144:	4917      	ldr	r1, [pc, #92]	@ (80061a4 <HAL_RCC_ClockConfig+0x130>)
 8006146:	68e0      	ldr	r0, [r4, #12]
 8006148:	684a      	ldr	r2, [r1, #4]
 800614a:	f422 62e0 	bic.w	r2, r2, #1792	@ 0x700
 800614e:	4302      	orrs	r2, r0
 8006150:	604a      	str	r2, [r1, #4]
  if (((RCC_ClkInitStruct->ClockType) & RCC_CLOCKTYPE_PCLK2) == RCC_CLOCKTYPE_PCLK2)
 8006152:	071b      	lsls	r3, r3, #28
 8006154:	d507      	bpl.n	8006166 <HAL_RCC_ClockConfig+0xf2>
    MODIFY_REG(RCC->CFGR, RCC_CFGR_PPRE2, ((RCC_ClkInitStruct->APB2CLKDivider) << 3));
 8006156:	4a13      	ldr	r2, [pc, #76]	@ (80061a4 <HAL_RCC_ClockConfig+0x130>)
 8006158:	6921      	ldr	r1, [r4, #16]
 800615a:	6853      	ldr	r3, [r2, #4]
 800615c:	f423 5360 	bic.w	r3, r3, #14336	@ 0x3800
 8006160:	ea43 03c1 	orr.w	r3, r3, r1, lsl #3
 8006164:	6053      	str	r3, [r2, #4]
  SystemCoreClock = HAL_RCC_GetSysClockFreq() >> AHBPrescTable[(RCC->CFGR & RCC_CFGR_HPRE) >> RCC_CFGR_HPRE_Pos];
 8006166:	f7ff ff5d 	bl	8006024 <HAL_RCC_GetSysClockFreq>
 800616a:	4603      	mov	r3, r0
 800616c:	4a0d      	ldr	r2, [pc, #52]	@ (80061a4 <HAL_RCC_ClockConfig+0x130>)
 800616e:	490e      	ldr	r1, [pc, #56]	@ (80061a8 <HAL_RCC_ClockConfig+0x134>)
 8006170:	6852      	ldr	r2, [r2, #4]
  HAL_InitTick(uwTickPrio);
 8006172:	480e      	ldr	r0, [pc, #56]	@ (80061ac <HAL_RCC_ClockConfig+0x138>)
  SystemCoreClock = HAL_RCC_GetSysClockFreq() >> AHBPrescTable[(RCC->CFGR & RCC_CFGR_HPRE) >> RCC_CFGR_HPRE_Pos];
 8006174:	f3c2 1203 	ubfx	r2, r2, #4, #4
 8006178:	5c89      	ldrb	r1, [r1, r2]
 800617a:	4a0d      	ldr	r2, [pc, #52]	@ (80061b0 <HAL_RCC_ClockConfig+0x13c>)
 800617c:	40cb      	lsrs	r3, r1
  HAL_InitTick(uwTickPrio);
 800617e:	6800      	ldr	r0, [r0, #0]
  SystemCoreClock = HAL_RCC_GetSysClockFreq() >> AHBPrescTable[(RCC->CFGR & RCC_CFGR_HPRE) >> RCC_CFGR_HPRE_Pos];
 8006180:	6013      	str	r3, [r2, #0]
  HAL_InitTick(uwTickPrio);
 8006182:	f7fe fff1 	bl	8005168 <HAL_InitTick>
  return HAL_OK;
 8006186:	2000      	movs	r0, #0
}
 8006188:	e8bd 81f0 	ldmia.w	sp!, {r4, r5, r6, r7, r8, pc}
      if (__HAL_RCC_GET_FLAG(RCC_FLAG_PLLRDY) == RESET)
 800618c:	0198      	lsls	r0, r3, #6
 800618e:	d4ae      	bmi.n	80060ee <HAL_RCC_ClockConfig+0x7a>
 8006190:	e787      	b.n	80060a2 <HAL_RCC_ClockConfig+0x2e>
    return HAL_ERROR;
 8006192:	2001      	movs	r0, #1
}
 8006194:	4770      	bx	lr
      if (__HAL_RCC_GET_FLAG(RCC_FLAG_HSERDY) == RESET)
 8006196:	039e      	lsls	r6, r3, #14
 8006198:	d4a9      	bmi.n	80060ee <HAL_RCC_ClockConfig+0x7a>
 800619a:	e782      	b.n	80060a2 <HAL_RCC_ClockConfig+0x2e>
        return HAL_TIMEOUT;
 800619c:	2003      	movs	r0, #3
 800619e:	e781      	b.n	80060a4 <HAL_RCC_ClockConfig+0x30>
 80061a0:	40022000 	.word	0x40022000
 80061a4:	40021000 	.word	0x40021000
 80061a8:	0800a788 	.word	0x0800a788
 80061ac:	20000064 	.word	0x20000064
 80061b0:	20000014 	.word	0x20000014

080061b4 <HAL_RCC_GetPCLK2Freq>:
  return (HAL_RCC_GetHCLKFreq() >> APBPrescTable[(RCC->CFGR & RCC_CFGR_PPRE2) >> RCC_CFGR_PPRE2_Pos]);
 80061b4:	4b04      	ldr	r3, [pc, #16]	@ (80061c8 <HAL_RCC_GetPCLK2Freq+0x14>)
  return SystemCoreClock;
 80061b6:	4a05      	ldr	r2, [pc, #20]	@ (80061cc <HAL_RCC_GetPCLK2Freq+0x18>)
  return (HAL_RCC_GetHCLKFreq() >> APBPrescTable[(RCC->CFGR & RCC_CFGR_PPRE2) >> RCC_CFGR_PPRE2_Pos]);
 80061b8:	685b      	ldr	r3, [r3, #4]
 80061ba:	4905      	ldr	r1, [pc, #20]	@ (80061d0 <HAL_RCC_GetPCLK2Freq+0x1c>)
 80061bc:	f3c3 23c2 	ubfx	r3, r3, #11, #3
 80061c0:	5ccb      	ldrb	r3, [r1, r3]
 80061c2:	6810      	ldr	r0, [r2, #0]
}
 80061c4:	40d8      	lsrs	r0, r3
 80061c6:	4770      	bx	lr
 80061c8:	40021000 	.word	0x40021000
 80061cc:	20000014 	.word	0x20000014
 80061d0:	0800a780 	.word	0x0800a780

080061d4 <HAL_RCCEx_PeriphCLKConfig>:
  *         manually disable it.
  *
  * @retval HAL status
  */
HAL_StatusTypeDef HAL_RCCEx_PeriphCLKConfig(RCC_PeriphCLKInitTypeDef  *PeriphClkInit)
{
 80061d4:	e92d 41f0 	stmdb	sp!, {r4, r5, r6, r7, r8, lr}

  /* Check the parameters */
  assert_param(IS_RCC_PERIPHCLOCK(PeriphClkInit->PeriphClockSelection));

  /*------------------------------- RTC/LCD Configuration ------------------------*/
  if ((((PeriphClkInit->PeriphClockSelection) & RCC_PERIPHCLK_RTC) == RCC_PERIPHCLK_RTC))
 80061d8:	6803      	ldr	r3, [r0, #0]
{
 80061da:	4604      	mov	r4, r0
  if ((((PeriphClkInit->PeriphClockSelection) & RCC_PERIPHCLK_RTC) == RCC_PERIPHCLK_RTC))
 80061dc:	07d8      	lsls	r0, r3, #31
{
 80061de:	b082      	sub	sp, #8
  if ((((PeriphClkInit->PeriphClockSelection) & RCC_PERIPHCLK_RTC) == RCC_PERIPHCLK_RTC))
 80061e0:	d52c      	bpl.n	800623c <HAL_RCCEx_PeriphCLKConfig+0x68>
    assert_param(IS_RCC_RTCCLKSOURCE(PeriphClkInit->RTCClockSelection));

    /* As soon as function is called to change RTC clock source, activation of the
       power domain is done. */
    /* Requires to enable write access to Backup Domain of necessary */
    if (__HAL_RCC_PWR_IS_CLK_DISABLED())
 80061e2:	4b39      	ldr	r3, [pc, #228]	@ (80062c8 <HAL_RCCEx_PeriphCLKConfig+0xf4>)
 80061e4:	69da      	ldr	r2, [r3, #28]
 80061e6:	00d1      	lsls	r1, r2, #3
 80061e8:	d53f      	bpl.n	800626a <HAL_RCCEx_PeriphCLKConfig+0x96>
    {
      __HAL_RCC_PWR_CLK_ENABLE();
      pwrclkchanged = SET;
    }

    if (HAL_IS_BIT_CLR(PWR->CR, PWR_CR_DBP))
 80061ea:	4d38      	ldr	r5, [pc, #224]	@ (80062cc <HAL_RCCEx_PeriphCLKConfig+0xf8>)
    FlagStatus pwrclkchanged = RESET;
 80061ec:	2600      	movs	r6, #0
    if (HAL_IS_BIT_CLR(PWR->CR, PWR_CR_DBP))
 80061ee:	682b      	ldr	r3, [r5, #0]
 80061f0:	05da      	lsls	r2, r3, #23
 80061f2:	d548      	bpl.n	8006286 <HAL_RCCEx_PeriphCLKConfig+0xb2>
        }
      }
    }

    /* Reset the Backup domain only if the RTC Clock source selection is modified from reset value */
    temp_reg = (RCC->BDCR & RCC_BDCR_RTCSEL);
 80061f4:	4d34      	ldr	r5, [pc, #208]	@ (80062c8 <HAL_RCCEx_PeriphCLKConfig+0xf4>)
    if ((temp_reg != 0x00000000U) && (temp_reg != (PeriphClkInit->RTCClockSelection & RCC_BDCR_RTCSEL)))
 80061f6:	6861      	ldr	r1, [r4, #4]
    temp_reg = (RCC->BDCR & RCC_BDCR_RTCSEL);
 80061f8:	6a2b      	ldr	r3, [r5, #32]
    if ((temp_reg != 0x00000000U) && (temp_reg != (PeriphClkInit->RTCClockSelection & RCC_BDCR_RTCSEL)))
 80061fa:	f413 7340 	ands.w	r3, r3, #768	@ 0x300
 80061fe:	d011      	beq.n	8006224 <HAL_RCCEx_PeriphCLKConfig+0x50>
 8006200:	f401 7240 	and.w	r2, r1, #768	@ 0x300
 8006204:	429a      	cmp	r2, r3
 8006206:	d00d      	beq.n	8006224 <HAL_RCCEx_PeriphCLKConfig+0x50>
    {
      /* Store the content of BDCR register before the reset of Backup Domain */
      temp_reg = (RCC->BDCR & ~(RCC_BDCR_RTCSEL));
      /* RTC Clock selection can be changed only if the Backup Domain is reset */
      __HAL_RCC_BACKUPRESET_FORCE();
      __HAL_RCC_BACKUPRESET_RELEASE();
 8006208:	2000      	movs	r0, #0
      __HAL_RCC_BACKUPRESET_FORCE();
 800620a:	2701      	movs	r7, #1
      temp_reg = (RCC->BDCR & ~(RCC_BDCR_RTCSEL));
 800620c:	6a2b      	ldr	r3, [r5, #32]
      __HAL_RCC_BACKUPRESET_FORCE();
 800620e:	4a30      	ldr	r2, [pc, #192]	@ (80062d0 <HAL_RCCEx_PeriphCLKConfig+0xfc>)
      temp_reg = (RCC->BDCR & ~(RCC_BDCR_RTCSEL));
 8006210:	f423 7140 	bic.w	r1, r3, #768	@ 0x300
      __HAL_RCC_BACKUPRESET_FORCE();
 8006214:	f8c2 7440 	str.w	r7, [r2, #1088]	@ 0x440
      __HAL_RCC_BACKUPRESET_RELEASE();
 8006218:	f8c2 0440 	str.w	r0, [r2, #1088]	@ 0x440
      /* Restore the Content of BDCR register */
      RCC->BDCR = temp_reg;

      /* Wait for LSERDY if LSE was enabled */
      if (HAL_IS_BIT_SET(temp_reg, RCC_BDCR_LSEON))
 800621c:	07d8      	lsls	r0, r3, #31
      RCC->BDCR = temp_reg;
 800621e:	6229      	str	r1, [r5, #32]
      if (HAL_IS_BIT_SET(temp_reg, RCC_BDCR_LSEON))
 8006220:	d444      	bmi.n	80062ac <HAL_RCCEx_PeriphCLKConfig+0xd8>
            return HAL_TIMEOUT;
          }
        }
      }
    }
    __HAL_RCC_RTC_CONFIG(PeriphClkInit->RTCClockSelection);
 8006222:	6861      	ldr	r1, [r4, #4]
 8006224:	4a28      	ldr	r2, [pc, #160]	@ (80062c8 <HAL_RCCEx_PeriphCLKConfig+0xf4>)
 8006226:	6a13      	ldr	r3, [r2, #32]
 8006228:	f423 7340 	bic.w	r3, r3, #768	@ 0x300
 800622c:	430b      	orrs	r3, r1
 800622e:	6213      	str	r3, [r2, #32]

    /* Require to disable power clock if necessary */
    if (pwrclkchanged == SET)
 8006230:	b11e      	cbz	r6, 800623a <HAL_RCCEx_PeriphCLKConfig+0x66>
    {
      __HAL_RCC_PWR_CLK_DISABLE();
 8006232:	69d3      	ldr	r3, [r2, #28]
 8006234:	f023 5380 	bic.w	r3, r3, #268435456	@ 0x10000000
 8006238:	61d3      	str	r3, [r2, #28]
    }
  }

  /*------------------------------ ADC clock Configuration ------------------*/
  if (((PeriphClkInit->PeriphClockSelection) & RCC_PERIPHCLK_ADC) == RCC_PERIPHCLK_ADC)
 800623a:	6823      	ldr	r3, [r4, #0]
 800623c:	079a      	lsls	r2, r3, #30
 800623e:	d506      	bpl.n	800624e <HAL_RCCEx_PeriphCLKConfig+0x7a>
  {
    /* Check the parameters */
    assert_param(IS_RCC_ADCPLLCLK_DIV(PeriphClkInit->AdcClockSelection));

    /* Configure the ADC clock source */
    __HAL_RCC_ADC_CONFIG(PeriphClkInit->AdcClockSelection);
 8006240:	4921      	ldr	r1, [pc, #132]	@ (80062c8 <HAL_RCCEx_PeriphCLKConfig+0xf4>)
 8006242:	68a0      	ldr	r0, [r4, #8]
 8006244:	684a      	ldr	r2, [r1, #4]
 8006246:	f422 4240 	bic.w	r2, r2, #49152	@ 0xc000
 800624a:	4302      	orrs	r2, r0
 800624c:	604a      	str	r2, [r1, #4]

#if defined(STM32F102x6) || defined(STM32F102xB) || defined(STM32F103x6)\
 || defined(STM32F103xB) || defined(STM32F103xE) || defined(STM32F103xG)\
 || defined(STM32F105xC) || defined(STM32F107xC)
  /*------------------------------ USB clock Configuration ------------------*/
  if (((PeriphClkInit->PeriphClockSelection) & RCC_PERIPHCLK_USB) == RCC_PERIPHCLK_USB)
 800624e:	06db      	lsls	r3, r3, #27
 8006250:	d403      	bmi.n	800625a <HAL_RCCEx_PeriphCLKConfig+0x86>
    /* Configure the USB clock source */
    __HAL_RCC_USB_CONFIG(PeriphClkInit->UsbClockSelection);
  }
#endif /* STM32F102x6 || STM32F102xB || STM32F103x6 || STM32F103xB || STM32F103xE || STM32F103xG || STM32F105xC || STM32F107xC */

  return HAL_OK;
 8006252:	2000      	movs	r0, #0
}
 8006254:	b002      	add	sp, #8
 8006256:	e8bd 81f0 	ldmia.w	sp!, {r4, r5, r6, r7, r8, pc}
    __HAL_RCC_USB_CONFIG(PeriphClkInit->UsbClockSelection);
 800625a:	4a1b      	ldr	r2, [pc, #108]	@ (80062c8 <HAL_RCCEx_PeriphCLKConfig+0xf4>)
 800625c:	68e1      	ldr	r1, [r4, #12]
 800625e:	6853      	ldr	r3, [r2, #4]
 8006260:	f423 0380 	bic.w	r3, r3, #4194304	@ 0x400000
 8006264:	430b      	orrs	r3, r1
 8006266:	6053      	str	r3, [r2, #4]
 8006268:	e7f3      	b.n	8006252 <HAL_RCCEx_PeriphCLKConfig+0x7e>
      __HAL_RCC_PWR_CLK_ENABLE();
 800626a:	69da      	ldr	r2, [r3, #28]
    if (HAL_IS_BIT_CLR(PWR->CR, PWR_CR_DBP))
 800626c:	4d17      	ldr	r5, [pc, #92]	@ (80062cc <HAL_RCCEx_PeriphCLKConfig+0xf8>)
      __HAL_RCC_PWR_CLK_ENABLE();
 800626e:	f042 5280 	orr.w	r2, r2, #268435456	@ 0x10000000
 8006272:	61da      	str	r2, [r3, #28]
 8006274:	69db      	ldr	r3, [r3, #28]
      pwrclkchanged = SET;
 8006276:	2601      	movs	r6, #1
      __HAL_RCC_PWR_CLK_ENABLE();
 8006278:	f003 5380 	and.w	r3, r3, #268435456	@ 0x10000000
 800627c:	9301      	str	r3, [sp, #4]
 800627e:	9b01      	ldr	r3, [sp, #4]
    if (HAL_IS_BIT_CLR(PWR->CR, PWR_CR_DBP))
 8006280:	682b      	ldr	r3, [r5, #0]
 8006282:	05da      	lsls	r2, r3, #23
 8006284:	d4b6      	bmi.n	80061f4 <HAL_RCCEx_PeriphCLKConfig+0x20>
      SET_BIT(PWR->CR, PWR_CR_DBP);
 8006286:	682b      	ldr	r3, [r5, #0]
 8006288:	f443 7380 	orr.w	r3, r3, #256	@ 0x100
 800628c:	602b      	str	r3, [r5, #0]
      tickstart = HAL_GetTick();
 800628e:	f7fe ffa1 	bl	80051d4 <HAL_GetTick>
 8006292:	4607      	mov	r7, r0
      while (HAL_IS_BIT_CLR(PWR->CR, PWR_CR_DBP))
 8006294:	682b      	ldr	r3, [r5, #0]
 8006296:	05db      	lsls	r3, r3, #23
 8006298:	d4ac      	bmi.n	80061f4 <HAL_RCCEx_PeriphCLKConfig+0x20>
        if ((HAL_GetTick() - tickstart) > RCC_DBP_TIMEOUT_VALUE)
 800629a:	f7fe ff9b 	bl	80051d4 <HAL_GetTick>
 800629e:	1bc3      	subs	r3, r0, r7
 80062a0:	2b64      	cmp	r3, #100	@ 0x64
 80062a2:	d9f7      	bls.n	8006294 <HAL_RCCEx_PeriphCLKConfig+0xc0>
          return HAL_TIMEOUT;
 80062a4:	2003      	movs	r0, #3
}
 80062a6:	b002      	add	sp, #8
 80062a8:	e8bd 81f0 	ldmia.w	sp!, {r4, r5, r6, r7, r8, pc}
        tickstart = HAL_GetTick();
 80062ac:	f7fe ff92 	bl	80051d4 <HAL_GetTick>
          if ((HAL_GetTick() - tickstart) > RCC_LSE_TIMEOUT_VALUE)
 80062b0:	f241 3888 	movw	r8, #5000	@ 0x1388
        tickstart = HAL_GetTick();
 80062b4:	4607      	mov	r7, r0
        while (__HAL_RCC_GET_FLAG(RCC_FLAG_LSERDY) == RESET)
 80062b6:	6a2b      	ldr	r3, [r5, #32]
 80062b8:	0799      	lsls	r1, r3, #30
 80062ba:	d4b2      	bmi.n	8006222 <HAL_RCCEx_PeriphCLKConfig+0x4e>
          if ((HAL_GetTick() - tickstart) > RCC_LSE_TIMEOUT_VALUE)
 80062bc:	f7fe ff8a 	bl	80051d4 <HAL_GetTick>
 80062c0:	1bc0      	subs	r0, r0, r7
 80062c2:	4540      	cmp	r0, r8
 80062c4:	d9f7      	bls.n	80062b6 <HAL_RCCEx_PeriphCLKConfig+0xe2>
 80062c6:	e7ed      	b.n	80062a4 <HAL_RCCEx_PeriphCLKConfig+0xd0>
 80062c8:	40021000 	.word	0x40021000
 80062cc:	40007000 	.word	0x40007000
 80062d0:	42420000 	.word	0x42420000

080062d4 <HAL_RCCEx_GetPeriphCLKFreq>:
  uint32_t temp_reg = 0U, frequency = 0U;

  /* Check the parameters */
  assert_param(IS_RCC_PERIPHCLOCK(PeriphClk));

  switch (PeriphClk)
 80062d4:	2802      	cmp	r0, #2
{
 80062d6:	b508      	push	{r3, lr}
  switch (PeriphClk)
 80062d8:	d005      	beq.n	80062e6 <HAL_RCCEx_GetPeriphCLKFreq+0x12>
 80062da:	2810      	cmp	r0, #16
 80062dc:	d026      	beq.n	800632c <HAL_RCCEx_GetPeriphCLKFreq+0x58>
 80062de:	2801      	cmp	r0, #1
 80062e0:	d00c      	beq.n	80062fc <HAL_RCCEx_GetPeriphCLKFreq+0x28>
  uint32_t temp_reg = 0U, frequency = 0U;
 80062e2:	2000      	movs	r0, #0
    {
      break;
    }
  }
  return (frequency);
}
 80062e4:	bd08      	pop	{r3, pc}
      frequency = HAL_RCC_GetPCLK2Freq() / (((__HAL_RCC_GET_ADC_SOURCE() >> RCC_CFGR_ADCPRE_Pos) + 1) * 2);
 80062e6:	f7ff ff65 	bl	80061b4 <HAL_RCC_GetPCLK2Freq>
 80062ea:	4b28      	ldr	r3, [pc, #160]	@ (800638c <HAL_RCCEx_GetPeriphCLKFreq+0xb8>)
 80062ec:	685b      	ldr	r3, [r3, #4]
 80062ee:	f3c3 3381 	ubfx	r3, r3, #14, #2
 80062f2:	3301      	adds	r3, #1
 80062f4:	005b      	lsls	r3, r3, #1
 80062f6:	fbb0 f0f3 	udiv	r0, r0, r3
}
 80062fa:	bd08      	pop	{r3, pc}
      if (((temp_reg & RCC_BDCR_RTCSEL) == RCC_RTCCLKSOURCE_LSE) && (HAL_IS_BIT_SET(temp_reg, RCC_BDCR_LSERDY)))
 80062fc:	f240 3202 	movw	r2, #770	@ 0x302
      temp_reg = RCC->BDCR;
 8006300:	4922      	ldr	r1, [pc, #136]	@ (800638c <HAL_RCCEx_GetPeriphCLKFreq+0xb8>)
 8006302:	6a0b      	ldr	r3, [r1, #32]
      if (((temp_reg & RCC_BDCR_RTCSEL) == RCC_RTCCLKSOURCE_LSE) && (HAL_IS_BIT_SET(temp_reg, RCC_BDCR_LSERDY)))
 8006304:	401a      	ands	r2, r3
 8006306:	f5b2 7f81 	cmp.w	r2, #258	@ 0x102
 800630a:	d02f      	beq.n	800636c <HAL_RCCEx_GetPeriphCLKFreq+0x98>
      else if (((temp_reg & RCC_BDCR_RTCSEL) == RCC_RTCCLKSOURCE_LSI) && (HAL_IS_BIT_SET(RCC->CSR, RCC_CSR_LSIRDY)))
 800630c:	f403 7340 	and.w	r3, r3, #768	@ 0x300
 8006310:	f5b3 7f00 	cmp.w	r3, #512	@ 0x200
 8006314:	d02d      	beq.n	8006372 <HAL_RCCEx_GetPeriphCLKFreq+0x9e>
      else if (((temp_reg & RCC_BDCR_RTCSEL) == RCC_RTCCLKSOURCE_HSE_DIV128) && (HAL_IS_BIT_SET(RCC->CR, RCC_CR_HSERDY)))
 8006316:	f5b3 7f40 	cmp.w	r3, #768	@ 0x300
 800631a:	d1e2      	bne.n	80062e2 <HAL_RCCEx_GetPeriphCLKFreq+0xe>
        frequency = HSE_VALUE / 128U;
 800631c:	f24f 4324 	movw	r3, #62500	@ 0xf424
      else if (((temp_reg & RCC_BDCR_RTCSEL) == RCC_RTCCLKSOURCE_HSE_DIV128) && (HAL_IS_BIT_SET(RCC->CR, RCC_CR_HSERDY)))
 8006320:	6808      	ldr	r0, [r1, #0]
        frequency = HSE_VALUE / 128U;
 8006322:	f410 3000 	ands.w	r0, r0, #131072	@ 0x20000
 8006326:	bf18      	it	ne
 8006328:	4618      	movne	r0, r3
}
 800632a:	bd08      	pop	{r3, pc}
      temp_reg = RCC->CFGR;
 800632c:	4b17      	ldr	r3, [pc, #92]	@ (800638c <HAL_RCCEx_GetPeriphCLKFreq+0xb8>)
 800632e:	685a      	ldr	r2, [r3, #4]
      if (HAL_IS_BIT_SET(RCC->CR, RCC_CR_PLLON))
 8006330:	6818      	ldr	r0, [r3, #0]
 8006332:	f010 7080 	ands.w	r0, r0, #16777216	@ 0x1000000
 8006336:	d0d5      	beq.n	80062e4 <HAL_RCCEx_GetPeriphCLKFreq+0x10>
        pllmul = aPLLMULFactorTable[(uint32_t)(temp_reg & RCC_CFGR_PLLMULL) >> RCC_CFGR_PLLMULL_Pos];
 8006338:	4815      	ldr	r0, [pc, #84]	@ (8006390 <HAL_RCCEx_GetPeriphCLKFreq+0xbc>)
 800633a:	f3c2 4183 	ubfx	r1, r2, #18, #4
        if ((temp_reg & RCC_CFGR_PLLSRC) != RCC_PLLSOURCE_HSI_DIV2)
 800633e:	03d2      	lsls	r2, r2, #15
        pllmul = aPLLMULFactorTable[(uint32_t)(temp_reg & RCC_CFGR_PLLMULL) >> RCC_CFGR_PLLMULL_Pos];
 8006340:	5c40      	ldrb	r0, [r0, r1]
        if ((temp_reg & RCC_CFGR_PLLSRC) != RCC_PLLSOURCE_HSI_DIV2)
 8006342:	d51e      	bpl.n	8006382 <HAL_RCCEx_GetPeriphCLKFreq+0xae>
          prediv1 = aPredivFactorTable[(uint32_t)(RCC->CFGR & RCC_CFGR_PLLXTPRE) >> RCC_CFGR_PLLXTPRE_Pos];
 8006344:	685b      	ldr	r3, [r3, #4]
 8006346:	4a13      	ldr	r2, [pc, #76]	@ (8006394 <HAL_RCCEx_GetPeriphCLKFreq+0xc0>)
 8006348:	f3c3 4340 	ubfx	r3, r3, #17, #1
 800634c:	5cd2      	ldrb	r2, [r2, r3]
            pllclk = (uint32_t)((HSE_VALUE / prediv1) * pllmul);
 800634e:	4b12      	ldr	r3, [pc, #72]	@ (8006398 <HAL_RCCEx_GetPeriphCLKFreq+0xc4>)
 8006350:	fbb3 f3f2 	udiv	r3, r3, r2
 8006354:	fb03 f000 	mul.w	r0, r3, r0
        if (__HAL_RCC_GET_USB_SOURCE() == RCC_USBCLKSOURCE_PLL)
 8006358:	4b0c      	ldr	r3, [pc, #48]	@ (800638c <HAL_RCCEx_GetPeriphCLKFreq+0xb8>)
 800635a:	685b      	ldr	r3, [r3, #4]
 800635c:	025b      	lsls	r3, r3, #9
 800635e:	d4c1      	bmi.n	80062e4 <HAL_RCCEx_GetPeriphCLKFreq+0x10>
          frequency = (pllclk * 2) / 3;
 8006360:	4b0e      	ldr	r3, [pc, #56]	@ (800639c <HAL_RCCEx_GetPeriphCLKFreq+0xc8>)
 8006362:	0040      	lsls	r0, r0, #1
 8006364:	fba3 3000 	umull	r3, r0, r3, r0
 8006368:	0840      	lsrs	r0, r0, #1
}
 800636a:	bd08      	pop	{r3, pc}
        frequency = LSE_VALUE;
 800636c:	f44f 4000 	mov.w	r0, #32768	@ 0x8000
}
 8006370:	bd08      	pop	{r3, pc}
        frequency = LSI_VALUE;
 8006372:	f649 4340 	movw	r3, #40000	@ 0x9c40
      else if (((temp_reg & RCC_BDCR_RTCSEL) == RCC_RTCCLKSOURCE_LSI) && (HAL_IS_BIT_SET(RCC->CSR, RCC_CSR_LSIRDY)))
 8006376:	6a48      	ldr	r0, [r1, #36]	@ 0x24
        frequency = LSI_VALUE;
 8006378:	f010 0002 	ands.w	r0, r0, #2
 800637c:	bf18      	it	ne
 800637e:	4618      	movne	r0, r3
}
 8006380:	bd08      	pop	{r3, pc}
          pllclk = (uint32_t)((HSI_VALUE >> 1) * pllmul);
 8006382:	4b07      	ldr	r3, [pc, #28]	@ (80063a0 <HAL_RCCEx_GetPeriphCLKFreq+0xcc>)
 8006384:	fb03 f000 	mul.w	r0, r3, r0
 8006388:	e7e6      	b.n	8006358 <HAL_RCCEx_GetPeriphCLKFreq+0x84>
 800638a:	bf00      	nop
 800638c:	40021000 	.word	0x40021000
 8006390:	0800b954 	.word	0x0800b954
 8006394:	0800b950 	.word	0x0800b950
 8006398:	007a1200 	.word	0x007a1200
 800639c:	aaaaaaab 	.word	0xaaaaaaab
 80063a0:	003d0900 	.word	0x003d0900

080063a4 <HAL_RTC_Init>:
  */
HAL_StatusTypeDef HAL_RTC_Init(RTC_HandleTypeDef *hrtc)
{
  uint32_t prescaler = 0U;
  /* Check input parameters */
  if (hrtc == NULL)
 80063a4:	2800      	cmp	r0, #0
 80063a6:	d072      	beq.n	800648e <HAL_RTC_Init+0xea>
{
 80063a8:	b538      	push	{r3, r4, r5, lr}
    {
      hrtc->MspDeInitCallback = HAL_RTC_MspDeInit;
    }
  }
#else
  if (hrtc->State == HAL_RTC_STATE_RESET)
 80063aa:	7c43      	ldrb	r3, [r0, #17]
 80063ac:	4604      	mov	r4, r0
 80063ae:	f003 02ff 	and.w	r2, r3, #255	@ 0xff
 80063b2:	2b00      	cmp	r3, #0
 80063b4:	d05f      	beq.n	8006476 <HAL_RTC_Init+0xd2>
    HAL_RTC_MspInit(hrtc);
  }
#endif /* (USE_HAL_RTC_REGISTER_CALLBACKS) */

  /* Set RTC state */
  hrtc->State = HAL_RTC_STATE_BUSY;
 80063b6:	2302      	movs	r3, #2
  {
    return HAL_ERROR;
  }

  /* Clear RSF flag */
  CLEAR_BIT(hrtc->Instance->CRL, RTC_FLAG_RSF);
 80063b8:	6822      	ldr	r2, [r4, #0]
  hrtc->State = HAL_RTC_STATE_BUSY;
 80063ba:	7463      	strb	r3, [r4, #17]
  CLEAR_BIT(hrtc->Instance->CRL, RTC_FLAG_RSF);
 80063bc:	6853      	ldr	r3, [r2, #4]
 80063be:	f023 0308 	bic.w	r3, r3, #8
 80063c2:	6053      	str	r3, [r2, #4]

  tickstart = HAL_GetTick();
 80063c4:	f7fe ff06 	bl	80051d4 <HAL_GetTick>
 80063c8:	4605      	mov	r5, r0

  /* Wait the registers to be synchronised */
  while ((hrtc->Instance->CRL & RTC_FLAG_RSF) == (uint32_t)RESET)
 80063ca:	e005      	b.n	80063d8 <HAL_RTC_Init+0x34>
  {
    if ((HAL_GetTick() - tickstart) >  RTC_TIMEOUT_VALUE)
 80063cc:	f7fe ff02 	bl	80051d4 <HAL_GetTick>
 80063d0:	1b40      	subs	r0, r0, r5
 80063d2:	f5b0 7f7a 	cmp.w	r0, #1000	@ 0x3e8
 80063d6:	d84a      	bhi.n	800646e <HAL_RTC_Init+0xca>
  while ((hrtc->Instance->CRL & RTC_FLAG_RSF) == (uint32_t)RESET)
 80063d8:	6823      	ldr	r3, [r4, #0]
 80063da:	685b      	ldr	r3, [r3, #4]
 80063dc:	071b      	lsls	r3, r3, #28
 80063de:	d5f5      	bpl.n	80063cc <HAL_RTC_Init+0x28>
  */
static HAL_StatusTypeDef RTC_EnterInitMode(RTC_HandleTypeDef *hrtc)
{
  uint32_t tickstart = 0U;

  tickstart = HAL_GetTick();
 80063e0:	f7fe fef8 	bl	80051d4 <HAL_GetTick>
 80063e4:	4605      	mov	r5, r0
  /* Wait till RTC is in INIT state and if Time out is reached exit */
  while ((hrtc->Instance->CRL & RTC_CRL_RTOFF) == (uint32_t)RESET)
 80063e6:	e005      	b.n	80063f4 <HAL_RTC_Init+0x50>
  {
    if ((HAL_GetTick() - tickstart) >  RTC_TIMEOUT_VALUE)
 80063e8:	f7fe fef4 	bl	80051d4 <HAL_GetTick>
 80063ec:	1b40      	subs	r0, r0, r5
 80063ee:	f5b0 7f7a 	cmp.w	r0, #1000	@ 0x3e8
 80063f2:	d83c      	bhi.n	800646e <HAL_RTC_Init+0xca>
  while ((hrtc->Instance->CRL & RTC_CRL_RTOFF) == (uint32_t)RESET)
 80063f4:	6823      	ldr	r3, [r4, #0]
 80063f6:	685a      	ldr	r2, [r3, #4]
 80063f8:	0690      	lsls	r0, r2, #26
 80063fa:	d5f5      	bpl.n	80063e8 <HAL_RTC_Init+0x44>
      return HAL_TIMEOUT;
    }
  }

  /* Disable the write protection for RTC registers */
  __HAL_RTC_WRITEPROTECTION_DISABLE(hrtc);
 80063fc:	685a      	ldr	r2, [r3, #4]
    if (hrtc->Init.OutPut != RTC_OUTPUTSOURCE_NONE)
 80063fe:	68a0      	ldr	r0, [r4, #8]
  __HAL_RTC_WRITEPROTECTION_DISABLE(hrtc);
 8006400:	f042 0210 	orr.w	r2, r2, #16
 8006404:	605a      	str	r2, [r3, #4]
    CLEAR_BIT(hrtc->Instance->CRL, (RTC_FLAG_OW | RTC_FLAG_ALRAF | RTC_FLAG_SEC));
 8006406:	685a      	ldr	r2, [r3, #4]
 8006408:	f022 0207 	bic.w	r2, r2, #7
 800640c:	605a      	str	r2, [r3, #4]
    if (hrtc->Init.OutPut != RTC_OUTPUTSOURCE_NONE)
 800640e:	b120      	cbz	r0, 800641a <HAL_RTC_Init+0x76>
      CLEAR_BIT(BKP->CR, BKP_CR_TPE);
 8006410:	4920      	ldr	r1, [pc, #128]	@ (8006494 <HAL_RTC_Init+0xf0>)
 8006412:	6b0a      	ldr	r2, [r1, #48]	@ 0x30
 8006414:	f022 0201 	bic.w	r2, r2, #1
 8006418:	630a      	str	r2, [r1, #48]	@ 0x30
    MODIFY_REG(BKP->RTCCR, (BKP_RTCCR_CCO | BKP_RTCCR_ASOE | BKP_RTCCR_ASOS), hrtc->Init.OutPut);
 800641a:	491e      	ldr	r1, [pc, #120]	@ (8006494 <HAL_RTC_Init+0xf0>)
 800641c:	6aca      	ldr	r2, [r1, #44]	@ 0x2c
 800641e:	f422 7260 	bic.w	r2, r2, #896	@ 0x380
 8006422:	4302      	orrs	r2, r0
 8006424:	62ca      	str	r2, [r1, #44]	@ 0x2c
    if (hrtc->Init.AsynchPrediv != RTC_AUTO_1_SECOND)
 8006426:	6862      	ldr	r2, [r4, #4]
 8006428:	1c51      	adds	r1, r2, #1
 800642a:	d028      	beq.n	800647e <HAL_RTC_Init+0xda>
    WRITE_REG(hrtc->Instance->PRLH, ((prescaler >> 16U) & RTC_PRLH_PRL));
 800642c:	f3c2 4103 	ubfx	r1, r2, #16, #4
    WRITE_REG(hrtc->Instance->PRLL, (prescaler & RTC_PRLL_PRL));
 8006430:	b292      	uxth	r2, r2
    WRITE_REG(hrtc->Instance->PRLH, ((prescaler >> 16U) & RTC_PRLH_PRL));
 8006432:	6099      	str	r1, [r3, #8]
    WRITE_REG(hrtc->Instance->PRLL, (prescaler & RTC_PRLL_PRL));
 8006434:	60da      	str	r2, [r3, #12]
static HAL_StatusTypeDef RTC_ExitInitMode(RTC_HandleTypeDef *hrtc)
{
  uint32_t tickstart = 0U;

  /* Disable the write protection for RTC registers */
  __HAL_RTC_WRITEPROTECTION_ENABLE(hrtc);
 8006436:	685a      	ldr	r2, [r3, #4]
 8006438:	f022 0210 	bic.w	r2, r2, #16
 800643c:	605a      	str	r2, [r3, #4]

  tickstart = HAL_GetTick();
 800643e:	f7fe fec9 	bl	80051d4 <HAL_GetTick>
 8006442:	4605      	mov	r5, r0
  /* Wait till RTC is in INIT state and if Time out is reached exit */
  while ((hrtc->Instance->CRL & RTC_CRL_RTOFF) == (uint32_t)RESET)
 8006444:	e005      	b.n	8006452 <HAL_RTC_Init+0xae>
  {
    if ((HAL_GetTick() - tickstart) >  RTC_TIMEOUT_VALUE)
 8006446:	f7fe fec5 	bl	80051d4 <HAL_GetTick>
 800644a:	1b40      	subs	r0, r0, r5
 800644c:	f5b0 7f7a 	cmp.w	r0, #1000	@ 0x3e8
 8006450:	d80d      	bhi.n	800646e <HAL_RTC_Init+0xca>
  while ((hrtc->Instance->CRL & RTC_CRL_RTOFF) == (uint32_t)RESET)
 8006452:	6823      	ldr	r3, [r4, #0]
 8006454:	685b      	ldr	r3, [r3, #4]
 8006456:	069b      	lsls	r3, r3, #26
 8006458:	d5f5      	bpl.n	8006446 <HAL_RTC_Init+0xa2>
    hrtc->DateToUpdate.Year = 0x00U;
 800645a:	2300      	movs	r3, #0
    hrtc->DateToUpdate.Month = RTC_MONTH_JANUARY;
 800645c:	f240 1101 	movw	r1, #257	@ 0x101
    hrtc->State = HAL_RTC_STATE_READY;
 8006460:	2201      	movs	r2, #1
    hrtc->DateToUpdate.Year = 0x00U;
 8006462:	73e3      	strb	r3, [r4, #15]
    hrtc->DateToUpdate.Month = RTC_MONTH_JANUARY;
 8006464:	f8a4 100d 	strh.w	r1, [r4, #13]
    hrtc->State = HAL_RTC_STATE_READY;
 8006468:	7462      	strb	r2, [r4, #17]
    return HAL_OK;
 800646a:	4618      	mov	r0, r3
}
 800646c:	bd38      	pop	{r3, r4, r5, pc}
    hrtc->State = HAL_RTC_STATE_ERROR;
 800646e:	2304      	movs	r3, #4
 8006470:	7463      	strb	r3, [r4, #17]
    return HAL_ERROR;
 8006472:	2001      	movs	r0, #1
}
 8006474:	bd38      	pop	{r3, r4, r5, pc}
    hrtc->Lock = HAL_UNLOCKED;
 8006476:	7402      	strb	r2, [r0, #16]
    HAL_RTC_MspInit(hrtc);
 8006478:	f7fc fea8 	bl	80031cc <HAL_RTC_MspInit>
 800647c:	e79b      	b.n	80063b6 <HAL_RTC_Init+0x12>
      prescaler = HAL_RCCEx_GetPeriphCLKFreq(RCC_PERIPHCLK_RTC);
 800647e:	2001      	movs	r0, #1
 8006480:	f7ff ff28 	bl	80062d4 <HAL_RCCEx_GetPeriphCLKFreq>
      if (prescaler == 0U)
 8006484:	2800      	cmp	r0, #0
 8006486:	d0f2      	beq.n	800646e <HAL_RTC_Init+0xca>
    WRITE_REG(hrtc->Instance->PRLH, ((prescaler >> 16U) & RTC_PRLH_PRL));
 8006488:	6823      	ldr	r3, [r4, #0]
        prescaler = prescaler - 1U;
 800648a:	1e42      	subs	r2, r0, #1
 800648c:	e7ce      	b.n	800642c <HAL_RTC_Init+0x88>
    return HAL_ERROR;
 800648e:	2001      	movs	r0, #1
}
 8006490:	4770      	bx	lr
 8006492:	bf00      	nop
 8006494:	40006c00 	.word	0x40006c00

08006498 <HAL_RTCEx_BKUPWrite>:

  /* Check the parameters */
  assert_param(IS_RTC_BKP(BackupRegister));

  tmp = (uint32_t)BKP_BASE;
  tmp += (BackupRegister * 4U);
 8006498:	0089      	lsls	r1, r1, #2
 800649a:	f101 4180 	add.w	r1, r1, #1073741824	@ 0x40000000
 800649e:	f501 41d8 	add.w	r1, r1, #27648	@ 0x6c00

  *(__IO uint32_t *) tmp = (Data & BKP_DR1_D);
 80064a2:	b292      	uxth	r2, r2
 80064a4:	600a      	str	r2, [r1, #0]
}
 80064a6:	4770      	bx	lr

080064a8 <HAL_RTCEx_BKUPRead>:

  /* Check the parameters */
  assert_param(IS_RTC_BKP(BackupRegister));

  backupregister = (uint32_t)BKP_BASE;
  backupregister += (BackupRegister * 4U);
 80064a8:	0089      	lsls	r1, r1, #2
 80064aa:	f101 4180 	add.w	r1, r1, #1073741824	@ 0x40000000
 80064ae:	f501 41d8 	add.w	r1, r1, #27648	@ 0x6c00

  pvalue = (*(__IO uint32_t *)(backupregister)) & BKP_DR1_D;
 80064b2:	6808      	ldr	r0, [r1, #0]

  /* Read the specified register */
  return pvalue;
}
 80064b4:	b280      	uxth	r0, r0
 80064b6:	4770      	bx	lr

080064b8 <SPI_WaitFlagStateUntilTimeout>:
  * @param  Tickstart tick start value
  * @retval HAL status
  */
static HAL_StatusTypeDef SPI_WaitFlagStateUntilTimeout(SPI_HandleTypeDef *hspi, uint32_t Flag, FlagStatus State,
                                                       uint32_t Timeout, uint32_t Tickstart)
{
 80064b8:	e92d 47f0 	stmdb	sp!, {r4, r5, r6, r7, r8, r9, sl, lr}
 80064bc:	461d      	mov	r5, r3
 80064be:	b082      	sub	sp, #8
 80064c0:	460f      	mov	r7, r1
 80064c2:	4616      	mov	r6, r2
 80064c4:	9c0a      	ldr	r4, [sp, #40]	@ 0x28
 80064c6:	4680      	mov	r8, r0
  __IO uint32_t count;
  uint32_t tmp_timeout;
  uint32_t tmp_tickstart;

  /* Adjust Timeout value  in case of end of transfer */
  tmp_timeout   = Timeout - (HAL_GetTick() - Tickstart);
 80064c8:	f7fe fe84 	bl	80051d4 <HAL_GetTick>
 80064cc:	442c      	add	r4, r5
 80064ce:	eba4 0900 	sub.w	r9, r4, r0
  tmp_tickstart = HAL_GetTick();
 80064d2:	f7fe fe7f 	bl	80051d4 <HAL_GetTick>
 80064d6:	4682      	mov	sl, r0

  /* Calculate Timeout based on a software loop to avoid blocking issue if Systick is disabled */
  count = tmp_timeout * ((SystemCoreClock * 32U) >> 20U);
 80064d8:	4b28      	ldr	r3, [pc, #160]	@ (800657c <SPI_WaitFlagStateUntilTimeout+0xc4>)
 80064da:	681b      	ldr	r3, [r3, #0]
 80064dc:	f3c3 33cb 	ubfx	r3, r3, #15, #12
 80064e0:	fb09 f303 	mul.w	r3, r9, r3
 80064e4:	9301      	str	r3, [sp, #4]

  while ((__HAL_SPI_GET_FLAG(hspi, Flag) ? SET : RESET) != State)
 80064e6:	f8d8 3000 	ldr.w	r3, [r8]
 80064ea:	e001      	b.n	80064f0 <SPI_WaitFlagStateUntilTimeout+0x38>
  {
    if (Timeout != HAL_MAX_DELAY)
 80064ec:	1c6a      	adds	r2, r5, #1
 80064ee:	d10b      	bne.n	8006508 <SPI_WaitFlagStateUntilTimeout+0x50>
  while ((__HAL_SPI_GET_FLAG(hspi, Flag) ? SET : RESET) != State)
 80064f0:	689c      	ldr	r4, [r3, #8]
 80064f2:	ea37 0404 	bics.w	r4, r7, r4
 80064f6:	bf0c      	ite	eq
 80064f8:	2401      	moveq	r4, #1
 80064fa:	2400      	movne	r4, #0
 80064fc:	42b4      	cmp	r4, r6
 80064fe:	d1f5      	bne.n	80064ec <SPI_WaitFlagStateUntilTimeout+0x34>
      }
      count--;
    }
  }

  return HAL_OK;
 8006500:	2000      	movs	r0, #0
}
 8006502:	b002      	add	sp, #8
 8006504:	e8bd 87f0 	ldmia.w	sp!, {r4, r5, r6, r7, r8, r9, sl, pc}
      if (((HAL_GetTick() - tmp_tickstart) >= tmp_timeout) || (tmp_timeout == 0U))
 8006508:	f7fe fe64 	bl	80051d4 <HAL_GetTick>
 800650c:	eba0 000a 	sub.w	r0, r0, sl
 8006510:	4548      	cmp	r0, r9
 8006512:	d208      	bcs.n	8006526 <SPI_WaitFlagStateUntilTimeout+0x6e>
      if (count == 0U)
 8006514:	9b01      	ldr	r3, [sp, #4]
        tmp_timeout = 0U;
 8006516:	2b00      	cmp	r3, #0
      count--;
 8006518:	9b01      	ldr	r3, [sp, #4]
        tmp_timeout = 0U;
 800651a:	bf08      	it	eq
 800651c:	f04f 0900 	moveq.w	r9, #0
      count--;
 8006520:	3b01      	subs	r3, #1
 8006522:	9301      	str	r3, [sp, #4]
 8006524:	e7df      	b.n	80064e6 <SPI_WaitFlagStateUntilTimeout+0x2e>
        if ((hspi->Init.Mode == SPI_MODE_MASTER) && ((hspi->Init.Direction == SPI_DIRECTION_1LINE)
 8006526:	e9d8 3100 	ldrd	r3, r1, [r8]
        __HAL_SPI_DISABLE_IT(hspi, (SPI_IT_TXE | SPI_IT_RXNE | SPI_IT_ERR));
 800652a:	685a      	ldr	r2, [r3, #4]
        if ((hspi->Init.Mode == SPI_MODE_MASTER) && ((hspi->Init.Direction == SPI_DIRECTION_1LINE)
 800652c:	f5b1 7f82 	cmp.w	r1, #260	@ 0x104
        __HAL_SPI_DISABLE_IT(hspi, (SPI_IT_TXE | SPI_IT_RXNE | SPI_IT_ERR));
 8006530:	f022 02e0 	bic.w	r2, r2, #224	@ 0xe0
 8006534:	605a      	str	r2, [r3, #4]
        if ((hspi->Init.Mode == SPI_MODE_MASTER) && ((hspi->Init.Direction == SPI_DIRECTION_1LINE)
 8006536:	d014      	beq.n	8006562 <SPI_WaitFlagStateUntilTimeout+0xaa>
        if (hspi->Init.CRCCalculation == SPI_CRCCALCULATION_ENABLE)
 8006538:	f8d8 2028 	ldr.w	r2, [r8, #40]	@ 0x28
 800653c:	f5b2 5f00 	cmp.w	r2, #8192	@ 0x2000
 8006540:	d107      	bne.n	8006552 <SPI_WaitFlagStateUntilTimeout+0x9a>
          SPI_RESET_CRC(hspi);
 8006542:	681a      	ldr	r2, [r3, #0]
 8006544:	f422 5200 	bic.w	r2, r2, #8192	@ 0x2000
 8006548:	601a      	str	r2, [r3, #0]
 800654a:	681a      	ldr	r2, [r3, #0]
 800654c:	f442 5200 	orr.w	r2, r2, #8192	@ 0x2000
 8006550:	601a      	str	r2, [r3, #0]
        hspi->State = HAL_SPI_STATE_READY;
 8006552:	2201      	movs	r2, #1
        __HAL_UNLOCK(hspi);
 8006554:	2300      	movs	r3, #0
        return HAL_TIMEOUT;
 8006556:	2003      	movs	r0, #3
        hspi->State = HAL_SPI_STATE_READY;
 8006558:	f888 2051 	strb.w	r2, [r8, #81]	@ 0x51
        __HAL_UNLOCK(hspi);
 800655c:	f888 3050 	strb.w	r3, [r8, #80]	@ 0x50
        return HAL_TIMEOUT;
 8006560:	e7cf      	b.n	8006502 <SPI_WaitFlagStateUntilTimeout+0x4a>
        if ((hspi->Init.Mode == SPI_MODE_MASTER) && ((hspi->Init.Direction == SPI_DIRECTION_1LINE)
 8006562:	f8d8 2008 	ldr.w	r2, [r8, #8]
 8006566:	f5b2 4f00 	cmp.w	r2, #32768	@ 0x8000
 800656a:	d002      	beq.n	8006572 <SPI_WaitFlagStateUntilTimeout+0xba>
                                                     || (hspi->Init.Direction == SPI_DIRECTION_2LINES_RXONLY)))
 800656c:	f5b2 6f80 	cmp.w	r2, #1024	@ 0x400
 8006570:	d1e2      	bne.n	8006538 <SPI_WaitFlagStateUntilTimeout+0x80>
          __HAL_SPI_DISABLE(hspi);
 8006572:	681a      	ldr	r2, [r3, #0]
 8006574:	f022 0240 	bic.w	r2, r2, #64	@ 0x40
 8006578:	601a      	str	r2, [r3, #0]
 800657a:	e7dd      	b.n	8006538 <SPI_WaitFlagStateUntilTimeout+0x80>
 800657c:	20000014 	.word	0x20000014

08006580 <SPI_EndRxTxTransaction>:
  * @param  Timeout Timeout duration
  * @param  Tickstart tick start value
  * @retval HAL status
  */
static HAL_StatusTypeDef SPI_EndRxTxTransaction(SPI_HandleTypeDef *hspi, uint32_t Timeout, uint32_t Tickstart)
{
 8006580:	b570      	push	{r4, r5, r6, lr}
 8006582:	460d      	mov	r5, r1
 8006584:	4614      	mov	r4, r2
 8006586:	b082      	sub	sp, #8
  /* Wait until TXE flag */
  if (SPI_WaitFlagStateUntilTimeout(hspi, SPI_FLAG_TXE, SET, Timeout, Tickstart) != HAL_OK)
 8006588:	2201      	movs	r2, #1
 800658a:	2102      	movs	r1, #2
 800658c:	462b      	mov	r3, r5
 800658e:	9400      	str	r4, [sp, #0]
{
 8006590:	4606      	mov	r6, r0
  if (SPI_WaitFlagStateUntilTimeout(hspi, SPI_FLAG_TXE, SET, Timeout, Tickstart) != HAL_OK)
 8006592:	f7ff ff91 	bl	80064b8 <SPI_WaitFlagStateUntilTimeout>
 8006596:	b948      	cbnz	r0, 80065ac <SPI_EndRxTxTransaction+0x2c>
    SET_BIT(hspi->ErrorCode, HAL_SPI_ERROR_FLAG);
    return HAL_TIMEOUT;
  }

  /* Control the BSY flag */
  if (SPI_WaitFlagStateUntilTimeout(hspi, SPI_FLAG_BSY, RESET, Timeout, Tickstart) != HAL_OK)
 8006598:	4602      	mov	r2, r0
 800659a:	462b      	mov	r3, r5
 800659c:	2180      	movs	r1, #128	@ 0x80
 800659e:	4630      	mov	r0, r6
 80065a0:	9400      	str	r4, [sp, #0]
 80065a2:	f7ff ff89 	bl	80064b8 <SPI_WaitFlagStateUntilTimeout>
 80065a6:	b908      	cbnz	r0, 80065ac <SPI_EndRxTxTransaction+0x2c>
  {
    SET_BIT(hspi->ErrorCode, HAL_SPI_ERROR_FLAG);
    return HAL_TIMEOUT;
  }
  return HAL_OK;
}
 80065a8:	b002      	add	sp, #8
 80065aa:	bd70      	pop	{r4, r5, r6, pc}
    return HAL_TIMEOUT;
 80065ac:	2003      	movs	r0, #3
    SET_BIT(hspi->ErrorCode, HAL_SPI_ERROR_FLAG);
 80065ae:	6d73      	ldr	r3, [r6, #84]	@ 0x54
 80065b0:	f043 0320 	orr.w	r3, r3, #32
 80065b4:	6573      	str	r3, [r6, #84]	@ 0x54
}
 80065b6:	b002      	add	sp, #8
 80065b8:	bd70      	pop	{r4, r5, r6, pc}
 80065ba:	bf00      	nop

080065bc <HAL_SPI_Init>:
  if (hspi == NULL)
 80065bc:	2800      	cmp	r0, #0
 80065be:	d058      	beq.n	8006672 <HAL_SPI_Init+0xb6>
{
 80065c0:	b5f8      	push	{r3, r4, r5, r6, r7, lr}
  if (hspi->Init.TIMode == SPI_TIMODE_DISABLE)
 80065c2:	6a43      	ldr	r3, [r0, #36]	@ 0x24
 80065c4:	4604      	mov	r4, r0
 80065c6:	2b00      	cmp	r3, #0
 80065c8:	d044      	beq.n	8006654 <HAL_SPI_Init+0x98>
    hspi->Init.CLKPolarity = SPI_POLARITY_LOW;
 80065ca:	2300      	movs	r3, #0
 80065cc:	e9c0 3304 	strd	r3, r3, [r0, #16]
  hspi->Init.CRCCalculation = SPI_CRCCALCULATION_DISABLE;
 80065d0:	2000      	movs	r0, #0
  if (hspi->State == HAL_SPI_STATE_RESET)
 80065d2:	f894 3051 	ldrb.w	r3, [r4, #81]	@ 0x51
  hspi->Init.CRCCalculation = SPI_CRCCALCULATION_DISABLE;
 80065d6:	62a0      	str	r0, [r4, #40]	@ 0x28
  if (hspi->State == HAL_SPI_STATE_RESET)
 80065d8:	f003 02ff 	and.w	r2, r3, #255	@ 0xff
 80065dc:	2b00      	cmp	r3, #0
 80065de:	d03f      	beq.n	8006660 <HAL_SPI_Init+0xa4>
  WRITE_REG(hspi->Instance->CR1, ((hspi->Init.Mode & (SPI_CR1_MSTR | SPI_CR1_SSI)) |
 80065e0:	e9d4 3201 	ldrd	r3, r2, [r4, #4]
  hspi->State = HAL_SPI_STATE_BUSY;
 80065e4:	2602      	movs	r6, #2
  hspi->State     = HAL_SPI_STATE_READY;
 80065e6:	f04f 0c01 	mov.w	ip, #1
  hspi->ErrorCode = HAL_SPI_ERROR_NONE;
 80065ea:	2500      	movs	r5, #0
  WRITE_REG(hspi->Instance->CR1, ((hspi->Init.Mode & (SPI_CR1_MSTR | SPI_CR1_SSI)) |
 80065ec:	f402 4204 	and.w	r2, r2, #33792	@ 0x8400
 80065f0:	f403 7382 	and.w	r3, r3, #260	@ 0x104
 80065f4:	4313      	orrs	r3, r2
 80065f6:	68e2      	ldr	r2, [r4, #12]
  hspi->State = HAL_SPI_STATE_BUSY;
 80065f8:	f884 6051 	strb.w	r6, [r4, #81]	@ 0x51
  WRITE_REG(hspi->Instance->CR1, ((hspi->Init.Mode & (SPI_CR1_MSTR | SPI_CR1_SSI)) |
 80065fc:	6926      	ldr	r6, [r4, #16]
 80065fe:	f402 6200 	and.w	r2, r2, #2048	@ 0x800
 8006602:	4313      	orrs	r3, r2
 8006604:	f006 0602 	and.w	r6, r6, #2
 8006608:	4333      	orrs	r3, r6
 800660a:	6966      	ldr	r6, [r4, #20]
 800660c:	69a1      	ldr	r1, [r4, #24]
 800660e:	6a27      	ldr	r7, [r4, #32]
 8006610:	ea06 060c 	and.w	r6, r6, ip
 8006614:	4333      	orrs	r3, r6
 8006616:	69e6      	ldr	r6, [r4, #28]
 8006618:	f007 0e80 	and.w	lr, r7, #128	@ 0x80
 800661c:	f401 7700 	and.w	r7, r1, #512	@ 0x200
 8006620:	f006 0638 	and.w	r6, r6, #56	@ 0x38
 8006624:	433b      	orrs	r3, r7
  __HAL_SPI_DISABLE(hspi);
 8006626:	6822      	ldr	r2, [r4, #0]
  WRITE_REG(hspi->Instance->CR1, ((hspi->Init.Mode & (SPI_CR1_MSTR | SPI_CR1_SSI)) |
 8006628:	4333      	orrs	r3, r6
 800662a:	ea43 030e 	orr.w	r3, r3, lr
 800662e:	4303      	orrs	r3, r0
  __HAL_SPI_DISABLE(hspi);
 8006630:	6810      	ldr	r0, [r2, #0]
  WRITE_REG(hspi->Instance->CR2, ((hspi->Init.NSS >> 16U) & SPI_CR2_SSOE));
 8006632:	0c09      	lsrs	r1, r1, #16
 8006634:	f001 0104 	and.w	r1, r1, #4
  __HAL_SPI_DISABLE(hspi);
 8006638:	f020 0040 	bic.w	r0, r0, #64	@ 0x40
 800663c:	6010      	str	r0, [r2, #0]
  WRITE_REG(hspi->Instance->CR1, ((hspi->Init.Mode & (SPI_CR1_MSTR | SPI_CR1_SSI)) |
 800663e:	6013      	str	r3, [r2, #0]
  WRITE_REG(hspi->Instance->CR2, ((hspi->Init.NSS >> 16U) & SPI_CR2_SSOE));
 8006640:	6051      	str	r1, [r2, #4]
  CLEAR_BIT(hspi->Instance->I2SCFGR, SPI_I2SCFGR_I2SMOD);
 8006642:	69d3      	ldr	r3, [r2, #28]
  return HAL_OK;
 8006644:	4628      	mov	r0, r5
  CLEAR_BIT(hspi->Instance->I2SCFGR, SPI_I2SCFGR_I2SMOD);
 8006646:	f423 6300 	bic.w	r3, r3, #2048	@ 0x800
 800664a:	61d3      	str	r3, [r2, #28]
  hspi->ErrorCode = HAL_SPI_ERROR_NONE;
 800664c:	6565      	str	r5, [r4, #84]	@ 0x54
  hspi->State     = HAL_SPI_STATE_READY;
 800664e:	f884 c051 	strb.w	ip, [r4, #81]	@ 0x51
}
 8006652:	bdf8      	pop	{r3, r4, r5, r6, r7, pc}
    if (hspi->Init.Mode == SPI_MODE_MASTER)
 8006654:	6842      	ldr	r2, [r0, #4]
 8006656:	f5b2 7f82 	cmp.w	r2, #260	@ 0x104
 800665a:	d0b9      	beq.n	80065d0 <HAL_SPI_Init+0x14>
      hspi->Init.BaudRatePrescaler = SPI_BAUDRATEPRESCALER_2;
 800665c:	61c3      	str	r3, [r0, #28]
 800665e:	e7b7      	b.n	80065d0 <HAL_SPI_Init+0x14>
    HAL_SPI_MspInit(hspi);
 8006660:	4620      	mov	r0, r4
    hspi->Lock = HAL_UNLOCKED;
 8006662:	f884 2050 	strb.w	r2, [r4, #80]	@ 0x50
    HAL_SPI_MspInit(hspi);
 8006666:	f7fc fdd1 	bl	800320c <HAL_SPI_MspInit>
  WRITE_REG(hspi->Instance->CR1, ((hspi->Init.Mode & (SPI_CR1_MSTR | SPI_CR1_SSI)) |
 800666a:	6aa0      	ldr	r0, [r4, #40]	@ 0x28
 800666c:	f400 5000 	and.w	r0, r0, #8192	@ 0x2000
 8006670:	e7b6      	b.n	80065e0 <HAL_SPI_Init+0x24>
    return HAL_ERROR;
 8006672:	2001      	movs	r0, #1
}
 8006674:	4770      	bx	lr
 8006676:	bf00      	nop

08006678 <HAL_SPI_Transmit>:
{
 8006678:	e92d 41f0 	stmdb	sp!, {r4, r5, r6, r7, r8, lr}
 800667c:	4604      	mov	r4, r0
 800667e:	b082      	sub	sp, #8
 8006680:	461d      	mov	r5, r3
 8006682:	460f      	mov	r7, r1
 8006684:	4690      	mov	r8, r2
  tickstart = HAL_GetTick();
 8006686:	f7fe fda5 	bl	80051d4 <HAL_GetTick>
  if (hspi->State != HAL_SPI_STATE_READY)
 800668a:	f894 3051 	ldrb.w	r3, [r4, #81]	@ 0x51
 800668e:	2b01      	cmp	r3, #1
 8006690:	d166      	bne.n	8006760 <HAL_SPI_Transmit+0xe8>
  if ((pData == NULL) || (Size == 0U))
 8006692:	4606      	mov	r6, r0
 8006694:	b2d8      	uxtb	r0, r3
 8006696:	2f00      	cmp	r7, #0
 8006698:	d05f      	beq.n	800675a <HAL_SPI_Transmit+0xe2>
 800669a:	f1b8 0f00 	cmp.w	r8, #0
 800669e:	d05c      	beq.n	800675a <HAL_SPI_Transmit+0xe2>
  __HAL_LOCK(hspi);
 80066a0:	f894 3050 	ldrb.w	r3, [r4, #80]	@ 0x50
 80066a4:	2b01      	cmp	r3, #1
 80066a6:	d05b      	beq.n	8006760 <HAL_SPI_Transmit+0xe8>
  hspi->State       = HAL_SPI_STATE_BUSY_TX;
 80066a8:	2203      	movs	r2, #3
  hspi->ErrorCode   = HAL_SPI_ERROR_NONE;
 80066aa:	2300      	movs	r3, #0
  hspi->State       = HAL_SPI_STATE_BUSY_TX;
 80066ac:	f884 2051 	strb.w	r2, [r4, #81]	@ 0x51
  if (hspi->Init.Direction == SPI_DIRECTION_1LINE)
 80066b0:	68a2      	ldr	r2, [r4, #8]
  hspi->ErrorCode   = HAL_SPI_ERROR_NONE;
 80066b2:	6563      	str	r3, [r4, #84]	@ 0x54
  if (hspi->Init.Direction == SPI_DIRECTION_1LINE)
 80066b4:	f5b2 4f00 	cmp.w	r2, #32768	@ 0x8000
  hspi->pRxBuffPtr  = (uint8_t *)NULL;
 80066b8:	63a3      	str	r3, [r4, #56]	@ 0x38
  hspi->RxXferSize  = 0U;
 80066ba:	87a3      	strh	r3, [r4, #60]	@ 0x3c
  hspi->TxXferCount = Size;
 80066bc:	f8a4 8036 	strh.w	r8, [r4, #54]	@ 0x36
  hspi->RxISR       = NULL;
 80066c0:	6423      	str	r3, [r4, #64]	@ 0x40
  hspi->RxXferCount = 0U;
 80066c2:	87e3      	strh	r3, [r4, #62]	@ 0x3e
  hspi->RxISR       = NULL;
 80066c4:	6463      	str	r3, [r4, #68]	@ 0x44
  __HAL_LOCK(hspi);
 80066c6:	f884 0050 	strb.w	r0, [r4, #80]	@ 0x50
    __HAL_SPI_DISABLE(hspi);
 80066ca:	6823      	ldr	r3, [r4, #0]
  hspi->pTxBuffPtr  = (const uint8_t *)pData;
 80066cc:	6327      	str	r7, [r4, #48]	@ 0x30
  hspi->TxXferSize  = Size;
 80066ce:	f8a4 8034 	strh.w	r8, [r4, #52]	@ 0x34
  if (hspi->Init.Direction == SPI_DIRECTION_1LINE)
 80066d2:	d107      	bne.n	80066e4 <HAL_SPI_Transmit+0x6c>
    __HAL_SPI_DISABLE(hspi);
 80066d4:	681a      	ldr	r2, [r3, #0]
 80066d6:	f022 0240 	bic.w	r2, r2, #64	@ 0x40
 80066da:	601a      	str	r2, [r3, #0]
    SPI_1LINE_TX(hspi);
 80066dc:	681a      	ldr	r2, [r3, #0]
 80066de:	f442 4280 	orr.w	r2, r2, #16384	@ 0x4000
 80066e2:	601a      	str	r2, [r3, #0]
  if ((hspi->Instance->CR1 & SPI_CR1_SPE) != SPI_CR1_SPE)
 80066e4:	681a      	ldr	r2, [r3, #0]
 80066e6:	0652      	lsls	r2, r2, #25
 80066e8:	d53e      	bpl.n	8006768 <HAL_SPI_Transmit+0xf0>
  if (hspi->Init.DataSize == SPI_DATASIZE_16BIT)
 80066ea:	68e2      	ldr	r2, [r4, #12]
    if ((hspi->Init.Mode == SPI_MODE_SLAVE) || (initial_TxXferCount == 0x01U))
 80066ec:	6861      	ldr	r1, [r4, #4]
  if (hspi->Init.DataSize == SPI_DATASIZE_16BIT)
 80066ee:	f5b2 6f00 	cmp.w	r2, #2048	@ 0x800
 80066f2:	d042      	beq.n	800677a <HAL_SPI_Transmit+0x102>
    if ((hspi->Init.Mode == SPI_MODE_SLAVE) || (initial_TxXferCount == 0x01U))
 80066f4:	2900      	cmp	r1, #0
 80066f6:	d161      	bne.n	80067bc <HAL_SPI_Transmit+0x144>
      *((__IO uint8_t *)&hspi->Instance->DR) = *((const uint8_t *)hspi->pTxBuffPtr);
 80066f8:	783a      	ldrb	r2, [r7, #0]
 80066fa:	731a      	strb	r2, [r3, #12]
      hspi->TxXferCount--;
 80066fc:	8ee3      	ldrh	r3, [r4, #54]	@ 0x36
      hspi->pTxBuffPtr += sizeof(uint8_t);
 80066fe:	6b22      	ldr	r2, [r4, #48]	@ 0x30
      hspi->TxXferCount--;
 8006700:	3b01      	subs	r3, #1
      hspi->pTxBuffPtr += sizeof(uint8_t);
 8006702:	3201      	adds	r2, #1
      hspi->TxXferCount--;
 8006704:	b29b      	uxth	r3, r3
      hspi->pTxBuffPtr += sizeof(uint8_t);
 8006706:	6322      	str	r2, [r4, #48]	@ 0x30
      hspi->TxXferCount--;
 8006708:	86e3      	strh	r3, [r4, #54]	@ 0x36
    while (hspi->TxXferCount > 0U)
 800670a:	8ee3      	ldrh	r3, [r4, #54]	@ 0x36
 800670c:	b29b      	uxth	r3, r3
 800670e:	b993      	cbnz	r3, 8006736 <HAL_SPI_Transmit+0xbe>
 8006710:	e058      	b.n	80067c4 <HAL_SPI_Transmit+0x14c>
        *((__IO uint8_t *)&hspi->Instance->DR) = *((const uint8_t *)hspi->pTxBuffPtr);
 8006712:	6b22      	ldr	r2, [r4, #48]	@ 0x30
 8006714:	7812      	ldrb	r2, [r2, #0]
 8006716:	731a      	strb	r2, [r3, #12]
        hspi->TxXferCount--;
 8006718:	f8b4 c036 	ldrh.w	ip, [r4, #54]	@ 0x36
        hspi->pTxBuffPtr += sizeof(uint8_t);
 800671c:	6b23      	ldr	r3, [r4, #48]	@ 0x30
        hspi->TxXferCount--;
 800671e:	f10c 3cff 	add.w	ip, ip, #4294967295
        hspi->pTxBuffPtr += sizeof(uint8_t);
 8006722:	3301      	adds	r3, #1
        hspi->TxXferCount--;
 8006724:	fa1f fc8c 	uxth.w	ip, ip
        hspi->pTxBuffPtr += sizeof(uint8_t);
 8006728:	6323      	str	r3, [r4, #48]	@ 0x30
        hspi->TxXferCount--;
 800672a:	f8a4 c036 	strh.w	ip, [r4, #54]	@ 0x36
    while (hspi->TxXferCount > 0U)
 800672e:	8ee1      	ldrh	r1, [r4, #54]	@ 0x36
 8006730:	b289      	uxth	r1, r1
 8006732:	2900      	cmp	r1, #0
 8006734:	d046      	beq.n	80067c4 <HAL_SPI_Transmit+0x14c>
      if (__HAL_SPI_GET_FLAG(hspi, SPI_FLAG_TXE))
 8006736:	6823      	ldr	r3, [r4, #0]
 8006738:	689a      	ldr	r2, [r3, #8]
 800673a:	0792      	lsls	r2, r2, #30
 800673c:	d4e9      	bmi.n	8006712 <HAL_SPI_Transmit+0x9a>
        if ((((HAL_GetTick() - tickstart) >=  Timeout) && (Timeout != HAL_MAX_DELAY)) || (Timeout == 0U))
 800673e:	f7fe fd49 	bl	80051d4 <HAL_GetTick>
 8006742:	1b80      	subs	r0, r0, r6
 8006744:	42a8      	cmp	r0, r5
 8006746:	d3f2      	bcc.n	800672e <HAL_SPI_Transmit+0xb6>
 8006748:	1c6b      	adds	r3, r5, #1
 800674a:	d0f0      	beq.n	800672e <HAL_SPI_Transmit+0xb6>
          hspi->State = HAL_SPI_STATE_READY;
 800674c:	2301      	movs	r3, #1
 800674e:	f884 3051 	strb.w	r3, [r4, #81]	@ 0x51
          __HAL_UNLOCK(hspi);
 8006752:	2300      	movs	r3, #0
          return HAL_TIMEOUT;
 8006754:	2003      	movs	r0, #3
          __HAL_UNLOCK(hspi);
 8006756:	f884 3050 	strb.w	r3, [r4, #80]	@ 0x50
}
 800675a:	b002      	add	sp, #8
 800675c:	e8bd 81f0 	ldmia.w	sp!, {r4, r5, r6, r7, r8, pc}
    return HAL_BUSY;
 8006760:	2002      	movs	r0, #2
}
 8006762:	b002      	add	sp, #8
 8006764:	e8bd 81f0 	ldmia.w	sp!, {r4, r5, r6, r7, r8, pc}
    __HAL_SPI_ENABLE(hspi);
 8006768:	681a      	ldr	r2, [r3, #0]
    if ((hspi->Init.Mode == SPI_MODE_SLAVE) || (initial_TxXferCount == 0x01U))
 800676a:	6861      	ldr	r1, [r4, #4]
    __HAL_SPI_ENABLE(hspi);
 800676c:	f042 0240 	orr.w	r2, r2, #64	@ 0x40
 8006770:	601a      	str	r2, [r3, #0]
  if (hspi->Init.DataSize == SPI_DATASIZE_16BIT)
 8006772:	68e2      	ldr	r2, [r4, #12]
 8006774:	f5b2 6f00 	cmp.w	r2, #2048	@ 0x800
 8006778:	d1bc      	bne.n	80066f4 <HAL_SPI_Transmit+0x7c>
    if ((hspi->Init.Mode == SPI_MODE_SLAVE) || (initial_TxXferCount == 0x01U))
 800677a:	2900      	cmp	r1, #0
 800677c:	d040      	beq.n	8006800 <HAL_SPI_Transmit+0x188>
 800677e:	f1b8 0f01 	cmp.w	r8, #1
 8006782:	d03d      	beq.n	8006800 <HAL_SPI_Transmit+0x188>
    while (hspi->TxXferCount > 0U)
 8006784:	8ee2      	ldrh	r2, [r4, #54]	@ 0x36
 8006786:	b292      	uxth	r2, r2
 8006788:	b96a      	cbnz	r2, 80067a6 <HAL_SPI_Transmit+0x12e>
 800678a:	e01b      	b.n	80067c4 <HAL_SPI_Transmit+0x14c>
        hspi->Instance->DR = *((const uint16_t *)hspi->pTxBuffPtr);
 800678c:	6b22      	ldr	r2, [r4, #48]	@ 0x30
 800678e:	f832 1b02 	ldrh.w	r1, [r2], #2
 8006792:	60d9      	str	r1, [r3, #12]
        hspi->TxXferCount--;
 8006794:	8ee3      	ldrh	r3, [r4, #54]	@ 0x36
        hspi->pTxBuffPtr += sizeof(uint16_t);
 8006796:	6322      	str	r2, [r4, #48]	@ 0x30
        hspi->TxXferCount--;
 8006798:	3b01      	subs	r3, #1
 800679a:	b29b      	uxth	r3, r3
 800679c:	86e3      	strh	r3, [r4, #54]	@ 0x36
    while (hspi->TxXferCount > 0U)
 800679e:	8ee3      	ldrh	r3, [r4, #54]	@ 0x36
 80067a0:	b29b      	uxth	r3, r3
 80067a2:	b17b      	cbz	r3, 80067c4 <HAL_SPI_Transmit+0x14c>
      if (__HAL_SPI_GET_FLAG(hspi, SPI_FLAG_TXE))
 80067a4:	6823      	ldr	r3, [r4, #0]
 80067a6:	689a      	ldr	r2, [r3, #8]
 80067a8:	0790      	lsls	r0, r2, #30
 80067aa:	d4ef      	bmi.n	800678c <HAL_SPI_Transmit+0x114>
        if ((((HAL_GetTick() - tickstart) >=  Timeout) && (Timeout != HAL_MAX_DELAY)) || (Timeout == 0U))
 80067ac:	f7fe fd12 	bl	80051d4 <HAL_GetTick>
 80067b0:	1b80      	subs	r0, r0, r6
 80067b2:	42a8      	cmp	r0, r5
 80067b4:	d3f3      	bcc.n	800679e <HAL_SPI_Transmit+0x126>
 80067b6:	1c69      	adds	r1, r5, #1
 80067b8:	d0f1      	beq.n	800679e <HAL_SPI_Transmit+0x126>
 80067ba:	e7c7      	b.n	800674c <HAL_SPI_Transmit+0xd4>
    if ((hspi->Init.Mode == SPI_MODE_SLAVE) || (initial_TxXferCount == 0x01U))
 80067bc:	f1b8 0f01 	cmp.w	r8, #1
 80067c0:	d1a3      	bne.n	800670a <HAL_SPI_Transmit+0x92>
 80067c2:	e799      	b.n	80066f8 <HAL_SPI_Transmit+0x80>
  if (SPI_EndRxTxTransaction(hspi, Timeout, tickstart) != HAL_OK)
 80067c4:	4632      	mov	r2, r6
 80067c6:	4629      	mov	r1, r5
 80067c8:	4620      	mov	r0, r4
 80067ca:	f7ff fed9 	bl	8006580 <SPI_EndRxTxTransaction>
 80067ce:	b108      	cbz	r0, 80067d4 <HAL_SPI_Transmit+0x15c>
    hspi->ErrorCode = HAL_SPI_ERROR_FLAG;
 80067d0:	2320      	movs	r3, #32
 80067d2:	6563      	str	r3, [r4, #84]	@ 0x54
  if (hspi->Init.Direction == SPI_DIRECTION_2LINES)
 80067d4:	68a3      	ldr	r3, [r4, #8]
 80067d6:	b933      	cbnz	r3, 80067e6 <HAL_SPI_Transmit+0x16e>
    __HAL_SPI_CLEAR_OVRFLAG(hspi);
 80067d8:	6822      	ldr	r2, [r4, #0]
 80067da:	9301      	str	r3, [sp, #4]
 80067dc:	68d3      	ldr	r3, [r2, #12]
 80067de:	9301      	str	r3, [sp, #4]
 80067e0:	6893      	ldr	r3, [r2, #8]
 80067e2:	9301      	str	r3, [sp, #4]
 80067e4:	9b01      	ldr	r3, [sp, #4]
  hspi->State = HAL_SPI_STATE_READY;
 80067e6:	2201      	movs	r2, #1
  __HAL_UNLOCK(hspi);
 80067e8:	2300      	movs	r3, #0
  hspi->State = HAL_SPI_STATE_READY;
 80067ea:	f884 2051 	strb.w	r2, [r4, #81]	@ 0x51
  if (hspi->ErrorCode != HAL_SPI_ERROR_NONE)
 80067ee:	6d60      	ldr	r0, [r4, #84]	@ 0x54
  __HAL_UNLOCK(hspi);
 80067f0:	f884 3050 	strb.w	r3, [r4, #80]	@ 0x50
  if (hspi->ErrorCode != HAL_SPI_ERROR_NONE)
 80067f4:	1ac0      	subs	r0, r0, r3
 80067f6:	bf18      	it	ne
 80067f8:	2001      	movne	r0, #1
}
 80067fa:	b002      	add	sp, #8
 80067fc:	e8bd 81f0 	ldmia.w	sp!, {r4, r5, r6, r7, r8, pc}
      hspi->Instance->DR = *((const uint16_t *)hspi->pTxBuffPtr);
 8006800:	f837 2b02 	ldrh.w	r2, [r7], #2
 8006804:	60da      	str	r2, [r3, #12]
      hspi->TxXferCount--;
 8006806:	8ee2      	ldrh	r2, [r4, #54]	@ 0x36
      hspi->pTxBuffPtr += sizeof(uint16_t);
 8006808:	6327      	str	r7, [r4, #48]	@ 0x30
      hspi->TxXferCount--;
 800680a:	3a01      	subs	r2, #1
 800680c:	b292      	uxth	r2, r2
 800680e:	86e2      	strh	r2, [r4, #54]	@ 0x36
 8006810:	e7b8      	b.n	8006784 <HAL_SPI_Transmit+0x10c>
 8006812:	bf00      	nop

08006814 <TIM_OC1_SetConfig>:
  uint32_t tmpccmrx;
  uint32_t tmpccer;
  uint32_t tmpcr2;

  /* Get the TIMx CCER register value */
  tmpccer = TIMx->CCER;
 8006814:	6a03      	ldr	r3, [r0, #32]

  /* Disable the Channel 1: Reset the CC1E Bit */
  TIMx->CCER &= ~TIM_CCER_CC1E;
 8006816:	6a02      	ldr	r2, [r0, #32]
{
 8006818:	b470      	push	{r4, r5, r6}
  TIMx->CCER &= ~TIM_CCER_CC1E;
 800681a:	f022 0201 	bic.w	r2, r2, #1
 800681e:	6202      	str	r2, [r0, #32]

  /* Get the TIMx CR2 register value */
  tmpcr2 =  TIMx->CR2;
 8006820:	6844      	ldr	r4, [r0, #4]

  /* Get the TIMx CCMR1 register value */
  tmpccmrx = TIMx->CCMR1;
 8006822:	6982      	ldr	r2, [r0, #24]

  /* Reset the Output Compare Mode Bits */
  tmpccmrx &= ~TIM_CCMR1_OC1M;
  tmpccmrx &= ~TIM_CCMR1_CC1S;
  /* Select the Output Compare Mode */
  tmpccmrx |= OC_Config->OCMode;
 8006824:	680e      	ldr	r6, [r1, #0]
  /* Reset the Output Polarity level */
  tmpccer &= ~TIM_CCER_CC1P;
  /* Set the Output Compare Polarity */
  tmpccer |= OC_Config->OCPolarity;

  if (IS_TIM_CCXN_INSTANCE(TIMx, TIM_CHANNEL_1))
 8006826:	4d0f      	ldr	r5, [pc, #60]	@ (8006864 <TIM_OC1_SetConfig+0x50>)
  tmpccmrx &= ~TIM_CCMR1_CC1S;
 8006828:	f022 0273 	bic.w	r2, r2, #115	@ 0x73
  tmpccmrx |= OC_Config->OCMode;
 800682c:	4332      	orrs	r2, r6
  tmpccer |= OC_Config->OCPolarity;
 800682e:	688e      	ldr	r6, [r1, #8]
  tmpccer &= ~TIM_CCER_CC1P;
 8006830:	f023 0302 	bic.w	r3, r3, #2
  if (IS_TIM_CCXN_INSTANCE(TIMx, TIM_CHANNEL_1))
 8006834:	42a8      	cmp	r0, r5
  tmpccer |= OC_Config->OCPolarity;
 8006836:	ea43 0306 	orr.w	r3, r3, r6
  if (IS_TIM_CCXN_INSTANCE(TIMx, TIM_CHANNEL_1))
 800683a:	d006      	beq.n	800684a <TIM_OC1_SetConfig+0x36>

  /* Write to TIMx CCMR1 */
  TIMx->CCMR1 = tmpccmrx;

  /* Set the Capture Compare Register value */
  TIMx->CCR1 = OC_Config->Pulse;
 800683c:	6849      	ldr	r1, [r1, #4]
  TIMx->CR2 = tmpcr2;
 800683e:	6044      	str	r4, [r0, #4]
  TIMx->CCMR1 = tmpccmrx;
 8006840:	6182      	str	r2, [r0, #24]

  /* Write to TIMx CCER */
  TIMx->CCER = tmpccer;
}
 8006842:	bc70      	pop	{r4, r5, r6}
  TIMx->CCR1 = OC_Config->Pulse;
 8006844:	6341      	str	r1, [r0, #52]	@ 0x34
  TIMx->CCER = tmpccer;
 8006846:	6203      	str	r3, [r0, #32]
}
 8006848:	4770      	bx	lr
    tmpccer |= OC_Config->OCNPolarity;
 800684a:	68cd      	ldr	r5, [r1, #12]
    tmpccer &= ~TIM_CCER_CC1NP;
 800684c:	f023 0308 	bic.w	r3, r3, #8
    tmpccer |= OC_Config->OCNPolarity;
 8006850:	432b      	orrs	r3, r5
    tmpcr2 &= ~TIM_CR2_OIS1N;
 8006852:	f424 7440 	bic.w	r4, r4, #768	@ 0x300
    tmpcr2 |= OC_Config->OCNIdleState;
 8006856:	e9d1 5605 	ldrd	r5, r6, [r1, #20]
 800685a:	4335      	orrs	r5, r6
    tmpccer &= ~TIM_CCER_CC1NE;
 800685c:	f023 0304 	bic.w	r3, r3, #4
    tmpcr2 |= OC_Config->OCNIdleState;
 8006860:	432c      	orrs	r4, r5
 8006862:	e7eb      	b.n	800683c <TIM_OC1_SetConfig+0x28>
 8006864:	40012c00 	.word	0x40012c00

08006868 <TIM_OC3_SetConfig>:
  uint32_t tmpccmrx;
  uint32_t tmpccer;
  uint32_t tmpcr2;

  /* Get the TIMx CCER register value */
  tmpccer = TIMx->CCER;
 8006868:	6a03      	ldr	r3, [r0, #32]

  /* Disable the Channel 3: Reset the CC2E Bit */
  TIMx->CCER &= ~TIM_CCER_CC3E;
 800686a:	6a02      	ldr	r2, [r0, #32]
{
 800686c:	b470      	push	{r4, r5, r6}
  TIMx->CCER &= ~TIM_CCER_CC3E;
 800686e:	f422 7280 	bic.w	r2, r2, #256	@ 0x100
 8006872:	6202      	str	r2, [r0, #32]

  /* Get the TIMx CR2 register value */
  tmpcr2 =  TIMx->CR2;
 8006874:	6844      	ldr	r4, [r0, #4]

  /* Get the TIMx CCMR2 register value */
  tmpccmrx = TIMx->CCMR2;
 8006876:	69c2      	ldr	r2, [r0, #28]

  /* Reset the Output Compare mode and Capture/Compare selection Bits */
  tmpccmrx &= ~TIM_CCMR2_OC3M;
  tmpccmrx &= ~TIM_CCMR2_CC3S;
  /* Select the Output Compare Mode */
  tmpccmrx |= OC_Config->OCMode;
 8006878:	680e      	ldr	r6, [r1, #0]
  /* Reset the Output Polarity level */
  tmpccer &= ~TIM_CCER_CC3P;
  /* Set the Output Compare Polarity */
  tmpccer |= (OC_Config->OCPolarity << 8U);

  if (IS_TIM_CCXN_INSTANCE(TIMx, TIM_CHANNEL_3))
 800687a:	4d10      	ldr	r5, [pc, #64]	@ (80068bc <TIM_OC3_SetConfig+0x54>)
  tmpccmrx &= ~TIM_CCMR2_CC3S;
 800687c:	f022 0273 	bic.w	r2, r2, #115	@ 0x73
  tmpccmrx |= OC_Config->OCMode;
 8006880:	4332      	orrs	r2, r6
  tmpccer |= (OC_Config->OCPolarity << 8U);
 8006882:	688e      	ldr	r6, [r1, #8]
  tmpccer &= ~TIM_CCER_CC3P;
 8006884:	f423 7300 	bic.w	r3, r3, #512	@ 0x200
  if (IS_TIM_CCXN_INSTANCE(TIMx, TIM_CHANNEL_3))
 8006888:	42a8      	cmp	r0, r5
  tmpccer |= (OC_Config->OCPolarity << 8U);
 800688a:	ea43 2306 	orr.w	r3, r3, r6, lsl #8
  if (IS_TIM_CCXN_INSTANCE(TIMx, TIM_CHANNEL_3))
 800688e:	d006      	beq.n	800689e <TIM_OC3_SetConfig+0x36>

  /* Write to TIMx CCMR2 */
  TIMx->CCMR2 = tmpccmrx;

  /* Set the Capture Compare Register value */
  TIMx->CCR3 = OC_Config->Pulse;
 8006890:	6849      	ldr	r1, [r1, #4]
  TIMx->CR2 = tmpcr2;
 8006892:	6044      	str	r4, [r0, #4]
  TIMx->CCMR2 = tmpccmrx;
 8006894:	61c2      	str	r2, [r0, #28]

  /* Write to TIMx CCER */
  TIMx->CCER = tmpccer;
}
 8006896:	bc70      	pop	{r4, r5, r6}
  TIMx->CCR3 = OC_Config->Pulse;
 8006898:	63c1      	str	r1, [r0, #60]	@ 0x3c
  TIMx->CCER = tmpccer;
 800689a:	6203      	str	r3, [r0, #32]
}
 800689c:	4770      	bx	lr
    tmpccer |= (OC_Config->OCNPolarity << 8U);
 800689e:	68cd      	ldr	r5, [r1, #12]
    tmpccer &= ~TIM_CCER_CC3NP;
 80068a0:	f423 6300 	bic.w	r3, r3, #2048	@ 0x800
    tmpccer |= (OC_Config->OCNPolarity << 8U);
 80068a4:	ea43 2305 	orr.w	r3, r3, r5, lsl #8
    tmpcr2 &= ~TIM_CR2_OIS3N;
 80068a8:	f424 5440 	bic.w	r4, r4, #12288	@ 0x3000
    tmpcr2 |= (OC_Config->OCNIdleState << 4U);
 80068ac:	e9d1 5605 	ldrd	r5, r6, [r1, #20]
 80068b0:	4335      	orrs	r5, r6
    tmpccer &= ~TIM_CCER_CC3NE;
 80068b2:	f423 6380 	bic.w	r3, r3, #1024	@ 0x400
    tmpcr2 |= (OC_Config->OCNIdleState << 4U);
 80068b6:	ea44 1405 	orr.w	r4, r4, r5, lsl #4
 80068ba:	e7e9      	b.n	8006890 <TIM_OC3_SetConfig+0x28>
 80068bc:	40012c00 	.word	0x40012c00

080068c0 <TIM_OC4_SetConfig>:
  uint32_t tmpccmrx;
  uint32_t tmpccer;
  uint32_t tmpcr2;

  /* Get the TIMx CCER register value */
  tmpccer = TIMx->CCER;
 80068c0:	6a03      	ldr	r3, [r0, #32]

  /* Disable the Channel 4: Reset the CC4E Bit */
  TIMx->CCER &= ~TIM_CCER_CC4E;
 80068c2:	6a02      	ldr	r2, [r0, #32]
{
 80068c4:	b430      	push	{r4, r5}
  TIMx->CCER &= ~TIM_CCER_CC4E;
 80068c6:	f422 5280 	bic.w	r2, r2, #4096	@ 0x1000
 80068ca:	6202      	str	r2, [r0, #32]

  /* Get the TIMx CR2 register value */
  tmpcr2 =  TIMx->CR2;
 80068cc:	6844      	ldr	r4, [r0, #4]

  /* Get the TIMx CCMR2 register value */
  tmpccmrx = TIMx->CCMR2;
 80068ce:	69c2      	ldr	r2, [r0, #28]
  /* Reset the Output Compare mode and Capture/Compare selection Bits */
  tmpccmrx &= ~TIM_CCMR2_OC4M;
  tmpccmrx &= ~TIM_CCMR2_CC4S;

  /* Select the Output Compare Mode */
  tmpccmrx |= (OC_Config->OCMode << 8U);
 80068d0:	f8d1 c000 	ldr.w	ip, [r1]
  /* Reset the Output Polarity level */
  tmpccer &= ~TIM_CCER_CC4P;
  /* Set the Output Compare Polarity */
  tmpccer |= (OC_Config->OCPolarity << 12U);

  if (IS_TIM_BREAK_INSTANCE(TIMx))
 80068d4:	4d0c      	ldr	r5, [pc, #48]	@ (8006908 <TIM_OC4_SetConfig+0x48>)
  tmpccmrx &= ~TIM_CCMR2_CC4S;
 80068d6:	f422 42e6 	bic.w	r2, r2, #29440	@ 0x7300
  tmpccmrx |= (OC_Config->OCMode << 8U);
 80068da:	ea42 220c 	orr.w	r2, r2, ip, lsl #8
  tmpccer |= (OC_Config->OCPolarity << 12U);
 80068de:	f8d1 c008 	ldr.w	ip, [r1, #8]
  tmpccer &= ~TIM_CCER_CC4P;
 80068e2:	f423 5300 	bic.w	r3, r3, #8192	@ 0x2000
  if (IS_TIM_BREAK_INSTANCE(TIMx))
 80068e6:	42a8      	cmp	r0, r5
  tmpccer |= (OC_Config->OCPolarity << 12U);
 80068e8:	ea43 330c 	orr.w	r3, r3, ip, lsl #12
  if (IS_TIM_BREAK_INSTANCE(TIMx))
 80068ec:	d006      	beq.n	80068fc <TIM_OC4_SetConfig+0x3c>

  /* Write to TIMx CCMR2 */
  TIMx->CCMR2 = tmpccmrx;

  /* Set the Capture Compare Register value */
  TIMx->CCR4 = OC_Config->Pulse;
 80068ee:	6849      	ldr	r1, [r1, #4]
  TIMx->CR2 = tmpcr2;
 80068f0:	6044      	str	r4, [r0, #4]
  TIMx->CCMR2 = tmpccmrx;
 80068f2:	61c2      	str	r2, [r0, #28]

  /* Write to TIMx CCER */
  TIMx->CCER = tmpccer;
}
 80068f4:	bc30      	pop	{r4, r5}
  TIMx->CCR4 = OC_Config->Pulse;
 80068f6:	6401      	str	r1, [r0, #64]	@ 0x40
  TIMx->CCER = tmpccer;
 80068f8:	6203      	str	r3, [r0, #32]
}
 80068fa:	4770      	bx	lr
    tmpcr2 |= (OC_Config->OCIdleState << 6U);
 80068fc:	694d      	ldr	r5, [r1, #20]
    tmpcr2 &= ~TIM_CR2_OIS4;
 80068fe:	f424 4480 	bic.w	r4, r4, #16384	@ 0x4000
    tmpcr2 |= (OC_Config->OCIdleState << 6U);
 8006902:	ea44 1485 	orr.w	r4, r4, r5, lsl #6
 8006906:	e7f2      	b.n	80068ee <TIM_OC4_SetConfig+0x2e>
 8006908:	40012c00 	.word	0x40012c00

0800690c <HAL_TIM_OC_Start>:
  if (TIM_CHANNEL_STATE_GET(htim, Channel) != HAL_TIM_CHANNEL_STATE_READY)
 800690c:	bb39      	cbnz	r1, 800695e <HAL_TIM_OC_Start+0x52>
 800690e:	f890 303e 	ldrb.w	r3, [r0, #62]	@ 0x3e
 8006912:	2b01      	cmp	r3, #1
 8006914:	d12b      	bne.n	800696e <HAL_TIM_OC_Start+0x62>
  TIM_CHANNEL_STATE_SET(htim, Channel, HAL_TIM_CHANNEL_STATE_BUSY);
 8006916:	2302      	movs	r3, #2
 8006918:	f880 303e 	strb.w	r3, [r0, #62]	@ 0x3e

  /* Check the parameters */
  assert_param(IS_TIM_CC1_INSTANCE(TIMx));
  assert_param(IS_TIM_CHANNELS(Channel));

  tmp = TIM_CCER_CC1E << (Channel & 0x1FU); /* 0x1FU = 31 bits max shift */
 800691c:	2201      	movs	r2, #1
  TIM_CCxChannelCmd(htim->Instance, Channel, TIM_CCx_ENABLE);
 800691e:	6803      	ldr	r3, [r0, #0]
  tmp = TIM_CCER_CC1E << (Channel & 0x1FU); /* 0x1FU = 31 bits max shift */
 8006920:	f001 011f 	and.w	r1, r1, #31

  /* Reset the CCxE Bit */
  TIMx->CCER &= ~tmp;
 8006924:	6a18      	ldr	r0, [r3, #32]
  tmp = TIM_CCER_CC1E << (Channel & 0x1FU); /* 0x1FU = 31 bits max shift */
 8006926:	408a      	lsls	r2, r1
  TIMx->CCER &= ~tmp;
 8006928:	ea20 0002 	bic.w	r0, r0, r2
{
 800692c:	b410      	push	{r4}
  TIMx->CCER &= ~tmp;
 800692e:	6218      	str	r0, [r3, #32]

  /* Set or reset the CCxE Bit */
  TIMx->CCER |= (uint32_t)(ChannelState << (Channel & 0x1FU)); /* 0x1FU = 31 bits max shift */
 8006930:	6a19      	ldr	r1, [r3, #32]
  if (IS_TIM_BREAK_INSTANCE(htim->Instance) != RESET)
 8006932:	4c20      	ldr	r4, [pc, #128]	@ (80069b4 <HAL_TIM_OC_Start+0xa8>)
  TIMx->CCER |= (uint32_t)(ChannelState << (Channel & 0x1FU)); /* 0x1FU = 31 bits max shift */
 8006934:	430a      	orrs	r2, r1
  if (IS_TIM_BREAK_INSTANCE(htim->Instance) != RESET)
 8006936:	42a3      	cmp	r3, r4
  TIMx->CCER |= (uint32_t)(ChannelState << (Channel & 0x1FU)); /* 0x1FU = 31 bits max shift */
 8006938:	621a      	str	r2, [r3, #32]
  if (IS_TIM_BREAK_INSTANCE(htim->Instance) != RESET)
 800693a:	d01a      	beq.n	8006972 <HAL_TIM_OC_Start+0x66>
  if (IS_TIM_SLAVE_INSTANCE(htim->Instance))
 800693c:	f1b3 4f80 	cmp.w	r3, #1073741824	@ 0x40000000
 8006940:	d01b      	beq.n	800697a <HAL_TIM_OC_Start+0x6e>
 8006942:	4a1d      	ldr	r2, [pc, #116]	@ (80069b8 <HAL_TIM_OC_Start+0xac>)
 8006944:	4293      	cmp	r3, r2
 8006946:	d018      	beq.n	800697a <HAL_TIM_OC_Start+0x6e>
 8006948:	f502 6280 	add.w	r2, r2, #1024	@ 0x400
 800694c:	4293      	cmp	r3, r2
 800694e:	d014      	beq.n	800697a <HAL_TIM_OC_Start+0x6e>
      __HAL_TIM_ENABLE(htim);
 8006950:	681a      	ldr	r2, [r3, #0]
  return HAL_OK;
 8006952:	2000      	movs	r0, #0
      __HAL_TIM_ENABLE(htim);
 8006954:	f042 0201 	orr.w	r2, r2, #1
}
 8006958:	bc10      	pop	{r4}
      __HAL_TIM_ENABLE(htim);
 800695a:	601a      	str	r2, [r3, #0]
}
 800695c:	4770      	bx	lr
  if (TIM_CHANNEL_STATE_GET(htim, Channel) != HAL_TIM_CHANNEL_STATE_READY)
 800695e:	2904      	cmp	r1, #4
 8006960:	d017      	beq.n	8006992 <HAL_TIM_OC_Start+0x86>
 8006962:	2908      	cmp	r1, #8
 8006964:	d01d      	beq.n	80069a2 <HAL_TIM_OC_Start+0x96>
 8006966:	f890 3041 	ldrb.w	r3, [r0, #65]	@ 0x41
 800696a:	2b01      	cmp	r3, #1
 800696c:	d00d      	beq.n	800698a <HAL_TIM_OC_Start+0x7e>
    return HAL_ERROR;
 800696e:	2001      	movs	r0, #1
}
 8006970:	4770      	bx	lr
    __HAL_TIM_MOE_ENABLE(htim);
 8006972:	6c5a      	ldr	r2, [r3, #68]	@ 0x44
 8006974:	f442 4200 	orr.w	r2, r2, #32768	@ 0x8000
 8006978:	645a      	str	r2, [r3, #68]	@ 0x44
    tmpsmcr = htim->Instance->SMCR & TIM_SMCR_SMS;
 800697a:	689a      	ldr	r2, [r3, #8]
 800697c:	f002 0207 	and.w	r2, r2, #7
    if (!IS_TIM_SLAVEMODE_TRIGGER_ENABLED(tmpsmcr))
 8006980:	2a06      	cmp	r2, #6
 8006982:	d1e5      	bne.n	8006950 <HAL_TIM_OC_Start+0x44>
  return HAL_OK;
 8006984:	2000      	movs	r0, #0
}
 8006986:	bc10      	pop	{r4}
 8006988:	4770      	bx	lr
  TIM_CHANNEL_STATE_SET(htim, Channel, HAL_TIM_CHANNEL_STATE_BUSY);
 800698a:	2302      	movs	r3, #2
 800698c:	f880 3041 	strb.w	r3, [r0, #65]	@ 0x41
 8006990:	e7c4      	b.n	800691c <HAL_TIM_OC_Start+0x10>
  if (TIM_CHANNEL_STATE_GET(htim, Channel) != HAL_TIM_CHANNEL_STATE_READY)
 8006992:	f890 303f 	ldrb.w	r3, [r0, #63]	@ 0x3f
 8006996:	2b01      	cmp	r3, #1
 8006998:	d1e9      	bne.n	800696e <HAL_TIM_OC_Start+0x62>
  TIM_CHANNEL_STATE_SET(htim, Channel, HAL_TIM_CHANNEL_STATE_BUSY);
 800699a:	2302      	movs	r3, #2
 800699c:	f880 303f 	strb.w	r3, [r0, #63]	@ 0x3f
 80069a0:	e7bc      	b.n	800691c <HAL_TIM_OC_Start+0x10>
  if (TIM_CHANNEL_STATE_GET(htim, Channel) != HAL_TIM_CHANNEL_STATE_READY)
 80069a2:	f890 3040 	ldrb.w	r3, [r0, #64]	@ 0x40
 80069a6:	2b01      	cmp	r3, #1
 80069a8:	d1e1      	bne.n	800696e <HAL_TIM_OC_Start+0x62>
  TIM_CHANNEL_STATE_SET(htim, Channel, HAL_TIM_CHANNEL_STATE_BUSY);
 80069aa:	2302      	movs	r3, #2
 80069ac:	f880 3040 	strb.w	r3, [r0, #64]	@ 0x40
 80069b0:	e7b4      	b.n	800691c <HAL_TIM_OC_Start+0x10>
 80069b2:	bf00      	nop
 80069b4:	40012c00 	.word	0x40012c00
 80069b8:	40000400 	.word	0x40000400

080069bc <HAL_TIM_PWM_MspInit>:
__weak void HAL_TIM_PWM_MspInit(TIM_HandleTypeDef *htim)
 80069bc:	4770      	bx	lr
 80069be:	bf00      	nop

080069c0 <HAL_TIM_PWM_Start>:
HAL_StatusTypeDef HAL_TIM_PWM_Start(TIM_HandleTypeDef *htim, uint32_t Channel)
 80069c0:	f7ff bfa4 	b.w	800690c <HAL_TIM_OC_Start>

080069c4 <HAL_TIM_ConfigClockSource>:
  __HAL_LOCK(htim);
 80069c4:	f890 303c 	ldrb.w	r3, [r0, #60]	@ 0x3c
 80069c8:	2b01      	cmp	r3, #1
 80069ca:	d071      	beq.n	8006ab0 <HAL_TIM_ConfigClockSource+0xec>
 80069cc:	4602      	mov	r2, r0
  htim->State = HAL_TIM_STATE_BUSY;
 80069ce:	2302      	movs	r3, #2
  __HAL_LOCK(htim);
 80069d0:	2001      	movs	r0, #1
{
 80069d2:	b430      	push	{r4, r5}
  tmpsmcr = htim->Instance->SMCR;
 80069d4:	6814      	ldr	r4, [r2, #0]
  __HAL_LOCK(htim);
 80069d6:	f882 003c 	strb.w	r0, [r2, #60]	@ 0x3c
  htim->State = HAL_TIM_STATE_BUSY;
 80069da:	f882 303d 	strb.w	r3, [r2, #61]	@ 0x3d
  tmpsmcr = htim->Instance->SMCR;
 80069de:	68a3      	ldr	r3, [r4, #8]
  tmpsmcr &= ~(TIM_SMCR_ETF | TIM_SMCR_ETPS | TIM_SMCR_ECE | TIM_SMCR_ETP);
 80069e0:	f423 437f 	bic.w	r3, r3, #65280	@ 0xff00
 80069e4:	f023 0377 	bic.w	r3, r3, #119	@ 0x77
  htim->Instance->SMCR = tmpsmcr;
 80069e8:	60a3      	str	r3, [r4, #8]
  switch (sClockSourceConfig->ClockSource)
 80069ea:	680b      	ldr	r3, [r1, #0]
 80069ec:	2b60      	cmp	r3, #96	@ 0x60
 80069ee:	d061      	beq.n	8006ab4 <HAL_TIM_ConfigClockSource+0xf0>
 80069f0:	d824      	bhi.n	8006a3c <HAL_TIM_ConfigClockSource+0x78>
 80069f2:	2b40      	cmp	r3, #64	@ 0x40
 80069f4:	d077      	beq.n	8006ae6 <HAL_TIM_ConfigClockSource+0x122>
 80069f6:	d94a      	bls.n	8006a8e <HAL_TIM_ConfigClockSource+0xca>
 80069f8:	2b50      	cmp	r3, #80	@ 0x50
 80069fa:	d117      	bne.n	8006a2c <HAL_TIM_ConfigClockSource+0x68>
                               sClockSourceConfig->ClockPolarity,
 80069fc:	684b      	ldr	r3, [r1, #4]
                               sClockSourceConfig->ClockFilter);
 80069fe:	68c8      	ldr	r0, [r1, #12]
  tmpccer = TIMx->CCER;
 8006a00:	6a21      	ldr	r1, [r4, #32]
  tmpccer &= ~(TIM_CCER_CC1P | TIM_CCER_CC1NP);
 8006a02:	f021 010a 	bic.w	r1, r1, #10
  tmpccer |= TIM_ICPolarity;
 8006a06:	4319      	orrs	r1, r3
  TIMx->CCER &= ~TIM_CCER_CC1E;
 8006a08:	6a23      	ldr	r3, [r4, #32]
 8006a0a:	f023 0301 	bic.w	r3, r3, #1
 8006a0e:	6223      	str	r3, [r4, #32]
  tmpccmr1 = TIMx->CCMR1;
 8006a10:	69a3      	ldr	r3, [r4, #24]
  tmpccmr1 &= ~TIM_CCMR1_IC1F;
 8006a12:	f023 03f0 	bic.w	r3, r3, #240	@ 0xf0
  tmpccmr1 |= (TIM_ICFilter << 4U);
 8006a16:	ea43 1300 	orr.w	r3, r3, r0, lsl #4
  TIMx->CCMR1 = tmpccmr1;
 8006a1a:	61a3      	str	r3, [r4, #24]
  TIMx->CCER = tmpccer;
 8006a1c:	6221      	str	r1, [r4, #32]
  tmpsmcr = TIMx->SMCR;
 8006a1e:	68a3      	ldr	r3, [r4, #8]
  tmpsmcr &= ~TIM_SMCR_TS;
 8006a20:	f023 0370 	bic.w	r3, r3, #112	@ 0x70
  tmpsmcr |= (InputTriggerSource | TIM_SLAVEMODE_EXTERNAL1);
 8006a24:	f043 0357 	orr.w	r3, r3, #87	@ 0x57
  TIMx->SMCR = tmpsmcr;
 8006a28:	60a3      	str	r3, [r4, #8]
  HAL_StatusTypeDef status = HAL_OK;
 8006a2a:	2000      	movs	r0, #0
  htim->State = HAL_TIM_STATE_READY;
 8006a2c:	2101      	movs	r1, #1
  __HAL_UNLOCK(htim);
 8006a2e:	2300      	movs	r3, #0
  htim->State = HAL_TIM_STATE_READY;
 8006a30:	f882 103d 	strb.w	r1, [r2, #61]	@ 0x3d
  __HAL_UNLOCK(htim);
 8006a34:	f882 303c 	strb.w	r3, [r2, #60]	@ 0x3c
}
 8006a38:	bc30      	pop	{r4, r5}
 8006a3a:	4770      	bx	lr
  switch (sClockSourceConfig->ClockSource)
 8006a3c:	f5b3 5f80 	cmp.w	r3, #4096	@ 0x1000
 8006a40:	d0f3      	beq.n	8006a2a <HAL_TIM_ConfigClockSource+0x66>
 8006a42:	f5b3 5f00 	cmp.w	r3, #8192	@ 0x2000
 8006a46:	d110      	bne.n	8006a6a <HAL_TIM_ConfigClockSource+0xa6>
  tmpsmcr |= (uint32_t)(TIM_ExtTRGPrescaler | (TIM_ExtTRGPolarity | (ExtTRGFilter << 8U)));
 8006a48:	e9d1 5301 	ldrd	r5, r3, [r1, #4]
  tmpsmcr = TIMx->SMCR;
 8006a4c:	68a0      	ldr	r0, [r4, #8]
  tmpsmcr |= (uint32_t)(TIM_ExtTRGPrescaler | (TIM_ExtTRGPolarity | (ExtTRGFilter << 8U)));
 8006a4e:	432b      	orrs	r3, r5
 8006a50:	68cd      	ldr	r5, [r1, #12]
  tmpsmcr &= ~(TIM_SMCR_ETF | TIM_SMCR_ETPS | TIM_SMCR_ECE | TIM_SMCR_ETP);
 8006a52:	f420 417f 	bic.w	r1, r0, #65280	@ 0xff00
  tmpsmcr |= (uint32_t)(TIM_ExtTRGPrescaler | (TIM_ExtTRGPolarity | (ExtTRGFilter << 8U)));
 8006a56:	ea43 2305 	orr.w	r3, r3, r5, lsl #8
 8006a5a:	430b      	orrs	r3, r1
  TIMx->SMCR = tmpsmcr;
 8006a5c:	60a3      	str	r3, [r4, #8]
      htim->Instance->SMCR |= TIM_SMCR_ECE;
 8006a5e:	68a3      	ldr	r3, [r4, #8]
  HAL_StatusTypeDef status = HAL_OK;
 8006a60:	2000      	movs	r0, #0
      htim->Instance->SMCR |= TIM_SMCR_ECE;
 8006a62:	f443 4380 	orr.w	r3, r3, #16384	@ 0x4000
 8006a66:	60a3      	str	r3, [r4, #8]
      break;
 8006a68:	e7e0      	b.n	8006a2c <HAL_TIM_ConfigClockSource+0x68>
  switch (sClockSourceConfig->ClockSource)
 8006a6a:	2b70      	cmp	r3, #112	@ 0x70
 8006a6c:	d1de      	bne.n	8006a2c <HAL_TIM_ConfigClockSource+0x68>
  tmpsmcr |= (uint32_t)(TIM_ExtTRGPrescaler | (TIM_ExtTRGPolarity | (ExtTRGFilter << 8U)));
 8006a6e:	e9d1 5301 	ldrd	r5, r3, [r1, #4]
  tmpsmcr = TIMx->SMCR;
 8006a72:	68a0      	ldr	r0, [r4, #8]
  tmpsmcr |= (uint32_t)(TIM_ExtTRGPrescaler | (TIM_ExtTRGPolarity | (ExtTRGFilter << 8U)));
 8006a74:	432b      	orrs	r3, r5
 8006a76:	68cd      	ldr	r5, [r1, #12]
  tmpsmcr &= ~(TIM_SMCR_ETF | TIM_SMCR_ETPS | TIM_SMCR_ECE | TIM_SMCR_ETP);
 8006a78:	f420 417f 	bic.w	r1, r0, #65280	@ 0xff00
  tmpsmcr |= (uint32_t)(TIM_ExtTRGPrescaler | (TIM_ExtTRGPolarity | (ExtTRGFilter << 8U)));
 8006a7c:	ea43 2305 	orr.w	r3, r3, r5, lsl #8
 8006a80:	430b      	orrs	r3, r1
  TIMx->SMCR = tmpsmcr;
 8006a82:	60a3      	str	r3, [r4, #8]
      tmpsmcr = htim->Instance->SMCR;
 8006a84:	68a3      	ldr	r3, [r4, #8]
      tmpsmcr |= (TIM_SLAVEMODE_EXTERNAL1 | TIM_CLOCKSOURCE_ETRMODE1);
 8006a86:	f043 0377 	orr.w	r3, r3, #119	@ 0x77
      htim->Instance->SMCR = tmpsmcr;
 8006a8a:	60a3      	str	r3, [r4, #8]
      break;
 8006a8c:	e7cd      	b.n	8006a2a <HAL_TIM_ConfigClockSource+0x66>
  switch (sClockSourceConfig->ClockSource)
 8006a8e:	2b20      	cmp	r3, #32
 8006a90:	d002      	beq.n	8006a98 <HAL_TIM_ConfigClockSource+0xd4>
 8006a92:	d909      	bls.n	8006aa8 <HAL_TIM_ConfigClockSource+0xe4>
 8006a94:	2b30      	cmp	r3, #48	@ 0x30
 8006a96:	d1c9      	bne.n	8006a2c <HAL_TIM_ConfigClockSource+0x68>
  tmpsmcr = TIMx->SMCR;
 8006a98:	68a1      	ldr	r1, [r4, #8]
  tmpsmcr &= ~TIM_SMCR_TS;
 8006a9a:	f021 0170 	bic.w	r1, r1, #112	@ 0x70
  tmpsmcr |= (InputTriggerSource | TIM_SLAVEMODE_EXTERNAL1);
 8006a9e:	430b      	orrs	r3, r1
 8006aa0:	f043 0307 	orr.w	r3, r3, #7
  TIMx->SMCR = tmpsmcr;
 8006aa4:	60a3      	str	r3, [r4, #8]
}
 8006aa6:	e7c0      	b.n	8006a2a <HAL_TIM_ConfigClockSource+0x66>
  switch (sClockSourceConfig->ClockSource)
 8006aa8:	f033 0110 	bics.w	r1, r3, #16
 8006aac:	d1be      	bne.n	8006a2c <HAL_TIM_ConfigClockSource+0x68>
 8006aae:	e7f3      	b.n	8006a98 <HAL_TIM_ConfigClockSource+0xd4>
  __HAL_LOCK(htim);
 8006ab0:	2002      	movs	r0, #2
}
 8006ab2:	4770      	bx	lr
  tmpccer = TIMx->CCER;
 8006ab4:	6a23      	ldr	r3, [r4, #32]
                               sClockSourceConfig->ClockPolarity,
 8006ab6:	684d      	ldr	r5, [r1, #4]
                               sClockSourceConfig->ClockFilter);
 8006ab8:	68c8      	ldr	r0, [r1, #12]
  TIMx->CCER &= ~TIM_CCER_CC2E;
 8006aba:	6a21      	ldr	r1, [r4, #32]
  tmpccer &= ~(TIM_CCER_CC2P | TIM_CCER_CC2NP);
 8006abc:	f023 03a0 	bic.w	r3, r3, #160	@ 0xa0
  TIMx->CCER &= ~TIM_CCER_CC2E;
 8006ac0:	f021 0110 	bic.w	r1, r1, #16
 8006ac4:	6221      	str	r1, [r4, #32]
  tmpccmr1 = TIMx->CCMR1;
 8006ac6:	69a1      	ldr	r1, [r4, #24]
  tmpccer |= (TIM_ICPolarity << 4U);
 8006ac8:	ea43 1305 	orr.w	r3, r3, r5, lsl #4
  tmpccmr1 &= ~TIM_CCMR1_IC2F;
 8006acc:	f421 4170 	bic.w	r1, r1, #61440	@ 0xf000
  tmpccmr1 |= (TIM_ICFilter << 12U);
 8006ad0:	ea41 3100 	orr.w	r1, r1, r0, lsl #12
  TIMx->CCMR1 = tmpccmr1 ;
 8006ad4:	61a1      	str	r1, [r4, #24]
  TIMx->CCER = tmpccer;
 8006ad6:	6223      	str	r3, [r4, #32]
  tmpsmcr = TIMx->SMCR;
 8006ad8:	68a3      	ldr	r3, [r4, #8]
  tmpsmcr &= ~TIM_SMCR_TS;
 8006ada:	f023 0370 	bic.w	r3, r3, #112	@ 0x70
  tmpsmcr |= (InputTriggerSource | TIM_SLAVEMODE_EXTERNAL1);
 8006ade:	f043 0367 	orr.w	r3, r3, #103	@ 0x67
  TIMx->SMCR = tmpsmcr;
 8006ae2:	60a3      	str	r3, [r4, #8]
}
 8006ae4:	e7a1      	b.n	8006a2a <HAL_TIM_ConfigClockSource+0x66>
                               sClockSourceConfig->ClockPolarity,
 8006ae6:	684b      	ldr	r3, [r1, #4]
                               sClockSourceConfig->ClockFilter);
 8006ae8:	68c8      	ldr	r0, [r1, #12]
  tmpccer = TIMx->CCER;
 8006aea:	6a21      	ldr	r1, [r4, #32]
  tmpccer &= ~(TIM_CCER_CC1P | TIM_CCER_CC1NP);
 8006aec:	f021 010a 	bic.w	r1, r1, #10
  tmpccer |= TIM_ICPolarity;
 8006af0:	4319      	orrs	r1, r3
  TIMx->CCER &= ~TIM_CCER_CC1E;
 8006af2:	6a23      	ldr	r3, [r4, #32]
 8006af4:	f023 0301 	bic.w	r3, r3, #1
 8006af8:	6223      	str	r3, [r4, #32]
  tmpccmr1 = TIMx->CCMR1;
 8006afa:	69a3      	ldr	r3, [r4, #24]
  tmpccmr1 &= ~TIM_CCMR1_IC1F;
 8006afc:	f023 03f0 	bic.w	r3, r3, #240	@ 0xf0
  tmpccmr1 |= (TIM_ICFilter << 4U);
 8006b00:	ea43 1300 	orr.w	r3, r3, r0, lsl #4
  TIMx->CCMR1 = tmpccmr1;
 8006b04:	61a3      	str	r3, [r4, #24]
  TIMx->CCER = tmpccer;
 8006b06:	6221      	str	r1, [r4, #32]
  tmpsmcr = TIMx->SMCR;
 8006b08:	68a3      	ldr	r3, [r4, #8]
  tmpsmcr &= ~TIM_SMCR_TS;
 8006b0a:	f023 0370 	bic.w	r3, r3, #112	@ 0x70
  tmpsmcr |= (InputTriggerSource | TIM_SLAVEMODE_EXTERNAL1);
 8006b0e:	f043 0347 	orr.w	r3, r3, #71	@ 0x47
  TIMx->SMCR = tmpsmcr;
 8006b12:	60a3      	str	r3, [r4, #8]
}
 8006b14:	e789      	b.n	8006a2a <HAL_TIM_ConfigClockSource+0x66>
 8006b16:	bf00      	nop

08006b18 <TIM_Base_SetConfig>:
{
 8006b18:	b470      	push	{r4, r5, r6}
  if (IS_TIM_COUNTER_MODE_SELECT_INSTANCE(TIMx))
 8006b1a:	4e1f      	ldr	r6, [pc, #124]	@ (8006b98 <TIM_Base_SetConfig+0x80>)
  tmpcr1 = TIMx->CR1;
 8006b1c:	6803      	ldr	r3, [r0, #0]
  if (IS_TIM_COUNTER_MODE_SELECT_INSTANCE(TIMx))
 8006b1e:	42b0      	cmp	r0, r6
  TIMx->PSC = Structure->Prescaler;
 8006b20:	680c      	ldr	r4, [r1, #0]
  TIMx->ARR = (uint32_t)Structure->Period ;
 8006b22:	688d      	ldr	r5, [r1, #8]
  MODIFY_REG(tmpcr1, TIM_CR1_ARPE, Structure->AutoReloadPreload);
 8006b24:	694a      	ldr	r2, [r1, #20]
  if (IS_TIM_COUNTER_MODE_SELECT_INSTANCE(TIMx))
 8006b26:	d026      	beq.n	8006b76 <TIM_Base_SetConfig+0x5e>
 8006b28:	f1b0 4f80 	cmp.w	r0, #1073741824	@ 0x40000000
 8006b2c:	d015      	beq.n	8006b5a <TIM_Base_SetConfig+0x42>
 8006b2e:	f5a6 3694 	sub.w	r6, r6, #75776	@ 0x12800
 8006b32:	42b0      	cmp	r0, r6
 8006b34:	d011      	beq.n	8006b5a <TIM_Base_SetConfig+0x42>
 8006b36:	f506 6680 	add.w	r6, r6, #1024	@ 0x400
 8006b3a:	42b0      	cmp	r0, r6
 8006b3c:	d00d      	beq.n	8006b5a <TIM_Base_SetConfig+0x42>
  MODIFY_REG(tmpcr1, TIM_CR1_ARPE, Structure->AutoReloadPreload);
 8006b3e:	f023 0380 	bic.w	r3, r3, #128	@ 0x80
  TIMx->ARR = (uint32_t)Structure->Period ;
 8006b42:	62c5      	str	r5, [r0, #44]	@ 0x2c
  MODIFY_REG(tmpcr1, TIM_CR1_ARPE, Structure->AutoReloadPreload);
 8006b44:	431a      	orrs	r2, r3
  TIMx->PSC = Structure->Prescaler;
 8006b46:	6284      	str	r4, [r0, #40]	@ 0x28
  TIMx->EGR = TIM_EGR_UG;
 8006b48:	2101      	movs	r1, #1
}
 8006b4a:	bc70      	pop	{r4, r5, r6}
  SET_BIT(TIMx->CR1, TIM_CR1_URS);
 8006b4c:	6803      	ldr	r3, [r0, #0]
 8006b4e:	f043 0304 	orr.w	r3, r3, #4
 8006b52:	6003      	str	r3, [r0, #0]
  TIMx->EGR = TIM_EGR_UG;
 8006b54:	6141      	str	r1, [r0, #20]
  TIMx->CR1 = tmpcr1;
 8006b56:	6002      	str	r2, [r0, #0]
}
 8006b58:	4770      	bx	lr
    tmpcr1 |= Structure->CounterMode;
 8006b5a:	684e      	ldr	r6, [r1, #4]
    tmpcr1 &= ~(TIM_CR1_DIR | TIM_CR1_CMS);
 8006b5c:	f023 0370 	bic.w	r3, r3, #112	@ 0x70
    tmpcr1 |= (uint32_t)Structure->ClockDivision;
 8006b60:	68c9      	ldr	r1, [r1, #12]
    tmpcr1 |= Structure->CounterMode;
 8006b62:	4333      	orrs	r3, r6
    tmpcr1 &= ~TIM_CR1_CKD;
 8006b64:	f423 7340 	bic.w	r3, r3, #768	@ 0x300
    tmpcr1 |= (uint32_t)Structure->ClockDivision;
 8006b68:	430b      	orrs	r3, r1
  MODIFY_REG(tmpcr1, TIM_CR1_ARPE, Structure->AutoReloadPreload);
 8006b6a:	f023 0380 	bic.w	r3, r3, #128	@ 0x80
  TIMx->ARR = (uint32_t)Structure->Period ;
 8006b6e:	62c5      	str	r5, [r0, #44]	@ 0x2c
  MODIFY_REG(tmpcr1, TIM_CR1_ARPE, Structure->AutoReloadPreload);
 8006b70:	431a      	orrs	r2, r3
  TIMx->PSC = Structure->Prescaler;
 8006b72:	6284      	str	r4, [r0, #40]	@ 0x28
  if (IS_TIM_REPETITION_COUNTER_INSTANCE(TIMx))
 8006b74:	e7e8      	b.n	8006b48 <TIM_Base_SetConfig+0x30>
    tmpcr1 |= Structure->CounterMode;
 8006b76:	684e      	ldr	r6, [r1, #4]
    tmpcr1 &= ~(TIM_CR1_DIR | TIM_CR1_CMS);
 8006b78:	f023 0370 	bic.w	r3, r3, #112	@ 0x70
    tmpcr1 |= Structure->CounterMode;
 8006b7c:	4333      	orrs	r3, r6
    tmpcr1 |= (uint32_t)Structure->ClockDivision;
 8006b7e:	68ce      	ldr	r6, [r1, #12]
    tmpcr1 &= ~TIM_CR1_CKD;
 8006b80:	f423 7340 	bic.w	r3, r3, #768	@ 0x300
  TIMx->ARR = (uint32_t)Structure->Period ;
 8006b84:	62c5      	str	r5, [r0, #44]	@ 0x2c
  TIMx->PSC = Structure->Prescaler;
 8006b86:	6284      	str	r4, [r0, #40]	@ 0x28
    TIMx->RCR = Structure->RepetitionCounter;
 8006b88:	6909      	ldr	r1, [r1, #16]
    tmpcr1 |= (uint32_t)Structure->ClockDivision;
 8006b8a:	4333      	orrs	r3, r6
  MODIFY_REG(tmpcr1, TIM_CR1_ARPE, Structure->AutoReloadPreload);
 8006b8c:	f023 0380 	bic.w	r3, r3, #128	@ 0x80
 8006b90:	431a      	orrs	r2, r3
    TIMx->RCR = Structure->RepetitionCounter;
 8006b92:	6301      	str	r1, [r0, #48]	@ 0x30
 8006b94:	e7d8      	b.n	8006b48 <TIM_Base_SetConfig+0x30>
 8006b96:	bf00      	nop
 8006b98:	40012c00 	.word	0x40012c00

08006b9c <HAL_TIM_Base_Init>:
  if (htim == NULL)
 8006b9c:	b350      	cbz	r0, 8006bf4 <HAL_TIM_Base_Init+0x58>
{
 8006b9e:	b510      	push	{r4, lr}
  if (htim->State == HAL_TIM_STATE_RESET)
 8006ba0:	f890 303d 	ldrb.w	r3, [r0, #61]	@ 0x3d
 8006ba4:	4604      	mov	r4, r0
 8006ba6:	f003 02ff 	and.w	r2, r3, #255	@ 0xff
 8006baa:	b1f3      	cbz	r3, 8006bea <HAL_TIM_Base_Init+0x4e>
  htim->State = HAL_TIM_STATE_BUSY;
 8006bac:	2302      	movs	r3, #2
  TIM_Base_SetConfig(htim->Instance, &htim->Init);
 8006bae:	4621      	mov	r1, r4
  htim->State = HAL_TIM_STATE_BUSY;
 8006bb0:	f884 303d 	strb.w	r3, [r4, #61]	@ 0x3d
  TIM_Base_SetConfig(htim->Instance, &htim->Init);
 8006bb4:	f851 0b04 	ldr.w	r0, [r1], #4
 8006bb8:	f7ff ffae 	bl	8006b18 <TIM_Base_SetConfig>
  htim->DMABurstState = HAL_DMA_BURST_STATE_READY;
 8006bbc:	2301      	movs	r3, #1
 8006bbe:	f884 3046 	strb.w	r3, [r4, #70]	@ 0x46
  TIM_CHANNEL_STATE_SET_ALL(htim, HAL_TIM_CHANNEL_STATE_READY);
 8006bc2:	f884 303e 	strb.w	r3, [r4, #62]	@ 0x3e
 8006bc6:	f884 303f 	strb.w	r3, [r4, #63]	@ 0x3f
 8006bca:	f884 3040 	strb.w	r3, [r4, #64]	@ 0x40
 8006bce:	f884 3041 	strb.w	r3, [r4, #65]	@ 0x41
  TIM_CHANNEL_N_STATE_SET_ALL(htim, HAL_TIM_CHANNEL_STATE_READY);
 8006bd2:	f884 3042 	strb.w	r3, [r4, #66]	@ 0x42
 8006bd6:	f884 3043 	strb.w	r3, [r4, #67]	@ 0x43
 8006bda:	f884 3044 	strb.w	r3, [r4, #68]	@ 0x44
 8006bde:	f884 3045 	strb.w	r3, [r4, #69]	@ 0x45
  htim->State = HAL_TIM_STATE_READY;
 8006be2:	f884 303d 	strb.w	r3, [r4, #61]	@ 0x3d
  return HAL_OK;
 8006be6:	2000      	movs	r0, #0
}
 8006be8:	bd10      	pop	{r4, pc}
    htim->Lock = HAL_UNLOCKED;
 8006bea:	f880 203c 	strb.w	r2, [r0, #60]	@ 0x3c
    HAL_TIM_Base_MspInit(htim);
 8006bee:	f7fc fb6f 	bl	80032d0 <HAL_TIM_Base_MspInit>
 8006bf2:	e7db      	b.n	8006bac <HAL_TIM_Base_Init+0x10>
    return HAL_ERROR;
 8006bf4:	2001      	movs	r0, #1
}
 8006bf6:	4770      	bx	lr

08006bf8 <HAL_TIM_PWM_Init>:
  if (htim == NULL)
 8006bf8:	b350      	cbz	r0, 8006c50 <HAL_TIM_PWM_Init+0x58>
{
 8006bfa:	b510      	push	{r4, lr}
  if (htim->State == HAL_TIM_STATE_RESET)
 8006bfc:	f890 303d 	ldrb.w	r3, [r0, #61]	@ 0x3d
 8006c00:	4604      	mov	r4, r0
 8006c02:	f003 02ff 	and.w	r2, r3, #255	@ 0xff
 8006c06:	b1f3      	cbz	r3, 8006c46 <HAL_TIM_PWM_Init+0x4e>
  htim->State = HAL_TIM_STATE_BUSY;
 8006c08:	2302      	movs	r3, #2
  TIM_Base_SetConfig(htim->Instance, &htim->Init);
 8006c0a:	4621      	mov	r1, r4
  htim->State = HAL_TIM_STATE_BUSY;
 8006c0c:	f884 303d 	strb.w	r3, [r4, #61]	@ 0x3d
  TIM_Base_SetConfig(htim->Instance, &htim->Init);
 8006c10:	f851 0b04 	ldr.w	r0, [r1], #4
 8006c14:	f7ff ff80 	bl	8006b18 <TIM_Base_SetConfig>
  htim->DMABurstState = HAL_DMA_BURST_STATE_READY;
 8006c18:	2301      	movs	r3, #1
 8006c1a:	f884 3046 	strb.w	r3, [r4, #70]	@ 0x46
  TIM_CHANNEL_STATE_SET_ALL(htim, HAL_TIM_CHANNEL_STATE_READY);
 8006c1e:	f884 303e 	strb.w	r3, [r4, #62]	@ 0x3e
 8006c22:	f884 303f 	strb.w	r3, [r4, #63]	@ 0x3f
 8006c26:	f884 3040 	strb.w	r3, [r4, #64]	@ 0x40
 8006c2a:	f884 3041 	strb.w	r3, [r4, #65]	@ 0x41
  TIM_CHANNEL_N_STATE_SET_ALL(htim, HAL_TIM_CHANNEL_STATE_READY);
 8006c2e:	f884 3042 	strb.w	r3, [r4, #66]	@ 0x42
 8006c32:	f884 3043 	strb.w	r3, [r4, #67]	@ 0x43
 8006c36:	f884 3044 	strb.w	r3, [r4, #68]	@ 0x44
 8006c3a:	f884 3045 	strb.w	r3, [r4, #69]	@ 0x45
  htim->State = HAL_TIM_STATE_READY;
 8006c3e:	f884 303d 	strb.w	r3, [r4, #61]	@ 0x3d
  return HAL_OK;
 8006c42:	2000      	movs	r0, #0
}
 8006c44:	bd10      	pop	{r4, pc}
    htim->Lock = HAL_UNLOCKED;
 8006c46:	f880 203c 	strb.w	r2, [r0, #60]	@ 0x3c
    HAL_TIM_PWM_MspInit(htim);
 8006c4a:	f7ff feb7 	bl	80069bc <HAL_TIM_PWM_MspInit>
 8006c4e:	e7db      	b.n	8006c08 <HAL_TIM_PWM_Init+0x10>
    return HAL_ERROR;
 8006c50:	2001      	movs	r0, #1
}
 8006c52:	4770      	bx	lr

08006c54 <TIM_OC2_SetConfig>:
  tmpccer = TIMx->CCER;
 8006c54:	6a03      	ldr	r3, [r0, #32]
  TIMx->CCER &= ~TIM_CCER_CC2E;
 8006c56:	6a02      	ldr	r2, [r0, #32]
{
 8006c58:	b470      	push	{r4, r5, r6}
  TIMx->CCER &= ~TIM_CCER_CC2E;
 8006c5a:	f022 0210 	bic.w	r2, r2, #16
 8006c5e:	6202      	str	r2, [r0, #32]
  tmpcr2 =  TIMx->CR2;
 8006c60:	6844      	ldr	r4, [r0, #4]
  tmpccmrx = TIMx->CCMR1;
 8006c62:	6982      	ldr	r2, [r0, #24]
  tmpccmrx |= (OC_Config->OCMode << 8U);
 8006c64:	680e      	ldr	r6, [r1, #0]
  if (IS_TIM_CCXN_INSTANCE(TIMx, TIM_CHANNEL_2))
 8006c66:	4d11      	ldr	r5, [pc, #68]	@ (8006cac <TIM_OC2_SetConfig+0x58>)
  tmpccmrx &= ~TIM_CCMR1_CC2S;
 8006c68:	f422 42e6 	bic.w	r2, r2, #29440	@ 0x7300
  tmpccmrx |= (OC_Config->OCMode << 8U);
 8006c6c:	ea42 2206 	orr.w	r2, r2, r6, lsl #8
  tmpccer |= (OC_Config->OCPolarity << 4U);
 8006c70:	688e      	ldr	r6, [r1, #8]
  tmpccer &= ~TIM_CCER_CC2P;
 8006c72:	f023 0320 	bic.w	r3, r3, #32
  if (IS_TIM_CCXN_INSTANCE(TIMx, TIM_CHANNEL_2))
 8006c76:	42a8      	cmp	r0, r5
  tmpccer |= (OC_Config->OCPolarity << 4U);
 8006c78:	ea43 1306 	orr.w	r3, r3, r6, lsl #4
  if (IS_TIM_CCXN_INSTANCE(TIMx, TIM_CHANNEL_2))
 8006c7c:	d006      	beq.n	8006c8c <TIM_OC2_SetConfig+0x38>
  TIMx->CCR2 = OC_Config->Pulse;
 8006c7e:	6849      	ldr	r1, [r1, #4]
  TIMx->CR2 = tmpcr2;
 8006c80:	6044      	str	r4, [r0, #4]
  TIMx->CCMR1 = tmpccmrx;
 8006c82:	6182      	str	r2, [r0, #24]
}
 8006c84:	bc70      	pop	{r4, r5, r6}
  TIMx->CCR2 = OC_Config->Pulse;
 8006c86:	6381      	str	r1, [r0, #56]	@ 0x38
  TIMx->CCER = tmpccer;
 8006c88:	6203      	str	r3, [r0, #32]
}
 8006c8a:	4770      	bx	lr
    tmpccer |= (OC_Config->OCNPolarity << 4U);
 8006c8c:	68cd      	ldr	r5, [r1, #12]
    tmpccer &= ~TIM_CCER_CC2NP;
 8006c8e:	f023 0380 	bic.w	r3, r3, #128	@ 0x80
    tmpccer |= (OC_Config->OCNPolarity << 4U);
 8006c92:	ea43 1305 	orr.w	r3, r3, r5, lsl #4
    tmpcr2 &= ~TIM_CR2_OIS2N;
 8006c96:	f424 6440 	bic.w	r4, r4, #3072	@ 0xc00
    tmpcr2 |= (OC_Config->OCNIdleState << 2U);
 8006c9a:	e9d1 5605 	ldrd	r5, r6, [r1, #20]
 8006c9e:	4335      	orrs	r5, r6
    tmpccer &= ~TIM_CCER_CC2NE;
 8006ca0:	f023 0340 	bic.w	r3, r3, #64	@ 0x40
    tmpcr2 |= (OC_Config->OCNIdleState << 2U);
 8006ca4:	ea44 0485 	orr.w	r4, r4, r5, lsl #2
 8006ca8:	e7e9      	b.n	8006c7e <TIM_OC2_SetConfig+0x2a>
 8006caa:	bf00      	nop
 8006cac:	40012c00 	.word	0x40012c00

08006cb0 <HAL_TIM_PWM_ConfigChannel>:
{
 8006cb0:	b538      	push	{r3, r4, r5, lr}
  __HAL_LOCK(htim);
 8006cb2:	f890 303c 	ldrb.w	r3, [r0, #60]	@ 0x3c
 8006cb6:	2b01      	cmp	r3, #1
 8006cb8:	d057      	beq.n	8006d6a <HAL_TIM_PWM_ConfigChannel+0xba>
 8006cba:	2301      	movs	r3, #1
 8006cbc:	4604      	mov	r4, r0
 8006cbe:	460d      	mov	r5, r1
 8006cc0:	f880 303c 	strb.w	r3, [r0, #60]	@ 0x3c
  switch (Channel)
 8006cc4:	2a0c      	cmp	r2, #12
 8006cc6:	d808      	bhi.n	8006cda <HAL_TIM_PWM_ConfigChannel+0x2a>
 8006cc8:	e8df f002 	tbb	[pc, r2]
 8006ccc:	0707071e 	.word	0x0707071e
 8006cd0:	0707072e 	.word	0x0707072e
 8006cd4:	0707073f 	.word	0x0707073f
 8006cd8:	0c          	.byte	0x0c
 8006cd9:	00          	.byte	0x00
 8006cda:	2001      	movs	r0, #1
  __HAL_UNLOCK(htim);
 8006cdc:	2300      	movs	r3, #0
 8006cde:	f884 303c 	strb.w	r3, [r4, #60]	@ 0x3c
}
 8006ce2:	bd38      	pop	{r3, r4, r5, pc}
      TIM_OC4_SetConfig(htim->Instance, sConfig);
 8006ce4:	6800      	ldr	r0, [r0, #0]
 8006ce6:	f7ff fdeb 	bl	80068c0 <TIM_OC4_SetConfig>
      htim->Instance->CCMR2 |= TIM_CCMR2_OC4PE;
 8006cea:	69c3      	ldr	r3, [r0, #28]
      htim->Instance->CCMR2 |= sConfig->OCFastMode << 8U;
 8006cec:	692a      	ldr	r2, [r5, #16]
      htim->Instance->CCMR2 |= TIM_CCMR2_OC4PE;
 8006cee:	f443 6300 	orr.w	r3, r3, #2048	@ 0x800
 8006cf2:	61c3      	str	r3, [r0, #28]
      htim->Instance->CCMR2 &= ~TIM_CCMR2_OC4FE;
 8006cf4:	69c3      	ldr	r3, [r0, #28]
 8006cf6:	f423 6380 	bic.w	r3, r3, #1024	@ 0x400
 8006cfa:	61c3      	str	r3, [r0, #28]
      htim->Instance->CCMR2 |= sConfig->OCFastMode << 8U;
 8006cfc:	69c3      	ldr	r3, [r0, #28]
 8006cfe:	ea43 2302 	orr.w	r3, r3, r2, lsl #8
 8006d02:	61c3      	str	r3, [r0, #28]
  HAL_StatusTypeDef status = HAL_OK;
 8006d04:	2000      	movs	r0, #0
 8006d06:	e7e9      	b.n	8006cdc <HAL_TIM_PWM_ConfigChannel+0x2c>
      TIM_OC1_SetConfig(htim->Instance, sConfig);
 8006d08:	6800      	ldr	r0, [r0, #0]
 8006d0a:	f7ff fd83 	bl	8006814 <TIM_OC1_SetConfig>
      htim->Instance->CCMR1 |= TIM_CCMR1_OC1PE;
 8006d0e:	6983      	ldr	r3, [r0, #24]
      htim->Instance->CCMR1 |= sConfig->OCFastMode;
 8006d10:	692a      	ldr	r2, [r5, #16]
      htim->Instance->CCMR1 |= TIM_CCMR1_OC1PE;
 8006d12:	f043 0308 	orr.w	r3, r3, #8
 8006d16:	6183      	str	r3, [r0, #24]
      htim->Instance->CCMR1 &= ~TIM_CCMR1_OC1FE;
 8006d18:	6983      	ldr	r3, [r0, #24]
 8006d1a:	f023 0304 	bic.w	r3, r3, #4
 8006d1e:	6183      	str	r3, [r0, #24]
      htim->Instance->CCMR1 |= sConfig->OCFastMode;
 8006d20:	6983      	ldr	r3, [r0, #24]
 8006d22:	4313      	orrs	r3, r2
 8006d24:	6183      	str	r3, [r0, #24]
      break;
 8006d26:	e7ed      	b.n	8006d04 <HAL_TIM_PWM_ConfigChannel+0x54>
      TIM_OC2_SetConfig(htim->Instance, sConfig);
 8006d28:	6800      	ldr	r0, [r0, #0]
 8006d2a:	f7ff ff93 	bl	8006c54 <TIM_OC2_SetConfig>
      htim->Instance->CCMR1 |= TIM_CCMR1_OC2PE;
 8006d2e:	6983      	ldr	r3, [r0, #24]
      htim->Instance->CCMR1 |= sConfig->OCFastMode << 8U;
 8006d30:	692a      	ldr	r2, [r5, #16]
      htim->Instance->CCMR1 |= TIM_CCMR1_OC2PE;
 8006d32:	f443 6300 	orr.w	r3, r3, #2048	@ 0x800
 8006d36:	6183      	str	r3, [r0, #24]
      htim->Instance->CCMR1 &= ~TIM_CCMR1_OC2FE;
 8006d38:	6983      	ldr	r3, [r0, #24]
 8006d3a:	f423 6380 	bic.w	r3, r3, #1024	@ 0x400
 8006d3e:	6183      	str	r3, [r0, #24]
      htim->Instance->CCMR1 |= sConfig->OCFastMode << 8U;
 8006d40:	6983      	ldr	r3, [r0, #24]
 8006d42:	ea43 2302 	orr.w	r3, r3, r2, lsl #8
 8006d46:	6183      	str	r3, [r0, #24]
      break;
 8006d48:	e7dc      	b.n	8006d04 <HAL_TIM_PWM_ConfigChannel+0x54>
      TIM_OC3_SetConfig(htim->Instance, sConfig);
 8006d4a:	6800      	ldr	r0, [r0, #0]
 8006d4c:	f7ff fd8c 	bl	8006868 <TIM_OC3_SetConfig>
      htim->Instance->CCMR2 |= TIM_CCMR2_OC3PE;
 8006d50:	69c3      	ldr	r3, [r0, #28]
      htim->Instance->CCMR2 |= sConfig->OCFastMode;
 8006d52:	692a      	ldr	r2, [r5, #16]
      htim->Instance->CCMR2 |= TIM_CCMR2_OC3PE;
 8006d54:	f043 0308 	orr.w	r3, r3, #8
 8006d58:	61c3      	str	r3, [r0, #28]
      htim->Instance->CCMR2 &= ~TIM_CCMR2_OC3FE;
 8006d5a:	69c3      	ldr	r3, [r0, #28]
 8006d5c:	f023 0304 	bic.w	r3, r3, #4
 8006d60:	61c3      	str	r3, [r0, #28]
      htim->Instance->CCMR2 |= sConfig->OCFastMode;
 8006d62:	69c3      	ldr	r3, [r0, #28]
 8006d64:	4313      	orrs	r3, r2
 8006d66:	61c3      	str	r3, [r0, #28]
      break;
 8006d68:	e7cc      	b.n	8006d04 <HAL_TIM_PWM_ConfigChannel+0x54>
  __HAL_LOCK(htim);
 8006d6a:	2002      	movs	r0, #2
}
 8006d6c:	bd38      	pop	{r3, r4, r5, pc}
 8006d6e:	bf00      	nop

08006d70 <HAL_TIMEx_MasterConfigSynchronization>:
  assert_param(IS_TIM_MASTER_INSTANCE(htim->Instance));
  assert_param(IS_TIM_TRGO_SOURCE(sMasterConfig->MasterOutputTrigger));
  assert_param(IS_TIM_MSM_STATE(sMasterConfig->MasterSlaveMode));

  /* Check input state */
  __HAL_LOCK(htim);
 8006d70:	f890 203c 	ldrb.w	r2, [r0, #60]	@ 0x3c
 8006d74:	2a01      	cmp	r2, #1
 8006d76:	d027      	beq.n	8006dc8 <HAL_TIMEx_MasterConfigSynchronization+0x58>
 8006d78:	4603      	mov	r3, r0

  /* Change the handler state */
  htim->State = HAL_TIM_STATE_BUSY;
 8006d7a:	2002      	movs	r0, #2

  /* Get the TIMx CR2 register value */
  tmpcr2 = htim->Instance->CR2;
 8006d7c:	681a      	ldr	r2, [r3, #0]
{
 8006d7e:	b430      	push	{r4, r5}
  htim->State = HAL_TIM_STATE_BUSY;
 8006d80:	f883 003d 	strb.w	r0, [r3, #61]	@ 0x3d
  tmpcr2 = htim->Instance->CR2;
 8006d84:	6850      	ldr	r0, [r2, #4]
  tmpsmcr = htim->Instance->SMCR;

  /* Reset the MMS Bits */
  tmpcr2 &= ~TIM_CR2_MMS;
  /* Select the TRGO source */
  tmpcr2 |=  sMasterConfig->MasterOutputTrigger;
 8006d86:	680c      	ldr	r4, [r1, #0]

  /* Update TIMx CR2 */
  htim->Instance->CR2 = tmpcr2;

  if (IS_TIM_SLAVE_INSTANCE(htim->Instance))
 8006d88:	4d10      	ldr	r5, [pc, #64]	@ (8006dcc <HAL_TIMEx_MasterConfigSynchronization+0x5c>)
  tmpcr2 &= ~TIM_CR2_MMS;
 8006d8a:	f020 0070 	bic.w	r0, r0, #112	@ 0x70
  tmpcr2 |=  sMasterConfig->MasterOutputTrigger;
 8006d8e:	4320      	orrs	r0, r4
  if (IS_TIM_SLAVE_INSTANCE(htim->Instance))
 8006d90:	42aa      	cmp	r2, r5
  tmpsmcr = htim->Instance->SMCR;
 8006d92:	6894      	ldr	r4, [r2, #8]
  htim->Instance->CR2 = tmpcr2;
 8006d94:	6050      	str	r0, [r2, #4]
  if (IS_TIM_SLAVE_INSTANCE(htim->Instance))
 8006d96:	d009      	beq.n	8006dac <HAL_TIMEx_MasterConfigSynchronization+0x3c>
 8006d98:	f1b2 4f80 	cmp.w	r2, #1073741824	@ 0x40000000
 8006d9c:	d006      	beq.n	8006dac <HAL_TIMEx_MasterConfigSynchronization+0x3c>
 8006d9e:	480c      	ldr	r0, [pc, #48]	@ (8006dd0 <HAL_TIMEx_MasterConfigSynchronization+0x60>)
 8006da0:	4282      	cmp	r2, r0
 8006da2:	d003      	beq.n	8006dac <HAL_TIMEx_MasterConfigSynchronization+0x3c>
 8006da4:	f500 6080 	add.w	r0, r0, #1024	@ 0x400
 8006da8:	4282      	cmp	r2, r0
 8006daa:	d104      	bne.n	8006db6 <HAL_TIMEx_MasterConfigSynchronization+0x46>
  {
    /* Reset the MSM Bit */
    tmpsmcr &= ~TIM_SMCR_MSM;
    /* Set master mode */
    tmpsmcr |= sMasterConfig->MasterSlaveMode;
 8006dac:	6849      	ldr	r1, [r1, #4]
    tmpsmcr &= ~TIM_SMCR_MSM;
 8006dae:	f024 0480 	bic.w	r4, r4, #128	@ 0x80
    tmpsmcr |= sMasterConfig->MasterSlaveMode;
 8006db2:	430c      	orrs	r4, r1

    /* Update TIMx SMCR */
    htim->Instance->SMCR = tmpsmcr;
 8006db4:	6094      	str	r4, [r2, #8]
  }

  /* Change the htim state */
  htim->State = HAL_TIM_STATE_READY;

  __HAL_UNLOCK(htim);
 8006db6:	2200      	movs	r2, #0
  htim->State = HAL_TIM_STATE_READY;
 8006db8:	2101      	movs	r1, #1
  __HAL_UNLOCK(htim);
 8006dba:	f883 203c 	strb.w	r2, [r3, #60]	@ 0x3c
  htim->State = HAL_TIM_STATE_READY;
 8006dbe:	f883 103d 	strb.w	r1, [r3, #61]	@ 0x3d

  return HAL_OK;
 8006dc2:	4610      	mov	r0, r2
}
 8006dc4:	bc30      	pop	{r4, r5}
 8006dc6:	4770      	bx	lr
  __HAL_LOCK(htim);
 8006dc8:	2002      	movs	r0, #2
}
 8006dca:	4770      	bx	lr
 8006dcc:	40012c00 	.word	0x40012c00
 8006dd0:	40000400 	.word	0x40000400

08006dd4 <HAL_TIMEx_ConfigBreakDeadTime>:
  assert_param(IS_TIM_BREAK_STATE(sBreakDeadTimeConfig->BreakState));
  assert_param(IS_TIM_BREAK_POLARITY(sBreakDeadTimeConfig->BreakPolarity));
  assert_param(IS_TIM_AUTOMATIC_OUTPUT_STATE(sBreakDeadTimeConfig->AutomaticOutput));

  /* Check input state */
  __HAL_LOCK(htim);
 8006dd4:	f890 303c 	ldrb.w	r3, [r0, #60]	@ 0x3c
 8006dd8:	2b01      	cmp	r3, #1
 8006dda:	d023      	beq.n	8006e24 <HAL_TIMEx_ConfigBreakDeadTime+0x50>
 8006ddc:	4602      	mov	r2, r0
  /* Set the Lock level, the Break enable Bit and the Polarity, the OSSR State,
     the OSSI State, the dead time value and the Automatic Output Enable Bit */

  /* Set the BDTR bits */
  MODIFY_REG(tmpbdtr, TIM_BDTR_DTG, sBreakDeadTimeConfig->DeadTime);
  MODIFY_REG(tmpbdtr, TIM_BDTR_LOCK, sBreakDeadTimeConfig->LockLevel);
 8006dde:	e9d1 0302 	ldrd	r0, r3, [r1, #8]


  /* Set TIMx_BDTR */
  htim->Instance->BDTR = tmpbdtr;

  __HAL_UNLOCK(htim);
 8006de2:	f04f 0c00 	mov.w	ip, #0
  MODIFY_REG(tmpbdtr, TIM_BDTR_LOCK, sBreakDeadTimeConfig->LockLevel);
 8006de6:	f423 7340 	bic.w	r3, r3, #768	@ 0x300
 8006dea:	4303      	orrs	r3, r0
  MODIFY_REG(tmpbdtr, TIM_BDTR_OSSI, sBreakDeadTimeConfig->OffStateIDLEMode);
 8006dec:	6848      	ldr	r0, [r1, #4]
 8006dee:	f423 6380 	bic.w	r3, r3, #1024	@ 0x400
 8006df2:	4303      	orrs	r3, r0
  MODIFY_REG(tmpbdtr, TIM_BDTR_OSSR, sBreakDeadTimeConfig->OffStateRunMode);
 8006df4:	6808      	ldr	r0, [r1, #0]
 8006df6:	f423 6300 	bic.w	r3, r3, #2048	@ 0x800
 8006dfa:	4303      	orrs	r3, r0
  MODIFY_REG(tmpbdtr, TIM_BDTR_BKE, sBreakDeadTimeConfig->BreakState);
 8006dfc:	6908      	ldr	r0, [r1, #16]
 8006dfe:	f423 5380 	bic.w	r3, r3, #4096	@ 0x1000
{
 8006e02:	b410      	push	{r4}
  MODIFY_REG(tmpbdtr, TIM_BDTR_BKE, sBreakDeadTimeConfig->BreakState);
 8006e04:	4303      	orrs	r3, r0
  MODIFY_REG(tmpbdtr, TIM_BDTR_BKP, sBreakDeadTimeConfig->BreakPolarity);
 8006e06:	694c      	ldr	r4, [r1, #20]
 8006e08:	f423 5300 	bic.w	r3, r3, #8192	@ 0x2000
  MODIFY_REG(tmpbdtr, TIM_BDTR_AOE, sBreakDeadTimeConfig->AutomaticOutput);
 8006e0c:	69c8      	ldr	r0, [r1, #28]
  MODIFY_REG(tmpbdtr, TIM_BDTR_BKP, sBreakDeadTimeConfig->BreakPolarity);
 8006e0e:	4323      	orrs	r3, r4
  htim->Instance->BDTR = tmpbdtr;
 8006e10:	6811      	ldr	r1, [r2, #0]
  MODIFY_REG(tmpbdtr, TIM_BDTR_AOE, sBreakDeadTimeConfig->AutomaticOutput);
 8006e12:	f423 4380 	bic.w	r3, r3, #16384	@ 0x4000
 8006e16:	4303      	orrs	r3, r0
  htim->Instance->BDTR = tmpbdtr;
 8006e18:	644b      	str	r3, [r1, #68]	@ 0x44
  __HAL_UNLOCK(htim);
 8006e1a:	f882 c03c 	strb.w	ip, [r2, #60]	@ 0x3c

  return HAL_OK;
 8006e1e:	4660      	mov	r0, ip
}
 8006e20:	bc10      	pop	{r4}
 8006e22:	4770      	bx	lr
  __HAL_LOCK(htim);
 8006e24:	2002      	movs	r0, #2
}
 8006e26:	4770      	bx	lr

08006e28 <srand>:
 8006e28:	b538      	push	{r3, r4, r5, lr}
 8006e2a:	4b10      	ldr	r3, [pc, #64]	@ (8006e6c <srand+0x44>)
 8006e2c:	4604      	mov	r4, r0
 8006e2e:	681d      	ldr	r5, [r3, #0]
 8006e30:	6b2b      	ldr	r3, [r5, #48]	@ 0x30
 8006e32:	b9b3      	cbnz	r3, 8006e62 <srand+0x3a>
 8006e34:	2018      	movs	r0, #24
 8006e36:	f001 fd2b 	bl	8008890 <malloc>
 8006e3a:	4602      	mov	r2, r0
 8006e3c:	6328      	str	r0, [r5, #48]	@ 0x30
 8006e3e:	b920      	cbnz	r0, 8006e4a <srand+0x22>
 8006e40:	2146      	movs	r1, #70	@ 0x46
 8006e42:	4b0b      	ldr	r3, [pc, #44]	@ (8006e70 <srand+0x48>)
 8006e44:	480b      	ldr	r0, [pc, #44]	@ (8006e74 <srand+0x4c>)
 8006e46:	f000 fe6b 	bl	8007b20 <__assert_func>
 8006e4a:	490b      	ldr	r1, [pc, #44]	@ (8006e78 <srand+0x50>)
 8006e4c:	4b0b      	ldr	r3, [pc, #44]	@ (8006e7c <srand+0x54>)
 8006e4e:	e9c0 1300 	strd	r1, r3, [r0]
 8006e52:	4b0b      	ldr	r3, [pc, #44]	@ (8006e80 <srand+0x58>)
 8006e54:	2100      	movs	r1, #0
 8006e56:	6083      	str	r3, [r0, #8]
 8006e58:	230b      	movs	r3, #11
 8006e5a:	8183      	strh	r3, [r0, #12]
 8006e5c:	2001      	movs	r0, #1
 8006e5e:	e9c2 0104 	strd	r0, r1, [r2, #16]
 8006e62:	2200      	movs	r2, #0
 8006e64:	6b2b      	ldr	r3, [r5, #48]	@ 0x30
 8006e66:	611c      	str	r4, [r3, #16]
 8006e68:	615a      	str	r2, [r3, #20]
 8006e6a:	bd38      	pop	{r3, r4, r5, pc}
 8006e6c:	20000074 	.word	0x20000074
 8006e70:	0800b964 	.word	0x0800b964
 8006e74:	0800b97b 	.word	0x0800b97b
 8006e78:	abcd330e 	.word	0xabcd330e
 8006e7c:	e66d1234 	.word	0xe66d1234
 8006e80:	0005deec 	.word	0x0005deec

08006e84 <rand>:
 8006e84:	4b16      	ldr	r3, [pc, #88]	@ (8006ee0 <rand+0x5c>)
 8006e86:	b510      	push	{r4, lr}
 8006e88:	681c      	ldr	r4, [r3, #0]
 8006e8a:	6b23      	ldr	r3, [r4, #48]	@ 0x30
 8006e8c:	b9b3      	cbnz	r3, 8006ebc <rand+0x38>
 8006e8e:	2018      	movs	r0, #24
 8006e90:	f001 fcfe 	bl	8008890 <malloc>
 8006e94:	4602      	mov	r2, r0
 8006e96:	6320      	str	r0, [r4, #48]	@ 0x30
 8006e98:	b920      	cbnz	r0, 8006ea4 <rand+0x20>
 8006e9a:	2152      	movs	r1, #82	@ 0x52
 8006e9c:	4b11      	ldr	r3, [pc, #68]	@ (8006ee4 <rand+0x60>)
 8006e9e:	4812      	ldr	r0, [pc, #72]	@ (8006ee8 <rand+0x64>)
 8006ea0:	f000 fe3e 	bl	8007b20 <__assert_func>
 8006ea4:	4911      	ldr	r1, [pc, #68]	@ (8006eec <rand+0x68>)
 8006ea6:	4b12      	ldr	r3, [pc, #72]	@ (8006ef0 <rand+0x6c>)
 8006ea8:	e9c0 1300 	strd	r1, r3, [r0]
 8006eac:	4b11      	ldr	r3, [pc, #68]	@ (8006ef4 <rand+0x70>)
 8006eae:	2100      	movs	r1, #0
 8006eb0:	6083      	str	r3, [r0, #8]
 8006eb2:	230b      	movs	r3, #11
 8006eb4:	8183      	strh	r3, [r0, #12]
 8006eb6:	2001      	movs	r0, #1
 8006eb8:	e9c2 0104 	strd	r0, r1, [r2, #16]
 8006ebc:	6b21      	ldr	r1, [r4, #48]	@ 0x30
 8006ebe:	480e      	ldr	r0, [pc, #56]	@ (8006ef8 <rand+0x74>)
 8006ec0:	690b      	ldr	r3, [r1, #16]
 8006ec2:	694c      	ldr	r4, [r1, #20]
 8006ec4:	4358      	muls	r0, r3
 8006ec6:	4a0d      	ldr	r2, [pc, #52]	@ (8006efc <rand+0x78>)
 8006ec8:	fb02 0004 	mla	r0, r2, r4, r0
 8006ecc:	fba3 3202 	umull	r3, r2, r3, r2
 8006ed0:	3301      	adds	r3, #1
 8006ed2:	eb40 0002 	adc.w	r0, r0, r2
 8006ed6:	e9c1 3004 	strd	r3, r0, [r1, #16]
 8006eda:	f020 4000 	bic.w	r0, r0, #2147483648	@ 0x80000000
 8006ede:	bd10      	pop	{r4, pc}
 8006ee0:	20000074 	.word	0x20000074
 8006ee4:	0800b964 	.word	0x0800b964
 8006ee8:	0800b97b 	.word	0x0800b97b
 8006eec:	abcd330e 	.word	0xabcd330e
 8006ef0:	e66d1234 	.word	0xe66d1234
 8006ef4:	0005deec 	.word	0x0005deec
 8006ef8:	5851f42d 	.word	0x5851f42d
 8006efc:	4c957f2d 	.word	0x4c957f2d

08006f00 <__cvt>:
 8006f00:	2b00      	cmp	r3, #0
 8006f02:	e92d 47f0 	stmdb	sp!, {r4, r5, r6, r7, r8, r9, sl, lr}
 8006f06:	461d      	mov	r5, r3
 8006f08:	bfbb      	ittet	lt
 8006f0a:	f103 4300 	addlt.w	r3, r3, #2147483648	@ 0x80000000
 8006f0e:	461d      	movlt	r5, r3
 8006f10:	2300      	movge	r3, #0
 8006f12:	232d      	movlt	r3, #45	@ 0x2d
 8006f14:	b088      	sub	sp, #32
 8006f16:	4614      	mov	r4, r2
 8006f18:	bfb8      	it	lt
 8006f1a:	4614      	movlt	r4, r2
 8006f1c:	9a12      	ldr	r2, [sp, #72]	@ 0x48
 8006f1e:	9e10      	ldr	r6, [sp, #64]	@ 0x40
 8006f20:	7013      	strb	r3, [r2, #0]
 8006f22:	9b14      	ldr	r3, [sp, #80]	@ 0x50
 8006f24:	f8dd a04c 	ldr.w	sl, [sp, #76]	@ 0x4c
 8006f28:	f023 0820 	bic.w	r8, r3, #32
 8006f2c:	f1b8 0f46 	cmp.w	r8, #70	@ 0x46
 8006f30:	d005      	beq.n	8006f3e <__cvt+0x3e>
 8006f32:	f1b8 0f45 	cmp.w	r8, #69	@ 0x45
 8006f36:	d100      	bne.n	8006f3a <__cvt+0x3a>
 8006f38:	3601      	adds	r6, #1
 8006f3a:	2302      	movs	r3, #2
 8006f3c:	e000      	b.n	8006f40 <__cvt+0x40>
 8006f3e:	2303      	movs	r3, #3
 8006f40:	aa07      	add	r2, sp, #28
 8006f42:	9204      	str	r2, [sp, #16]
 8006f44:	aa06      	add	r2, sp, #24
 8006f46:	e9cd a202 	strd	sl, r2, [sp, #8]
 8006f4a:	e9cd 3600 	strd	r3, r6, [sp]
 8006f4e:	4622      	mov	r2, r4
 8006f50:	462b      	mov	r3, r5
 8006f52:	f000 fe8d 	bl	8007c70 <_dtoa_r>
 8006f56:	f1b8 0f47 	cmp.w	r8, #71	@ 0x47
 8006f5a:	4607      	mov	r7, r0
 8006f5c:	d119      	bne.n	8006f92 <__cvt+0x92>
 8006f5e:	9b11      	ldr	r3, [sp, #68]	@ 0x44
 8006f60:	07db      	lsls	r3, r3, #31
 8006f62:	d50e      	bpl.n	8006f82 <__cvt+0x82>
 8006f64:	eb00 0906 	add.w	r9, r0, r6
 8006f68:	2200      	movs	r2, #0
 8006f6a:	2300      	movs	r3, #0
 8006f6c:	4620      	mov	r0, r4
 8006f6e:	4629      	mov	r1, r5
 8006f70:	f7f9 fd1a 	bl	80009a8 <__aeabi_dcmpeq>
 8006f74:	b108      	cbz	r0, 8006f7a <__cvt+0x7a>
 8006f76:	f8cd 901c 	str.w	r9, [sp, #28]
 8006f7a:	2230      	movs	r2, #48	@ 0x30
 8006f7c:	9b07      	ldr	r3, [sp, #28]
 8006f7e:	454b      	cmp	r3, r9
 8006f80:	d31e      	bcc.n	8006fc0 <__cvt+0xc0>
 8006f82:	4638      	mov	r0, r7
 8006f84:	9b07      	ldr	r3, [sp, #28]
 8006f86:	9a15      	ldr	r2, [sp, #84]	@ 0x54
 8006f88:	1bdb      	subs	r3, r3, r7
 8006f8a:	6013      	str	r3, [r2, #0]
 8006f8c:	b008      	add	sp, #32
 8006f8e:	e8bd 87f0 	ldmia.w	sp!, {r4, r5, r6, r7, r8, r9, sl, pc}
 8006f92:	f1b8 0f46 	cmp.w	r8, #70	@ 0x46
 8006f96:	eb00 0906 	add.w	r9, r0, r6
 8006f9a:	d1e5      	bne.n	8006f68 <__cvt+0x68>
 8006f9c:	7803      	ldrb	r3, [r0, #0]
 8006f9e:	2b30      	cmp	r3, #48	@ 0x30
 8006fa0:	d10a      	bne.n	8006fb8 <__cvt+0xb8>
 8006fa2:	2200      	movs	r2, #0
 8006fa4:	2300      	movs	r3, #0
 8006fa6:	4620      	mov	r0, r4
 8006fa8:	4629      	mov	r1, r5
 8006faa:	f7f9 fcfd 	bl	80009a8 <__aeabi_dcmpeq>
 8006fae:	b918      	cbnz	r0, 8006fb8 <__cvt+0xb8>
 8006fb0:	f1c6 0601 	rsb	r6, r6, #1
 8006fb4:	f8ca 6000 	str.w	r6, [sl]
 8006fb8:	f8da 3000 	ldr.w	r3, [sl]
 8006fbc:	4499      	add	r9, r3
 8006fbe:	e7d3      	b.n	8006f68 <__cvt+0x68>
 8006fc0:	1c59      	adds	r1, r3, #1
 8006fc2:	9107      	str	r1, [sp, #28]
 8006fc4:	701a      	strb	r2, [r3, #0]
 8006fc6:	e7d9      	b.n	8006f7c <__cvt+0x7c>

08006fc8 <__exponent>:
 8006fc8:	b5f7      	push	{r0, r1, r2, r4, r5, r6, r7, lr}
 8006fca:	2900      	cmp	r1, #0
 8006fcc:	bfb6      	itet	lt
 8006fce:	232d      	movlt	r3, #45	@ 0x2d
 8006fd0:	232b      	movge	r3, #43	@ 0x2b
 8006fd2:	4249      	neglt	r1, r1
 8006fd4:	2909      	cmp	r1, #9
 8006fd6:	7002      	strb	r2, [r0, #0]
 8006fd8:	7043      	strb	r3, [r0, #1]
 8006fda:	dd29      	ble.n	8007030 <__exponent+0x68>
 8006fdc:	f10d 0307 	add.w	r3, sp, #7
 8006fe0:	461d      	mov	r5, r3
 8006fe2:	270a      	movs	r7, #10
 8006fe4:	fbb1 f6f7 	udiv	r6, r1, r7
 8006fe8:	461a      	mov	r2, r3
 8006fea:	fb07 1416 	mls	r4, r7, r6, r1
 8006fee:	3430      	adds	r4, #48	@ 0x30
 8006ff0:	f802 4c01 	strb.w	r4, [r2, #-1]
 8006ff4:	460c      	mov	r4, r1
 8006ff6:	2c63      	cmp	r4, #99	@ 0x63
 8006ff8:	4631      	mov	r1, r6
 8006ffa:	f103 33ff 	add.w	r3, r3, #4294967295
 8006ffe:	dcf1      	bgt.n	8006fe4 <__exponent+0x1c>
 8007000:	3130      	adds	r1, #48	@ 0x30
 8007002:	1e94      	subs	r4, r2, #2
 8007004:	f803 1c01 	strb.w	r1, [r3, #-1]
 8007008:	4623      	mov	r3, r4
 800700a:	1c41      	adds	r1, r0, #1
 800700c:	42ab      	cmp	r3, r5
 800700e:	d30a      	bcc.n	8007026 <__exponent+0x5e>
 8007010:	f10d 0309 	add.w	r3, sp, #9
 8007014:	1a9b      	subs	r3, r3, r2
 8007016:	42ac      	cmp	r4, r5
 8007018:	bf88      	it	hi
 800701a:	2300      	movhi	r3, #0
 800701c:	3302      	adds	r3, #2
 800701e:	4403      	add	r3, r0
 8007020:	1a18      	subs	r0, r3, r0
 8007022:	b003      	add	sp, #12
 8007024:	bdf0      	pop	{r4, r5, r6, r7, pc}
 8007026:	f813 6b01 	ldrb.w	r6, [r3], #1
 800702a:	f801 6f01 	strb.w	r6, [r1, #1]!
 800702e:	e7ed      	b.n	800700c <__exponent+0x44>
 8007030:	2330      	movs	r3, #48	@ 0x30
 8007032:	3130      	adds	r1, #48	@ 0x30
 8007034:	7083      	strb	r3, [r0, #2]
 8007036:	70c1      	strb	r1, [r0, #3]
 8007038:	1d03      	adds	r3, r0, #4
 800703a:	e7f1      	b.n	8007020 <__exponent+0x58>

0800703c <_printf_float>:
 800703c:	e92d 4ff0 	stmdb	sp!, {r4, r5, r6, r7, r8, r9, sl, fp, lr}
 8007040:	b091      	sub	sp, #68	@ 0x44
 8007042:	460c      	mov	r4, r1
 8007044:	f8dd 8068 	ldr.w	r8, [sp, #104]	@ 0x68
 8007048:	4616      	mov	r6, r2
 800704a:	461f      	mov	r7, r3
 800704c:	4605      	mov	r5, r0
 800704e:	f000 fce1 	bl	8007a14 <_localeconv_r>
 8007052:	6803      	ldr	r3, [r0, #0]
 8007054:	4618      	mov	r0, r3
 8007056:	9308      	str	r3, [sp, #32]
 8007058:	f7f9 f87a 	bl	8000150 <strlen>
 800705c:	2300      	movs	r3, #0
 800705e:	930e      	str	r3, [sp, #56]	@ 0x38
 8007060:	f8d8 3000 	ldr.w	r3, [r8]
 8007064:	9009      	str	r0, [sp, #36]	@ 0x24
 8007066:	3307      	adds	r3, #7
 8007068:	f023 0307 	bic.w	r3, r3, #7
 800706c:	f103 0208 	add.w	r2, r3, #8
 8007070:	f894 a018 	ldrb.w	sl, [r4, #24]
 8007074:	f8d4 b000 	ldr.w	fp, [r4]
 8007078:	f8c8 2000 	str.w	r2, [r8]
 800707c:	e9d3 8900 	ldrd	r8, r9, [r3]
 8007080:	f029 4300 	bic.w	r3, r9, #2147483648	@ 0x80000000
 8007084:	930b      	str	r3, [sp, #44]	@ 0x2c
 8007086:	f8cd 8028 	str.w	r8, [sp, #40]	@ 0x28
 800708a:	f04f 32ff 	mov.w	r2, #4294967295
 800708e:	e9dd 010a 	ldrd	r0, r1, [sp, #40]	@ 0x28
 8007092:	e9c4 8912 	strd	r8, r9, [r4, #72]	@ 0x48
 8007096:	4b9c      	ldr	r3, [pc, #624]	@ (8007308 <_printf_float+0x2cc>)
 8007098:	f7f9 fcb8 	bl	8000a0c <__aeabi_dcmpun>
 800709c:	bb70      	cbnz	r0, 80070fc <_printf_float+0xc0>
 800709e:	e9dd 010a 	ldrd	r0, r1, [sp, #40]	@ 0x28
 80070a2:	f04f 32ff 	mov.w	r2, #4294967295
 80070a6:	4b98      	ldr	r3, [pc, #608]	@ (8007308 <_printf_float+0x2cc>)
 80070a8:	f7f9 fc92 	bl	80009d0 <__aeabi_dcmple>
 80070ac:	bb30      	cbnz	r0, 80070fc <_printf_float+0xc0>
 80070ae:	2200      	movs	r2, #0
 80070b0:	2300      	movs	r3, #0
 80070b2:	4640      	mov	r0, r8
 80070b4:	4649      	mov	r1, r9
 80070b6:	f7f9 fc81 	bl	80009bc <__aeabi_dcmplt>
 80070ba:	b110      	cbz	r0, 80070c2 <_printf_float+0x86>
 80070bc:	232d      	movs	r3, #45	@ 0x2d
 80070be:	f884 3043 	strb.w	r3, [r4, #67]	@ 0x43
 80070c2:	4a92      	ldr	r2, [pc, #584]	@ (800730c <_printf_float+0x2d0>)
 80070c4:	4b92      	ldr	r3, [pc, #584]	@ (8007310 <_printf_float+0x2d4>)
 80070c6:	f1ba 0f47 	cmp.w	sl, #71	@ 0x47
 80070ca:	bf94      	ite	ls
 80070cc:	4690      	movls	r8, r2
 80070ce:	4698      	movhi	r8, r3
 80070d0:	2303      	movs	r3, #3
 80070d2:	f04f 0900 	mov.w	r9, #0
 80070d6:	6123      	str	r3, [r4, #16]
 80070d8:	f02b 0304 	bic.w	r3, fp, #4
 80070dc:	6023      	str	r3, [r4, #0]
 80070de:	4633      	mov	r3, r6
 80070e0:	4621      	mov	r1, r4
 80070e2:	4628      	mov	r0, r5
 80070e4:	9700      	str	r7, [sp, #0]
 80070e6:	aa0f      	add	r2, sp, #60	@ 0x3c
 80070e8:	f000 f9d4 	bl	8007494 <_printf_common>
 80070ec:	3001      	adds	r0, #1
 80070ee:	f040 8090 	bne.w	8007212 <_printf_float+0x1d6>
 80070f2:	f04f 30ff 	mov.w	r0, #4294967295
 80070f6:	b011      	add	sp, #68	@ 0x44
 80070f8:	e8bd 8ff0 	ldmia.w	sp!, {r4, r5, r6, r7, r8, r9, sl, fp, pc}
 80070fc:	4642      	mov	r2, r8
 80070fe:	464b      	mov	r3, r9
 8007100:	4640      	mov	r0, r8
 8007102:	4649      	mov	r1, r9
 8007104:	f7f9 fc82 	bl	8000a0c <__aeabi_dcmpun>
 8007108:	b148      	cbz	r0, 800711e <_printf_float+0xe2>
 800710a:	464b      	mov	r3, r9
 800710c:	2b00      	cmp	r3, #0
 800710e:	bfb8      	it	lt
 8007110:	232d      	movlt	r3, #45	@ 0x2d
 8007112:	4a80      	ldr	r2, [pc, #512]	@ (8007314 <_printf_float+0x2d8>)
 8007114:	bfb8      	it	lt
 8007116:	f884 3043 	strblt.w	r3, [r4, #67]	@ 0x43
 800711a:	4b7f      	ldr	r3, [pc, #508]	@ (8007318 <_printf_float+0x2dc>)
 800711c:	e7d3      	b.n	80070c6 <_printf_float+0x8a>
 800711e:	6863      	ldr	r3, [r4, #4]
 8007120:	f00a 01df 	and.w	r1, sl, #223	@ 0xdf
 8007124:	1c5a      	adds	r2, r3, #1
 8007126:	d13f      	bne.n	80071a8 <_printf_float+0x16c>
 8007128:	2306      	movs	r3, #6
 800712a:	6063      	str	r3, [r4, #4]
 800712c:	2200      	movs	r2, #0
 800712e:	f44b 6380 	orr.w	r3, fp, #1024	@ 0x400
 8007132:	6023      	str	r3, [r4, #0]
 8007134:	9206      	str	r2, [sp, #24]
 8007136:	aa0e      	add	r2, sp, #56	@ 0x38
 8007138:	e9cd a204 	strd	sl, r2, [sp, #16]
 800713c:	aa0d      	add	r2, sp, #52	@ 0x34
 800713e:	9203      	str	r2, [sp, #12]
 8007140:	f10d 0233 	add.w	r2, sp, #51	@ 0x33
 8007144:	e9cd 3201 	strd	r3, r2, [sp, #4]
 8007148:	6863      	ldr	r3, [r4, #4]
 800714a:	4642      	mov	r2, r8
 800714c:	9300      	str	r3, [sp, #0]
 800714e:	4628      	mov	r0, r5
 8007150:	464b      	mov	r3, r9
 8007152:	910a      	str	r1, [sp, #40]	@ 0x28
 8007154:	f7ff fed4 	bl	8006f00 <__cvt>
 8007158:	990a      	ldr	r1, [sp, #40]	@ 0x28
 800715a:	4680      	mov	r8, r0
 800715c:	2947      	cmp	r1, #71	@ 0x47
 800715e:	990d      	ldr	r1, [sp, #52]	@ 0x34
 8007160:	d128      	bne.n	80071b4 <_printf_float+0x178>
 8007162:	1cc8      	adds	r0, r1, #3
 8007164:	db02      	blt.n	800716c <_printf_float+0x130>
 8007166:	6863      	ldr	r3, [r4, #4]
 8007168:	4299      	cmp	r1, r3
 800716a:	dd40      	ble.n	80071ee <_printf_float+0x1b2>
 800716c:	f1aa 0a02 	sub.w	sl, sl, #2
 8007170:	fa5f fa8a 	uxtb.w	sl, sl
 8007174:	4652      	mov	r2, sl
 8007176:	3901      	subs	r1, #1
 8007178:	f104 0050 	add.w	r0, r4, #80	@ 0x50
 800717c:	910d      	str	r1, [sp, #52]	@ 0x34
 800717e:	f7ff ff23 	bl	8006fc8 <__exponent>
 8007182:	9a0e      	ldr	r2, [sp, #56]	@ 0x38
 8007184:	4681      	mov	r9, r0
 8007186:	1813      	adds	r3, r2, r0
 8007188:	2a01      	cmp	r2, #1
 800718a:	6123      	str	r3, [r4, #16]
 800718c:	dc02      	bgt.n	8007194 <_printf_float+0x158>
 800718e:	6822      	ldr	r2, [r4, #0]
 8007190:	07d2      	lsls	r2, r2, #31
 8007192:	d501      	bpl.n	8007198 <_printf_float+0x15c>
 8007194:	3301      	adds	r3, #1
 8007196:	6123      	str	r3, [r4, #16]
 8007198:	f89d 3033 	ldrb.w	r3, [sp, #51]	@ 0x33
 800719c:	2b00      	cmp	r3, #0
 800719e:	d09e      	beq.n	80070de <_printf_float+0xa2>
 80071a0:	232d      	movs	r3, #45	@ 0x2d
 80071a2:	f884 3043 	strb.w	r3, [r4, #67]	@ 0x43
 80071a6:	e79a      	b.n	80070de <_printf_float+0xa2>
 80071a8:	2947      	cmp	r1, #71	@ 0x47
 80071aa:	d1bf      	bne.n	800712c <_printf_float+0xf0>
 80071ac:	2b00      	cmp	r3, #0
 80071ae:	d1bd      	bne.n	800712c <_printf_float+0xf0>
 80071b0:	2301      	movs	r3, #1
 80071b2:	e7ba      	b.n	800712a <_printf_float+0xee>
 80071b4:	f1ba 0f65 	cmp.w	sl, #101	@ 0x65
 80071b8:	d9dc      	bls.n	8007174 <_printf_float+0x138>
 80071ba:	f1ba 0f66 	cmp.w	sl, #102	@ 0x66
 80071be:	d118      	bne.n	80071f2 <_printf_float+0x1b6>
 80071c0:	2900      	cmp	r1, #0
 80071c2:	6863      	ldr	r3, [r4, #4]
 80071c4:	dd0b      	ble.n	80071de <_printf_float+0x1a2>
 80071c6:	6121      	str	r1, [r4, #16]
 80071c8:	b913      	cbnz	r3, 80071d0 <_printf_float+0x194>
 80071ca:	6822      	ldr	r2, [r4, #0]
 80071cc:	07d0      	lsls	r0, r2, #31
 80071ce:	d502      	bpl.n	80071d6 <_printf_float+0x19a>
 80071d0:	3301      	adds	r3, #1
 80071d2:	440b      	add	r3, r1
 80071d4:	6123      	str	r3, [r4, #16]
 80071d6:	f04f 0900 	mov.w	r9, #0
 80071da:	65a1      	str	r1, [r4, #88]	@ 0x58
 80071dc:	e7dc      	b.n	8007198 <_printf_float+0x15c>
 80071de:	b913      	cbnz	r3, 80071e6 <_printf_float+0x1aa>
 80071e0:	6822      	ldr	r2, [r4, #0]
 80071e2:	07d2      	lsls	r2, r2, #31
 80071e4:	d501      	bpl.n	80071ea <_printf_float+0x1ae>
 80071e6:	3302      	adds	r3, #2
 80071e8:	e7f4      	b.n	80071d4 <_printf_float+0x198>
 80071ea:	2301      	movs	r3, #1
 80071ec:	e7f2      	b.n	80071d4 <_printf_float+0x198>
 80071ee:	f04f 0a67 	mov.w	sl, #103	@ 0x67
 80071f2:	9b0e      	ldr	r3, [sp, #56]	@ 0x38
 80071f4:	4299      	cmp	r1, r3
 80071f6:	db05      	blt.n	8007204 <_printf_float+0x1c8>
 80071f8:	6823      	ldr	r3, [r4, #0]
 80071fa:	6121      	str	r1, [r4, #16]
 80071fc:	07d8      	lsls	r0, r3, #31
 80071fe:	d5ea      	bpl.n	80071d6 <_printf_float+0x19a>
 8007200:	1c4b      	adds	r3, r1, #1
 8007202:	e7e7      	b.n	80071d4 <_printf_float+0x198>
 8007204:	2900      	cmp	r1, #0
 8007206:	bfcc      	ite	gt
 8007208:	2201      	movgt	r2, #1
 800720a:	f1c1 0202 	rsble	r2, r1, #2
 800720e:	4413      	add	r3, r2
 8007210:	e7e0      	b.n	80071d4 <_printf_float+0x198>
 8007212:	6823      	ldr	r3, [r4, #0]
 8007214:	055a      	lsls	r2, r3, #21
 8007216:	d407      	bmi.n	8007228 <_printf_float+0x1ec>
 8007218:	6923      	ldr	r3, [r4, #16]
 800721a:	4642      	mov	r2, r8
 800721c:	4631      	mov	r1, r6
 800721e:	4628      	mov	r0, r5
 8007220:	47b8      	blx	r7
 8007222:	3001      	adds	r0, #1
 8007224:	d12b      	bne.n	800727e <_printf_float+0x242>
 8007226:	e764      	b.n	80070f2 <_printf_float+0xb6>
 8007228:	f1ba 0f65 	cmp.w	sl, #101	@ 0x65
 800722c:	f240 80dc 	bls.w	80073e8 <_printf_float+0x3ac>
 8007230:	e9d4 0112 	ldrd	r0, r1, [r4, #72]	@ 0x48
 8007234:	2200      	movs	r2, #0
 8007236:	2300      	movs	r3, #0
 8007238:	f7f9 fbb6 	bl	80009a8 <__aeabi_dcmpeq>
 800723c:	2800      	cmp	r0, #0
 800723e:	d033      	beq.n	80072a8 <_printf_float+0x26c>
 8007240:	2301      	movs	r3, #1
 8007242:	4631      	mov	r1, r6
 8007244:	4628      	mov	r0, r5
 8007246:	4a35      	ldr	r2, [pc, #212]	@ (800731c <_printf_float+0x2e0>)
 8007248:	47b8      	blx	r7
 800724a:	3001      	adds	r0, #1
 800724c:	f43f af51 	beq.w	80070f2 <_printf_float+0xb6>
 8007250:	e9dd 380d 	ldrd	r3, r8, [sp, #52]	@ 0x34
 8007254:	4543      	cmp	r3, r8
 8007256:	db02      	blt.n	800725e <_printf_float+0x222>
 8007258:	6823      	ldr	r3, [r4, #0]
 800725a:	07d8      	lsls	r0, r3, #31
 800725c:	d50f      	bpl.n	800727e <_printf_float+0x242>
 800725e:	e9dd 2308 	ldrd	r2, r3, [sp, #32]
 8007262:	4631      	mov	r1, r6
 8007264:	4628      	mov	r0, r5
 8007266:	47b8      	blx	r7
 8007268:	3001      	adds	r0, #1
 800726a:	f43f af42 	beq.w	80070f2 <_printf_float+0xb6>
 800726e:	f04f 0900 	mov.w	r9, #0
 8007272:	f108 38ff 	add.w	r8, r8, #4294967295
 8007276:	f104 0a1a 	add.w	sl, r4, #26
 800727a:	45c8      	cmp	r8, r9
 800727c:	dc09      	bgt.n	8007292 <_printf_float+0x256>
 800727e:	6823      	ldr	r3, [r4, #0]
 8007280:	079b      	lsls	r3, r3, #30
 8007282:	f100 8102 	bmi.w	800748a <_printf_float+0x44e>
 8007286:	68e0      	ldr	r0, [r4, #12]
 8007288:	9b0f      	ldr	r3, [sp, #60]	@ 0x3c
 800728a:	4298      	cmp	r0, r3
 800728c:	bfb8      	it	lt
 800728e:	4618      	movlt	r0, r3
 8007290:	e731      	b.n	80070f6 <_printf_float+0xba>
 8007292:	2301      	movs	r3, #1
 8007294:	4652      	mov	r2, sl
 8007296:	4631      	mov	r1, r6
 8007298:	4628      	mov	r0, r5
 800729a:	47b8      	blx	r7
 800729c:	3001      	adds	r0, #1
 800729e:	f43f af28 	beq.w	80070f2 <_printf_float+0xb6>
 80072a2:	f109 0901 	add.w	r9, r9, #1
 80072a6:	e7e8      	b.n	800727a <_printf_float+0x23e>
 80072a8:	9b0d      	ldr	r3, [sp, #52]	@ 0x34
 80072aa:	2b00      	cmp	r3, #0
 80072ac:	dc38      	bgt.n	8007320 <_printf_float+0x2e4>
 80072ae:	2301      	movs	r3, #1
 80072b0:	4631      	mov	r1, r6
 80072b2:	4628      	mov	r0, r5
 80072b4:	4a19      	ldr	r2, [pc, #100]	@ (800731c <_printf_float+0x2e0>)
 80072b6:	47b8      	blx	r7
 80072b8:	3001      	adds	r0, #1
 80072ba:	f43f af1a 	beq.w	80070f2 <_printf_float+0xb6>
 80072be:	e9dd 390d 	ldrd	r3, r9, [sp, #52]	@ 0x34
 80072c2:	ea59 0303 	orrs.w	r3, r9, r3
 80072c6:	d102      	bne.n	80072ce <_printf_float+0x292>
 80072c8:	6823      	ldr	r3, [r4, #0]
 80072ca:	07d9      	lsls	r1, r3, #31
 80072cc:	d5d7      	bpl.n	800727e <_printf_float+0x242>
 80072ce:	e9dd 2308 	ldrd	r2, r3, [sp, #32]
 80072d2:	4631      	mov	r1, r6
 80072d4:	4628      	mov	r0, r5
 80072d6:	47b8      	blx	r7
 80072d8:	3001      	adds	r0, #1
 80072da:	f43f af0a 	beq.w	80070f2 <_printf_float+0xb6>
 80072de:	f04f 0a00 	mov.w	sl, #0
 80072e2:	f104 0b1a 	add.w	fp, r4, #26
 80072e6:	9b0d      	ldr	r3, [sp, #52]	@ 0x34
 80072e8:	425b      	negs	r3, r3
 80072ea:	4553      	cmp	r3, sl
 80072ec:	dc01      	bgt.n	80072f2 <_printf_float+0x2b6>
 80072ee:	464b      	mov	r3, r9
 80072f0:	e793      	b.n	800721a <_printf_float+0x1de>
 80072f2:	2301      	movs	r3, #1
 80072f4:	465a      	mov	r2, fp
 80072f6:	4631      	mov	r1, r6
 80072f8:	4628      	mov	r0, r5
 80072fa:	47b8      	blx	r7
 80072fc:	3001      	adds	r0, #1
 80072fe:	f43f aef8 	beq.w	80070f2 <_printf_float+0xb6>
 8007302:	f10a 0a01 	add.w	sl, sl, #1
 8007306:	e7ee      	b.n	80072e6 <_printf_float+0x2aa>
 8007308:	7fefffff 	.word	0x7fefffff
 800730c:	0800b9d3 	.word	0x0800b9d3
 8007310:	0800b9d7 	.word	0x0800b9d7
 8007314:	0800b9db 	.word	0x0800b9db
 8007318:	0800b9df 	.word	0x0800b9df
 800731c:	0800b9e3 	.word	0x0800b9e3
 8007320:	6da3      	ldr	r3, [r4, #88]	@ 0x58
 8007322:	f8dd a038 	ldr.w	sl, [sp, #56]	@ 0x38
 8007326:	4553      	cmp	r3, sl
 8007328:	bfa8      	it	ge
 800732a:	4653      	movge	r3, sl
 800732c:	2b00      	cmp	r3, #0
 800732e:	4699      	mov	r9, r3
 8007330:	dc36      	bgt.n	80073a0 <_printf_float+0x364>
 8007332:	f04f 0b00 	mov.w	fp, #0
 8007336:	ea29 79e9 	bic.w	r9, r9, r9, asr #31
 800733a:	f104 021a 	add.w	r2, r4, #26
 800733e:	6da3      	ldr	r3, [r4, #88]	@ 0x58
 8007340:	930a      	str	r3, [sp, #40]	@ 0x28
 8007342:	eba3 0309 	sub.w	r3, r3, r9
 8007346:	455b      	cmp	r3, fp
 8007348:	dc31      	bgt.n	80073ae <_printf_float+0x372>
 800734a:	9b0d      	ldr	r3, [sp, #52]	@ 0x34
 800734c:	459a      	cmp	sl, r3
 800734e:	dc3a      	bgt.n	80073c6 <_printf_float+0x38a>
 8007350:	6823      	ldr	r3, [r4, #0]
 8007352:	07da      	lsls	r2, r3, #31
 8007354:	d437      	bmi.n	80073c6 <_printf_float+0x38a>
 8007356:	9b0d      	ldr	r3, [sp, #52]	@ 0x34
 8007358:	ebaa 0903 	sub.w	r9, sl, r3
 800735c:	9b0a      	ldr	r3, [sp, #40]	@ 0x28
 800735e:	ebaa 0303 	sub.w	r3, sl, r3
 8007362:	4599      	cmp	r9, r3
 8007364:	bfa8      	it	ge
 8007366:	4699      	movge	r9, r3
 8007368:	f1b9 0f00 	cmp.w	r9, #0
 800736c:	dc33      	bgt.n	80073d6 <_printf_float+0x39a>
 800736e:	f04f 0800 	mov.w	r8, #0
 8007372:	ea29 79e9 	bic.w	r9, r9, r9, asr #31
 8007376:	f104 0b1a 	add.w	fp, r4, #26
 800737a:	9b0d      	ldr	r3, [sp, #52]	@ 0x34
 800737c:	ebaa 0303 	sub.w	r3, sl, r3
 8007380:	eba3 0309 	sub.w	r3, r3, r9
 8007384:	4543      	cmp	r3, r8
 8007386:	f77f af7a 	ble.w	800727e <_printf_float+0x242>
 800738a:	2301      	movs	r3, #1
 800738c:	465a      	mov	r2, fp
 800738e:	4631      	mov	r1, r6
 8007390:	4628      	mov	r0, r5
 8007392:	47b8      	blx	r7
 8007394:	3001      	adds	r0, #1
 8007396:	f43f aeac 	beq.w	80070f2 <_printf_float+0xb6>
 800739a:	f108 0801 	add.w	r8, r8, #1
 800739e:	e7ec      	b.n	800737a <_printf_float+0x33e>
 80073a0:	4642      	mov	r2, r8
 80073a2:	4631      	mov	r1, r6
 80073a4:	4628      	mov	r0, r5
 80073a6:	47b8      	blx	r7
 80073a8:	3001      	adds	r0, #1
 80073aa:	d1c2      	bne.n	8007332 <_printf_float+0x2f6>
 80073ac:	e6a1      	b.n	80070f2 <_printf_float+0xb6>
 80073ae:	2301      	movs	r3, #1
 80073b0:	4631      	mov	r1, r6
 80073b2:	4628      	mov	r0, r5
 80073b4:	920a      	str	r2, [sp, #40]	@ 0x28
 80073b6:	47b8      	blx	r7
 80073b8:	3001      	adds	r0, #1
 80073ba:	f43f ae9a 	beq.w	80070f2 <_printf_float+0xb6>
 80073be:	9a0a      	ldr	r2, [sp, #40]	@ 0x28
 80073c0:	f10b 0b01 	add.w	fp, fp, #1
 80073c4:	e7bb      	b.n	800733e <_printf_float+0x302>
 80073c6:	4631      	mov	r1, r6
 80073c8:	e9dd 2308 	ldrd	r2, r3, [sp, #32]
 80073cc:	4628      	mov	r0, r5
 80073ce:	47b8      	blx	r7
 80073d0:	3001      	adds	r0, #1
 80073d2:	d1c0      	bne.n	8007356 <_printf_float+0x31a>
 80073d4:	e68d      	b.n	80070f2 <_printf_float+0xb6>
 80073d6:	9a0a      	ldr	r2, [sp, #40]	@ 0x28
 80073d8:	464b      	mov	r3, r9
 80073da:	4631      	mov	r1, r6
 80073dc:	4628      	mov	r0, r5
 80073de:	4442      	add	r2, r8
 80073e0:	47b8      	blx	r7
 80073e2:	3001      	adds	r0, #1
 80073e4:	d1c3      	bne.n	800736e <_printf_float+0x332>
 80073e6:	e684      	b.n	80070f2 <_printf_float+0xb6>
 80073e8:	f8dd a038 	ldr.w	sl, [sp, #56]	@ 0x38
 80073ec:	f1ba 0f01 	cmp.w	sl, #1
 80073f0:	dc01      	bgt.n	80073f6 <_printf_float+0x3ba>
 80073f2:	07db      	lsls	r3, r3, #31
 80073f4:	d536      	bpl.n	8007464 <_printf_float+0x428>
 80073f6:	2301      	movs	r3, #1
 80073f8:	4642      	mov	r2, r8
 80073fa:	4631      	mov	r1, r6
 80073fc:	4628      	mov	r0, r5
 80073fe:	47b8      	blx	r7
 8007400:	3001      	adds	r0, #1
 8007402:	f43f ae76 	beq.w	80070f2 <_printf_float+0xb6>
 8007406:	e9dd 2308 	ldrd	r2, r3, [sp, #32]
 800740a:	4631      	mov	r1, r6
 800740c:	4628      	mov	r0, r5
 800740e:	47b8      	blx	r7
 8007410:	3001      	adds	r0, #1
 8007412:	f43f ae6e 	beq.w	80070f2 <_printf_float+0xb6>
 8007416:	e9d4 0112 	ldrd	r0, r1, [r4, #72]	@ 0x48
 800741a:	2200      	movs	r2, #0
 800741c:	2300      	movs	r3, #0
 800741e:	f10a 3aff 	add.w	sl, sl, #4294967295
 8007422:	f7f9 fac1 	bl	80009a8 <__aeabi_dcmpeq>
 8007426:	b9c0      	cbnz	r0, 800745a <_printf_float+0x41e>
 8007428:	4653      	mov	r3, sl
 800742a:	f108 0201 	add.w	r2, r8, #1
 800742e:	4631      	mov	r1, r6
 8007430:	4628      	mov	r0, r5
 8007432:	47b8      	blx	r7
 8007434:	3001      	adds	r0, #1
 8007436:	d10c      	bne.n	8007452 <_printf_float+0x416>
 8007438:	e65b      	b.n	80070f2 <_printf_float+0xb6>
 800743a:	2301      	movs	r3, #1
 800743c:	465a      	mov	r2, fp
 800743e:	4631      	mov	r1, r6
 8007440:	4628      	mov	r0, r5
 8007442:	47b8      	blx	r7
 8007444:	3001      	adds	r0, #1
 8007446:	f43f ae54 	beq.w	80070f2 <_printf_float+0xb6>
 800744a:	f108 0801 	add.w	r8, r8, #1
 800744e:	45d0      	cmp	r8, sl
 8007450:	dbf3      	blt.n	800743a <_printf_float+0x3fe>
 8007452:	464b      	mov	r3, r9
 8007454:	f104 0250 	add.w	r2, r4, #80	@ 0x50
 8007458:	e6e0      	b.n	800721c <_printf_float+0x1e0>
 800745a:	f04f 0800 	mov.w	r8, #0
 800745e:	f104 0b1a 	add.w	fp, r4, #26
 8007462:	e7f4      	b.n	800744e <_printf_float+0x412>
 8007464:	2301      	movs	r3, #1
 8007466:	4642      	mov	r2, r8
 8007468:	e7e1      	b.n	800742e <_printf_float+0x3f2>
 800746a:	2301      	movs	r3, #1
 800746c:	464a      	mov	r2, r9
 800746e:	4631      	mov	r1, r6
 8007470:	4628      	mov	r0, r5
 8007472:	47b8      	blx	r7
 8007474:	3001      	adds	r0, #1
 8007476:	f43f ae3c 	beq.w	80070f2 <_printf_float+0xb6>
 800747a:	f108 0801 	add.w	r8, r8, #1
 800747e:	68e3      	ldr	r3, [r4, #12]
 8007480:	990f      	ldr	r1, [sp, #60]	@ 0x3c
 8007482:	1a5b      	subs	r3, r3, r1
 8007484:	4543      	cmp	r3, r8
 8007486:	dcf0      	bgt.n	800746a <_printf_float+0x42e>
 8007488:	e6fd      	b.n	8007286 <_printf_float+0x24a>
 800748a:	f04f 0800 	mov.w	r8, #0
 800748e:	f104 0919 	add.w	r9, r4, #25
 8007492:	e7f4      	b.n	800747e <_printf_float+0x442>

08007494 <_printf_common>:
 8007494:	e92d 47f0 	stmdb	sp!, {r4, r5, r6, r7, r8, r9, sl, lr}
 8007498:	4616      	mov	r6, r2
 800749a:	4698      	mov	r8, r3
 800749c:	688a      	ldr	r2, [r1, #8]
 800749e:	690b      	ldr	r3, [r1, #16]
 80074a0:	4607      	mov	r7, r0
 80074a2:	4293      	cmp	r3, r2
 80074a4:	bfb8      	it	lt
 80074a6:	4613      	movlt	r3, r2
 80074a8:	6033      	str	r3, [r6, #0]
 80074aa:	f891 2043 	ldrb.w	r2, [r1, #67]	@ 0x43
 80074ae:	460c      	mov	r4, r1
 80074b0:	f8dd 9020 	ldr.w	r9, [sp, #32]
 80074b4:	b10a      	cbz	r2, 80074ba <_printf_common+0x26>
 80074b6:	3301      	adds	r3, #1
 80074b8:	6033      	str	r3, [r6, #0]
 80074ba:	6823      	ldr	r3, [r4, #0]
 80074bc:	0699      	lsls	r1, r3, #26
 80074be:	bf42      	ittt	mi
 80074c0:	6833      	ldrmi	r3, [r6, #0]
 80074c2:	3302      	addmi	r3, #2
 80074c4:	6033      	strmi	r3, [r6, #0]
 80074c6:	6825      	ldr	r5, [r4, #0]
 80074c8:	f015 0506 	ands.w	r5, r5, #6
 80074cc:	d106      	bne.n	80074dc <_printf_common+0x48>
 80074ce:	f104 0a19 	add.w	sl, r4, #25
 80074d2:	68e3      	ldr	r3, [r4, #12]
 80074d4:	6832      	ldr	r2, [r6, #0]
 80074d6:	1a9b      	subs	r3, r3, r2
 80074d8:	42ab      	cmp	r3, r5
 80074da:	dc2b      	bgt.n	8007534 <_printf_common+0xa0>
 80074dc:	f894 3043 	ldrb.w	r3, [r4, #67]	@ 0x43
 80074e0:	6822      	ldr	r2, [r4, #0]
 80074e2:	3b00      	subs	r3, #0
 80074e4:	bf18      	it	ne
 80074e6:	2301      	movne	r3, #1
 80074e8:	0692      	lsls	r2, r2, #26
 80074ea:	d430      	bmi.n	800754e <_printf_common+0xba>
 80074ec:	4641      	mov	r1, r8
 80074ee:	4638      	mov	r0, r7
 80074f0:	f104 0243 	add.w	r2, r4, #67	@ 0x43
 80074f4:	47c8      	blx	r9
 80074f6:	3001      	adds	r0, #1
 80074f8:	d023      	beq.n	8007542 <_printf_common+0xae>
 80074fa:	6823      	ldr	r3, [r4, #0]
 80074fc:	6922      	ldr	r2, [r4, #16]
 80074fe:	f003 0306 	and.w	r3, r3, #6
 8007502:	2b04      	cmp	r3, #4
 8007504:	bf14      	ite	ne
 8007506:	2500      	movne	r5, #0
 8007508:	6833      	ldreq	r3, [r6, #0]
 800750a:	f04f 0600 	mov.w	r6, #0
 800750e:	bf08      	it	eq
 8007510:	68e5      	ldreq	r5, [r4, #12]
 8007512:	f104 041a 	add.w	r4, r4, #26
 8007516:	bf08      	it	eq
 8007518:	1aed      	subeq	r5, r5, r3
 800751a:	f854 3c12 	ldr.w	r3, [r4, #-18]
 800751e:	bf08      	it	eq
 8007520:	ea25 75e5 	biceq.w	r5, r5, r5, asr #31
 8007524:	4293      	cmp	r3, r2
 8007526:	bfc4      	itt	gt
 8007528:	1a9b      	subgt	r3, r3, r2
 800752a:	18ed      	addgt	r5, r5, r3
 800752c:	42b5      	cmp	r5, r6
 800752e:	d11a      	bne.n	8007566 <_printf_common+0xd2>
 8007530:	2000      	movs	r0, #0
 8007532:	e008      	b.n	8007546 <_printf_common+0xb2>
 8007534:	2301      	movs	r3, #1
 8007536:	4652      	mov	r2, sl
 8007538:	4641      	mov	r1, r8
 800753a:	4638      	mov	r0, r7
 800753c:	47c8      	blx	r9
 800753e:	3001      	adds	r0, #1
 8007540:	d103      	bne.n	800754a <_printf_common+0xb6>
 8007542:	f04f 30ff 	mov.w	r0, #4294967295
 8007546:	e8bd 87f0 	ldmia.w	sp!, {r4, r5, r6, r7, r8, r9, sl, pc}
 800754a:	3501      	adds	r5, #1
 800754c:	e7c1      	b.n	80074d2 <_printf_common+0x3e>
 800754e:	2030      	movs	r0, #48	@ 0x30
 8007550:	18e1      	adds	r1, r4, r3
 8007552:	f881 0043 	strb.w	r0, [r1, #67]	@ 0x43
 8007556:	1c5a      	adds	r2, r3, #1
 8007558:	f894 1045 	ldrb.w	r1, [r4, #69]	@ 0x45
 800755c:	4422      	add	r2, r4
 800755e:	3302      	adds	r3, #2
 8007560:	f882 1043 	strb.w	r1, [r2, #67]	@ 0x43
 8007564:	e7c2      	b.n	80074ec <_printf_common+0x58>
 8007566:	2301      	movs	r3, #1
 8007568:	4622      	mov	r2, r4
 800756a:	4641      	mov	r1, r8
 800756c:	4638      	mov	r0, r7
 800756e:	47c8      	blx	r9
 8007570:	3001      	adds	r0, #1
 8007572:	d0e6      	beq.n	8007542 <_printf_common+0xae>
 8007574:	3601      	adds	r6, #1
 8007576:	e7d9      	b.n	800752c <_printf_common+0x98>

08007578 <_printf_i>:
 8007578:	e92d 47ff 	stmdb	sp!, {r0, r1, r2, r3, r4, r5, r6, r7, r8, r9, sl, lr}
 800757c:	7e0f      	ldrb	r7, [r1, #24]
 800757e:	4691      	mov	r9, r2
 8007580:	2f78      	cmp	r7, #120	@ 0x78
 8007582:	4680      	mov	r8, r0
 8007584:	460c      	mov	r4, r1
 8007586:	469a      	mov	sl, r3
 8007588:	9e0c      	ldr	r6, [sp, #48]	@ 0x30
 800758a:	f101 0243 	add.w	r2, r1, #67	@ 0x43
 800758e:	d807      	bhi.n	80075a0 <_printf_i+0x28>
 8007590:	2f62      	cmp	r7, #98	@ 0x62
 8007592:	d80a      	bhi.n	80075aa <_printf_i+0x32>
 8007594:	2f00      	cmp	r7, #0
 8007596:	f000 80d3 	beq.w	8007740 <_printf_i+0x1c8>
 800759a:	2f58      	cmp	r7, #88	@ 0x58
 800759c:	f000 80ba 	beq.w	8007714 <_printf_i+0x19c>
 80075a0:	f104 0642 	add.w	r6, r4, #66	@ 0x42
 80075a4:	f884 7042 	strb.w	r7, [r4, #66]	@ 0x42
 80075a8:	e03a      	b.n	8007620 <_printf_i+0xa8>
 80075aa:	f1a7 0363 	sub.w	r3, r7, #99	@ 0x63
 80075ae:	2b15      	cmp	r3, #21
 80075b0:	d8f6      	bhi.n	80075a0 <_printf_i+0x28>
 80075b2:	a101      	add	r1, pc, #4	@ (adr r1, 80075b8 <_printf_i+0x40>)
 80075b4:	f851 f023 	ldr.w	pc, [r1, r3, lsl #2]
 80075b8:	08007611 	.word	0x08007611
 80075bc:	08007625 	.word	0x08007625
 80075c0:	080075a1 	.word	0x080075a1
 80075c4:	080075a1 	.word	0x080075a1
 80075c8:	080075a1 	.word	0x080075a1
 80075cc:	080075a1 	.word	0x080075a1
 80075d0:	08007625 	.word	0x08007625
 80075d4:	080075a1 	.word	0x080075a1
 80075d8:	080075a1 	.word	0x080075a1
 80075dc:	080075a1 	.word	0x080075a1
 80075e0:	080075a1 	.word	0x080075a1
 80075e4:	08007727 	.word	0x08007727
 80075e8:	0800764f 	.word	0x0800764f
 80075ec:	080076e1 	.word	0x080076e1
 80075f0:	080075a1 	.word	0x080075a1
 80075f4:	080075a1 	.word	0x080075a1
 80075f8:	08007749 	.word	0x08007749
 80075fc:	080075a1 	.word	0x080075a1
 8007600:	0800764f 	.word	0x0800764f
 8007604:	080075a1 	.word	0x080075a1
 8007608:	080075a1 	.word	0x080075a1
 800760c:	080076e9 	.word	0x080076e9
 8007610:	6833      	ldr	r3, [r6, #0]
 8007612:	1d1a      	adds	r2, r3, #4
 8007614:	681b      	ldr	r3, [r3, #0]
 8007616:	6032      	str	r2, [r6, #0]
 8007618:	f104 0642 	add.w	r6, r4, #66	@ 0x42
 800761c:	f884 3042 	strb.w	r3, [r4, #66]	@ 0x42
 8007620:	2301      	movs	r3, #1
 8007622:	e09e      	b.n	8007762 <_printf_i+0x1ea>
 8007624:	6833      	ldr	r3, [r6, #0]
 8007626:	6820      	ldr	r0, [r4, #0]
 8007628:	1d19      	adds	r1, r3, #4
 800762a:	6031      	str	r1, [r6, #0]
 800762c:	0606      	lsls	r6, r0, #24
 800762e:	d501      	bpl.n	8007634 <_printf_i+0xbc>
 8007630:	681d      	ldr	r5, [r3, #0]
 8007632:	e003      	b.n	800763c <_printf_i+0xc4>
 8007634:	0645      	lsls	r5, r0, #25
 8007636:	d5fb      	bpl.n	8007630 <_printf_i+0xb8>
 8007638:	f9b3 5000 	ldrsh.w	r5, [r3]
 800763c:	2d00      	cmp	r5, #0
 800763e:	da03      	bge.n	8007648 <_printf_i+0xd0>
 8007640:	232d      	movs	r3, #45	@ 0x2d
 8007642:	426d      	negs	r5, r5
 8007644:	f884 3043 	strb.w	r3, [r4, #67]	@ 0x43
 8007648:	230a      	movs	r3, #10
 800764a:	4859      	ldr	r0, [pc, #356]	@ (80077b0 <_printf_i+0x238>)
 800764c:	e011      	b.n	8007672 <_printf_i+0xfa>
 800764e:	6821      	ldr	r1, [r4, #0]
 8007650:	6833      	ldr	r3, [r6, #0]
 8007652:	0608      	lsls	r0, r1, #24
 8007654:	f853 5b04 	ldr.w	r5, [r3], #4
 8007658:	d402      	bmi.n	8007660 <_printf_i+0xe8>
 800765a:	0649      	lsls	r1, r1, #25
 800765c:	bf48      	it	mi
 800765e:	b2ad      	uxthmi	r5, r5
 8007660:	2f6f      	cmp	r7, #111	@ 0x6f
 8007662:	6033      	str	r3, [r6, #0]
 8007664:	bf14      	ite	ne
 8007666:	230a      	movne	r3, #10
 8007668:	2308      	moveq	r3, #8
 800766a:	4851      	ldr	r0, [pc, #324]	@ (80077b0 <_printf_i+0x238>)
 800766c:	2100      	movs	r1, #0
 800766e:	f884 1043 	strb.w	r1, [r4, #67]	@ 0x43
 8007672:	6866      	ldr	r6, [r4, #4]
 8007674:	2e00      	cmp	r6, #0
 8007676:	bfa8      	it	ge
 8007678:	6821      	ldrge	r1, [r4, #0]
 800767a:	60a6      	str	r6, [r4, #8]
 800767c:	bfa4      	itt	ge
 800767e:	f021 0104 	bicge.w	r1, r1, #4
 8007682:	6021      	strge	r1, [r4, #0]
 8007684:	b90d      	cbnz	r5, 800768a <_printf_i+0x112>
 8007686:	2e00      	cmp	r6, #0
 8007688:	d04b      	beq.n	8007722 <_printf_i+0x1aa>
 800768a:	4616      	mov	r6, r2
 800768c:	fbb5 f1f3 	udiv	r1, r5, r3
 8007690:	fb03 5711 	mls	r7, r3, r1, r5
 8007694:	5dc7      	ldrb	r7, [r0, r7]
 8007696:	f806 7d01 	strb.w	r7, [r6, #-1]!
 800769a:	462f      	mov	r7, r5
 800769c:	42bb      	cmp	r3, r7
 800769e:	460d      	mov	r5, r1
 80076a0:	d9f4      	bls.n	800768c <_printf_i+0x114>
 80076a2:	2b08      	cmp	r3, #8
 80076a4:	d10b      	bne.n	80076be <_printf_i+0x146>
 80076a6:	6823      	ldr	r3, [r4, #0]
 80076a8:	07df      	lsls	r7, r3, #31
 80076aa:	d508      	bpl.n	80076be <_printf_i+0x146>
 80076ac:	6923      	ldr	r3, [r4, #16]
 80076ae:	6861      	ldr	r1, [r4, #4]
 80076b0:	4299      	cmp	r1, r3
 80076b2:	bfde      	ittt	le
 80076b4:	2330      	movle	r3, #48	@ 0x30
 80076b6:	f806 3c01 	strble.w	r3, [r6, #-1]
 80076ba:	f106 36ff 	addle.w	r6, r6, #4294967295
 80076be:	1b92      	subs	r2, r2, r6
 80076c0:	6122      	str	r2, [r4, #16]
 80076c2:	464b      	mov	r3, r9
 80076c4:	4621      	mov	r1, r4
 80076c6:	4640      	mov	r0, r8
 80076c8:	f8cd a000 	str.w	sl, [sp]
 80076cc:	aa03      	add	r2, sp, #12
 80076ce:	f7ff fee1 	bl	8007494 <_printf_common>
 80076d2:	3001      	adds	r0, #1
 80076d4:	d14a      	bne.n	800776c <_printf_i+0x1f4>
 80076d6:	f04f 30ff 	mov.w	r0, #4294967295
 80076da:	b004      	add	sp, #16
 80076dc:	e8bd 87f0 	ldmia.w	sp!, {r4, r5, r6, r7, r8, r9, sl, pc}
 80076e0:	6823      	ldr	r3, [r4, #0]
 80076e2:	f043 0320 	orr.w	r3, r3, #32
 80076e6:	6023      	str	r3, [r4, #0]
 80076e8:	2778      	movs	r7, #120	@ 0x78
 80076ea:	4832      	ldr	r0, [pc, #200]	@ (80077b4 <_printf_i+0x23c>)
 80076ec:	f884 7045 	strb.w	r7, [r4, #69]	@ 0x45
 80076f0:	6823      	ldr	r3, [r4, #0]
 80076f2:	6831      	ldr	r1, [r6, #0]
 80076f4:	061f      	lsls	r7, r3, #24
 80076f6:	f851 5b04 	ldr.w	r5, [r1], #4
 80076fa:	d402      	bmi.n	8007702 <_printf_i+0x18a>
 80076fc:	065f      	lsls	r7, r3, #25
 80076fe:	bf48      	it	mi
 8007700:	b2ad      	uxthmi	r5, r5
 8007702:	6031      	str	r1, [r6, #0]
 8007704:	07d9      	lsls	r1, r3, #31
 8007706:	bf44      	itt	mi
 8007708:	f043 0320 	orrmi.w	r3, r3, #32
 800770c:	6023      	strmi	r3, [r4, #0]
 800770e:	b11d      	cbz	r5, 8007718 <_printf_i+0x1a0>
 8007710:	2310      	movs	r3, #16
 8007712:	e7ab      	b.n	800766c <_printf_i+0xf4>
 8007714:	4826      	ldr	r0, [pc, #152]	@ (80077b0 <_printf_i+0x238>)
 8007716:	e7e9      	b.n	80076ec <_printf_i+0x174>
 8007718:	6823      	ldr	r3, [r4, #0]
 800771a:	f023 0320 	bic.w	r3, r3, #32
 800771e:	6023      	str	r3, [r4, #0]
 8007720:	e7f6      	b.n	8007710 <_printf_i+0x198>
 8007722:	4616      	mov	r6, r2
 8007724:	e7bd      	b.n	80076a2 <_printf_i+0x12a>
 8007726:	6833      	ldr	r3, [r6, #0]
 8007728:	6825      	ldr	r5, [r4, #0]
 800772a:	1d18      	adds	r0, r3, #4
 800772c:	6961      	ldr	r1, [r4, #20]
 800772e:	6030      	str	r0, [r6, #0]
 8007730:	062e      	lsls	r6, r5, #24
 8007732:	681b      	ldr	r3, [r3, #0]
 8007734:	d501      	bpl.n	800773a <_printf_i+0x1c2>
 8007736:	6019      	str	r1, [r3, #0]
 8007738:	e002      	b.n	8007740 <_printf_i+0x1c8>
 800773a:	0668      	lsls	r0, r5, #25
 800773c:	d5fb      	bpl.n	8007736 <_printf_i+0x1be>
 800773e:	8019      	strh	r1, [r3, #0]
 8007740:	2300      	movs	r3, #0
 8007742:	4616      	mov	r6, r2
 8007744:	6123      	str	r3, [r4, #16]
 8007746:	e7bc      	b.n	80076c2 <_printf_i+0x14a>
 8007748:	6833      	ldr	r3, [r6, #0]
 800774a:	2100      	movs	r1, #0
 800774c:	1d1a      	adds	r2, r3, #4
 800774e:	6032      	str	r2, [r6, #0]
 8007750:	681e      	ldr	r6, [r3, #0]
 8007752:	6862      	ldr	r2, [r4, #4]
 8007754:	4630      	mov	r0, r6
 8007756:	f000 f9d4 	bl	8007b02 <memchr>
 800775a:	b108      	cbz	r0, 8007760 <_printf_i+0x1e8>
 800775c:	1b80      	subs	r0, r0, r6
 800775e:	6060      	str	r0, [r4, #4]
 8007760:	6863      	ldr	r3, [r4, #4]
 8007762:	6123      	str	r3, [r4, #16]
 8007764:	2300      	movs	r3, #0
 8007766:	f884 3043 	strb.w	r3, [r4, #67]	@ 0x43
 800776a:	e7aa      	b.n	80076c2 <_printf_i+0x14a>
 800776c:	4632      	mov	r2, r6
 800776e:	4649      	mov	r1, r9
 8007770:	4640      	mov	r0, r8
 8007772:	6923      	ldr	r3, [r4, #16]
 8007774:	47d0      	blx	sl
 8007776:	3001      	adds	r0, #1
 8007778:	d0ad      	beq.n	80076d6 <_printf_i+0x15e>
 800777a:	6823      	ldr	r3, [r4, #0]
 800777c:	079b      	lsls	r3, r3, #30
 800777e:	d413      	bmi.n	80077a8 <_printf_i+0x230>
 8007780:	68e0      	ldr	r0, [r4, #12]
 8007782:	9b03      	ldr	r3, [sp, #12]
 8007784:	4298      	cmp	r0, r3
 8007786:	bfb8      	it	lt
 8007788:	4618      	movlt	r0, r3
 800778a:	e7a6      	b.n	80076da <_printf_i+0x162>
 800778c:	2301      	movs	r3, #1
 800778e:	4632      	mov	r2, r6
 8007790:	4649      	mov	r1, r9
 8007792:	4640      	mov	r0, r8
 8007794:	47d0      	blx	sl
 8007796:	3001      	adds	r0, #1
 8007798:	d09d      	beq.n	80076d6 <_printf_i+0x15e>
 800779a:	3501      	adds	r5, #1
 800779c:	68e3      	ldr	r3, [r4, #12]
 800779e:	9903      	ldr	r1, [sp, #12]
 80077a0:	1a5b      	subs	r3, r3, r1
 80077a2:	42ab      	cmp	r3, r5
 80077a4:	dcf2      	bgt.n	800778c <_printf_i+0x214>
 80077a6:	e7eb      	b.n	8007780 <_printf_i+0x208>
 80077a8:	2500      	movs	r5, #0
 80077aa:	f104 0619 	add.w	r6, r4, #25
 80077ae:	e7f5      	b.n	800779c <_printf_i+0x224>
 80077b0:	0800b9e5 	.word	0x0800b9e5
 80077b4:	0800b9f6 	.word	0x0800b9f6

080077b8 <std>:
 80077b8:	2300      	movs	r3, #0
 80077ba:	b510      	push	{r4, lr}
 80077bc:	4604      	mov	r4, r0
 80077be:	e9c0 3300 	strd	r3, r3, [r0]
 80077c2:	e9c0 3304 	strd	r3, r3, [r0, #16]
 80077c6:	6083      	str	r3, [r0, #8]
 80077c8:	8181      	strh	r1, [r0, #12]
 80077ca:	6643      	str	r3, [r0, #100]	@ 0x64
 80077cc:	81c2      	strh	r2, [r0, #14]
 80077ce:	6183      	str	r3, [r0, #24]
 80077d0:	4619      	mov	r1, r3
 80077d2:	2208      	movs	r2, #8
 80077d4:	305c      	adds	r0, #92	@ 0x5c
 80077d6:	f000 f914 	bl	8007a02 <memset>
 80077da:	4b0d      	ldr	r3, [pc, #52]	@ (8007810 <std+0x58>)
 80077dc:	6224      	str	r4, [r4, #32]
 80077de:	6263      	str	r3, [r4, #36]	@ 0x24
 80077e0:	4b0c      	ldr	r3, [pc, #48]	@ (8007814 <std+0x5c>)
 80077e2:	62a3      	str	r3, [r4, #40]	@ 0x28
 80077e4:	4b0c      	ldr	r3, [pc, #48]	@ (8007818 <std+0x60>)
 80077e6:	62e3      	str	r3, [r4, #44]	@ 0x2c
 80077e8:	4b0c      	ldr	r3, [pc, #48]	@ (800781c <std+0x64>)
 80077ea:	6323      	str	r3, [r4, #48]	@ 0x30
 80077ec:	4b0c      	ldr	r3, [pc, #48]	@ (8007820 <std+0x68>)
 80077ee:	429c      	cmp	r4, r3
 80077f0:	d006      	beq.n	8007800 <std+0x48>
 80077f2:	f103 0268 	add.w	r2, r3, #104	@ 0x68
 80077f6:	4294      	cmp	r4, r2
 80077f8:	d002      	beq.n	8007800 <std+0x48>
 80077fa:	33d0      	adds	r3, #208	@ 0xd0
 80077fc:	429c      	cmp	r4, r3
 80077fe:	d105      	bne.n	800780c <std+0x54>
 8007800:	f104 0058 	add.w	r0, r4, #88	@ 0x58
 8007804:	e8bd 4010 	ldmia.w	sp!, {r4, lr}
 8007808:	f000 b978 	b.w	8007afc <__retarget_lock_init_recursive>
 800780c:	bd10      	pop	{r4, pc}
 800780e:	bf00      	nop
 8007810:	0800797d 	.word	0x0800797d
 8007814:	0800799f 	.word	0x0800799f
 8007818:	080079d7 	.word	0x080079d7
 800781c:	080079fb 	.word	0x080079fb
 8007820:	20000bcc 	.word	0x20000bcc

08007824 <stdio_exit_handler>:
 8007824:	4a02      	ldr	r2, [pc, #8]	@ (8007830 <stdio_exit_handler+0xc>)
 8007826:	4903      	ldr	r1, [pc, #12]	@ (8007834 <stdio_exit_handler+0x10>)
 8007828:	4803      	ldr	r0, [pc, #12]	@ (8007838 <stdio_exit_handler+0x14>)
 800782a:	f000 b869 	b.w	8007900 <_fwalk_sglue>
 800782e:	bf00      	nop
 8007830:	20000068 	.word	0x20000068
 8007834:	080094ad 	.word	0x080094ad
 8007838:	20000078 	.word	0x20000078

0800783c <cleanup_stdio>:
 800783c:	6841      	ldr	r1, [r0, #4]
 800783e:	4b0c      	ldr	r3, [pc, #48]	@ (8007870 <cleanup_stdio+0x34>)
 8007840:	b510      	push	{r4, lr}
 8007842:	4299      	cmp	r1, r3
 8007844:	4604      	mov	r4, r0
 8007846:	d001      	beq.n	800784c <cleanup_stdio+0x10>
 8007848:	f001 fe30 	bl	80094ac <_fflush_r>
 800784c:	68a1      	ldr	r1, [r4, #8]
 800784e:	4b09      	ldr	r3, [pc, #36]	@ (8007874 <cleanup_stdio+0x38>)
 8007850:	4299      	cmp	r1, r3
 8007852:	d002      	beq.n	800785a <cleanup_stdio+0x1e>
 8007854:	4620      	mov	r0, r4
 8007856:	f001 fe29 	bl	80094ac <_fflush_r>
 800785a:	68e1      	ldr	r1, [r4, #12]
 800785c:	4b06      	ldr	r3, [pc, #24]	@ (8007878 <cleanup_stdio+0x3c>)
 800785e:	4299      	cmp	r1, r3
 8007860:	d004      	beq.n	800786c <cleanup_stdio+0x30>
 8007862:	4620      	mov	r0, r4
 8007864:	e8bd 4010 	ldmia.w	sp!, {r4, lr}
 8007868:	f001 be20 	b.w	80094ac <_fflush_r>
 800786c:	bd10      	pop	{r4, pc}
 800786e:	bf00      	nop
 8007870:	20000bcc 	.word	0x20000bcc
 8007874:	20000c34 	.word	0x20000c34
 8007878:	20000c9c 	.word	0x20000c9c

0800787c <global_stdio_init.part.0>:
 800787c:	b510      	push	{r4, lr}
 800787e:	4b0b      	ldr	r3, [pc, #44]	@ (80078ac <global_stdio_init.part.0+0x30>)
 8007880:	4c0b      	ldr	r4, [pc, #44]	@ (80078b0 <global_stdio_init.part.0+0x34>)
 8007882:	4a0c      	ldr	r2, [pc, #48]	@ (80078b4 <global_stdio_init.part.0+0x38>)
 8007884:	4620      	mov	r0, r4
 8007886:	601a      	str	r2, [r3, #0]
 8007888:	2104      	movs	r1, #4
 800788a:	2200      	movs	r2, #0
 800788c:	f7ff ff94 	bl	80077b8 <std>
 8007890:	f104 0068 	add.w	r0, r4, #104	@ 0x68
 8007894:	2201      	movs	r2, #1
 8007896:	2109      	movs	r1, #9
 8007898:	f7ff ff8e 	bl	80077b8 <std>
 800789c:	f104 00d0 	add.w	r0, r4, #208	@ 0xd0
 80078a0:	2202      	movs	r2, #2
 80078a2:	e8bd 4010 	ldmia.w	sp!, {r4, lr}
 80078a6:	2112      	movs	r1, #18
 80078a8:	f7ff bf86 	b.w	80077b8 <std>
 80078ac:	20000d04 	.word	0x20000d04
 80078b0:	20000bcc 	.word	0x20000bcc
 80078b4:	08007825 	.word	0x08007825

080078b8 <__sfp_lock_acquire>:
 80078b8:	4801      	ldr	r0, [pc, #4]	@ (80078c0 <__sfp_lock_acquire+0x8>)
 80078ba:	f000 b920 	b.w	8007afe <__retarget_lock_acquire_recursive>
 80078be:	bf00      	nop
 80078c0:	20000d0d 	.word	0x20000d0d

080078c4 <__sfp_lock_release>:
 80078c4:	4801      	ldr	r0, [pc, #4]	@ (80078cc <__sfp_lock_release+0x8>)
 80078c6:	f000 b91b 	b.w	8007b00 <__retarget_lock_release_recursive>
 80078ca:	bf00      	nop
 80078cc:	20000d0d 	.word	0x20000d0d

080078d0 <__sinit>:
 80078d0:	b510      	push	{r4, lr}
 80078d2:	4604      	mov	r4, r0
 80078d4:	f7ff fff0 	bl	80078b8 <__sfp_lock_acquire>
 80078d8:	6a23      	ldr	r3, [r4, #32]
 80078da:	b11b      	cbz	r3, 80078e4 <__sinit+0x14>
 80078dc:	e8bd 4010 	ldmia.w	sp!, {r4, lr}
 80078e0:	f7ff bff0 	b.w	80078c4 <__sfp_lock_release>
 80078e4:	4b04      	ldr	r3, [pc, #16]	@ (80078f8 <__sinit+0x28>)
 80078e6:	6223      	str	r3, [r4, #32]
 80078e8:	4b04      	ldr	r3, [pc, #16]	@ (80078fc <__sinit+0x2c>)
 80078ea:	681b      	ldr	r3, [r3, #0]
 80078ec:	2b00      	cmp	r3, #0
 80078ee:	d1f5      	bne.n	80078dc <__sinit+0xc>
 80078f0:	f7ff ffc4 	bl	800787c <global_stdio_init.part.0>
 80078f4:	e7f2      	b.n	80078dc <__sinit+0xc>
 80078f6:	bf00      	nop
 80078f8:	0800783d 	.word	0x0800783d
 80078fc:	20000d04 	.word	0x20000d04

08007900 <_fwalk_sglue>:
 8007900:	e92d 43f8 	stmdb	sp!, {r3, r4, r5, r6, r7, r8, r9, lr}
 8007904:	4607      	mov	r7, r0
 8007906:	4688      	mov	r8, r1
 8007908:	4614      	mov	r4, r2
 800790a:	2600      	movs	r6, #0
 800790c:	e9d4 9501 	ldrd	r9, r5, [r4, #4]
 8007910:	f1b9 0901 	subs.w	r9, r9, #1
 8007914:	d505      	bpl.n	8007922 <_fwalk_sglue+0x22>
 8007916:	6824      	ldr	r4, [r4, #0]
 8007918:	2c00      	cmp	r4, #0
 800791a:	d1f7      	bne.n	800790c <_fwalk_sglue+0xc>
 800791c:	4630      	mov	r0, r6
 800791e:	e8bd 83f8 	ldmia.w	sp!, {r3, r4, r5, r6, r7, r8, r9, pc}
 8007922:	89ab      	ldrh	r3, [r5, #12]
 8007924:	2b01      	cmp	r3, #1
 8007926:	d907      	bls.n	8007938 <_fwalk_sglue+0x38>
 8007928:	f9b5 300e 	ldrsh.w	r3, [r5, #14]
 800792c:	3301      	adds	r3, #1
 800792e:	d003      	beq.n	8007938 <_fwalk_sglue+0x38>
 8007930:	4629      	mov	r1, r5
 8007932:	4638      	mov	r0, r7
 8007934:	47c0      	blx	r8
 8007936:	4306      	orrs	r6, r0
 8007938:	3568      	adds	r5, #104	@ 0x68
 800793a:	e7e9      	b.n	8007910 <_fwalk_sglue+0x10>

0800793c <siprintf>:
 800793c:	b40e      	push	{r1, r2, r3}
 800793e:	f06f 4100 	mvn.w	r1, #2147483648	@ 0x80000000
 8007942:	b500      	push	{lr}
 8007944:	b09c      	sub	sp, #112	@ 0x70
 8007946:	ab1d      	add	r3, sp, #116	@ 0x74
 8007948:	9002      	str	r0, [sp, #8]
 800794a:	9006      	str	r0, [sp, #24]
 800794c:	9107      	str	r1, [sp, #28]
 800794e:	9104      	str	r1, [sp, #16]
 8007950:	4808      	ldr	r0, [pc, #32]	@ (8007974 <siprintf+0x38>)
 8007952:	4909      	ldr	r1, [pc, #36]	@ (8007978 <siprintf+0x3c>)
 8007954:	f853 2b04 	ldr.w	r2, [r3], #4
 8007958:	9105      	str	r1, [sp, #20]
 800795a:	6800      	ldr	r0, [r0, #0]
 800795c:	a902      	add	r1, sp, #8
 800795e:	9301      	str	r3, [sp, #4]
 8007960:	f001 fc28 	bl	80091b4 <_svfiprintf_r>
 8007964:	2200      	movs	r2, #0
 8007966:	9b02      	ldr	r3, [sp, #8]
 8007968:	701a      	strb	r2, [r3, #0]
 800796a:	b01c      	add	sp, #112	@ 0x70
 800796c:	f85d eb04 	ldr.w	lr, [sp], #4
 8007970:	b003      	add	sp, #12
 8007972:	4770      	bx	lr
 8007974:	20000074 	.word	0x20000074
 8007978:	ffff0208 	.word	0xffff0208

0800797c <__sread>:
 800797c:	b510      	push	{r4, lr}
 800797e:	460c      	mov	r4, r1
 8007980:	f9b1 100e 	ldrsh.w	r1, [r1, #14]
 8007984:	f000 f86c 	bl	8007a60 <_read_r>
 8007988:	2800      	cmp	r0, #0
 800798a:	bfab      	itete	ge
 800798c:	6d63      	ldrge	r3, [r4, #84]	@ 0x54
 800798e:	89a3      	ldrhlt	r3, [r4, #12]
 8007990:	181b      	addge	r3, r3, r0
 8007992:	f423 5380 	biclt.w	r3, r3, #4096	@ 0x1000
 8007996:	bfac      	ite	ge
 8007998:	6563      	strge	r3, [r4, #84]	@ 0x54
 800799a:	81a3      	strhlt	r3, [r4, #12]
 800799c:	bd10      	pop	{r4, pc}

0800799e <__swrite>:
 800799e:	e92d 41f0 	stmdb	sp!, {r4, r5, r6, r7, r8, lr}
 80079a2:	461f      	mov	r7, r3
 80079a4:	898b      	ldrh	r3, [r1, #12]
 80079a6:	4605      	mov	r5, r0
 80079a8:	05db      	lsls	r3, r3, #23
 80079aa:	460c      	mov	r4, r1
 80079ac:	4616      	mov	r6, r2
 80079ae:	d505      	bpl.n	80079bc <__swrite+0x1e>
 80079b0:	2302      	movs	r3, #2
 80079b2:	2200      	movs	r2, #0
 80079b4:	f9b1 100e 	ldrsh.w	r1, [r1, #14]
 80079b8:	f000 f840 	bl	8007a3c <_lseek_r>
 80079bc:	89a3      	ldrh	r3, [r4, #12]
 80079be:	4632      	mov	r2, r6
 80079c0:	f423 5380 	bic.w	r3, r3, #4096	@ 0x1000
 80079c4:	81a3      	strh	r3, [r4, #12]
 80079c6:	4628      	mov	r0, r5
 80079c8:	463b      	mov	r3, r7
 80079ca:	f9b4 100e 	ldrsh.w	r1, [r4, #14]
 80079ce:	e8bd 41f0 	ldmia.w	sp!, {r4, r5, r6, r7, r8, lr}
 80079d2:	f000 b857 	b.w	8007a84 <_write_r>

080079d6 <__sseek>:
 80079d6:	b510      	push	{r4, lr}
 80079d8:	460c      	mov	r4, r1
 80079da:	f9b1 100e 	ldrsh.w	r1, [r1, #14]
 80079de:	f000 f82d 	bl	8007a3c <_lseek_r>
 80079e2:	1c43      	adds	r3, r0, #1
 80079e4:	89a3      	ldrh	r3, [r4, #12]
 80079e6:	bf15      	itete	ne
 80079e8:	6560      	strne	r0, [r4, #84]	@ 0x54
 80079ea:	f423 5380 	biceq.w	r3, r3, #4096	@ 0x1000
 80079ee:	f443 5380 	orrne.w	r3, r3, #4096	@ 0x1000
 80079f2:	81a3      	strheq	r3, [r4, #12]
 80079f4:	bf18      	it	ne
 80079f6:	81a3      	strhne	r3, [r4, #12]
 80079f8:	bd10      	pop	{r4, pc}

080079fa <__sclose>:
 80079fa:	f9b1 100e 	ldrsh.w	r1, [r1, #14]
 80079fe:	f000 b80d 	b.w	8007a1c <_close_r>

08007a02 <memset>:
 8007a02:	4603      	mov	r3, r0
 8007a04:	4402      	add	r2, r0
 8007a06:	4293      	cmp	r3, r2
 8007a08:	d100      	bne.n	8007a0c <memset+0xa>
 8007a0a:	4770      	bx	lr
 8007a0c:	f803 1b01 	strb.w	r1, [r3], #1
 8007a10:	e7f9      	b.n	8007a06 <memset+0x4>
	...

08007a14 <_localeconv_r>:
 8007a14:	4800      	ldr	r0, [pc, #0]	@ (8007a18 <_localeconv_r+0x4>)
 8007a16:	4770      	bx	lr
 8007a18:	200001b4 	.word	0x200001b4

08007a1c <_close_r>:
 8007a1c:	b538      	push	{r3, r4, r5, lr}
 8007a1e:	2300      	movs	r3, #0
 8007a20:	4d05      	ldr	r5, [pc, #20]	@ (8007a38 <_close_r+0x1c>)
 8007a22:	4604      	mov	r4, r0
 8007a24:	4608      	mov	r0, r1
 8007a26:	602b      	str	r3, [r5, #0]
 8007a28:	f7fb fccc 	bl	80033c4 <_close>
 8007a2c:	1c43      	adds	r3, r0, #1
 8007a2e:	d102      	bne.n	8007a36 <_close_r+0x1a>
 8007a30:	682b      	ldr	r3, [r5, #0]
 8007a32:	b103      	cbz	r3, 8007a36 <_close_r+0x1a>
 8007a34:	6023      	str	r3, [r4, #0]
 8007a36:	bd38      	pop	{r3, r4, r5, pc}
 8007a38:	20000d08 	.word	0x20000d08

08007a3c <_lseek_r>:
 8007a3c:	b538      	push	{r3, r4, r5, lr}
 8007a3e:	4604      	mov	r4, r0
 8007a40:	4608      	mov	r0, r1
 8007a42:	4611      	mov	r1, r2
 8007a44:	2200      	movs	r2, #0
 8007a46:	4d05      	ldr	r5, [pc, #20]	@ (8007a5c <_lseek_r+0x20>)
 8007a48:	602a      	str	r2, [r5, #0]
 8007a4a:	461a      	mov	r2, r3
 8007a4c:	f7fb fcc6 	bl	80033dc <_lseek>
 8007a50:	1c43      	adds	r3, r0, #1
 8007a52:	d102      	bne.n	8007a5a <_lseek_r+0x1e>
 8007a54:	682b      	ldr	r3, [r5, #0]
 8007a56:	b103      	cbz	r3, 8007a5a <_lseek_r+0x1e>
 8007a58:	6023      	str	r3, [r4, #0]
 8007a5a:	bd38      	pop	{r3, r4, r5, pc}
 8007a5c:	20000d08 	.word	0x20000d08

08007a60 <_read_r>:
 8007a60:	b538      	push	{r3, r4, r5, lr}
 8007a62:	4604      	mov	r4, r0
 8007a64:	4608      	mov	r0, r1
 8007a66:	4611      	mov	r1, r2
 8007a68:	2200      	movs	r2, #0
 8007a6a:	4d05      	ldr	r5, [pc, #20]	@ (8007a80 <_read_r+0x20>)
 8007a6c:	602a      	str	r2, [r5, #0]
 8007a6e:	461a      	mov	r2, r3
 8007a70:	f7fb fc9a 	bl	80033a8 <_read>
 8007a74:	1c43      	adds	r3, r0, #1
 8007a76:	d102      	bne.n	8007a7e <_read_r+0x1e>
 8007a78:	682b      	ldr	r3, [r5, #0]
 8007a7a:	b103      	cbz	r3, 8007a7e <_read_r+0x1e>
 8007a7c:	6023      	str	r3, [r4, #0]
 8007a7e:	bd38      	pop	{r3, r4, r5, pc}
 8007a80:	20000d08 	.word	0x20000d08

08007a84 <_write_r>:
 8007a84:	b538      	push	{r3, r4, r5, lr}
 8007a86:	4604      	mov	r4, r0
 8007a88:	4608      	mov	r0, r1
 8007a8a:	4611      	mov	r1, r2
 8007a8c:	2200      	movs	r2, #0
 8007a8e:	4d05      	ldr	r5, [pc, #20]	@ (8007aa4 <_write_r+0x20>)
 8007a90:	602a      	str	r2, [r5, #0]
 8007a92:	461a      	mov	r2, r3
 8007a94:	f7fa f9da 	bl	8001e4c <_write>
 8007a98:	1c43      	adds	r3, r0, #1
 8007a9a:	d102      	bne.n	8007aa2 <_write_r+0x1e>
 8007a9c:	682b      	ldr	r3, [r5, #0]
 8007a9e:	b103      	cbz	r3, 8007aa2 <_write_r+0x1e>
 8007aa0:	6023      	str	r3, [r4, #0]
 8007aa2:	bd38      	pop	{r3, r4, r5, pc}
 8007aa4:	20000d08 	.word	0x20000d08

08007aa8 <__errno>:
 8007aa8:	4b01      	ldr	r3, [pc, #4]	@ (8007ab0 <__errno+0x8>)
 8007aaa:	6818      	ldr	r0, [r3, #0]
 8007aac:	4770      	bx	lr
 8007aae:	bf00      	nop
 8007ab0:	20000074 	.word	0x20000074

08007ab4 <__libc_init_array>:
 8007ab4:	b570      	push	{r4, r5, r6, lr}
 8007ab6:	2600      	movs	r6, #0
 8007ab8:	4d0c      	ldr	r5, [pc, #48]	@ (8007aec <__libc_init_array+0x38>)
 8007aba:	4c0d      	ldr	r4, [pc, #52]	@ (8007af0 <__libc_init_array+0x3c>)
 8007abc:	1b64      	subs	r4, r4, r5
 8007abe:	10a4      	asrs	r4, r4, #2
 8007ac0:	42a6      	cmp	r6, r4
 8007ac2:	d109      	bne.n	8007ad8 <__libc_init_array+0x24>
 8007ac4:	f002 f870 	bl	8009ba8 <_init>
 8007ac8:	2600      	movs	r6, #0
 8007aca:	4d0a      	ldr	r5, [pc, #40]	@ (8007af4 <__libc_init_array+0x40>)
 8007acc:	4c0a      	ldr	r4, [pc, #40]	@ (8007af8 <__libc_init_array+0x44>)
 8007ace:	1b64      	subs	r4, r4, r5
 8007ad0:	10a4      	asrs	r4, r4, #2
 8007ad2:	42a6      	cmp	r6, r4
 8007ad4:	d105      	bne.n	8007ae2 <__libc_init_array+0x2e>
 8007ad6:	bd70      	pop	{r4, r5, r6, pc}
 8007ad8:	f855 3b04 	ldr.w	r3, [r5], #4
 8007adc:	4798      	blx	r3
 8007ade:	3601      	adds	r6, #1
 8007ae0:	e7ee      	b.n	8007ac0 <__libc_init_array+0xc>
 8007ae2:	f855 3b04 	ldr.w	r3, [r5], #4
 8007ae6:	4798      	blx	r3
 8007ae8:	3601      	adds	r6, #1
 8007aea:	e7f2      	b.n	8007ad2 <__libc_init_array+0x1e>
 8007aec:	0800bd34 	.word	0x0800bd34
 8007af0:	0800bd34 	.word	0x0800bd34
 8007af4:	0800bd34 	.word	0x0800bd34
 8007af8:	0800bd38 	.word	0x0800bd38

08007afc <__retarget_lock_init_recursive>:
 8007afc:	4770      	bx	lr

08007afe <__retarget_lock_acquire_recursive>:
 8007afe:	4770      	bx	lr

08007b00 <__retarget_lock_release_recursive>:
 8007b00:	4770      	bx	lr

08007b02 <memchr>:
 8007b02:	4603      	mov	r3, r0
 8007b04:	b510      	push	{r4, lr}
 8007b06:	b2c9      	uxtb	r1, r1
 8007b08:	4402      	add	r2, r0
 8007b0a:	4293      	cmp	r3, r2
 8007b0c:	4618      	mov	r0, r3
 8007b0e:	d101      	bne.n	8007b14 <memchr+0x12>
 8007b10:	2000      	movs	r0, #0
 8007b12:	e003      	b.n	8007b1c <memchr+0x1a>
 8007b14:	7804      	ldrb	r4, [r0, #0]
 8007b16:	3301      	adds	r3, #1
 8007b18:	428c      	cmp	r4, r1
 8007b1a:	d1f6      	bne.n	8007b0a <memchr+0x8>
 8007b1c:	bd10      	pop	{r4, pc}
	...

08007b20 <__assert_func>:
 8007b20:	b51f      	push	{r0, r1, r2, r3, r4, lr}
 8007b22:	4614      	mov	r4, r2
 8007b24:	461a      	mov	r2, r3
 8007b26:	4b09      	ldr	r3, [pc, #36]	@ (8007b4c <__assert_func+0x2c>)
 8007b28:	4605      	mov	r5, r0
 8007b2a:	681b      	ldr	r3, [r3, #0]
 8007b2c:	68d8      	ldr	r0, [r3, #12]
 8007b2e:	b954      	cbnz	r4, 8007b46 <__assert_func+0x26>
 8007b30:	4b07      	ldr	r3, [pc, #28]	@ (8007b50 <__assert_func+0x30>)
 8007b32:	461c      	mov	r4, r3
 8007b34:	e9cd 3401 	strd	r3, r4, [sp, #4]
 8007b38:	9100      	str	r1, [sp, #0]
 8007b3a:	462b      	mov	r3, r5
 8007b3c:	4905      	ldr	r1, [pc, #20]	@ (8007b54 <__assert_func+0x34>)
 8007b3e:	f001 fcdd 	bl	80094fc <fiprintf>
 8007b42:	f001 fd25 	bl	8009590 <abort>
 8007b46:	4b04      	ldr	r3, [pc, #16]	@ (8007b58 <__assert_func+0x38>)
 8007b48:	e7f4      	b.n	8007b34 <__assert_func+0x14>
 8007b4a:	bf00      	nop
 8007b4c:	20000074 	.word	0x20000074
 8007b50:	0800ba42 	.word	0x0800ba42
 8007b54:	0800ba14 	.word	0x0800ba14
 8007b58:	0800ba07 	.word	0x0800ba07

08007b5c <quorem>:
 8007b5c:	e92d 4ff7 	stmdb	sp!, {r0, r1, r2, r4, r5, r6, r7, r8, r9, sl, fp, lr}
 8007b60:	6903      	ldr	r3, [r0, #16]
 8007b62:	690c      	ldr	r4, [r1, #16]
 8007b64:	4607      	mov	r7, r0
 8007b66:	42a3      	cmp	r3, r4
 8007b68:	db7e      	blt.n	8007c68 <quorem+0x10c>
 8007b6a:	3c01      	subs	r4, #1
 8007b6c:	00a3      	lsls	r3, r4, #2
 8007b6e:	f100 0514 	add.w	r5, r0, #20
 8007b72:	f101 0814 	add.w	r8, r1, #20
 8007b76:	9300      	str	r3, [sp, #0]
 8007b78:	eb05 0384 	add.w	r3, r5, r4, lsl #2
 8007b7c:	9301      	str	r3, [sp, #4]
 8007b7e:	f858 3024 	ldr.w	r3, [r8, r4, lsl #2]
 8007b82:	f855 2024 	ldr.w	r2, [r5, r4, lsl #2]
 8007b86:	3301      	adds	r3, #1
 8007b88:	429a      	cmp	r2, r3
 8007b8a:	fbb2 f6f3 	udiv	r6, r2, r3
 8007b8e:	eb08 0984 	add.w	r9, r8, r4, lsl #2
 8007b92:	d32e      	bcc.n	8007bf2 <quorem+0x96>
 8007b94:	f04f 0a00 	mov.w	sl, #0
 8007b98:	46c4      	mov	ip, r8
 8007b9a:	46ae      	mov	lr, r5
 8007b9c:	46d3      	mov	fp, sl
 8007b9e:	f85c 3b04 	ldr.w	r3, [ip], #4
 8007ba2:	b298      	uxth	r0, r3
 8007ba4:	fb06 a000 	mla	r0, r6, r0, sl
 8007ba8:	0c1b      	lsrs	r3, r3, #16
 8007baa:	0c02      	lsrs	r2, r0, #16
 8007bac:	fb06 2303 	mla	r3, r6, r3, r2
 8007bb0:	f8de 2000 	ldr.w	r2, [lr]
 8007bb4:	b280      	uxth	r0, r0
 8007bb6:	b292      	uxth	r2, r2
 8007bb8:	1a12      	subs	r2, r2, r0
 8007bba:	445a      	add	r2, fp
 8007bbc:	f8de 0000 	ldr.w	r0, [lr]
 8007bc0:	ea4f 4a13 	mov.w	sl, r3, lsr #16
 8007bc4:	b29b      	uxth	r3, r3
 8007bc6:	ebc3 4322 	rsb	r3, r3, r2, asr #16
 8007bca:	eb03 4310 	add.w	r3, r3, r0, lsr #16
 8007bce:	b292      	uxth	r2, r2
 8007bd0:	ea42 4203 	orr.w	r2, r2, r3, lsl #16
 8007bd4:	45e1      	cmp	r9, ip
 8007bd6:	ea4f 4b23 	mov.w	fp, r3, asr #16
 8007bda:	f84e 2b04 	str.w	r2, [lr], #4
 8007bde:	d2de      	bcs.n	8007b9e <quorem+0x42>
 8007be0:	9b00      	ldr	r3, [sp, #0]
 8007be2:	58eb      	ldr	r3, [r5, r3]
 8007be4:	b92b      	cbnz	r3, 8007bf2 <quorem+0x96>
 8007be6:	9b01      	ldr	r3, [sp, #4]
 8007be8:	3b04      	subs	r3, #4
 8007bea:	429d      	cmp	r5, r3
 8007bec:	461a      	mov	r2, r3
 8007bee:	d32f      	bcc.n	8007c50 <quorem+0xf4>
 8007bf0:	613c      	str	r4, [r7, #16]
 8007bf2:	4638      	mov	r0, r7
 8007bf4:	f001 f97a 	bl	8008eec <__mcmp>
 8007bf8:	2800      	cmp	r0, #0
 8007bfa:	db25      	blt.n	8007c48 <quorem+0xec>
 8007bfc:	4629      	mov	r1, r5
 8007bfe:	2000      	movs	r0, #0
 8007c00:	f858 2b04 	ldr.w	r2, [r8], #4
 8007c04:	f8d1 c000 	ldr.w	ip, [r1]
 8007c08:	fa1f fe82 	uxth.w	lr, r2
 8007c0c:	fa1f f38c 	uxth.w	r3, ip
 8007c10:	eba3 030e 	sub.w	r3, r3, lr
 8007c14:	4403      	add	r3, r0
 8007c16:	0c12      	lsrs	r2, r2, #16
 8007c18:	ebc2 4223 	rsb	r2, r2, r3, asr #16
 8007c1c:	eb02 421c 	add.w	r2, r2, ip, lsr #16
 8007c20:	b29b      	uxth	r3, r3
 8007c22:	ea43 4302 	orr.w	r3, r3, r2, lsl #16
 8007c26:	45c1      	cmp	r9, r8
 8007c28:	ea4f 4022 	mov.w	r0, r2, asr #16
 8007c2c:	f841 3b04 	str.w	r3, [r1], #4
 8007c30:	d2e6      	bcs.n	8007c00 <quorem+0xa4>
 8007c32:	f855 2024 	ldr.w	r2, [r5, r4, lsl #2]
 8007c36:	eb05 0384 	add.w	r3, r5, r4, lsl #2
 8007c3a:	b922      	cbnz	r2, 8007c46 <quorem+0xea>
 8007c3c:	3b04      	subs	r3, #4
 8007c3e:	429d      	cmp	r5, r3
 8007c40:	461a      	mov	r2, r3
 8007c42:	d30b      	bcc.n	8007c5c <quorem+0x100>
 8007c44:	613c      	str	r4, [r7, #16]
 8007c46:	3601      	adds	r6, #1
 8007c48:	4630      	mov	r0, r6
 8007c4a:	b003      	add	sp, #12
 8007c4c:	e8bd 8ff0 	ldmia.w	sp!, {r4, r5, r6, r7, r8, r9, sl, fp, pc}
 8007c50:	6812      	ldr	r2, [r2, #0]
 8007c52:	3b04      	subs	r3, #4
 8007c54:	2a00      	cmp	r2, #0
 8007c56:	d1cb      	bne.n	8007bf0 <quorem+0x94>
 8007c58:	3c01      	subs	r4, #1
 8007c5a:	e7c6      	b.n	8007bea <quorem+0x8e>
 8007c5c:	6812      	ldr	r2, [r2, #0]
 8007c5e:	3b04      	subs	r3, #4
 8007c60:	2a00      	cmp	r2, #0
 8007c62:	d1ef      	bne.n	8007c44 <quorem+0xe8>
 8007c64:	3c01      	subs	r4, #1
 8007c66:	e7ea      	b.n	8007c3e <quorem+0xe2>
 8007c68:	2000      	movs	r0, #0
 8007c6a:	e7ee      	b.n	8007c4a <quorem+0xee>
 8007c6c:	0000      	movs	r0, r0
	...

08007c70 <_dtoa_r>:
 8007c70:	e92d 4ff0 	stmdb	sp!, {r4, r5, r6, r7, r8, r9, sl, fp, lr}
 8007c74:	4614      	mov	r4, r2
 8007c76:	461d      	mov	r5, r3
 8007c78:	69c7      	ldr	r7, [r0, #28]
 8007c7a:	b097      	sub	sp, #92	@ 0x5c
 8007c7c:	4683      	mov	fp, r0
 8007c7e:	e9cd 4502 	strd	r4, r5, [sp, #8]
 8007c82:	9e23      	ldr	r6, [sp, #140]	@ 0x8c
 8007c84:	b97f      	cbnz	r7, 8007ca6 <_dtoa_r+0x36>
 8007c86:	2010      	movs	r0, #16
 8007c88:	f000 fe02 	bl	8008890 <malloc>
 8007c8c:	4602      	mov	r2, r0
 8007c8e:	f8cb 001c 	str.w	r0, [fp, #28]
 8007c92:	b920      	cbnz	r0, 8007c9e <_dtoa_r+0x2e>
 8007c94:	21ef      	movs	r1, #239	@ 0xef
 8007c96:	4ba8      	ldr	r3, [pc, #672]	@ (8007f38 <_dtoa_r+0x2c8>)
 8007c98:	48a8      	ldr	r0, [pc, #672]	@ (8007f3c <_dtoa_r+0x2cc>)
 8007c9a:	f7ff ff41 	bl	8007b20 <__assert_func>
 8007c9e:	e9c0 7701 	strd	r7, r7, [r0, #4]
 8007ca2:	6007      	str	r7, [r0, #0]
 8007ca4:	60c7      	str	r7, [r0, #12]
 8007ca6:	f8db 301c 	ldr.w	r3, [fp, #28]
 8007caa:	6819      	ldr	r1, [r3, #0]
 8007cac:	b159      	cbz	r1, 8007cc6 <_dtoa_r+0x56>
 8007cae:	685a      	ldr	r2, [r3, #4]
 8007cb0:	2301      	movs	r3, #1
 8007cb2:	4093      	lsls	r3, r2
 8007cb4:	604a      	str	r2, [r1, #4]
 8007cb6:	608b      	str	r3, [r1, #8]
 8007cb8:	4658      	mov	r0, fp
 8007cba:	f000 fedf 	bl	8008a7c <_Bfree>
 8007cbe:	2200      	movs	r2, #0
 8007cc0:	f8db 301c 	ldr.w	r3, [fp, #28]
 8007cc4:	601a      	str	r2, [r3, #0]
 8007cc6:	1e2b      	subs	r3, r5, #0
 8007cc8:	bfaf      	iteee	ge
 8007cca:	2300      	movge	r3, #0
 8007ccc:	2201      	movlt	r2, #1
 8007cce:	f023 4300 	biclt.w	r3, r3, #2147483648	@ 0x80000000
 8007cd2:	9303      	strlt	r3, [sp, #12]
 8007cd4:	bfa8      	it	ge
 8007cd6:	6033      	strge	r3, [r6, #0]
 8007cd8:	f8dd 800c 	ldr.w	r8, [sp, #12]
 8007cdc:	4b98      	ldr	r3, [pc, #608]	@ (8007f40 <_dtoa_r+0x2d0>)
 8007cde:	bfb8      	it	lt
 8007ce0:	6032      	strlt	r2, [r6, #0]
 8007ce2:	ea33 0308 	bics.w	r3, r3, r8
 8007ce6:	d112      	bne.n	8007d0e <_dtoa_r+0x9e>
 8007ce8:	f242 730f 	movw	r3, #9999	@ 0x270f
 8007cec:	9a22      	ldr	r2, [sp, #136]	@ 0x88
 8007cee:	6013      	str	r3, [r2, #0]
 8007cf0:	f3c8 0313 	ubfx	r3, r8, #0, #20
 8007cf4:	4323      	orrs	r3, r4
 8007cf6:	f000 8550 	beq.w	800879a <_dtoa_r+0xb2a>
 8007cfa:	9b24      	ldr	r3, [sp, #144]	@ 0x90
 8007cfc:	f8df a244 	ldr.w	sl, [pc, #580]	@ 8007f44 <_dtoa_r+0x2d4>
 8007d00:	2b00      	cmp	r3, #0
 8007d02:	f000 8552 	beq.w	80087aa <_dtoa_r+0xb3a>
 8007d06:	f10a 0303 	add.w	r3, sl, #3
 8007d0a:	f000 bd4c 	b.w	80087a6 <_dtoa_r+0xb36>
 8007d0e:	e9dd 2302 	ldrd	r2, r3, [sp, #8]
 8007d12:	e9cd 230c 	strd	r2, r3, [sp, #48]	@ 0x30
 8007d16:	e9dd 010c 	ldrd	r0, r1, [sp, #48]	@ 0x30
 8007d1a:	2200      	movs	r2, #0
 8007d1c:	2300      	movs	r3, #0
 8007d1e:	f7f8 fe43 	bl	80009a8 <__aeabi_dcmpeq>
 8007d22:	4607      	mov	r7, r0
 8007d24:	b158      	cbz	r0, 8007d3e <_dtoa_r+0xce>
 8007d26:	2301      	movs	r3, #1
 8007d28:	9a22      	ldr	r2, [sp, #136]	@ 0x88
 8007d2a:	6013      	str	r3, [r2, #0]
 8007d2c:	9b24      	ldr	r3, [sp, #144]	@ 0x90
 8007d2e:	b113      	cbz	r3, 8007d36 <_dtoa_r+0xc6>
 8007d30:	4b85      	ldr	r3, [pc, #532]	@ (8007f48 <_dtoa_r+0x2d8>)
 8007d32:	9a24      	ldr	r2, [sp, #144]	@ 0x90
 8007d34:	6013      	str	r3, [r2, #0]
 8007d36:	f8df a214 	ldr.w	sl, [pc, #532]	@ 8007f4c <_dtoa_r+0x2dc>
 8007d3a:	f000 bd36 	b.w	80087aa <_dtoa_r+0xb3a>
 8007d3e:	ab14      	add	r3, sp, #80	@ 0x50
 8007d40:	9301      	str	r3, [sp, #4]
 8007d42:	ab15      	add	r3, sp, #84	@ 0x54
 8007d44:	9300      	str	r3, [sp, #0]
 8007d46:	4658      	mov	r0, fp
 8007d48:	e9dd 230c 	ldrd	r2, r3, [sp, #48]	@ 0x30
 8007d4c:	f001 f97e 	bl	800904c <__d2b>
 8007d50:	f3c8 560a 	ubfx	r6, r8, #20, #11
 8007d54:	4681      	mov	r9, r0
 8007d56:	2e00      	cmp	r6, #0
 8007d58:	d077      	beq.n	8007e4a <_dtoa_r+0x1da>
 8007d5a:	e9dd 010c 	ldrd	r0, r1, [sp, #48]	@ 0x30
 8007d5e:	9b0d      	ldr	r3, [sp, #52]	@ 0x34
 8007d60:	f2a6 36ff 	subw	r6, r6, #1023	@ 0x3ff
 8007d64:	f3c3 0313 	ubfx	r3, r3, #0, #20
 8007d68:	f043 537f 	orr.w	r3, r3, #1069547520	@ 0x3fc00000
 8007d6c:	f443 1340 	orr.w	r3, r3, #3145728	@ 0x300000
 8007d70:	9712      	str	r7, [sp, #72]	@ 0x48
 8007d72:	4619      	mov	r1, r3
 8007d74:	2200      	movs	r2, #0
 8007d76:	4b76      	ldr	r3, [pc, #472]	@ (8007f50 <_dtoa_r+0x2e0>)
 8007d78:	f7f8 f9f6 	bl	8000168 <__aeabi_dsub>
 8007d7c:	a368      	add	r3, pc, #416	@ (adr r3, 8007f20 <_dtoa_r+0x2b0>)
 8007d7e:	e9d3 2300 	ldrd	r2, r3, [r3]
 8007d82:	f7f8 fba9 	bl	80004d8 <__aeabi_dmul>
 8007d86:	a368      	add	r3, pc, #416	@ (adr r3, 8007f28 <_dtoa_r+0x2b8>)
 8007d88:	e9d3 2300 	ldrd	r2, r3, [r3]
 8007d8c:	f7f8 f9ee 	bl	800016c <__adddf3>
 8007d90:	4604      	mov	r4, r0
 8007d92:	4630      	mov	r0, r6
 8007d94:	460d      	mov	r5, r1
 8007d96:	f7f8 fb35 	bl	8000404 <__aeabi_i2d>
 8007d9a:	a365      	add	r3, pc, #404	@ (adr r3, 8007f30 <_dtoa_r+0x2c0>)
 8007d9c:	e9d3 2300 	ldrd	r2, r3, [r3]
 8007da0:	f7f8 fb9a 	bl	80004d8 <__aeabi_dmul>
 8007da4:	4602      	mov	r2, r0
 8007da6:	460b      	mov	r3, r1
 8007da8:	4620      	mov	r0, r4
 8007daa:	4629      	mov	r1, r5
 8007dac:	f7f8 f9de 	bl	800016c <__adddf3>
 8007db0:	4604      	mov	r4, r0
 8007db2:	460d      	mov	r5, r1
 8007db4:	f7f8 fe40 	bl	8000a38 <__aeabi_d2iz>
 8007db8:	2200      	movs	r2, #0
 8007dba:	4607      	mov	r7, r0
 8007dbc:	2300      	movs	r3, #0
 8007dbe:	4620      	mov	r0, r4
 8007dc0:	4629      	mov	r1, r5
 8007dc2:	f7f8 fdfb 	bl	80009bc <__aeabi_dcmplt>
 8007dc6:	b140      	cbz	r0, 8007dda <_dtoa_r+0x16a>
 8007dc8:	4638      	mov	r0, r7
 8007dca:	f7f8 fb1b 	bl	8000404 <__aeabi_i2d>
 8007dce:	4622      	mov	r2, r4
 8007dd0:	462b      	mov	r3, r5
 8007dd2:	f7f8 fde9 	bl	80009a8 <__aeabi_dcmpeq>
 8007dd6:	b900      	cbnz	r0, 8007dda <_dtoa_r+0x16a>
 8007dd8:	3f01      	subs	r7, #1
 8007dda:	2f16      	cmp	r7, #22
 8007ddc:	d853      	bhi.n	8007e86 <_dtoa_r+0x216>
 8007dde:	e9dd 010c 	ldrd	r0, r1, [sp, #48]	@ 0x30
 8007de2:	4b5c      	ldr	r3, [pc, #368]	@ (8007f54 <_dtoa_r+0x2e4>)
 8007de4:	eb03 03c7 	add.w	r3, r3, r7, lsl #3
 8007de8:	e9d3 2300 	ldrd	r2, r3, [r3]
 8007dec:	f7f8 fde6 	bl	80009bc <__aeabi_dcmplt>
 8007df0:	2800      	cmp	r0, #0
 8007df2:	d04a      	beq.n	8007e8a <_dtoa_r+0x21a>
 8007df4:	2300      	movs	r3, #0
 8007df6:	3f01      	subs	r7, #1
 8007df8:	930f      	str	r3, [sp, #60]	@ 0x3c
 8007dfa:	9b14      	ldr	r3, [sp, #80]	@ 0x50
 8007dfc:	1b9b      	subs	r3, r3, r6
 8007dfe:	1e5a      	subs	r2, r3, #1
 8007e00:	bf46      	itte	mi
 8007e02:	f1c3 0801 	rsbmi	r8, r3, #1
 8007e06:	2300      	movmi	r3, #0
 8007e08:	f04f 0800 	movpl.w	r8, #0
 8007e0c:	9209      	str	r2, [sp, #36]	@ 0x24
 8007e0e:	bf48      	it	mi
 8007e10:	9309      	strmi	r3, [sp, #36]	@ 0x24
 8007e12:	2f00      	cmp	r7, #0
 8007e14:	db3b      	blt.n	8007e8e <_dtoa_r+0x21e>
 8007e16:	9b09      	ldr	r3, [sp, #36]	@ 0x24
 8007e18:	970e      	str	r7, [sp, #56]	@ 0x38
 8007e1a:	443b      	add	r3, r7
 8007e1c:	9309      	str	r3, [sp, #36]	@ 0x24
 8007e1e:	2300      	movs	r3, #0
 8007e20:	930a      	str	r3, [sp, #40]	@ 0x28
 8007e22:	9b20      	ldr	r3, [sp, #128]	@ 0x80
 8007e24:	2b09      	cmp	r3, #9
 8007e26:	d866      	bhi.n	8007ef6 <_dtoa_r+0x286>
 8007e28:	2b05      	cmp	r3, #5
 8007e2a:	bfc4      	itt	gt
 8007e2c:	3b04      	subgt	r3, #4
 8007e2e:	9320      	strgt	r3, [sp, #128]	@ 0x80
 8007e30:	9b20      	ldr	r3, [sp, #128]	@ 0x80
 8007e32:	bfc8      	it	gt
 8007e34:	2400      	movgt	r4, #0
 8007e36:	f1a3 0302 	sub.w	r3, r3, #2
 8007e3a:	bfd8      	it	le
 8007e3c:	2401      	movle	r4, #1
 8007e3e:	2b03      	cmp	r3, #3
 8007e40:	d864      	bhi.n	8007f0c <_dtoa_r+0x29c>
 8007e42:	e8df f003 	tbb	[pc, r3]
 8007e46:	382b      	.short	0x382b
 8007e48:	5636      	.short	0x5636
 8007e4a:	e9dd 6314 	ldrd	r6, r3, [sp, #80]	@ 0x50
 8007e4e:	441e      	add	r6, r3
 8007e50:	f206 4332 	addw	r3, r6, #1074	@ 0x432
 8007e54:	2b20      	cmp	r3, #32
 8007e56:	bfc1      	itttt	gt
 8007e58:	f1c3 0340 	rsbgt	r3, r3, #64	@ 0x40
 8007e5c:	fa08 f803 	lslgt.w	r8, r8, r3
 8007e60:	f206 4312 	addwgt	r3, r6, #1042	@ 0x412
 8007e64:	fa24 f303 	lsrgt.w	r3, r4, r3
 8007e68:	bfd6      	itet	le
 8007e6a:	f1c3 0320 	rsble	r3, r3, #32
 8007e6e:	ea48 0003 	orrgt.w	r0, r8, r3
 8007e72:	fa04 f003 	lslle.w	r0, r4, r3
 8007e76:	f7f8 fab5 	bl	80003e4 <__aeabi_ui2d>
 8007e7a:	2201      	movs	r2, #1
 8007e7c:	f1a1 73f8 	sub.w	r3, r1, #32505856	@ 0x1f00000
 8007e80:	3e01      	subs	r6, #1
 8007e82:	9212      	str	r2, [sp, #72]	@ 0x48
 8007e84:	e775      	b.n	8007d72 <_dtoa_r+0x102>
 8007e86:	2301      	movs	r3, #1
 8007e88:	e7b6      	b.n	8007df8 <_dtoa_r+0x188>
 8007e8a:	900f      	str	r0, [sp, #60]	@ 0x3c
 8007e8c:	e7b5      	b.n	8007dfa <_dtoa_r+0x18a>
 8007e8e:	427b      	negs	r3, r7
 8007e90:	930a      	str	r3, [sp, #40]	@ 0x28
 8007e92:	2300      	movs	r3, #0
 8007e94:	eba8 0807 	sub.w	r8, r8, r7
 8007e98:	930e      	str	r3, [sp, #56]	@ 0x38
 8007e9a:	e7c2      	b.n	8007e22 <_dtoa_r+0x1b2>
 8007e9c:	2300      	movs	r3, #0
 8007e9e:	930b      	str	r3, [sp, #44]	@ 0x2c
 8007ea0:	9b21      	ldr	r3, [sp, #132]	@ 0x84
 8007ea2:	2b00      	cmp	r3, #0
 8007ea4:	dc35      	bgt.n	8007f12 <_dtoa_r+0x2a2>
 8007ea6:	2301      	movs	r3, #1
 8007ea8:	461a      	mov	r2, r3
 8007eaa:	e9cd 3307 	strd	r3, r3, [sp, #28]
 8007eae:	9221      	str	r2, [sp, #132]	@ 0x84
 8007eb0:	e00b      	b.n	8007eca <_dtoa_r+0x25a>
 8007eb2:	2301      	movs	r3, #1
 8007eb4:	e7f3      	b.n	8007e9e <_dtoa_r+0x22e>
 8007eb6:	2300      	movs	r3, #0
 8007eb8:	930b      	str	r3, [sp, #44]	@ 0x2c
 8007eba:	9b21      	ldr	r3, [sp, #132]	@ 0x84
 8007ebc:	18fb      	adds	r3, r7, r3
 8007ebe:	9308      	str	r3, [sp, #32]
 8007ec0:	3301      	adds	r3, #1
 8007ec2:	2b01      	cmp	r3, #1
 8007ec4:	9307      	str	r3, [sp, #28]
 8007ec6:	bfb8      	it	lt
 8007ec8:	2301      	movlt	r3, #1
 8007eca:	2100      	movs	r1, #0
 8007ecc:	2204      	movs	r2, #4
 8007ece:	f8db 001c 	ldr.w	r0, [fp, #28]
 8007ed2:	f102 0514 	add.w	r5, r2, #20
 8007ed6:	429d      	cmp	r5, r3
 8007ed8:	d91f      	bls.n	8007f1a <_dtoa_r+0x2aa>
 8007eda:	6041      	str	r1, [r0, #4]
 8007edc:	4658      	mov	r0, fp
 8007ede:	f000 fd8d 	bl	80089fc <_Balloc>
 8007ee2:	4682      	mov	sl, r0
 8007ee4:	2800      	cmp	r0, #0
 8007ee6:	d139      	bne.n	8007f5c <_dtoa_r+0x2ec>
 8007ee8:	4602      	mov	r2, r0
 8007eea:	f240 11af 	movw	r1, #431	@ 0x1af
 8007eee:	4b1a      	ldr	r3, [pc, #104]	@ (8007f58 <_dtoa_r+0x2e8>)
 8007ef0:	e6d2      	b.n	8007c98 <_dtoa_r+0x28>
 8007ef2:	2301      	movs	r3, #1
 8007ef4:	e7e0      	b.n	8007eb8 <_dtoa_r+0x248>
 8007ef6:	2401      	movs	r4, #1
 8007ef8:	2300      	movs	r3, #0
 8007efa:	940b      	str	r4, [sp, #44]	@ 0x2c
 8007efc:	9320      	str	r3, [sp, #128]	@ 0x80
 8007efe:	f04f 33ff 	mov.w	r3, #4294967295
 8007f02:	2200      	movs	r2, #0
 8007f04:	e9cd 3307 	strd	r3, r3, [sp, #28]
 8007f08:	2312      	movs	r3, #18
 8007f0a:	e7d0      	b.n	8007eae <_dtoa_r+0x23e>
 8007f0c:	2301      	movs	r3, #1
 8007f0e:	930b      	str	r3, [sp, #44]	@ 0x2c
 8007f10:	e7f5      	b.n	8007efe <_dtoa_r+0x28e>
 8007f12:	9b21      	ldr	r3, [sp, #132]	@ 0x84
 8007f14:	e9cd 3307 	strd	r3, r3, [sp, #28]
 8007f18:	e7d7      	b.n	8007eca <_dtoa_r+0x25a>
 8007f1a:	3101      	adds	r1, #1
 8007f1c:	0052      	lsls	r2, r2, #1
 8007f1e:	e7d8      	b.n	8007ed2 <_dtoa_r+0x262>
 8007f20:	636f4361 	.word	0x636f4361
 8007f24:	3fd287a7 	.word	0x3fd287a7
 8007f28:	8b60c8b3 	.word	0x8b60c8b3
 8007f2c:	3fc68a28 	.word	0x3fc68a28
 8007f30:	509f79fb 	.word	0x509f79fb
 8007f34:	3fd34413 	.word	0x3fd34413
 8007f38:	0800b964 	.word	0x0800b964
 8007f3c:	0800ba50 	.word	0x0800ba50
 8007f40:	7ff00000 	.word	0x7ff00000
 8007f44:	0800ba4c 	.word	0x0800ba4c
 8007f48:	0800b9e4 	.word	0x0800b9e4
 8007f4c:	0800b9e3 	.word	0x0800b9e3
 8007f50:	3ff80000 	.word	0x3ff80000
 8007f54:	0800bb48 	.word	0x0800bb48
 8007f58:	0800baa8 	.word	0x0800baa8
 8007f5c:	f8db 301c 	ldr.w	r3, [fp, #28]
 8007f60:	6018      	str	r0, [r3, #0]
 8007f62:	9b07      	ldr	r3, [sp, #28]
 8007f64:	2b0e      	cmp	r3, #14
 8007f66:	f200 80a4 	bhi.w	80080b2 <_dtoa_r+0x442>
 8007f6a:	2c00      	cmp	r4, #0
 8007f6c:	f000 80a1 	beq.w	80080b2 <_dtoa_r+0x442>
 8007f70:	2f00      	cmp	r7, #0
 8007f72:	dd33      	ble.n	8007fdc <_dtoa_r+0x36c>
 8007f74:	4b86      	ldr	r3, [pc, #536]	@ (8008190 <_dtoa_r+0x520>)
 8007f76:	f007 020f 	and.w	r2, r7, #15
 8007f7a:	eb03 03c2 	add.w	r3, r3, r2, lsl #3
 8007f7e:	05f8      	lsls	r0, r7, #23
 8007f80:	e9d3 3400 	ldrd	r3, r4, [r3]
 8007f84:	e9cd 3404 	strd	r3, r4, [sp, #16]
 8007f88:	ea4f 1427 	mov.w	r4, r7, asr #4
 8007f8c:	d516      	bpl.n	8007fbc <_dtoa_r+0x34c>
 8007f8e:	e9dd 010c 	ldrd	r0, r1, [sp, #48]	@ 0x30
 8007f92:	4b80      	ldr	r3, [pc, #512]	@ (8008194 <_dtoa_r+0x524>)
 8007f94:	2603      	movs	r6, #3
 8007f96:	e9d3 2308 	ldrd	r2, r3, [r3, #32]
 8007f9a:	f7f8 fbc7 	bl	800072c <__aeabi_ddiv>
 8007f9e:	e9cd 0102 	strd	r0, r1, [sp, #8]
 8007fa2:	f004 040f 	and.w	r4, r4, #15
 8007fa6:	4d7b      	ldr	r5, [pc, #492]	@ (8008194 <_dtoa_r+0x524>)
 8007fa8:	b954      	cbnz	r4, 8007fc0 <_dtoa_r+0x350>
 8007faa:	e9dd 2304 	ldrd	r2, r3, [sp, #16]
 8007fae:	e9dd 0102 	ldrd	r0, r1, [sp, #8]
 8007fb2:	f7f8 fbbb 	bl	800072c <__aeabi_ddiv>
 8007fb6:	e9cd 0102 	strd	r0, r1, [sp, #8]
 8007fba:	e028      	b.n	800800e <_dtoa_r+0x39e>
 8007fbc:	2602      	movs	r6, #2
 8007fbe:	e7f2      	b.n	8007fa6 <_dtoa_r+0x336>
 8007fc0:	07e1      	lsls	r1, r4, #31
 8007fc2:	d508      	bpl.n	8007fd6 <_dtoa_r+0x366>
 8007fc4:	e9dd 0104 	ldrd	r0, r1, [sp, #16]
 8007fc8:	e9d5 2300 	ldrd	r2, r3, [r5]
 8007fcc:	f7f8 fa84 	bl	80004d8 <__aeabi_dmul>
 8007fd0:	e9cd 0104 	strd	r0, r1, [sp, #16]
 8007fd4:	3601      	adds	r6, #1
 8007fd6:	1064      	asrs	r4, r4, #1
 8007fd8:	3508      	adds	r5, #8
 8007fda:	e7e5      	b.n	8007fa8 <_dtoa_r+0x338>
 8007fdc:	f000 80d2 	beq.w	8008184 <_dtoa_r+0x514>
 8007fe0:	e9dd 010c 	ldrd	r0, r1, [sp, #48]	@ 0x30
 8007fe4:	427c      	negs	r4, r7
 8007fe6:	4b6a      	ldr	r3, [pc, #424]	@ (8008190 <_dtoa_r+0x520>)
 8007fe8:	f004 020f 	and.w	r2, r4, #15
 8007fec:	eb03 03c2 	add.w	r3, r3, r2, lsl #3
 8007ff0:	e9d3 2300 	ldrd	r2, r3, [r3]
 8007ff4:	f7f8 fa70 	bl	80004d8 <__aeabi_dmul>
 8007ff8:	2602      	movs	r6, #2
 8007ffa:	2300      	movs	r3, #0
 8007ffc:	e9cd 0102 	strd	r0, r1, [sp, #8]
 8008000:	4d64      	ldr	r5, [pc, #400]	@ (8008194 <_dtoa_r+0x524>)
 8008002:	1124      	asrs	r4, r4, #4
 8008004:	2c00      	cmp	r4, #0
 8008006:	f040 80b2 	bne.w	800816e <_dtoa_r+0x4fe>
 800800a:	2b00      	cmp	r3, #0
 800800c:	d1d3      	bne.n	8007fb6 <_dtoa_r+0x346>
 800800e:	e9dd 4502 	ldrd	r4, r5, [sp, #8]
 8008012:	9b0f      	ldr	r3, [sp, #60]	@ 0x3c
 8008014:	2b00      	cmp	r3, #0
 8008016:	f000 80b7 	beq.w	8008188 <_dtoa_r+0x518>
 800801a:	2200      	movs	r2, #0
 800801c:	4620      	mov	r0, r4
 800801e:	4629      	mov	r1, r5
 8008020:	4b5d      	ldr	r3, [pc, #372]	@ (8008198 <_dtoa_r+0x528>)
 8008022:	f7f8 fccb 	bl	80009bc <__aeabi_dcmplt>
 8008026:	2800      	cmp	r0, #0
 8008028:	f000 80ae 	beq.w	8008188 <_dtoa_r+0x518>
 800802c:	9b07      	ldr	r3, [sp, #28]
 800802e:	2b00      	cmp	r3, #0
 8008030:	f000 80aa 	beq.w	8008188 <_dtoa_r+0x518>
 8008034:	9b08      	ldr	r3, [sp, #32]
 8008036:	2b00      	cmp	r3, #0
 8008038:	dd37      	ble.n	80080aa <_dtoa_r+0x43a>
 800803a:	1e7b      	subs	r3, r7, #1
 800803c:	4620      	mov	r0, r4
 800803e:	9304      	str	r3, [sp, #16]
 8008040:	2200      	movs	r2, #0
 8008042:	4629      	mov	r1, r5
 8008044:	4b55      	ldr	r3, [pc, #340]	@ (800819c <_dtoa_r+0x52c>)
 8008046:	f7f8 fa47 	bl	80004d8 <__aeabi_dmul>
 800804a:	e9cd 0102 	strd	r0, r1, [sp, #8]
 800804e:	9c08      	ldr	r4, [sp, #32]
 8008050:	3601      	adds	r6, #1
 8008052:	4630      	mov	r0, r6
 8008054:	f7f8 f9d6 	bl	8000404 <__aeabi_i2d>
 8008058:	e9dd 2302 	ldrd	r2, r3, [sp, #8]
 800805c:	f7f8 fa3c 	bl	80004d8 <__aeabi_dmul>
 8008060:	2200      	movs	r2, #0
 8008062:	4b4f      	ldr	r3, [pc, #316]	@ (80081a0 <_dtoa_r+0x530>)
 8008064:	f7f8 f882 	bl	800016c <__adddf3>
 8008068:	4605      	mov	r5, r0
 800806a:	f1a1 7650 	sub.w	r6, r1, #54525952	@ 0x3400000
 800806e:	2c00      	cmp	r4, #0
 8008070:	f040 809a 	bne.w	80081a8 <_dtoa_r+0x538>
 8008074:	e9dd 0102 	ldrd	r0, r1, [sp, #8]
 8008078:	2200      	movs	r2, #0
 800807a:	4b4a      	ldr	r3, [pc, #296]	@ (80081a4 <_dtoa_r+0x534>)
 800807c:	f7f8 f874 	bl	8000168 <__aeabi_dsub>
 8008080:	4602      	mov	r2, r0
 8008082:	460b      	mov	r3, r1
 8008084:	e9cd 2302 	strd	r2, r3, [sp, #8]
 8008088:	462a      	mov	r2, r5
 800808a:	4633      	mov	r3, r6
 800808c:	f7f8 fcb4 	bl	80009f8 <__aeabi_dcmpgt>
 8008090:	2800      	cmp	r0, #0
 8008092:	f040 828e 	bne.w	80085b2 <_dtoa_r+0x942>
 8008096:	e9dd 0102 	ldrd	r0, r1, [sp, #8]
 800809a:	462a      	mov	r2, r5
 800809c:	f106 4300 	add.w	r3, r6, #2147483648	@ 0x80000000
 80080a0:	f7f8 fc8c 	bl	80009bc <__aeabi_dcmplt>
 80080a4:	2800      	cmp	r0, #0
 80080a6:	f040 8127 	bne.w	80082f8 <_dtoa_r+0x688>
 80080aa:	e9dd 340c 	ldrd	r3, r4, [sp, #48]	@ 0x30
 80080ae:	e9cd 3402 	strd	r3, r4, [sp, #8]
 80080b2:	9b15      	ldr	r3, [sp, #84]	@ 0x54
 80080b4:	2b00      	cmp	r3, #0
 80080b6:	f2c0 8163 	blt.w	8008380 <_dtoa_r+0x710>
 80080ba:	2f0e      	cmp	r7, #14
 80080bc:	f300 8160 	bgt.w	8008380 <_dtoa_r+0x710>
 80080c0:	4b33      	ldr	r3, [pc, #204]	@ (8008190 <_dtoa_r+0x520>)
 80080c2:	eb03 03c7 	add.w	r3, r3, r7, lsl #3
 80080c6:	e9d3 3400 	ldrd	r3, r4, [r3]
 80080ca:	e9cd 3404 	strd	r3, r4, [sp, #16]
 80080ce:	9b21      	ldr	r3, [sp, #132]	@ 0x84
 80080d0:	2b00      	cmp	r3, #0
 80080d2:	da03      	bge.n	80080dc <_dtoa_r+0x46c>
 80080d4:	9b07      	ldr	r3, [sp, #28]
 80080d6:	2b00      	cmp	r3, #0
 80080d8:	f340 8100 	ble.w	80082dc <_dtoa_r+0x66c>
 80080dc:	e9dd 4502 	ldrd	r4, r5, [sp, #8]
 80080e0:	4656      	mov	r6, sl
 80080e2:	e9dd 2304 	ldrd	r2, r3, [sp, #16]
 80080e6:	4620      	mov	r0, r4
 80080e8:	4629      	mov	r1, r5
 80080ea:	f7f8 fb1f 	bl	800072c <__aeabi_ddiv>
 80080ee:	f7f8 fca3 	bl	8000a38 <__aeabi_d2iz>
 80080f2:	4680      	mov	r8, r0
 80080f4:	f7f8 f986 	bl	8000404 <__aeabi_i2d>
 80080f8:	e9dd 2304 	ldrd	r2, r3, [sp, #16]
 80080fc:	f7f8 f9ec 	bl	80004d8 <__aeabi_dmul>
 8008100:	4602      	mov	r2, r0
 8008102:	460b      	mov	r3, r1
 8008104:	4620      	mov	r0, r4
 8008106:	4629      	mov	r1, r5
 8008108:	f7f8 f82e 	bl	8000168 <__aeabi_dsub>
 800810c:	f108 0430 	add.w	r4, r8, #48	@ 0x30
 8008110:	9d07      	ldr	r5, [sp, #28]
 8008112:	f806 4b01 	strb.w	r4, [r6], #1
 8008116:	eba6 040a 	sub.w	r4, r6, sl
 800811a:	42a5      	cmp	r5, r4
 800811c:	4602      	mov	r2, r0
 800811e:	460b      	mov	r3, r1
 8008120:	f040 8116 	bne.w	8008350 <_dtoa_r+0x6e0>
 8008124:	f7f8 f822 	bl	800016c <__adddf3>
 8008128:	e9dd 2304 	ldrd	r2, r3, [sp, #16]
 800812c:	4604      	mov	r4, r0
 800812e:	460d      	mov	r5, r1
 8008130:	f7f8 fc62 	bl	80009f8 <__aeabi_dcmpgt>
 8008134:	2800      	cmp	r0, #0
 8008136:	f040 80f8 	bne.w	800832a <_dtoa_r+0x6ba>
 800813a:	e9dd 2304 	ldrd	r2, r3, [sp, #16]
 800813e:	4620      	mov	r0, r4
 8008140:	4629      	mov	r1, r5
 8008142:	f7f8 fc31 	bl	80009a8 <__aeabi_dcmpeq>
 8008146:	b118      	cbz	r0, 8008150 <_dtoa_r+0x4e0>
 8008148:	f018 0f01 	tst.w	r8, #1
 800814c:	f040 80ed 	bne.w	800832a <_dtoa_r+0x6ba>
 8008150:	4649      	mov	r1, r9
 8008152:	4658      	mov	r0, fp
 8008154:	f000 fc92 	bl	8008a7c <_Bfree>
 8008158:	2300      	movs	r3, #0
 800815a:	7033      	strb	r3, [r6, #0]
 800815c:	9b22      	ldr	r3, [sp, #136]	@ 0x88
 800815e:	3701      	adds	r7, #1
 8008160:	601f      	str	r7, [r3, #0]
 8008162:	9b24      	ldr	r3, [sp, #144]	@ 0x90
 8008164:	2b00      	cmp	r3, #0
 8008166:	f000 8320 	beq.w	80087aa <_dtoa_r+0xb3a>
 800816a:	601e      	str	r6, [r3, #0]
 800816c:	e31d      	b.n	80087aa <_dtoa_r+0xb3a>
 800816e:	07e2      	lsls	r2, r4, #31
 8008170:	d505      	bpl.n	800817e <_dtoa_r+0x50e>
 8008172:	e9d5 2300 	ldrd	r2, r3, [r5]
 8008176:	f7f8 f9af 	bl	80004d8 <__aeabi_dmul>
 800817a:	2301      	movs	r3, #1
 800817c:	3601      	adds	r6, #1
 800817e:	1064      	asrs	r4, r4, #1
 8008180:	3508      	adds	r5, #8
 8008182:	e73f      	b.n	8008004 <_dtoa_r+0x394>
 8008184:	2602      	movs	r6, #2
 8008186:	e742      	b.n	800800e <_dtoa_r+0x39e>
 8008188:	9c07      	ldr	r4, [sp, #28]
 800818a:	9704      	str	r7, [sp, #16]
 800818c:	e761      	b.n	8008052 <_dtoa_r+0x3e2>
 800818e:	bf00      	nop
 8008190:	0800bb48 	.word	0x0800bb48
 8008194:	0800bb20 	.word	0x0800bb20
 8008198:	3ff00000 	.word	0x3ff00000
 800819c:	40240000 	.word	0x40240000
 80081a0:	401c0000 	.word	0x401c0000
 80081a4:	40140000 	.word	0x40140000
 80081a8:	4b70      	ldr	r3, [pc, #448]	@ (800836c <_dtoa_r+0x6fc>)
 80081aa:	990b      	ldr	r1, [sp, #44]	@ 0x2c
 80081ac:	eb03 03c4 	add.w	r3, r3, r4, lsl #3
 80081b0:	e953 2302 	ldrd	r2, r3, [r3, #-8]
 80081b4:	4454      	add	r4, sl
 80081b6:	2900      	cmp	r1, #0
 80081b8:	d045      	beq.n	8008246 <_dtoa_r+0x5d6>
 80081ba:	2000      	movs	r0, #0
 80081bc:	496c      	ldr	r1, [pc, #432]	@ (8008370 <_dtoa_r+0x700>)
 80081be:	f7f8 fab5 	bl	800072c <__aeabi_ddiv>
 80081c2:	4633      	mov	r3, r6
 80081c4:	462a      	mov	r2, r5
 80081c6:	f7f7 ffcf 	bl	8000168 <__aeabi_dsub>
 80081ca:	4656      	mov	r6, sl
 80081cc:	e9cd 0110 	strd	r0, r1, [sp, #64]	@ 0x40
 80081d0:	e9dd 0102 	ldrd	r0, r1, [sp, #8]
 80081d4:	f7f8 fc30 	bl	8000a38 <__aeabi_d2iz>
 80081d8:	4605      	mov	r5, r0
 80081da:	f7f8 f913 	bl	8000404 <__aeabi_i2d>
 80081de:	4602      	mov	r2, r0
 80081e0:	460b      	mov	r3, r1
 80081e2:	e9dd 0102 	ldrd	r0, r1, [sp, #8]
 80081e6:	f7f7 ffbf 	bl	8000168 <__aeabi_dsub>
 80081ea:	4602      	mov	r2, r0
 80081ec:	460b      	mov	r3, r1
 80081ee:	3530      	adds	r5, #48	@ 0x30
 80081f0:	e9cd 2302 	strd	r2, r3, [sp, #8]
 80081f4:	e9dd 2310 	ldrd	r2, r3, [sp, #64]	@ 0x40
 80081f8:	f806 5b01 	strb.w	r5, [r6], #1
 80081fc:	f7f8 fbde 	bl	80009bc <__aeabi_dcmplt>
 8008200:	2800      	cmp	r0, #0
 8008202:	d163      	bne.n	80082cc <_dtoa_r+0x65c>
 8008204:	e9dd 2302 	ldrd	r2, r3, [sp, #8]
 8008208:	2000      	movs	r0, #0
 800820a:	495a      	ldr	r1, [pc, #360]	@ (8008374 <_dtoa_r+0x704>)
 800820c:	f7f7 ffac 	bl	8000168 <__aeabi_dsub>
 8008210:	e9dd 2310 	ldrd	r2, r3, [sp, #64]	@ 0x40
 8008214:	f7f8 fbd2 	bl	80009bc <__aeabi_dcmplt>
 8008218:	2800      	cmp	r0, #0
 800821a:	f040 8087 	bne.w	800832c <_dtoa_r+0x6bc>
 800821e:	42a6      	cmp	r6, r4
 8008220:	f43f af43 	beq.w	80080aa <_dtoa_r+0x43a>
 8008224:	e9dd 0110 	ldrd	r0, r1, [sp, #64]	@ 0x40
 8008228:	2200      	movs	r2, #0
 800822a:	4b53      	ldr	r3, [pc, #332]	@ (8008378 <_dtoa_r+0x708>)
 800822c:	f7f8 f954 	bl	80004d8 <__aeabi_dmul>
 8008230:	2200      	movs	r2, #0
 8008232:	e9cd 0110 	strd	r0, r1, [sp, #64]	@ 0x40
 8008236:	e9dd 0102 	ldrd	r0, r1, [sp, #8]
 800823a:	4b4f      	ldr	r3, [pc, #316]	@ (8008378 <_dtoa_r+0x708>)
 800823c:	f7f8 f94c 	bl	80004d8 <__aeabi_dmul>
 8008240:	e9cd 0102 	strd	r0, r1, [sp, #8]
 8008244:	e7c4      	b.n	80081d0 <_dtoa_r+0x560>
 8008246:	4631      	mov	r1, r6
 8008248:	4628      	mov	r0, r5
 800824a:	f7f8 f945 	bl	80004d8 <__aeabi_dmul>
 800824e:	4656      	mov	r6, sl
 8008250:	e9cd 0110 	strd	r0, r1, [sp, #64]	@ 0x40
 8008254:	9413      	str	r4, [sp, #76]	@ 0x4c
 8008256:	e9dd 0102 	ldrd	r0, r1, [sp, #8]
 800825a:	f7f8 fbed 	bl	8000a38 <__aeabi_d2iz>
 800825e:	4605      	mov	r5, r0
 8008260:	f7f8 f8d0 	bl	8000404 <__aeabi_i2d>
 8008264:	4602      	mov	r2, r0
 8008266:	460b      	mov	r3, r1
 8008268:	e9dd 0102 	ldrd	r0, r1, [sp, #8]
 800826c:	f7f7 ff7c 	bl	8000168 <__aeabi_dsub>
 8008270:	4602      	mov	r2, r0
 8008272:	460b      	mov	r3, r1
 8008274:	3530      	adds	r5, #48	@ 0x30
 8008276:	f806 5b01 	strb.w	r5, [r6], #1
 800827a:	42a6      	cmp	r6, r4
 800827c:	e9cd 2302 	strd	r2, r3, [sp, #8]
 8008280:	f04f 0200 	mov.w	r2, #0
 8008284:	d124      	bne.n	80082d0 <_dtoa_r+0x660>
 8008286:	e9dd 0110 	ldrd	r0, r1, [sp, #64]	@ 0x40
 800828a:	4b39      	ldr	r3, [pc, #228]	@ (8008370 <_dtoa_r+0x700>)
 800828c:	f7f7 ff6e 	bl	800016c <__adddf3>
 8008290:	4602      	mov	r2, r0
 8008292:	460b      	mov	r3, r1
 8008294:	e9dd 0102 	ldrd	r0, r1, [sp, #8]
 8008298:	f7f8 fbae 	bl	80009f8 <__aeabi_dcmpgt>
 800829c:	2800      	cmp	r0, #0
 800829e:	d145      	bne.n	800832c <_dtoa_r+0x6bc>
 80082a0:	e9dd 2310 	ldrd	r2, r3, [sp, #64]	@ 0x40
 80082a4:	2000      	movs	r0, #0
 80082a6:	4932      	ldr	r1, [pc, #200]	@ (8008370 <_dtoa_r+0x700>)
 80082a8:	f7f7 ff5e 	bl	8000168 <__aeabi_dsub>
 80082ac:	4602      	mov	r2, r0
 80082ae:	460b      	mov	r3, r1
 80082b0:	e9dd 0102 	ldrd	r0, r1, [sp, #8]
 80082b4:	f7f8 fb82 	bl	80009bc <__aeabi_dcmplt>
 80082b8:	2800      	cmp	r0, #0
 80082ba:	f43f aef6 	beq.w	80080aa <_dtoa_r+0x43a>
 80082be:	9e13      	ldr	r6, [sp, #76]	@ 0x4c
 80082c0:	1e73      	subs	r3, r6, #1
 80082c2:	9313      	str	r3, [sp, #76]	@ 0x4c
 80082c4:	f816 3c01 	ldrb.w	r3, [r6, #-1]
 80082c8:	2b30      	cmp	r3, #48	@ 0x30
 80082ca:	d0f8      	beq.n	80082be <_dtoa_r+0x64e>
 80082cc:	9f04      	ldr	r7, [sp, #16]
 80082ce:	e73f      	b.n	8008150 <_dtoa_r+0x4e0>
 80082d0:	4b29      	ldr	r3, [pc, #164]	@ (8008378 <_dtoa_r+0x708>)
 80082d2:	f7f8 f901 	bl	80004d8 <__aeabi_dmul>
 80082d6:	e9cd 0102 	strd	r0, r1, [sp, #8]
 80082da:	e7bc      	b.n	8008256 <_dtoa_r+0x5e6>
 80082dc:	d10c      	bne.n	80082f8 <_dtoa_r+0x688>
 80082de:	e9dd 0104 	ldrd	r0, r1, [sp, #16]
 80082e2:	2200      	movs	r2, #0
 80082e4:	4b25      	ldr	r3, [pc, #148]	@ (800837c <_dtoa_r+0x70c>)
 80082e6:	f7f8 f8f7 	bl	80004d8 <__aeabi_dmul>
 80082ea:	e9dd 2302 	ldrd	r2, r3, [sp, #8]
 80082ee:	f7f8 fb79 	bl	80009e4 <__aeabi_dcmpge>
 80082f2:	2800      	cmp	r0, #0
 80082f4:	f000 815b 	beq.w	80085ae <_dtoa_r+0x93e>
 80082f8:	2400      	movs	r4, #0
 80082fa:	4625      	mov	r5, r4
 80082fc:	9b21      	ldr	r3, [sp, #132]	@ 0x84
 80082fe:	4656      	mov	r6, sl
 8008300:	43db      	mvns	r3, r3
 8008302:	9304      	str	r3, [sp, #16]
 8008304:	2700      	movs	r7, #0
 8008306:	4621      	mov	r1, r4
 8008308:	4658      	mov	r0, fp
 800830a:	f000 fbb7 	bl	8008a7c <_Bfree>
 800830e:	2d00      	cmp	r5, #0
 8008310:	d0dc      	beq.n	80082cc <_dtoa_r+0x65c>
 8008312:	b12f      	cbz	r7, 8008320 <_dtoa_r+0x6b0>
 8008314:	42af      	cmp	r7, r5
 8008316:	d003      	beq.n	8008320 <_dtoa_r+0x6b0>
 8008318:	4639      	mov	r1, r7
 800831a:	4658      	mov	r0, fp
 800831c:	f000 fbae 	bl	8008a7c <_Bfree>
 8008320:	4629      	mov	r1, r5
 8008322:	4658      	mov	r0, fp
 8008324:	f000 fbaa 	bl	8008a7c <_Bfree>
 8008328:	e7d0      	b.n	80082cc <_dtoa_r+0x65c>
 800832a:	9704      	str	r7, [sp, #16]
 800832c:	4633      	mov	r3, r6
 800832e:	461e      	mov	r6, r3
 8008330:	f813 2d01 	ldrb.w	r2, [r3, #-1]!
 8008334:	2a39      	cmp	r2, #57	@ 0x39
 8008336:	d107      	bne.n	8008348 <_dtoa_r+0x6d8>
 8008338:	459a      	cmp	sl, r3
 800833a:	d1f8      	bne.n	800832e <_dtoa_r+0x6be>
 800833c:	9a04      	ldr	r2, [sp, #16]
 800833e:	3201      	adds	r2, #1
 8008340:	9204      	str	r2, [sp, #16]
 8008342:	2230      	movs	r2, #48	@ 0x30
 8008344:	f88a 2000 	strb.w	r2, [sl]
 8008348:	781a      	ldrb	r2, [r3, #0]
 800834a:	3201      	adds	r2, #1
 800834c:	701a      	strb	r2, [r3, #0]
 800834e:	e7bd      	b.n	80082cc <_dtoa_r+0x65c>
 8008350:	2200      	movs	r2, #0
 8008352:	4b09      	ldr	r3, [pc, #36]	@ (8008378 <_dtoa_r+0x708>)
 8008354:	f7f8 f8c0 	bl	80004d8 <__aeabi_dmul>
 8008358:	2200      	movs	r2, #0
 800835a:	2300      	movs	r3, #0
 800835c:	4604      	mov	r4, r0
 800835e:	460d      	mov	r5, r1
 8008360:	f7f8 fb22 	bl	80009a8 <__aeabi_dcmpeq>
 8008364:	2800      	cmp	r0, #0
 8008366:	f43f aebc 	beq.w	80080e2 <_dtoa_r+0x472>
 800836a:	e6f1      	b.n	8008150 <_dtoa_r+0x4e0>
 800836c:	0800bb48 	.word	0x0800bb48
 8008370:	3fe00000 	.word	0x3fe00000
 8008374:	3ff00000 	.word	0x3ff00000
 8008378:	40240000 	.word	0x40240000
 800837c:	40140000 	.word	0x40140000
 8008380:	9a0b      	ldr	r2, [sp, #44]	@ 0x2c
 8008382:	2a00      	cmp	r2, #0
 8008384:	f000 80db 	beq.w	800853e <_dtoa_r+0x8ce>
 8008388:	9a20      	ldr	r2, [sp, #128]	@ 0x80
 800838a:	2a01      	cmp	r2, #1
 800838c:	f300 80bf 	bgt.w	800850e <_dtoa_r+0x89e>
 8008390:	9a12      	ldr	r2, [sp, #72]	@ 0x48
 8008392:	2a00      	cmp	r2, #0
 8008394:	f000 80b7 	beq.w	8008506 <_dtoa_r+0x896>
 8008398:	f203 4333 	addw	r3, r3, #1075	@ 0x433
 800839c:	4646      	mov	r6, r8
 800839e:	9c0a      	ldr	r4, [sp, #40]	@ 0x28
 80083a0:	9a09      	ldr	r2, [sp, #36]	@ 0x24
 80083a2:	2101      	movs	r1, #1
 80083a4:	441a      	add	r2, r3
 80083a6:	4658      	mov	r0, fp
 80083a8:	4498      	add	r8, r3
 80083aa:	9209      	str	r2, [sp, #36]	@ 0x24
 80083ac:	f000 fc1a 	bl	8008be4 <__i2b>
 80083b0:	4605      	mov	r5, r0
 80083b2:	b15e      	cbz	r6, 80083cc <_dtoa_r+0x75c>
 80083b4:	9b09      	ldr	r3, [sp, #36]	@ 0x24
 80083b6:	2b00      	cmp	r3, #0
 80083b8:	dd08      	ble.n	80083cc <_dtoa_r+0x75c>
 80083ba:	42b3      	cmp	r3, r6
 80083bc:	bfa8      	it	ge
 80083be:	4633      	movge	r3, r6
 80083c0:	9a09      	ldr	r2, [sp, #36]	@ 0x24
 80083c2:	eba8 0803 	sub.w	r8, r8, r3
 80083c6:	1af6      	subs	r6, r6, r3
 80083c8:	1ad3      	subs	r3, r2, r3
 80083ca:	9309      	str	r3, [sp, #36]	@ 0x24
 80083cc:	9b0a      	ldr	r3, [sp, #40]	@ 0x28
 80083ce:	b1f3      	cbz	r3, 800840e <_dtoa_r+0x79e>
 80083d0:	9b0b      	ldr	r3, [sp, #44]	@ 0x2c
 80083d2:	2b00      	cmp	r3, #0
 80083d4:	f000 80b7 	beq.w	8008546 <_dtoa_r+0x8d6>
 80083d8:	b18c      	cbz	r4, 80083fe <_dtoa_r+0x78e>
 80083da:	4629      	mov	r1, r5
 80083dc:	4622      	mov	r2, r4
 80083de:	4658      	mov	r0, fp
 80083e0:	f000 fcbe 	bl	8008d60 <__pow5mult>
 80083e4:	464a      	mov	r2, r9
 80083e6:	4601      	mov	r1, r0
 80083e8:	4605      	mov	r5, r0
 80083ea:	4658      	mov	r0, fp
 80083ec:	f000 fc10 	bl	8008c10 <__multiply>
 80083f0:	4649      	mov	r1, r9
 80083f2:	9004      	str	r0, [sp, #16]
 80083f4:	4658      	mov	r0, fp
 80083f6:	f000 fb41 	bl	8008a7c <_Bfree>
 80083fa:	9b04      	ldr	r3, [sp, #16]
 80083fc:	4699      	mov	r9, r3
 80083fe:	9b0a      	ldr	r3, [sp, #40]	@ 0x28
 8008400:	1b1a      	subs	r2, r3, r4
 8008402:	d004      	beq.n	800840e <_dtoa_r+0x79e>
 8008404:	4649      	mov	r1, r9
 8008406:	4658      	mov	r0, fp
 8008408:	f000 fcaa 	bl	8008d60 <__pow5mult>
 800840c:	4681      	mov	r9, r0
 800840e:	2101      	movs	r1, #1
 8008410:	4658      	mov	r0, fp
 8008412:	f000 fbe7 	bl	8008be4 <__i2b>
 8008416:	9b0e      	ldr	r3, [sp, #56]	@ 0x38
 8008418:	4604      	mov	r4, r0
 800841a:	2b00      	cmp	r3, #0
 800841c:	f000 81c9 	beq.w	80087b2 <_dtoa_r+0xb42>
 8008420:	461a      	mov	r2, r3
 8008422:	4601      	mov	r1, r0
 8008424:	4658      	mov	r0, fp
 8008426:	f000 fc9b 	bl	8008d60 <__pow5mult>
 800842a:	9b20      	ldr	r3, [sp, #128]	@ 0x80
 800842c:	4604      	mov	r4, r0
 800842e:	2b01      	cmp	r3, #1
 8008430:	f300 808f 	bgt.w	8008552 <_dtoa_r+0x8e2>
 8008434:	9b02      	ldr	r3, [sp, #8]
 8008436:	2b00      	cmp	r3, #0
 8008438:	f040 8087 	bne.w	800854a <_dtoa_r+0x8da>
 800843c:	9b03      	ldr	r3, [sp, #12]
 800843e:	f3c3 0313 	ubfx	r3, r3, #0, #20
 8008442:	2b00      	cmp	r3, #0
 8008444:	f040 8083 	bne.w	800854e <_dtoa_r+0x8de>
 8008448:	9b03      	ldr	r3, [sp, #12]
 800844a:	f023 4300 	bic.w	r3, r3, #2147483648	@ 0x80000000
 800844e:	0d1b      	lsrs	r3, r3, #20
 8008450:	051b      	lsls	r3, r3, #20
 8008452:	b12b      	cbz	r3, 8008460 <_dtoa_r+0x7f0>
 8008454:	9b09      	ldr	r3, [sp, #36]	@ 0x24
 8008456:	f108 0801 	add.w	r8, r8, #1
 800845a:	3301      	adds	r3, #1
 800845c:	9309      	str	r3, [sp, #36]	@ 0x24
 800845e:	2301      	movs	r3, #1
 8008460:	930a      	str	r3, [sp, #40]	@ 0x28
 8008462:	9b0e      	ldr	r3, [sp, #56]	@ 0x38
 8008464:	2b00      	cmp	r3, #0
 8008466:	f000 81aa 	beq.w	80087be <_dtoa_r+0xb4e>
 800846a:	6923      	ldr	r3, [r4, #16]
 800846c:	eb04 0383 	add.w	r3, r4, r3, lsl #2
 8008470:	6918      	ldr	r0, [r3, #16]
 8008472:	f000 fb6b 	bl	8008b4c <__hi0bits>
 8008476:	f1c0 0020 	rsb	r0, r0, #32
 800847a:	9b09      	ldr	r3, [sp, #36]	@ 0x24
 800847c:	4418      	add	r0, r3
 800847e:	f010 001f 	ands.w	r0, r0, #31
 8008482:	d071      	beq.n	8008568 <_dtoa_r+0x8f8>
 8008484:	f1c0 0320 	rsb	r3, r0, #32
 8008488:	2b04      	cmp	r3, #4
 800848a:	dd65      	ble.n	8008558 <_dtoa_r+0x8e8>
 800848c:	9b09      	ldr	r3, [sp, #36]	@ 0x24
 800848e:	f1c0 001c 	rsb	r0, r0, #28
 8008492:	4403      	add	r3, r0
 8008494:	4480      	add	r8, r0
 8008496:	4406      	add	r6, r0
 8008498:	9309      	str	r3, [sp, #36]	@ 0x24
 800849a:	f1b8 0f00 	cmp.w	r8, #0
 800849e:	dd05      	ble.n	80084ac <_dtoa_r+0x83c>
 80084a0:	4649      	mov	r1, r9
 80084a2:	4642      	mov	r2, r8
 80084a4:	4658      	mov	r0, fp
 80084a6:	f000 fcb5 	bl	8008e14 <__lshift>
 80084aa:	4681      	mov	r9, r0
 80084ac:	9b09      	ldr	r3, [sp, #36]	@ 0x24
 80084ae:	2b00      	cmp	r3, #0
 80084b0:	dd05      	ble.n	80084be <_dtoa_r+0x84e>
 80084b2:	4621      	mov	r1, r4
 80084b4:	461a      	mov	r2, r3
 80084b6:	4658      	mov	r0, fp
 80084b8:	f000 fcac 	bl	8008e14 <__lshift>
 80084bc:	4604      	mov	r4, r0
 80084be:	9b0f      	ldr	r3, [sp, #60]	@ 0x3c
 80084c0:	2b00      	cmp	r3, #0
 80084c2:	d053      	beq.n	800856c <_dtoa_r+0x8fc>
 80084c4:	4621      	mov	r1, r4
 80084c6:	4648      	mov	r0, r9
 80084c8:	f000 fd10 	bl	8008eec <__mcmp>
 80084cc:	2800      	cmp	r0, #0
 80084ce:	da4d      	bge.n	800856c <_dtoa_r+0x8fc>
 80084d0:	1e7b      	subs	r3, r7, #1
 80084d2:	4649      	mov	r1, r9
 80084d4:	9304      	str	r3, [sp, #16]
 80084d6:	220a      	movs	r2, #10
 80084d8:	2300      	movs	r3, #0
 80084da:	4658      	mov	r0, fp
 80084dc:	f000 faf0 	bl	8008ac0 <__multadd>
 80084e0:	9b0b      	ldr	r3, [sp, #44]	@ 0x2c
 80084e2:	4681      	mov	r9, r0
 80084e4:	2b00      	cmp	r3, #0
 80084e6:	f000 816c 	beq.w	80087c2 <_dtoa_r+0xb52>
 80084ea:	2300      	movs	r3, #0
 80084ec:	4629      	mov	r1, r5
 80084ee:	220a      	movs	r2, #10
 80084f0:	4658      	mov	r0, fp
 80084f2:	f000 fae5 	bl	8008ac0 <__multadd>
 80084f6:	9b08      	ldr	r3, [sp, #32]
 80084f8:	4605      	mov	r5, r0
 80084fa:	2b00      	cmp	r3, #0
 80084fc:	dc61      	bgt.n	80085c2 <_dtoa_r+0x952>
 80084fe:	9b20      	ldr	r3, [sp, #128]	@ 0x80
 8008500:	2b02      	cmp	r3, #2
 8008502:	dc3b      	bgt.n	800857c <_dtoa_r+0x90c>
 8008504:	e05d      	b.n	80085c2 <_dtoa_r+0x952>
 8008506:	9b14      	ldr	r3, [sp, #80]	@ 0x50
 8008508:	f1c3 0336 	rsb	r3, r3, #54	@ 0x36
 800850c:	e746      	b.n	800839c <_dtoa_r+0x72c>
 800850e:	9b07      	ldr	r3, [sp, #28]
 8008510:	1e5c      	subs	r4, r3, #1
 8008512:	9b0a      	ldr	r3, [sp, #40]	@ 0x28
 8008514:	42a3      	cmp	r3, r4
 8008516:	bfbf      	itttt	lt
 8008518:	9b0a      	ldrlt	r3, [sp, #40]	@ 0x28
 800851a:	9a0e      	ldrlt	r2, [sp, #56]	@ 0x38
 800851c:	1ae3      	sublt	r3, r4, r3
 800851e:	18d2      	addlt	r2, r2, r3
 8008520:	bfa8      	it	ge
 8008522:	1b1c      	subge	r4, r3, r4
 8008524:	9b07      	ldr	r3, [sp, #28]
 8008526:	bfbe      	ittt	lt
 8008528:	940a      	strlt	r4, [sp, #40]	@ 0x28
 800852a:	920e      	strlt	r2, [sp, #56]	@ 0x38
 800852c:	2400      	movlt	r4, #0
 800852e:	2b00      	cmp	r3, #0
 8008530:	bfb5      	itete	lt
 8008532:	eba8 0603 	sublt.w	r6, r8, r3
 8008536:	4646      	movge	r6, r8
 8008538:	2300      	movlt	r3, #0
 800853a:	9b07      	ldrge	r3, [sp, #28]
 800853c:	e730      	b.n	80083a0 <_dtoa_r+0x730>
 800853e:	4646      	mov	r6, r8
 8008540:	9c0a      	ldr	r4, [sp, #40]	@ 0x28
 8008542:	9d0b      	ldr	r5, [sp, #44]	@ 0x2c
 8008544:	e735      	b.n	80083b2 <_dtoa_r+0x742>
 8008546:	9a0a      	ldr	r2, [sp, #40]	@ 0x28
 8008548:	e75c      	b.n	8008404 <_dtoa_r+0x794>
 800854a:	2300      	movs	r3, #0
 800854c:	e788      	b.n	8008460 <_dtoa_r+0x7f0>
 800854e:	9b02      	ldr	r3, [sp, #8]
 8008550:	e786      	b.n	8008460 <_dtoa_r+0x7f0>
 8008552:	2300      	movs	r3, #0
 8008554:	930a      	str	r3, [sp, #40]	@ 0x28
 8008556:	e788      	b.n	800846a <_dtoa_r+0x7fa>
 8008558:	d09f      	beq.n	800849a <_dtoa_r+0x82a>
 800855a:	9a09      	ldr	r2, [sp, #36]	@ 0x24
 800855c:	331c      	adds	r3, #28
 800855e:	441a      	add	r2, r3
 8008560:	4498      	add	r8, r3
 8008562:	441e      	add	r6, r3
 8008564:	9209      	str	r2, [sp, #36]	@ 0x24
 8008566:	e798      	b.n	800849a <_dtoa_r+0x82a>
 8008568:	4603      	mov	r3, r0
 800856a:	e7f6      	b.n	800855a <_dtoa_r+0x8ea>
 800856c:	9b07      	ldr	r3, [sp, #28]
 800856e:	9704      	str	r7, [sp, #16]
 8008570:	2b00      	cmp	r3, #0
 8008572:	dc20      	bgt.n	80085b6 <_dtoa_r+0x946>
 8008574:	9308      	str	r3, [sp, #32]
 8008576:	9b20      	ldr	r3, [sp, #128]	@ 0x80
 8008578:	2b02      	cmp	r3, #2
 800857a:	dd1e      	ble.n	80085ba <_dtoa_r+0x94a>
 800857c:	9b08      	ldr	r3, [sp, #32]
 800857e:	2b00      	cmp	r3, #0
 8008580:	f47f aebc 	bne.w	80082fc <_dtoa_r+0x68c>
 8008584:	4621      	mov	r1, r4
 8008586:	2205      	movs	r2, #5
 8008588:	4658      	mov	r0, fp
 800858a:	f000 fa99 	bl	8008ac0 <__multadd>
 800858e:	4601      	mov	r1, r0
 8008590:	4604      	mov	r4, r0
 8008592:	4648      	mov	r0, r9
 8008594:	f000 fcaa 	bl	8008eec <__mcmp>
 8008598:	2800      	cmp	r0, #0
 800859a:	f77f aeaf 	ble.w	80082fc <_dtoa_r+0x68c>
 800859e:	2331      	movs	r3, #49	@ 0x31
 80085a0:	4656      	mov	r6, sl
 80085a2:	f806 3b01 	strb.w	r3, [r6], #1
 80085a6:	9b04      	ldr	r3, [sp, #16]
 80085a8:	3301      	adds	r3, #1
 80085aa:	9304      	str	r3, [sp, #16]
 80085ac:	e6aa      	b.n	8008304 <_dtoa_r+0x694>
 80085ae:	9c07      	ldr	r4, [sp, #28]
 80085b0:	9704      	str	r7, [sp, #16]
 80085b2:	4625      	mov	r5, r4
 80085b4:	e7f3      	b.n	800859e <_dtoa_r+0x92e>
 80085b6:	9b07      	ldr	r3, [sp, #28]
 80085b8:	9308      	str	r3, [sp, #32]
 80085ba:	9b0b      	ldr	r3, [sp, #44]	@ 0x2c
 80085bc:	2b00      	cmp	r3, #0
 80085be:	f000 8104 	beq.w	80087ca <_dtoa_r+0xb5a>
 80085c2:	2e00      	cmp	r6, #0
 80085c4:	dd05      	ble.n	80085d2 <_dtoa_r+0x962>
 80085c6:	4629      	mov	r1, r5
 80085c8:	4632      	mov	r2, r6
 80085ca:	4658      	mov	r0, fp
 80085cc:	f000 fc22 	bl	8008e14 <__lshift>
 80085d0:	4605      	mov	r5, r0
 80085d2:	9b0a      	ldr	r3, [sp, #40]	@ 0x28
 80085d4:	2b00      	cmp	r3, #0
 80085d6:	d05a      	beq.n	800868e <_dtoa_r+0xa1e>
 80085d8:	4658      	mov	r0, fp
 80085da:	6869      	ldr	r1, [r5, #4]
 80085dc:	f000 fa0e 	bl	80089fc <_Balloc>
 80085e0:	4606      	mov	r6, r0
 80085e2:	b928      	cbnz	r0, 80085f0 <_dtoa_r+0x980>
 80085e4:	4602      	mov	r2, r0
 80085e6:	f240 21ef 	movw	r1, #751	@ 0x2ef
 80085ea:	4b83      	ldr	r3, [pc, #524]	@ (80087f8 <_dtoa_r+0xb88>)
 80085ec:	f7ff bb54 	b.w	8007c98 <_dtoa_r+0x28>
 80085f0:	692a      	ldr	r2, [r5, #16]
 80085f2:	f105 010c 	add.w	r1, r5, #12
 80085f6:	3202      	adds	r2, #2
 80085f8:	0092      	lsls	r2, r2, #2
 80085fa:	300c      	adds	r0, #12
 80085fc:	f000 ffba 	bl	8009574 <memcpy>
 8008600:	2201      	movs	r2, #1
 8008602:	4631      	mov	r1, r6
 8008604:	4658      	mov	r0, fp
 8008606:	f000 fc05 	bl	8008e14 <__lshift>
 800860a:	462f      	mov	r7, r5
 800860c:	4605      	mov	r5, r0
 800860e:	f10a 0301 	add.w	r3, sl, #1
 8008612:	9307      	str	r3, [sp, #28]
 8008614:	9b08      	ldr	r3, [sp, #32]
 8008616:	4453      	add	r3, sl
 8008618:	930b      	str	r3, [sp, #44]	@ 0x2c
 800861a:	9b02      	ldr	r3, [sp, #8]
 800861c:	f003 0301 	and.w	r3, r3, #1
 8008620:	930a      	str	r3, [sp, #40]	@ 0x28
 8008622:	9b07      	ldr	r3, [sp, #28]
 8008624:	4621      	mov	r1, r4
 8008626:	3b01      	subs	r3, #1
 8008628:	4648      	mov	r0, r9
 800862a:	9302      	str	r3, [sp, #8]
 800862c:	f7ff fa96 	bl	8007b5c <quorem>
 8008630:	4639      	mov	r1, r7
 8008632:	9008      	str	r0, [sp, #32]
 8008634:	f100 0830 	add.w	r8, r0, #48	@ 0x30
 8008638:	4648      	mov	r0, r9
 800863a:	f000 fc57 	bl	8008eec <__mcmp>
 800863e:	462a      	mov	r2, r5
 8008640:	9009      	str	r0, [sp, #36]	@ 0x24
 8008642:	4621      	mov	r1, r4
 8008644:	4658      	mov	r0, fp
 8008646:	f000 fc6d 	bl	8008f24 <__mdiff>
 800864a:	68c2      	ldr	r2, [r0, #12]
 800864c:	4606      	mov	r6, r0
 800864e:	bb02      	cbnz	r2, 8008692 <_dtoa_r+0xa22>
 8008650:	4601      	mov	r1, r0
 8008652:	4648      	mov	r0, r9
 8008654:	f000 fc4a 	bl	8008eec <__mcmp>
 8008658:	4602      	mov	r2, r0
 800865a:	4631      	mov	r1, r6
 800865c:	4658      	mov	r0, fp
 800865e:	920c      	str	r2, [sp, #48]	@ 0x30
 8008660:	f000 fa0c 	bl	8008a7c <_Bfree>
 8008664:	9b20      	ldr	r3, [sp, #128]	@ 0x80
 8008666:	9a0c      	ldr	r2, [sp, #48]	@ 0x30
 8008668:	9e07      	ldr	r6, [sp, #28]
 800866a:	ea43 0102 	orr.w	r1, r3, r2
 800866e:	9b0a      	ldr	r3, [sp, #40]	@ 0x28
 8008670:	4319      	orrs	r1, r3
 8008672:	d110      	bne.n	8008696 <_dtoa_r+0xa26>
 8008674:	f1b8 0f39 	cmp.w	r8, #57	@ 0x39
 8008678:	d029      	beq.n	80086ce <_dtoa_r+0xa5e>
 800867a:	9b09      	ldr	r3, [sp, #36]	@ 0x24
 800867c:	2b00      	cmp	r3, #0
 800867e:	dd02      	ble.n	8008686 <_dtoa_r+0xa16>
 8008680:	9b08      	ldr	r3, [sp, #32]
 8008682:	f103 0831 	add.w	r8, r3, #49	@ 0x31
 8008686:	9b02      	ldr	r3, [sp, #8]
 8008688:	f883 8000 	strb.w	r8, [r3]
 800868c:	e63b      	b.n	8008306 <_dtoa_r+0x696>
 800868e:	4628      	mov	r0, r5
 8008690:	e7bb      	b.n	800860a <_dtoa_r+0x99a>
 8008692:	2201      	movs	r2, #1
 8008694:	e7e1      	b.n	800865a <_dtoa_r+0x9ea>
 8008696:	9b09      	ldr	r3, [sp, #36]	@ 0x24
 8008698:	2b00      	cmp	r3, #0
 800869a:	db04      	blt.n	80086a6 <_dtoa_r+0xa36>
 800869c:	9920      	ldr	r1, [sp, #128]	@ 0x80
 800869e:	430b      	orrs	r3, r1
 80086a0:	990a      	ldr	r1, [sp, #40]	@ 0x28
 80086a2:	430b      	orrs	r3, r1
 80086a4:	d120      	bne.n	80086e8 <_dtoa_r+0xa78>
 80086a6:	2a00      	cmp	r2, #0
 80086a8:	dded      	ble.n	8008686 <_dtoa_r+0xa16>
 80086aa:	4649      	mov	r1, r9
 80086ac:	2201      	movs	r2, #1
 80086ae:	4658      	mov	r0, fp
 80086b0:	f000 fbb0 	bl	8008e14 <__lshift>
 80086b4:	4621      	mov	r1, r4
 80086b6:	4681      	mov	r9, r0
 80086b8:	f000 fc18 	bl	8008eec <__mcmp>
 80086bc:	2800      	cmp	r0, #0
 80086be:	dc03      	bgt.n	80086c8 <_dtoa_r+0xa58>
 80086c0:	d1e1      	bne.n	8008686 <_dtoa_r+0xa16>
 80086c2:	f018 0f01 	tst.w	r8, #1
 80086c6:	d0de      	beq.n	8008686 <_dtoa_r+0xa16>
 80086c8:	f1b8 0f39 	cmp.w	r8, #57	@ 0x39
 80086cc:	d1d8      	bne.n	8008680 <_dtoa_r+0xa10>
 80086ce:	2339      	movs	r3, #57	@ 0x39
 80086d0:	9a02      	ldr	r2, [sp, #8]
 80086d2:	7013      	strb	r3, [r2, #0]
 80086d4:	4633      	mov	r3, r6
 80086d6:	461e      	mov	r6, r3
 80086d8:	f816 2c01 	ldrb.w	r2, [r6, #-1]
 80086dc:	3b01      	subs	r3, #1
 80086de:	2a39      	cmp	r2, #57	@ 0x39
 80086e0:	d052      	beq.n	8008788 <_dtoa_r+0xb18>
 80086e2:	3201      	adds	r2, #1
 80086e4:	701a      	strb	r2, [r3, #0]
 80086e6:	e60e      	b.n	8008306 <_dtoa_r+0x696>
 80086e8:	2a00      	cmp	r2, #0
 80086ea:	dd07      	ble.n	80086fc <_dtoa_r+0xa8c>
 80086ec:	f1b8 0f39 	cmp.w	r8, #57	@ 0x39
 80086f0:	d0ed      	beq.n	80086ce <_dtoa_r+0xa5e>
 80086f2:	9a02      	ldr	r2, [sp, #8]
 80086f4:	f108 0301 	add.w	r3, r8, #1
 80086f8:	7013      	strb	r3, [r2, #0]
 80086fa:	e604      	b.n	8008306 <_dtoa_r+0x696>
 80086fc:	9b07      	ldr	r3, [sp, #28]
 80086fe:	9a07      	ldr	r2, [sp, #28]
 8008700:	f803 8c01 	strb.w	r8, [r3, #-1]
 8008704:	9b0b      	ldr	r3, [sp, #44]	@ 0x2c
 8008706:	4293      	cmp	r3, r2
 8008708:	d028      	beq.n	800875c <_dtoa_r+0xaec>
 800870a:	4649      	mov	r1, r9
 800870c:	2300      	movs	r3, #0
 800870e:	220a      	movs	r2, #10
 8008710:	4658      	mov	r0, fp
 8008712:	f000 f9d5 	bl	8008ac0 <__multadd>
 8008716:	42af      	cmp	r7, r5
 8008718:	4681      	mov	r9, r0
 800871a:	f04f 0300 	mov.w	r3, #0
 800871e:	f04f 020a 	mov.w	r2, #10
 8008722:	4639      	mov	r1, r7
 8008724:	4658      	mov	r0, fp
 8008726:	d107      	bne.n	8008738 <_dtoa_r+0xac8>
 8008728:	f000 f9ca 	bl	8008ac0 <__multadd>
 800872c:	4607      	mov	r7, r0
 800872e:	4605      	mov	r5, r0
 8008730:	9b07      	ldr	r3, [sp, #28]
 8008732:	3301      	adds	r3, #1
 8008734:	9307      	str	r3, [sp, #28]
 8008736:	e774      	b.n	8008622 <_dtoa_r+0x9b2>
 8008738:	f000 f9c2 	bl	8008ac0 <__multadd>
 800873c:	4629      	mov	r1, r5
 800873e:	4607      	mov	r7, r0
 8008740:	2300      	movs	r3, #0
 8008742:	220a      	movs	r2, #10
 8008744:	4658      	mov	r0, fp
 8008746:	f000 f9bb 	bl	8008ac0 <__multadd>
 800874a:	4605      	mov	r5, r0
 800874c:	e7f0      	b.n	8008730 <_dtoa_r+0xac0>
 800874e:	9b08      	ldr	r3, [sp, #32]
 8008750:	2700      	movs	r7, #0
 8008752:	2b00      	cmp	r3, #0
 8008754:	bfcc      	ite	gt
 8008756:	461e      	movgt	r6, r3
 8008758:	2601      	movle	r6, #1
 800875a:	4456      	add	r6, sl
 800875c:	4649      	mov	r1, r9
 800875e:	2201      	movs	r2, #1
 8008760:	4658      	mov	r0, fp
 8008762:	f000 fb57 	bl	8008e14 <__lshift>
 8008766:	4621      	mov	r1, r4
 8008768:	4681      	mov	r9, r0
 800876a:	f000 fbbf 	bl	8008eec <__mcmp>
 800876e:	2800      	cmp	r0, #0
 8008770:	dcb0      	bgt.n	80086d4 <_dtoa_r+0xa64>
 8008772:	d102      	bne.n	800877a <_dtoa_r+0xb0a>
 8008774:	f018 0f01 	tst.w	r8, #1
 8008778:	d1ac      	bne.n	80086d4 <_dtoa_r+0xa64>
 800877a:	4633      	mov	r3, r6
 800877c:	461e      	mov	r6, r3
 800877e:	f813 2d01 	ldrb.w	r2, [r3, #-1]!
 8008782:	2a30      	cmp	r2, #48	@ 0x30
 8008784:	d0fa      	beq.n	800877c <_dtoa_r+0xb0c>
 8008786:	e5be      	b.n	8008306 <_dtoa_r+0x696>
 8008788:	459a      	cmp	sl, r3
 800878a:	d1a4      	bne.n	80086d6 <_dtoa_r+0xa66>
 800878c:	9b04      	ldr	r3, [sp, #16]
 800878e:	3301      	adds	r3, #1
 8008790:	9304      	str	r3, [sp, #16]
 8008792:	2331      	movs	r3, #49	@ 0x31
 8008794:	f88a 3000 	strb.w	r3, [sl]
 8008798:	e5b5      	b.n	8008306 <_dtoa_r+0x696>
 800879a:	9b24      	ldr	r3, [sp, #144]	@ 0x90
 800879c:	f8df a05c 	ldr.w	sl, [pc, #92]	@ 80087fc <_dtoa_r+0xb8c>
 80087a0:	b11b      	cbz	r3, 80087aa <_dtoa_r+0xb3a>
 80087a2:	f10a 0308 	add.w	r3, sl, #8
 80087a6:	9a24      	ldr	r2, [sp, #144]	@ 0x90
 80087a8:	6013      	str	r3, [r2, #0]
 80087aa:	4650      	mov	r0, sl
 80087ac:	b017      	add	sp, #92	@ 0x5c
 80087ae:	e8bd 8ff0 	ldmia.w	sp!, {r4, r5, r6, r7, r8, r9, sl, fp, pc}
 80087b2:	9b20      	ldr	r3, [sp, #128]	@ 0x80
 80087b4:	2b01      	cmp	r3, #1
 80087b6:	f77f ae3d 	ble.w	8008434 <_dtoa_r+0x7c4>
 80087ba:	9b0e      	ldr	r3, [sp, #56]	@ 0x38
 80087bc:	930a      	str	r3, [sp, #40]	@ 0x28
 80087be:	2001      	movs	r0, #1
 80087c0:	e65b      	b.n	800847a <_dtoa_r+0x80a>
 80087c2:	9b08      	ldr	r3, [sp, #32]
 80087c4:	2b00      	cmp	r3, #0
 80087c6:	f77f aed6 	ble.w	8008576 <_dtoa_r+0x906>
 80087ca:	4656      	mov	r6, sl
 80087cc:	4621      	mov	r1, r4
 80087ce:	4648      	mov	r0, r9
 80087d0:	f7ff f9c4 	bl	8007b5c <quorem>
 80087d4:	f100 0830 	add.w	r8, r0, #48	@ 0x30
 80087d8:	9b08      	ldr	r3, [sp, #32]
 80087da:	f806 8b01 	strb.w	r8, [r6], #1
 80087de:	eba6 020a 	sub.w	r2, r6, sl
 80087e2:	4293      	cmp	r3, r2
 80087e4:	ddb3      	ble.n	800874e <_dtoa_r+0xade>
 80087e6:	4649      	mov	r1, r9
 80087e8:	2300      	movs	r3, #0
 80087ea:	220a      	movs	r2, #10
 80087ec:	4658      	mov	r0, fp
 80087ee:	f000 f967 	bl	8008ac0 <__multadd>
 80087f2:	4681      	mov	r9, r0
 80087f4:	e7ea      	b.n	80087cc <_dtoa_r+0xb5c>
 80087f6:	bf00      	nop
 80087f8:	0800baa8 	.word	0x0800baa8
 80087fc:	0800ba43 	.word	0x0800ba43

08008800 <_free_r>:
 8008800:	b538      	push	{r3, r4, r5, lr}
 8008802:	4605      	mov	r5, r0
 8008804:	2900      	cmp	r1, #0
 8008806:	d040      	beq.n	800888a <_free_r+0x8a>
 8008808:	f851 3c04 	ldr.w	r3, [r1, #-4]
 800880c:	1f0c      	subs	r4, r1, #4
 800880e:	2b00      	cmp	r3, #0
 8008810:	bfb8      	it	lt
 8008812:	18e4      	addlt	r4, r4, r3
 8008814:	f000 f8e6 	bl	80089e4 <__malloc_lock>
 8008818:	4a1c      	ldr	r2, [pc, #112]	@ (800888c <_free_r+0x8c>)
 800881a:	6813      	ldr	r3, [r2, #0]
 800881c:	b933      	cbnz	r3, 800882c <_free_r+0x2c>
 800881e:	6063      	str	r3, [r4, #4]
 8008820:	6014      	str	r4, [r2, #0]
 8008822:	4628      	mov	r0, r5
 8008824:	e8bd 4038 	ldmia.w	sp!, {r3, r4, r5, lr}
 8008828:	f000 b8e2 	b.w	80089f0 <__malloc_unlock>
 800882c:	42a3      	cmp	r3, r4
 800882e:	d908      	bls.n	8008842 <_free_r+0x42>
 8008830:	6820      	ldr	r0, [r4, #0]
 8008832:	1821      	adds	r1, r4, r0
 8008834:	428b      	cmp	r3, r1
 8008836:	bf01      	itttt	eq
 8008838:	6819      	ldreq	r1, [r3, #0]
 800883a:	685b      	ldreq	r3, [r3, #4]
 800883c:	1809      	addeq	r1, r1, r0
 800883e:	6021      	streq	r1, [r4, #0]
 8008840:	e7ed      	b.n	800881e <_free_r+0x1e>
 8008842:	461a      	mov	r2, r3
 8008844:	685b      	ldr	r3, [r3, #4]
 8008846:	b10b      	cbz	r3, 800884c <_free_r+0x4c>
 8008848:	42a3      	cmp	r3, r4
 800884a:	d9fa      	bls.n	8008842 <_free_r+0x42>
 800884c:	6811      	ldr	r1, [r2, #0]
 800884e:	1850      	adds	r0, r2, r1
 8008850:	42a0      	cmp	r0, r4
 8008852:	d10b      	bne.n	800886c <_free_r+0x6c>
 8008854:	6820      	ldr	r0, [r4, #0]
 8008856:	4401      	add	r1, r0
 8008858:	1850      	adds	r0, r2, r1
 800885a:	4283      	cmp	r3, r0
 800885c:	6011      	str	r1, [r2, #0]
 800885e:	d1e0      	bne.n	8008822 <_free_r+0x22>
 8008860:	6818      	ldr	r0, [r3, #0]
 8008862:	685b      	ldr	r3, [r3, #4]
 8008864:	4408      	add	r0, r1
 8008866:	6010      	str	r0, [r2, #0]
 8008868:	6053      	str	r3, [r2, #4]
 800886a:	e7da      	b.n	8008822 <_free_r+0x22>
 800886c:	d902      	bls.n	8008874 <_free_r+0x74>
 800886e:	230c      	movs	r3, #12
 8008870:	602b      	str	r3, [r5, #0]
 8008872:	e7d6      	b.n	8008822 <_free_r+0x22>
 8008874:	6820      	ldr	r0, [r4, #0]
 8008876:	1821      	adds	r1, r4, r0
 8008878:	428b      	cmp	r3, r1
 800887a:	bf01      	itttt	eq
 800887c:	6819      	ldreq	r1, [r3, #0]
 800887e:	685b      	ldreq	r3, [r3, #4]
 8008880:	1809      	addeq	r1, r1, r0
 8008882:	6021      	streq	r1, [r4, #0]
 8008884:	6063      	str	r3, [r4, #4]
 8008886:	6054      	str	r4, [r2, #4]
 8008888:	e7cb      	b.n	8008822 <_free_r+0x22>
 800888a:	bd38      	pop	{r3, r4, r5, pc}
 800888c:	20000d14 	.word	0x20000d14

08008890 <malloc>:
 8008890:	4b02      	ldr	r3, [pc, #8]	@ (800889c <malloc+0xc>)
 8008892:	4601      	mov	r1, r0
 8008894:	6818      	ldr	r0, [r3, #0]
 8008896:	f000 b825 	b.w	80088e4 <_malloc_r>
 800889a:	bf00      	nop
 800889c:	20000074 	.word	0x20000074

080088a0 <sbrk_aligned>:
 80088a0:	b570      	push	{r4, r5, r6, lr}
 80088a2:	4e0f      	ldr	r6, [pc, #60]	@ (80088e0 <sbrk_aligned+0x40>)
 80088a4:	460c      	mov	r4, r1
 80088a6:	6831      	ldr	r1, [r6, #0]
 80088a8:	4605      	mov	r5, r0
 80088aa:	b911      	cbnz	r1, 80088b2 <sbrk_aligned+0x12>
 80088ac:	f000 fe52 	bl	8009554 <_sbrk_r>
 80088b0:	6030      	str	r0, [r6, #0]
 80088b2:	4621      	mov	r1, r4
 80088b4:	4628      	mov	r0, r5
 80088b6:	f000 fe4d 	bl	8009554 <_sbrk_r>
 80088ba:	1c43      	adds	r3, r0, #1
 80088bc:	d103      	bne.n	80088c6 <sbrk_aligned+0x26>
 80088be:	f04f 34ff 	mov.w	r4, #4294967295
 80088c2:	4620      	mov	r0, r4
 80088c4:	bd70      	pop	{r4, r5, r6, pc}
 80088c6:	1cc4      	adds	r4, r0, #3
 80088c8:	f024 0403 	bic.w	r4, r4, #3
 80088cc:	42a0      	cmp	r0, r4
 80088ce:	d0f8      	beq.n	80088c2 <sbrk_aligned+0x22>
 80088d0:	1a21      	subs	r1, r4, r0
 80088d2:	4628      	mov	r0, r5
 80088d4:	f000 fe3e 	bl	8009554 <_sbrk_r>
 80088d8:	3001      	adds	r0, #1
 80088da:	d1f2      	bne.n	80088c2 <sbrk_aligned+0x22>
 80088dc:	e7ef      	b.n	80088be <sbrk_aligned+0x1e>
 80088de:	bf00      	nop
 80088e0:	20000d10 	.word	0x20000d10

080088e4 <_malloc_r>:
 80088e4:	e92d 43f8 	stmdb	sp!, {r3, r4, r5, r6, r7, r8, r9, lr}
 80088e8:	1ccd      	adds	r5, r1, #3
 80088ea:	f025 0503 	bic.w	r5, r5, #3
 80088ee:	3508      	adds	r5, #8
 80088f0:	2d0c      	cmp	r5, #12
 80088f2:	bf38      	it	cc
 80088f4:	250c      	movcc	r5, #12
 80088f6:	2d00      	cmp	r5, #0
 80088f8:	4606      	mov	r6, r0
 80088fa:	db01      	blt.n	8008900 <_malloc_r+0x1c>
 80088fc:	42a9      	cmp	r1, r5
 80088fe:	d904      	bls.n	800890a <_malloc_r+0x26>
 8008900:	230c      	movs	r3, #12
 8008902:	6033      	str	r3, [r6, #0]
 8008904:	2000      	movs	r0, #0
 8008906:	e8bd 83f8 	ldmia.w	sp!, {r3, r4, r5, r6, r7, r8, r9, pc}
 800890a:	f8df 80d4 	ldr.w	r8, [pc, #212]	@ 80089e0 <_malloc_r+0xfc>
 800890e:	f000 f869 	bl	80089e4 <__malloc_lock>
 8008912:	f8d8 3000 	ldr.w	r3, [r8]
 8008916:	461c      	mov	r4, r3
 8008918:	bb44      	cbnz	r4, 800896c <_malloc_r+0x88>
 800891a:	4629      	mov	r1, r5
 800891c:	4630      	mov	r0, r6
 800891e:	f7ff ffbf 	bl	80088a0 <sbrk_aligned>
 8008922:	1c43      	adds	r3, r0, #1
 8008924:	4604      	mov	r4, r0
 8008926:	d158      	bne.n	80089da <_malloc_r+0xf6>
 8008928:	f8d8 4000 	ldr.w	r4, [r8]
 800892c:	4627      	mov	r7, r4
 800892e:	2f00      	cmp	r7, #0
 8008930:	d143      	bne.n	80089ba <_malloc_r+0xd6>
 8008932:	2c00      	cmp	r4, #0
 8008934:	d04b      	beq.n	80089ce <_malloc_r+0xea>
 8008936:	6823      	ldr	r3, [r4, #0]
 8008938:	4639      	mov	r1, r7
 800893a:	4630      	mov	r0, r6
 800893c:	eb04 0903 	add.w	r9, r4, r3
 8008940:	f000 fe08 	bl	8009554 <_sbrk_r>
 8008944:	4581      	cmp	r9, r0
 8008946:	d142      	bne.n	80089ce <_malloc_r+0xea>
 8008948:	6821      	ldr	r1, [r4, #0]
 800894a:	4630      	mov	r0, r6
 800894c:	1a6d      	subs	r5, r5, r1
 800894e:	4629      	mov	r1, r5
 8008950:	f7ff ffa6 	bl	80088a0 <sbrk_aligned>
 8008954:	3001      	adds	r0, #1
 8008956:	d03a      	beq.n	80089ce <_malloc_r+0xea>
 8008958:	6823      	ldr	r3, [r4, #0]
 800895a:	442b      	add	r3, r5
 800895c:	6023      	str	r3, [r4, #0]
 800895e:	f8d8 3000 	ldr.w	r3, [r8]
 8008962:	685a      	ldr	r2, [r3, #4]
 8008964:	bb62      	cbnz	r2, 80089c0 <_malloc_r+0xdc>
 8008966:	f8c8 7000 	str.w	r7, [r8]
 800896a:	e00f      	b.n	800898c <_malloc_r+0xa8>
 800896c:	6822      	ldr	r2, [r4, #0]
 800896e:	1b52      	subs	r2, r2, r5
 8008970:	d420      	bmi.n	80089b4 <_malloc_r+0xd0>
 8008972:	2a0b      	cmp	r2, #11
 8008974:	d917      	bls.n	80089a6 <_malloc_r+0xc2>
 8008976:	1961      	adds	r1, r4, r5
 8008978:	42a3      	cmp	r3, r4
 800897a:	6025      	str	r5, [r4, #0]
 800897c:	bf18      	it	ne
 800897e:	6059      	strne	r1, [r3, #4]
 8008980:	6863      	ldr	r3, [r4, #4]
 8008982:	bf08      	it	eq
 8008984:	f8c8 1000 	streq.w	r1, [r8]
 8008988:	5162      	str	r2, [r4, r5]
 800898a:	604b      	str	r3, [r1, #4]
 800898c:	4630      	mov	r0, r6
 800898e:	f000 f82f 	bl	80089f0 <__malloc_unlock>
 8008992:	f104 000b 	add.w	r0, r4, #11
 8008996:	1d23      	adds	r3, r4, #4
 8008998:	f020 0007 	bic.w	r0, r0, #7
 800899c:	1ac2      	subs	r2, r0, r3
 800899e:	bf1c      	itt	ne
 80089a0:	1a1b      	subne	r3, r3, r0
 80089a2:	50a3      	strne	r3, [r4, r2]
 80089a4:	e7af      	b.n	8008906 <_malloc_r+0x22>
 80089a6:	6862      	ldr	r2, [r4, #4]
 80089a8:	42a3      	cmp	r3, r4
 80089aa:	bf0c      	ite	eq
 80089ac:	f8c8 2000 	streq.w	r2, [r8]
 80089b0:	605a      	strne	r2, [r3, #4]
 80089b2:	e7eb      	b.n	800898c <_malloc_r+0xa8>
 80089b4:	4623      	mov	r3, r4
 80089b6:	6864      	ldr	r4, [r4, #4]
 80089b8:	e7ae      	b.n	8008918 <_malloc_r+0x34>
 80089ba:	463c      	mov	r4, r7
 80089bc:	687f      	ldr	r7, [r7, #4]
 80089be:	e7b6      	b.n	800892e <_malloc_r+0x4a>
 80089c0:	461a      	mov	r2, r3
 80089c2:	685b      	ldr	r3, [r3, #4]
 80089c4:	42a3      	cmp	r3, r4
 80089c6:	d1fb      	bne.n	80089c0 <_malloc_r+0xdc>
 80089c8:	2300      	movs	r3, #0
 80089ca:	6053      	str	r3, [r2, #4]
 80089cc:	e7de      	b.n	800898c <_malloc_r+0xa8>
 80089ce:	230c      	movs	r3, #12
 80089d0:	4630      	mov	r0, r6
 80089d2:	6033      	str	r3, [r6, #0]
 80089d4:	f000 f80c 	bl	80089f0 <__malloc_unlock>
 80089d8:	e794      	b.n	8008904 <_malloc_r+0x20>
 80089da:	6005      	str	r5, [r0, #0]
 80089dc:	e7d6      	b.n	800898c <_malloc_r+0xa8>
 80089de:	bf00      	nop
 80089e0:	20000d14 	.word	0x20000d14

080089e4 <__malloc_lock>:
 80089e4:	4801      	ldr	r0, [pc, #4]	@ (80089ec <__malloc_lock+0x8>)
 80089e6:	f7ff b88a 	b.w	8007afe <__retarget_lock_acquire_recursive>
 80089ea:	bf00      	nop
 80089ec:	20000d0c 	.word	0x20000d0c

080089f0 <__malloc_unlock>:
 80089f0:	4801      	ldr	r0, [pc, #4]	@ (80089f8 <__malloc_unlock+0x8>)
 80089f2:	f7ff b885 	b.w	8007b00 <__retarget_lock_release_recursive>
 80089f6:	bf00      	nop
 80089f8:	20000d0c 	.word	0x20000d0c

080089fc <_Balloc>:
 80089fc:	b570      	push	{r4, r5, r6, lr}
 80089fe:	69c6      	ldr	r6, [r0, #28]
 8008a00:	4604      	mov	r4, r0
 8008a02:	460d      	mov	r5, r1
 8008a04:	b976      	cbnz	r6, 8008a24 <_Balloc+0x28>
 8008a06:	2010      	movs	r0, #16
 8008a08:	f7ff ff42 	bl	8008890 <malloc>
 8008a0c:	4602      	mov	r2, r0
 8008a0e:	61e0      	str	r0, [r4, #28]
 8008a10:	b920      	cbnz	r0, 8008a1c <_Balloc+0x20>
 8008a12:	216b      	movs	r1, #107	@ 0x6b
 8008a14:	4b17      	ldr	r3, [pc, #92]	@ (8008a74 <_Balloc+0x78>)
 8008a16:	4818      	ldr	r0, [pc, #96]	@ (8008a78 <_Balloc+0x7c>)
 8008a18:	f7ff f882 	bl	8007b20 <__assert_func>
 8008a1c:	e9c0 6601 	strd	r6, r6, [r0, #4]
 8008a20:	6006      	str	r6, [r0, #0]
 8008a22:	60c6      	str	r6, [r0, #12]
 8008a24:	69e6      	ldr	r6, [r4, #28]
 8008a26:	68f3      	ldr	r3, [r6, #12]
 8008a28:	b183      	cbz	r3, 8008a4c <_Balloc+0x50>
 8008a2a:	69e3      	ldr	r3, [r4, #28]
 8008a2c:	68db      	ldr	r3, [r3, #12]
 8008a2e:	f853 0025 	ldr.w	r0, [r3, r5, lsl #2]
 8008a32:	b9b8      	cbnz	r0, 8008a64 <_Balloc+0x68>
 8008a34:	2101      	movs	r1, #1
 8008a36:	fa01 f605 	lsl.w	r6, r1, r5
 8008a3a:	1d72      	adds	r2, r6, #5
 8008a3c:	4620      	mov	r0, r4
 8008a3e:	0092      	lsls	r2, r2, #2
 8008a40:	f000 fdad 	bl	800959e <_calloc_r>
 8008a44:	b160      	cbz	r0, 8008a60 <_Balloc+0x64>
 8008a46:	e9c0 5601 	strd	r5, r6, [r0, #4]
 8008a4a:	e00e      	b.n	8008a6a <_Balloc+0x6e>
 8008a4c:	2221      	movs	r2, #33	@ 0x21
 8008a4e:	2104      	movs	r1, #4
 8008a50:	4620      	mov	r0, r4
 8008a52:	f000 fda4 	bl	800959e <_calloc_r>
 8008a56:	69e3      	ldr	r3, [r4, #28]
 8008a58:	60f0      	str	r0, [r6, #12]
 8008a5a:	68db      	ldr	r3, [r3, #12]
 8008a5c:	2b00      	cmp	r3, #0
 8008a5e:	d1e4      	bne.n	8008a2a <_Balloc+0x2e>
 8008a60:	2000      	movs	r0, #0
 8008a62:	bd70      	pop	{r4, r5, r6, pc}
 8008a64:	6802      	ldr	r2, [r0, #0]
 8008a66:	f843 2025 	str.w	r2, [r3, r5, lsl #2]
 8008a6a:	2300      	movs	r3, #0
 8008a6c:	e9c0 3303 	strd	r3, r3, [r0, #12]
 8008a70:	e7f7      	b.n	8008a62 <_Balloc+0x66>
 8008a72:	bf00      	nop
 8008a74:	0800b964 	.word	0x0800b964
 8008a78:	0800bab9 	.word	0x0800bab9

08008a7c <_Bfree>:
 8008a7c:	b570      	push	{r4, r5, r6, lr}
 8008a7e:	69c6      	ldr	r6, [r0, #28]
 8008a80:	4605      	mov	r5, r0
 8008a82:	460c      	mov	r4, r1
 8008a84:	b976      	cbnz	r6, 8008aa4 <_Bfree+0x28>
 8008a86:	2010      	movs	r0, #16
 8008a88:	f7ff ff02 	bl	8008890 <malloc>
 8008a8c:	4602      	mov	r2, r0
 8008a8e:	61e8      	str	r0, [r5, #28]
 8008a90:	b920      	cbnz	r0, 8008a9c <_Bfree+0x20>
 8008a92:	218f      	movs	r1, #143	@ 0x8f
 8008a94:	4b08      	ldr	r3, [pc, #32]	@ (8008ab8 <_Bfree+0x3c>)
 8008a96:	4809      	ldr	r0, [pc, #36]	@ (8008abc <_Bfree+0x40>)
 8008a98:	f7ff f842 	bl	8007b20 <__assert_func>
 8008a9c:	e9c0 6601 	strd	r6, r6, [r0, #4]
 8008aa0:	6006      	str	r6, [r0, #0]
 8008aa2:	60c6      	str	r6, [r0, #12]
 8008aa4:	b13c      	cbz	r4, 8008ab6 <_Bfree+0x3a>
 8008aa6:	69eb      	ldr	r3, [r5, #28]
 8008aa8:	6862      	ldr	r2, [r4, #4]
 8008aaa:	68db      	ldr	r3, [r3, #12]
 8008aac:	f853 1022 	ldr.w	r1, [r3, r2, lsl #2]
 8008ab0:	6021      	str	r1, [r4, #0]
 8008ab2:	f843 4022 	str.w	r4, [r3, r2, lsl #2]
 8008ab6:	bd70      	pop	{r4, r5, r6, pc}
 8008ab8:	0800b964 	.word	0x0800b964
 8008abc:	0800bab9 	.word	0x0800bab9

08008ac0 <__multadd>:
 8008ac0:	e92d 41f0 	stmdb	sp!, {r4, r5, r6, r7, r8, lr}
 8008ac4:	4607      	mov	r7, r0
 8008ac6:	460c      	mov	r4, r1
 8008ac8:	461e      	mov	r6, r3
 8008aca:	2000      	movs	r0, #0
 8008acc:	690d      	ldr	r5, [r1, #16]
 8008ace:	f101 0c14 	add.w	ip, r1, #20
 8008ad2:	f8dc 3000 	ldr.w	r3, [ip]
 8008ad6:	3001      	adds	r0, #1
 8008ad8:	b299      	uxth	r1, r3
 8008ada:	fb02 6101 	mla	r1, r2, r1, r6
 8008ade:	0c1e      	lsrs	r6, r3, #16
 8008ae0:	0c0b      	lsrs	r3, r1, #16
 8008ae2:	fb02 3306 	mla	r3, r2, r6, r3
 8008ae6:	b289      	uxth	r1, r1
 8008ae8:	eb01 4103 	add.w	r1, r1, r3, lsl #16
 8008aec:	4285      	cmp	r5, r0
 8008aee:	ea4f 4613 	mov.w	r6, r3, lsr #16
 8008af2:	f84c 1b04 	str.w	r1, [ip], #4
 8008af6:	dcec      	bgt.n	8008ad2 <__multadd+0x12>
 8008af8:	b30e      	cbz	r6, 8008b3e <__multadd+0x7e>
 8008afa:	68a3      	ldr	r3, [r4, #8]
 8008afc:	42ab      	cmp	r3, r5
 8008afe:	dc19      	bgt.n	8008b34 <__multadd+0x74>
 8008b00:	6861      	ldr	r1, [r4, #4]
 8008b02:	4638      	mov	r0, r7
 8008b04:	3101      	adds	r1, #1
 8008b06:	f7ff ff79 	bl	80089fc <_Balloc>
 8008b0a:	4680      	mov	r8, r0
 8008b0c:	b928      	cbnz	r0, 8008b1a <__multadd+0x5a>
 8008b0e:	4602      	mov	r2, r0
 8008b10:	21ba      	movs	r1, #186	@ 0xba
 8008b12:	4b0c      	ldr	r3, [pc, #48]	@ (8008b44 <__multadd+0x84>)
 8008b14:	480c      	ldr	r0, [pc, #48]	@ (8008b48 <__multadd+0x88>)
 8008b16:	f7ff f803 	bl	8007b20 <__assert_func>
 8008b1a:	6922      	ldr	r2, [r4, #16]
 8008b1c:	f104 010c 	add.w	r1, r4, #12
 8008b20:	3202      	adds	r2, #2
 8008b22:	0092      	lsls	r2, r2, #2
 8008b24:	300c      	adds	r0, #12
 8008b26:	f000 fd25 	bl	8009574 <memcpy>
 8008b2a:	4621      	mov	r1, r4
 8008b2c:	4638      	mov	r0, r7
 8008b2e:	f7ff ffa5 	bl	8008a7c <_Bfree>
 8008b32:	4644      	mov	r4, r8
 8008b34:	eb04 0385 	add.w	r3, r4, r5, lsl #2
 8008b38:	3501      	adds	r5, #1
 8008b3a:	615e      	str	r6, [r3, #20]
 8008b3c:	6125      	str	r5, [r4, #16]
 8008b3e:	4620      	mov	r0, r4
 8008b40:	e8bd 81f0 	ldmia.w	sp!, {r4, r5, r6, r7, r8, pc}
 8008b44:	0800baa8 	.word	0x0800baa8
 8008b48:	0800bab9 	.word	0x0800bab9

08008b4c <__hi0bits>:
 8008b4c:	4603      	mov	r3, r0
 8008b4e:	f5b0 3f80 	cmp.w	r0, #65536	@ 0x10000
 8008b52:	bf3a      	itte	cc
 8008b54:	0403      	lslcc	r3, r0, #16
 8008b56:	2010      	movcc	r0, #16
 8008b58:	2000      	movcs	r0, #0
 8008b5a:	f1b3 7f80 	cmp.w	r3, #16777216	@ 0x1000000
 8008b5e:	bf3c      	itt	cc
 8008b60:	021b      	lslcc	r3, r3, #8
 8008b62:	3008      	addcc	r0, #8
 8008b64:	f1b3 5f80 	cmp.w	r3, #268435456	@ 0x10000000
 8008b68:	bf3c      	itt	cc
 8008b6a:	011b      	lslcc	r3, r3, #4
 8008b6c:	3004      	addcc	r0, #4
 8008b6e:	f1b3 4f80 	cmp.w	r3, #1073741824	@ 0x40000000
 8008b72:	bf3c      	itt	cc
 8008b74:	009b      	lslcc	r3, r3, #2
 8008b76:	3002      	addcc	r0, #2
 8008b78:	2b00      	cmp	r3, #0
 8008b7a:	db05      	blt.n	8008b88 <__hi0bits+0x3c>
 8008b7c:	f013 4f80 	tst.w	r3, #1073741824	@ 0x40000000
 8008b80:	f100 0001 	add.w	r0, r0, #1
 8008b84:	bf08      	it	eq
 8008b86:	2020      	moveq	r0, #32
 8008b88:	4770      	bx	lr

08008b8a <__lo0bits>:
 8008b8a:	6803      	ldr	r3, [r0, #0]
 8008b8c:	4602      	mov	r2, r0
 8008b8e:	f013 0007 	ands.w	r0, r3, #7
 8008b92:	d00b      	beq.n	8008bac <__lo0bits+0x22>
 8008b94:	07d9      	lsls	r1, r3, #31
 8008b96:	d421      	bmi.n	8008bdc <__lo0bits+0x52>
 8008b98:	0798      	lsls	r0, r3, #30
 8008b9a:	bf49      	itett	mi
 8008b9c:	085b      	lsrmi	r3, r3, #1
 8008b9e:	089b      	lsrpl	r3, r3, #2
 8008ba0:	2001      	movmi	r0, #1
 8008ba2:	6013      	strmi	r3, [r2, #0]
 8008ba4:	bf5c      	itt	pl
 8008ba6:	2002      	movpl	r0, #2
 8008ba8:	6013      	strpl	r3, [r2, #0]
 8008baa:	4770      	bx	lr
 8008bac:	b299      	uxth	r1, r3
 8008bae:	b909      	cbnz	r1, 8008bb4 <__lo0bits+0x2a>
 8008bb0:	2010      	movs	r0, #16
 8008bb2:	0c1b      	lsrs	r3, r3, #16
 8008bb4:	b2d9      	uxtb	r1, r3
 8008bb6:	b909      	cbnz	r1, 8008bbc <__lo0bits+0x32>
 8008bb8:	3008      	adds	r0, #8
 8008bba:	0a1b      	lsrs	r3, r3, #8
 8008bbc:	0719      	lsls	r1, r3, #28
 8008bbe:	bf04      	itt	eq
 8008bc0:	091b      	lsreq	r3, r3, #4
 8008bc2:	3004      	addeq	r0, #4
 8008bc4:	0799      	lsls	r1, r3, #30
 8008bc6:	bf04      	itt	eq
 8008bc8:	089b      	lsreq	r3, r3, #2
 8008bca:	3002      	addeq	r0, #2
 8008bcc:	07d9      	lsls	r1, r3, #31
 8008bce:	d403      	bmi.n	8008bd8 <__lo0bits+0x4e>
 8008bd0:	085b      	lsrs	r3, r3, #1
 8008bd2:	f100 0001 	add.w	r0, r0, #1
 8008bd6:	d003      	beq.n	8008be0 <__lo0bits+0x56>
 8008bd8:	6013      	str	r3, [r2, #0]
 8008bda:	4770      	bx	lr
 8008bdc:	2000      	movs	r0, #0
 8008bde:	4770      	bx	lr
 8008be0:	2020      	movs	r0, #32
 8008be2:	4770      	bx	lr

08008be4 <__i2b>:
 8008be4:	b510      	push	{r4, lr}
 8008be6:	460c      	mov	r4, r1
 8008be8:	2101      	movs	r1, #1
 8008bea:	f7ff ff07 	bl	80089fc <_Balloc>
 8008bee:	4602      	mov	r2, r0
 8008bf0:	b928      	cbnz	r0, 8008bfe <__i2b+0x1a>
 8008bf2:	f240 1145 	movw	r1, #325	@ 0x145
 8008bf6:	4b04      	ldr	r3, [pc, #16]	@ (8008c08 <__i2b+0x24>)
 8008bf8:	4804      	ldr	r0, [pc, #16]	@ (8008c0c <__i2b+0x28>)
 8008bfa:	f7fe ff91 	bl	8007b20 <__assert_func>
 8008bfe:	2301      	movs	r3, #1
 8008c00:	6144      	str	r4, [r0, #20]
 8008c02:	6103      	str	r3, [r0, #16]
 8008c04:	bd10      	pop	{r4, pc}
 8008c06:	bf00      	nop
 8008c08:	0800baa8 	.word	0x0800baa8
 8008c0c:	0800bab9 	.word	0x0800bab9

08008c10 <__multiply>:
 8008c10:	e92d 4ff0 	stmdb	sp!, {r4, r5, r6, r7, r8, r9, sl, fp, lr}
 8008c14:	4614      	mov	r4, r2
 8008c16:	690a      	ldr	r2, [r1, #16]
 8008c18:	6923      	ldr	r3, [r4, #16]
 8008c1a:	460f      	mov	r7, r1
 8008c1c:	429a      	cmp	r2, r3
 8008c1e:	bfa2      	ittt	ge
 8008c20:	4623      	movge	r3, r4
 8008c22:	460c      	movge	r4, r1
 8008c24:	461f      	movge	r7, r3
 8008c26:	f8d4 a010 	ldr.w	sl, [r4, #16]
 8008c2a:	f8d7 9010 	ldr.w	r9, [r7, #16]
 8008c2e:	68a3      	ldr	r3, [r4, #8]
 8008c30:	6861      	ldr	r1, [r4, #4]
 8008c32:	eb0a 0609 	add.w	r6, sl, r9
 8008c36:	42b3      	cmp	r3, r6
 8008c38:	b085      	sub	sp, #20
 8008c3a:	bfb8      	it	lt
 8008c3c:	3101      	addlt	r1, #1
 8008c3e:	f7ff fedd 	bl	80089fc <_Balloc>
 8008c42:	b930      	cbnz	r0, 8008c52 <__multiply+0x42>
 8008c44:	4602      	mov	r2, r0
 8008c46:	f44f 71b1 	mov.w	r1, #354	@ 0x162
 8008c4a:	4b43      	ldr	r3, [pc, #268]	@ (8008d58 <__multiply+0x148>)
 8008c4c:	4843      	ldr	r0, [pc, #268]	@ (8008d5c <__multiply+0x14c>)
 8008c4e:	f7fe ff67 	bl	8007b20 <__assert_func>
 8008c52:	f100 0514 	add.w	r5, r0, #20
 8008c56:	462b      	mov	r3, r5
 8008c58:	2200      	movs	r2, #0
 8008c5a:	eb05 0886 	add.w	r8, r5, r6, lsl #2
 8008c5e:	4543      	cmp	r3, r8
 8008c60:	d321      	bcc.n	8008ca6 <__multiply+0x96>
 8008c62:	f107 0114 	add.w	r1, r7, #20
 8008c66:	f104 0214 	add.w	r2, r4, #20
 8008c6a:	eb02 028a 	add.w	r2, r2, sl, lsl #2
 8008c6e:	eb01 0389 	add.w	r3, r1, r9, lsl #2
 8008c72:	9302      	str	r3, [sp, #8]
 8008c74:	1b13      	subs	r3, r2, r4
 8008c76:	3b15      	subs	r3, #21
 8008c78:	f023 0303 	bic.w	r3, r3, #3
 8008c7c:	3304      	adds	r3, #4
 8008c7e:	f104 0715 	add.w	r7, r4, #21
 8008c82:	42ba      	cmp	r2, r7
 8008c84:	bf38      	it	cc
 8008c86:	2304      	movcc	r3, #4
 8008c88:	9301      	str	r3, [sp, #4]
 8008c8a:	9b02      	ldr	r3, [sp, #8]
 8008c8c:	9103      	str	r1, [sp, #12]
 8008c8e:	428b      	cmp	r3, r1
 8008c90:	d80c      	bhi.n	8008cac <__multiply+0x9c>
 8008c92:	2e00      	cmp	r6, #0
 8008c94:	dd03      	ble.n	8008c9e <__multiply+0x8e>
 8008c96:	f858 3d04 	ldr.w	r3, [r8, #-4]!
 8008c9a:	2b00      	cmp	r3, #0
 8008c9c:	d05a      	beq.n	8008d54 <__multiply+0x144>
 8008c9e:	6106      	str	r6, [r0, #16]
 8008ca0:	b005      	add	sp, #20
 8008ca2:	e8bd 8ff0 	ldmia.w	sp!, {r4, r5, r6, r7, r8, r9, sl, fp, pc}
 8008ca6:	f843 2b04 	str.w	r2, [r3], #4
 8008caa:	e7d8      	b.n	8008c5e <__multiply+0x4e>
 8008cac:	f8b1 a000 	ldrh.w	sl, [r1]
 8008cb0:	f1ba 0f00 	cmp.w	sl, #0
 8008cb4:	d023      	beq.n	8008cfe <__multiply+0xee>
 8008cb6:	46a9      	mov	r9, r5
 8008cb8:	f04f 0c00 	mov.w	ip, #0
 8008cbc:	f104 0e14 	add.w	lr, r4, #20
 8008cc0:	f85e 7b04 	ldr.w	r7, [lr], #4
 8008cc4:	f8d9 3000 	ldr.w	r3, [r9]
 8008cc8:	fa1f fb87 	uxth.w	fp, r7
 8008ccc:	b29b      	uxth	r3, r3
 8008cce:	fb0a 330b 	mla	r3, sl, fp, r3
 8008cd2:	4463      	add	r3, ip
 8008cd4:	f8d9 c000 	ldr.w	ip, [r9]
 8008cd8:	0c3f      	lsrs	r7, r7, #16
 8008cda:	ea4f 4c1c 	mov.w	ip, ip, lsr #16
 8008cde:	fb0a c707 	mla	r7, sl, r7, ip
 8008ce2:	eb07 4713 	add.w	r7, r7, r3, lsr #16
 8008ce6:	b29b      	uxth	r3, r3
 8008ce8:	ea43 4307 	orr.w	r3, r3, r7, lsl #16
 8008cec:	4572      	cmp	r2, lr
 8008cee:	ea4f 4c17 	mov.w	ip, r7, lsr #16
 8008cf2:	f849 3b04 	str.w	r3, [r9], #4
 8008cf6:	d8e3      	bhi.n	8008cc0 <__multiply+0xb0>
 8008cf8:	9b01      	ldr	r3, [sp, #4]
 8008cfa:	f845 c003 	str.w	ip, [r5, r3]
 8008cfe:	9b03      	ldr	r3, [sp, #12]
 8008d00:	3104      	adds	r1, #4
 8008d02:	f8b3 9002 	ldrh.w	r9, [r3, #2]
 8008d06:	f1b9 0f00 	cmp.w	r9, #0
 8008d0a:	d021      	beq.n	8008d50 <__multiply+0x140>
 8008d0c:	46ae      	mov	lr, r5
 8008d0e:	f04f 0a00 	mov.w	sl, #0
 8008d12:	682b      	ldr	r3, [r5, #0]
 8008d14:	f104 0c14 	add.w	ip, r4, #20
 8008d18:	f8bc b000 	ldrh.w	fp, [ip]
 8008d1c:	f8be 7002 	ldrh.w	r7, [lr, #2]
 8008d20:	b29b      	uxth	r3, r3
 8008d22:	fb09 770b 	mla	r7, r9, fp, r7
 8008d26:	4457      	add	r7, sl
 8008d28:	ea43 4307 	orr.w	r3, r3, r7, lsl #16
 8008d2c:	f84e 3b04 	str.w	r3, [lr], #4
 8008d30:	f85c 3b04 	ldr.w	r3, [ip], #4
 8008d34:	ea4f 4a13 	mov.w	sl, r3, lsr #16
 8008d38:	f8be 3000 	ldrh.w	r3, [lr]
 8008d3c:	4562      	cmp	r2, ip
 8008d3e:	fb09 330a 	mla	r3, r9, sl, r3
 8008d42:	eb03 4317 	add.w	r3, r3, r7, lsr #16
 8008d46:	ea4f 4a13 	mov.w	sl, r3, lsr #16
 8008d4a:	d8e5      	bhi.n	8008d18 <__multiply+0x108>
 8008d4c:	9f01      	ldr	r7, [sp, #4]
 8008d4e:	51eb      	str	r3, [r5, r7]
 8008d50:	3504      	adds	r5, #4
 8008d52:	e79a      	b.n	8008c8a <__multiply+0x7a>
 8008d54:	3e01      	subs	r6, #1
 8008d56:	e79c      	b.n	8008c92 <__multiply+0x82>
 8008d58:	0800baa8 	.word	0x0800baa8
 8008d5c:	0800bab9 	.word	0x0800bab9

08008d60 <__pow5mult>:
 8008d60:	e92d 43f8 	stmdb	sp!, {r3, r4, r5, r6, r7, r8, r9, lr}
 8008d64:	4615      	mov	r5, r2
 8008d66:	f012 0203 	ands.w	r2, r2, #3
 8008d6a:	4607      	mov	r7, r0
 8008d6c:	460e      	mov	r6, r1
 8008d6e:	d007      	beq.n	8008d80 <__pow5mult+0x20>
 8008d70:	4c25      	ldr	r4, [pc, #148]	@ (8008e08 <__pow5mult+0xa8>)
 8008d72:	3a01      	subs	r2, #1
 8008d74:	2300      	movs	r3, #0
 8008d76:	f854 2022 	ldr.w	r2, [r4, r2, lsl #2]
 8008d7a:	f7ff fea1 	bl	8008ac0 <__multadd>
 8008d7e:	4606      	mov	r6, r0
 8008d80:	10ad      	asrs	r5, r5, #2
 8008d82:	d03d      	beq.n	8008e00 <__pow5mult+0xa0>
 8008d84:	69fc      	ldr	r4, [r7, #28]
 8008d86:	b97c      	cbnz	r4, 8008da8 <__pow5mult+0x48>
 8008d88:	2010      	movs	r0, #16
 8008d8a:	f7ff fd81 	bl	8008890 <malloc>
 8008d8e:	4602      	mov	r2, r0
 8008d90:	61f8      	str	r0, [r7, #28]
 8008d92:	b928      	cbnz	r0, 8008da0 <__pow5mult+0x40>
 8008d94:	f240 11b3 	movw	r1, #435	@ 0x1b3
 8008d98:	4b1c      	ldr	r3, [pc, #112]	@ (8008e0c <__pow5mult+0xac>)
 8008d9a:	481d      	ldr	r0, [pc, #116]	@ (8008e10 <__pow5mult+0xb0>)
 8008d9c:	f7fe fec0 	bl	8007b20 <__assert_func>
 8008da0:	e9c0 4401 	strd	r4, r4, [r0, #4]
 8008da4:	6004      	str	r4, [r0, #0]
 8008da6:	60c4      	str	r4, [r0, #12]
 8008da8:	f8d7 801c 	ldr.w	r8, [r7, #28]
 8008dac:	f8d8 4008 	ldr.w	r4, [r8, #8]
 8008db0:	b94c      	cbnz	r4, 8008dc6 <__pow5mult+0x66>
 8008db2:	f240 2171 	movw	r1, #625	@ 0x271
 8008db6:	4638      	mov	r0, r7
 8008db8:	f7ff ff14 	bl	8008be4 <__i2b>
 8008dbc:	2300      	movs	r3, #0
 8008dbe:	4604      	mov	r4, r0
 8008dc0:	f8c8 0008 	str.w	r0, [r8, #8]
 8008dc4:	6003      	str	r3, [r0, #0]
 8008dc6:	f04f 0900 	mov.w	r9, #0
 8008dca:	07eb      	lsls	r3, r5, #31
 8008dcc:	d50a      	bpl.n	8008de4 <__pow5mult+0x84>
 8008dce:	4631      	mov	r1, r6
 8008dd0:	4622      	mov	r2, r4
 8008dd2:	4638      	mov	r0, r7
 8008dd4:	f7ff ff1c 	bl	8008c10 <__multiply>
 8008dd8:	4680      	mov	r8, r0
 8008dda:	4631      	mov	r1, r6
 8008ddc:	4638      	mov	r0, r7
 8008dde:	f7ff fe4d 	bl	8008a7c <_Bfree>
 8008de2:	4646      	mov	r6, r8
 8008de4:	106d      	asrs	r5, r5, #1
 8008de6:	d00b      	beq.n	8008e00 <__pow5mult+0xa0>
 8008de8:	6820      	ldr	r0, [r4, #0]
 8008dea:	b938      	cbnz	r0, 8008dfc <__pow5mult+0x9c>
 8008dec:	4622      	mov	r2, r4
 8008dee:	4621      	mov	r1, r4
 8008df0:	4638      	mov	r0, r7
 8008df2:	f7ff ff0d 	bl	8008c10 <__multiply>
 8008df6:	6020      	str	r0, [r4, #0]
 8008df8:	f8c0 9000 	str.w	r9, [r0]
 8008dfc:	4604      	mov	r4, r0
 8008dfe:	e7e4      	b.n	8008dca <__pow5mult+0x6a>
 8008e00:	4630      	mov	r0, r6
 8008e02:	e8bd 83f8 	ldmia.w	sp!, {r3, r4, r5, r6, r7, r8, r9, pc}
 8008e06:	bf00      	nop
 8008e08:	0800bb14 	.word	0x0800bb14
 8008e0c:	0800b964 	.word	0x0800b964
 8008e10:	0800bab9 	.word	0x0800bab9

08008e14 <__lshift>:
 8008e14:	e92d 47f0 	stmdb	sp!, {r4, r5, r6, r7, r8, r9, sl, lr}
 8008e18:	460c      	mov	r4, r1
 8008e1a:	4607      	mov	r7, r0
 8008e1c:	4691      	mov	r9, r2
 8008e1e:	6923      	ldr	r3, [r4, #16]
 8008e20:	6849      	ldr	r1, [r1, #4]
 8008e22:	eb03 1862 	add.w	r8, r3, r2, asr #5
 8008e26:	68a3      	ldr	r3, [r4, #8]
 8008e28:	ea4f 1a62 	mov.w	sl, r2, asr #5
 8008e2c:	f108 0601 	add.w	r6, r8, #1
 8008e30:	42b3      	cmp	r3, r6
 8008e32:	db0b      	blt.n	8008e4c <__lshift+0x38>
 8008e34:	4638      	mov	r0, r7
 8008e36:	f7ff fde1 	bl	80089fc <_Balloc>
 8008e3a:	4605      	mov	r5, r0
 8008e3c:	b948      	cbnz	r0, 8008e52 <__lshift+0x3e>
 8008e3e:	4602      	mov	r2, r0
 8008e40:	f44f 71ef 	mov.w	r1, #478	@ 0x1de
 8008e44:	4b27      	ldr	r3, [pc, #156]	@ (8008ee4 <__lshift+0xd0>)
 8008e46:	4828      	ldr	r0, [pc, #160]	@ (8008ee8 <__lshift+0xd4>)
 8008e48:	f7fe fe6a 	bl	8007b20 <__assert_func>
 8008e4c:	3101      	adds	r1, #1
 8008e4e:	005b      	lsls	r3, r3, #1
 8008e50:	e7ee      	b.n	8008e30 <__lshift+0x1c>
 8008e52:	2300      	movs	r3, #0
 8008e54:	f100 0114 	add.w	r1, r0, #20
 8008e58:	f100 0210 	add.w	r2, r0, #16
 8008e5c:	4618      	mov	r0, r3
 8008e5e:	4553      	cmp	r3, sl
 8008e60:	db33      	blt.n	8008eca <__lshift+0xb6>
 8008e62:	6920      	ldr	r0, [r4, #16]
 8008e64:	ea2a 7aea 	bic.w	sl, sl, sl, asr #31
 8008e68:	f104 0314 	add.w	r3, r4, #20
 8008e6c:	f019 091f 	ands.w	r9, r9, #31
 8008e70:	eb01 018a 	add.w	r1, r1, sl, lsl #2
 8008e74:	eb03 0c80 	add.w	ip, r3, r0, lsl #2
 8008e78:	d02b      	beq.n	8008ed2 <__lshift+0xbe>
 8008e7a:	468a      	mov	sl, r1
 8008e7c:	2200      	movs	r2, #0
 8008e7e:	f1c9 0e20 	rsb	lr, r9, #32
 8008e82:	6818      	ldr	r0, [r3, #0]
 8008e84:	fa00 f009 	lsl.w	r0, r0, r9
 8008e88:	4310      	orrs	r0, r2
 8008e8a:	f84a 0b04 	str.w	r0, [sl], #4
 8008e8e:	f853 2b04 	ldr.w	r2, [r3], #4
 8008e92:	459c      	cmp	ip, r3
 8008e94:	fa22 f20e 	lsr.w	r2, r2, lr
 8008e98:	d8f3      	bhi.n	8008e82 <__lshift+0x6e>
 8008e9a:	ebac 0304 	sub.w	r3, ip, r4
 8008e9e:	3b15      	subs	r3, #21
 8008ea0:	f023 0303 	bic.w	r3, r3, #3
 8008ea4:	3304      	adds	r3, #4
 8008ea6:	f104 0015 	add.w	r0, r4, #21
 8008eaa:	4584      	cmp	ip, r0
 8008eac:	bf38      	it	cc
 8008eae:	2304      	movcc	r3, #4
 8008eb0:	50ca      	str	r2, [r1, r3]
 8008eb2:	b10a      	cbz	r2, 8008eb8 <__lshift+0xa4>
 8008eb4:	f108 0602 	add.w	r6, r8, #2
 8008eb8:	3e01      	subs	r6, #1
 8008eba:	4638      	mov	r0, r7
 8008ebc:	4621      	mov	r1, r4
 8008ebe:	612e      	str	r6, [r5, #16]
 8008ec0:	f7ff fddc 	bl	8008a7c <_Bfree>
 8008ec4:	4628      	mov	r0, r5
 8008ec6:	e8bd 87f0 	ldmia.w	sp!, {r4, r5, r6, r7, r8, r9, sl, pc}
 8008eca:	f842 0f04 	str.w	r0, [r2, #4]!
 8008ece:	3301      	adds	r3, #1
 8008ed0:	e7c5      	b.n	8008e5e <__lshift+0x4a>
 8008ed2:	3904      	subs	r1, #4
 8008ed4:	f853 2b04 	ldr.w	r2, [r3], #4
 8008ed8:	459c      	cmp	ip, r3
 8008eda:	f841 2f04 	str.w	r2, [r1, #4]!
 8008ede:	d8f9      	bhi.n	8008ed4 <__lshift+0xc0>
 8008ee0:	e7ea      	b.n	8008eb8 <__lshift+0xa4>
 8008ee2:	bf00      	nop
 8008ee4:	0800baa8 	.word	0x0800baa8
 8008ee8:	0800bab9 	.word	0x0800bab9

08008eec <__mcmp>:
 8008eec:	4603      	mov	r3, r0
 8008eee:	690a      	ldr	r2, [r1, #16]
 8008ef0:	6900      	ldr	r0, [r0, #16]
 8008ef2:	b530      	push	{r4, r5, lr}
 8008ef4:	1a80      	subs	r0, r0, r2
 8008ef6:	d10e      	bne.n	8008f16 <__mcmp+0x2a>
 8008ef8:	3314      	adds	r3, #20
 8008efa:	3114      	adds	r1, #20
 8008efc:	eb03 0482 	add.w	r4, r3, r2, lsl #2
 8008f00:	eb01 0182 	add.w	r1, r1, r2, lsl #2
 8008f04:	f854 5d04 	ldr.w	r5, [r4, #-4]!
 8008f08:	f851 2d04 	ldr.w	r2, [r1, #-4]!
 8008f0c:	4295      	cmp	r5, r2
 8008f0e:	d003      	beq.n	8008f18 <__mcmp+0x2c>
 8008f10:	d205      	bcs.n	8008f1e <__mcmp+0x32>
 8008f12:	f04f 30ff 	mov.w	r0, #4294967295
 8008f16:	bd30      	pop	{r4, r5, pc}
 8008f18:	42a3      	cmp	r3, r4
 8008f1a:	d3f3      	bcc.n	8008f04 <__mcmp+0x18>
 8008f1c:	e7fb      	b.n	8008f16 <__mcmp+0x2a>
 8008f1e:	2001      	movs	r0, #1
 8008f20:	e7f9      	b.n	8008f16 <__mcmp+0x2a>
	...

08008f24 <__mdiff>:
 8008f24:	e92d 4ff7 	stmdb	sp!, {r0, r1, r2, r4, r5, r6, r7, r8, r9, sl, fp, lr}
 8008f28:	4689      	mov	r9, r1
 8008f2a:	4606      	mov	r6, r0
 8008f2c:	4611      	mov	r1, r2
 8008f2e:	4648      	mov	r0, r9
 8008f30:	4614      	mov	r4, r2
 8008f32:	f7ff ffdb 	bl	8008eec <__mcmp>
 8008f36:	1e05      	subs	r5, r0, #0
 8008f38:	d112      	bne.n	8008f60 <__mdiff+0x3c>
 8008f3a:	4629      	mov	r1, r5
 8008f3c:	4630      	mov	r0, r6
 8008f3e:	f7ff fd5d 	bl	80089fc <_Balloc>
 8008f42:	4602      	mov	r2, r0
 8008f44:	b928      	cbnz	r0, 8008f52 <__mdiff+0x2e>
 8008f46:	f240 2137 	movw	r1, #567	@ 0x237
 8008f4a:	4b3e      	ldr	r3, [pc, #248]	@ (8009044 <__mdiff+0x120>)
 8008f4c:	483e      	ldr	r0, [pc, #248]	@ (8009048 <__mdiff+0x124>)
 8008f4e:	f7fe fde7 	bl	8007b20 <__assert_func>
 8008f52:	2301      	movs	r3, #1
 8008f54:	e9c0 3504 	strd	r3, r5, [r0, #16]
 8008f58:	4610      	mov	r0, r2
 8008f5a:	b003      	add	sp, #12
 8008f5c:	e8bd 8ff0 	ldmia.w	sp!, {r4, r5, r6, r7, r8, r9, sl, fp, pc}
 8008f60:	bfbc      	itt	lt
 8008f62:	464b      	movlt	r3, r9
 8008f64:	46a1      	movlt	r9, r4
 8008f66:	4630      	mov	r0, r6
 8008f68:	f8d9 1004 	ldr.w	r1, [r9, #4]
 8008f6c:	bfba      	itte	lt
 8008f6e:	461c      	movlt	r4, r3
 8008f70:	2501      	movlt	r5, #1
 8008f72:	2500      	movge	r5, #0
 8008f74:	f7ff fd42 	bl	80089fc <_Balloc>
 8008f78:	4602      	mov	r2, r0
 8008f7a:	b918      	cbnz	r0, 8008f84 <__mdiff+0x60>
 8008f7c:	f240 2145 	movw	r1, #581	@ 0x245
 8008f80:	4b30      	ldr	r3, [pc, #192]	@ (8009044 <__mdiff+0x120>)
 8008f82:	e7e3      	b.n	8008f4c <__mdiff+0x28>
 8008f84:	f100 0b14 	add.w	fp, r0, #20
 8008f88:	f8d9 7010 	ldr.w	r7, [r9, #16]
 8008f8c:	f109 0310 	add.w	r3, r9, #16
 8008f90:	60c5      	str	r5, [r0, #12]
 8008f92:	f04f 0c00 	mov.w	ip, #0
 8008f96:	f109 0514 	add.w	r5, r9, #20
 8008f9a:	46d9      	mov	r9, fp
 8008f9c:	6926      	ldr	r6, [r4, #16]
 8008f9e:	f104 0e14 	add.w	lr, r4, #20
 8008fa2:	eb05 0887 	add.w	r8, r5, r7, lsl #2
 8008fa6:	eb0e 0686 	add.w	r6, lr, r6, lsl #2
 8008faa:	9301      	str	r3, [sp, #4]
 8008fac:	9b01      	ldr	r3, [sp, #4]
 8008fae:	f85e 0b04 	ldr.w	r0, [lr], #4
 8008fb2:	f853 af04 	ldr.w	sl, [r3, #4]!
 8008fb6:	b281      	uxth	r1, r0
 8008fb8:	9301      	str	r3, [sp, #4]
 8008fba:	fa1f f38a 	uxth.w	r3, sl
 8008fbe:	1a5b      	subs	r3, r3, r1
 8008fc0:	0c00      	lsrs	r0, r0, #16
 8008fc2:	4463      	add	r3, ip
 8008fc4:	ebc0 401a 	rsb	r0, r0, sl, lsr #16
 8008fc8:	eb00 4023 	add.w	r0, r0, r3, asr #16
 8008fcc:	b29b      	uxth	r3, r3
 8008fce:	ea43 4300 	orr.w	r3, r3, r0, lsl #16
 8008fd2:	4576      	cmp	r6, lr
 8008fd4:	ea4f 4c20 	mov.w	ip, r0, asr #16
 8008fd8:	f849 3b04 	str.w	r3, [r9], #4
 8008fdc:	d8e6      	bhi.n	8008fac <__mdiff+0x88>
 8008fde:	1b33      	subs	r3, r6, r4
 8008fe0:	3b15      	subs	r3, #21
 8008fe2:	f023 0303 	bic.w	r3, r3, #3
 8008fe6:	3415      	adds	r4, #21
 8008fe8:	3304      	adds	r3, #4
 8008fea:	42a6      	cmp	r6, r4
 8008fec:	bf38      	it	cc
 8008fee:	2304      	movcc	r3, #4
 8008ff0:	441d      	add	r5, r3
 8008ff2:	445b      	add	r3, fp
 8008ff4:	461e      	mov	r6, r3
 8008ff6:	462c      	mov	r4, r5
 8008ff8:	4544      	cmp	r4, r8
 8008ffa:	d30e      	bcc.n	800901a <__mdiff+0xf6>
 8008ffc:	f108 0103 	add.w	r1, r8, #3
 8009000:	1b49      	subs	r1, r1, r5
 8009002:	f021 0103 	bic.w	r1, r1, #3
 8009006:	3d03      	subs	r5, #3
 8009008:	45a8      	cmp	r8, r5
 800900a:	bf38      	it	cc
 800900c:	2100      	movcc	r1, #0
 800900e:	440b      	add	r3, r1
 8009010:	f853 1d04 	ldr.w	r1, [r3, #-4]!
 8009014:	b199      	cbz	r1, 800903e <__mdiff+0x11a>
 8009016:	6117      	str	r7, [r2, #16]
 8009018:	e79e      	b.n	8008f58 <__mdiff+0x34>
 800901a:	46e6      	mov	lr, ip
 800901c:	f854 1b04 	ldr.w	r1, [r4], #4
 8009020:	fa1f fc81 	uxth.w	ip, r1
 8009024:	44f4      	add	ip, lr
 8009026:	0c08      	lsrs	r0, r1, #16
 8009028:	4471      	add	r1, lr
 800902a:	eb00 402c 	add.w	r0, r0, ip, asr #16
 800902e:	b289      	uxth	r1, r1
 8009030:	ea41 4100 	orr.w	r1, r1, r0, lsl #16
 8009034:	ea4f 4c20 	mov.w	ip, r0, asr #16
 8009038:	f846 1b04 	str.w	r1, [r6], #4
 800903c:	e7dc      	b.n	8008ff8 <__mdiff+0xd4>
 800903e:	3f01      	subs	r7, #1
 8009040:	e7e6      	b.n	8009010 <__mdiff+0xec>
 8009042:	bf00      	nop
 8009044:	0800baa8 	.word	0x0800baa8
 8009048:	0800bab9 	.word	0x0800bab9

0800904c <__d2b>:
 800904c:	e92d 4373 	stmdb	sp!, {r0, r1, r4, r5, r6, r8, r9, lr}
 8009050:	2101      	movs	r1, #1
 8009052:	4690      	mov	r8, r2
 8009054:	4699      	mov	r9, r3
 8009056:	9e08      	ldr	r6, [sp, #32]
 8009058:	f7ff fcd0 	bl	80089fc <_Balloc>
 800905c:	4604      	mov	r4, r0
 800905e:	b930      	cbnz	r0, 800906e <__d2b+0x22>
 8009060:	4602      	mov	r2, r0
 8009062:	f240 310f 	movw	r1, #783	@ 0x30f
 8009066:	4b23      	ldr	r3, [pc, #140]	@ (80090f4 <__d2b+0xa8>)
 8009068:	4823      	ldr	r0, [pc, #140]	@ (80090f8 <__d2b+0xac>)
 800906a:	f7fe fd59 	bl	8007b20 <__assert_func>
 800906e:	f3c9 550a 	ubfx	r5, r9, #20, #11
 8009072:	f3c9 0313 	ubfx	r3, r9, #0, #20
 8009076:	b10d      	cbz	r5, 800907c <__d2b+0x30>
 8009078:	f443 1380 	orr.w	r3, r3, #1048576	@ 0x100000
 800907c:	9301      	str	r3, [sp, #4]
 800907e:	f1b8 0300 	subs.w	r3, r8, #0
 8009082:	d024      	beq.n	80090ce <__d2b+0x82>
 8009084:	4668      	mov	r0, sp
 8009086:	9300      	str	r3, [sp, #0]
 8009088:	f7ff fd7f 	bl	8008b8a <__lo0bits>
 800908c:	e9dd 1200 	ldrd	r1, r2, [sp]
 8009090:	b1d8      	cbz	r0, 80090ca <__d2b+0x7e>
 8009092:	f1c0 0320 	rsb	r3, r0, #32
 8009096:	fa02 f303 	lsl.w	r3, r2, r3
 800909a:	430b      	orrs	r3, r1
 800909c:	40c2      	lsrs	r2, r0
 800909e:	6163      	str	r3, [r4, #20]
 80090a0:	9201      	str	r2, [sp, #4]
 80090a2:	9b01      	ldr	r3, [sp, #4]
 80090a4:	2b00      	cmp	r3, #0
 80090a6:	bf0c      	ite	eq
 80090a8:	2201      	moveq	r2, #1
 80090aa:	2202      	movne	r2, #2
 80090ac:	61a3      	str	r3, [r4, #24]
 80090ae:	6122      	str	r2, [r4, #16]
 80090b0:	b1ad      	cbz	r5, 80090de <__d2b+0x92>
 80090b2:	f2a5 4533 	subw	r5, r5, #1075	@ 0x433
 80090b6:	4405      	add	r5, r0
 80090b8:	6035      	str	r5, [r6, #0]
 80090ba:	f1c0 0035 	rsb	r0, r0, #53	@ 0x35
 80090be:	9b09      	ldr	r3, [sp, #36]	@ 0x24
 80090c0:	6018      	str	r0, [r3, #0]
 80090c2:	4620      	mov	r0, r4
 80090c4:	b002      	add	sp, #8
 80090c6:	e8bd 8370 	ldmia.w	sp!, {r4, r5, r6, r8, r9, pc}
 80090ca:	6161      	str	r1, [r4, #20]
 80090cc:	e7e9      	b.n	80090a2 <__d2b+0x56>
 80090ce:	a801      	add	r0, sp, #4
 80090d0:	f7ff fd5b 	bl	8008b8a <__lo0bits>
 80090d4:	9b01      	ldr	r3, [sp, #4]
 80090d6:	2201      	movs	r2, #1
 80090d8:	6163      	str	r3, [r4, #20]
 80090da:	3020      	adds	r0, #32
 80090dc:	e7e7      	b.n	80090ae <__d2b+0x62>
 80090de:	f2a0 4032 	subw	r0, r0, #1074	@ 0x432
 80090e2:	eb04 0382 	add.w	r3, r4, r2, lsl #2
 80090e6:	6030      	str	r0, [r6, #0]
 80090e8:	6918      	ldr	r0, [r3, #16]
 80090ea:	f7ff fd2f 	bl	8008b4c <__hi0bits>
 80090ee:	ebc0 1042 	rsb	r0, r0, r2, lsl #5
 80090f2:	e7e4      	b.n	80090be <__d2b+0x72>
 80090f4:	0800baa8 	.word	0x0800baa8
 80090f8:	0800bab9 	.word	0x0800bab9

080090fc <__ssputs_r>:
 80090fc:	e92d 47f0 	stmdb	sp!, {r4, r5, r6, r7, r8, r9, sl, lr}
 8009100:	461f      	mov	r7, r3
 8009102:	688e      	ldr	r6, [r1, #8]
 8009104:	4682      	mov	sl, r0
 8009106:	42be      	cmp	r6, r7
 8009108:	460c      	mov	r4, r1
 800910a:	4690      	mov	r8, r2
 800910c:	680b      	ldr	r3, [r1, #0]
 800910e:	d82d      	bhi.n	800916c <__ssputs_r+0x70>
 8009110:	f9b1 200c 	ldrsh.w	r2, [r1, #12]
 8009114:	f412 6f90 	tst.w	r2, #1152	@ 0x480
 8009118:	d026      	beq.n	8009168 <__ssputs_r+0x6c>
 800911a:	6965      	ldr	r5, [r4, #20]
 800911c:	6909      	ldr	r1, [r1, #16]
 800911e:	eb05 0545 	add.w	r5, r5, r5, lsl #1
 8009122:	eba3 0901 	sub.w	r9, r3, r1
 8009126:	eb05 75d5 	add.w	r5, r5, r5, lsr #31
 800912a:	1c7b      	adds	r3, r7, #1
 800912c:	444b      	add	r3, r9
 800912e:	106d      	asrs	r5, r5, #1
 8009130:	429d      	cmp	r5, r3
 8009132:	bf38      	it	cc
 8009134:	461d      	movcc	r5, r3
 8009136:	0553      	lsls	r3, r2, #21
 8009138:	d527      	bpl.n	800918a <__ssputs_r+0x8e>
 800913a:	4629      	mov	r1, r5
 800913c:	f7ff fbd2 	bl	80088e4 <_malloc_r>
 8009140:	4606      	mov	r6, r0
 8009142:	b360      	cbz	r0, 800919e <__ssputs_r+0xa2>
 8009144:	464a      	mov	r2, r9
 8009146:	6921      	ldr	r1, [r4, #16]
 8009148:	f000 fa14 	bl	8009574 <memcpy>
 800914c:	89a3      	ldrh	r3, [r4, #12]
 800914e:	f423 6390 	bic.w	r3, r3, #1152	@ 0x480
 8009152:	f043 0380 	orr.w	r3, r3, #128	@ 0x80
 8009156:	81a3      	strh	r3, [r4, #12]
 8009158:	6126      	str	r6, [r4, #16]
 800915a:	444e      	add	r6, r9
 800915c:	6026      	str	r6, [r4, #0]
 800915e:	463e      	mov	r6, r7
 8009160:	6165      	str	r5, [r4, #20]
 8009162:	eba5 0509 	sub.w	r5, r5, r9
 8009166:	60a5      	str	r5, [r4, #8]
 8009168:	42be      	cmp	r6, r7
 800916a:	d900      	bls.n	800916e <__ssputs_r+0x72>
 800916c:	463e      	mov	r6, r7
 800916e:	4632      	mov	r2, r6
 8009170:	4641      	mov	r1, r8
 8009172:	6820      	ldr	r0, [r4, #0]
 8009174:	f000 f9d4 	bl	8009520 <memmove>
 8009178:	2000      	movs	r0, #0
 800917a:	68a3      	ldr	r3, [r4, #8]
 800917c:	1b9b      	subs	r3, r3, r6
 800917e:	60a3      	str	r3, [r4, #8]
 8009180:	6823      	ldr	r3, [r4, #0]
 8009182:	4433      	add	r3, r6
 8009184:	6023      	str	r3, [r4, #0]
 8009186:	e8bd 87f0 	ldmia.w	sp!, {r4, r5, r6, r7, r8, r9, sl, pc}
 800918a:	462a      	mov	r2, r5
 800918c:	f000 fa2d 	bl	80095ea <_realloc_r>
 8009190:	4606      	mov	r6, r0
 8009192:	2800      	cmp	r0, #0
 8009194:	d1e0      	bne.n	8009158 <__ssputs_r+0x5c>
 8009196:	4650      	mov	r0, sl
 8009198:	6921      	ldr	r1, [r4, #16]
 800919a:	f7ff fb31 	bl	8008800 <_free_r>
 800919e:	230c      	movs	r3, #12
 80091a0:	f8ca 3000 	str.w	r3, [sl]
 80091a4:	89a3      	ldrh	r3, [r4, #12]
 80091a6:	f04f 30ff 	mov.w	r0, #4294967295
 80091aa:	f043 0340 	orr.w	r3, r3, #64	@ 0x40
 80091ae:	81a3      	strh	r3, [r4, #12]
 80091b0:	e7e9      	b.n	8009186 <__ssputs_r+0x8a>
	...

080091b4 <_svfiprintf_r>:
 80091b4:	e92d 4ff0 	stmdb	sp!, {r4, r5, r6, r7, r8, r9, sl, fp, lr}
 80091b8:	4698      	mov	r8, r3
 80091ba:	898b      	ldrh	r3, [r1, #12]
 80091bc:	4607      	mov	r7, r0
 80091be:	061b      	lsls	r3, r3, #24
 80091c0:	460d      	mov	r5, r1
 80091c2:	4614      	mov	r4, r2
 80091c4:	b09d      	sub	sp, #116	@ 0x74
 80091c6:	d510      	bpl.n	80091ea <_svfiprintf_r+0x36>
 80091c8:	690b      	ldr	r3, [r1, #16]
 80091ca:	b973      	cbnz	r3, 80091ea <_svfiprintf_r+0x36>
 80091cc:	2140      	movs	r1, #64	@ 0x40
 80091ce:	f7ff fb89 	bl	80088e4 <_malloc_r>
 80091d2:	6028      	str	r0, [r5, #0]
 80091d4:	6128      	str	r0, [r5, #16]
 80091d6:	b930      	cbnz	r0, 80091e6 <_svfiprintf_r+0x32>
 80091d8:	230c      	movs	r3, #12
 80091da:	603b      	str	r3, [r7, #0]
 80091dc:	f04f 30ff 	mov.w	r0, #4294967295
 80091e0:	b01d      	add	sp, #116	@ 0x74
 80091e2:	e8bd 8ff0 	ldmia.w	sp!, {r4, r5, r6, r7, r8, r9, sl, fp, pc}
 80091e6:	2340      	movs	r3, #64	@ 0x40
 80091e8:	616b      	str	r3, [r5, #20]
 80091ea:	2300      	movs	r3, #0
 80091ec:	9309      	str	r3, [sp, #36]	@ 0x24
 80091ee:	2320      	movs	r3, #32
 80091f0:	f88d 3029 	strb.w	r3, [sp, #41]	@ 0x29
 80091f4:	2330      	movs	r3, #48	@ 0x30
 80091f6:	f04f 0901 	mov.w	r9, #1
 80091fa:	f8cd 800c 	str.w	r8, [sp, #12]
 80091fe:	f8df 8198 	ldr.w	r8, [pc, #408]	@ 8009398 <_svfiprintf_r+0x1e4>
 8009202:	f88d 302a 	strb.w	r3, [sp, #42]	@ 0x2a
 8009206:	4623      	mov	r3, r4
 8009208:	469a      	mov	sl, r3
 800920a:	f813 2b01 	ldrb.w	r2, [r3], #1
 800920e:	b10a      	cbz	r2, 8009214 <_svfiprintf_r+0x60>
 8009210:	2a25      	cmp	r2, #37	@ 0x25
 8009212:	d1f9      	bne.n	8009208 <_svfiprintf_r+0x54>
 8009214:	ebba 0b04 	subs.w	fp, sl, r4
 8009218:	d00b      	beq.n	8009232 <_svfiprintf_r+0x7e>
 800921a:	465b      	mov	r3, fp
 800921c:	4622      	mov	r2, r4
 800921e:	4629      	mov	r1, r5
 8009220:	4638      	mov	r0, r7
 8009222:	f7ff ff6b 	bl	80090fc <__ssputs_r>
 8009226:	3001      	adds	r0, #1
 8009228:	f000 80a7 	beq.w	800937a <_svfiprintf_r+0x1c6>
 800922c:	9a09      	ldr	r2, [sp, #36]	@ 0x24
 800922e:	445a      	add	r2, fp
 8009230:	9209      	str	r2, [sp, #36]	@ 0x24
 8009232:	f89a 3000 	ldrb.w	r3, [sl]
 8009236:	2b00      	cmp	r3, #0
 8009238:	f000 809f 	beq.w	800937a <_svfiprintf_r+0x1c6>
 800923c:	2300      	movs	r3, #0
 800923e:	f04f 32ff 	mov.w	r2, #4294967295
 8009242:	e9cd 2305 	strd	r2, r3, [sp, #20]
 8009246:	f10a 0a01 	add.w	sl, sl, #1
 800924a:	9304      	str	r3, [sp, #16]
 800924c:	9307      	str	r3, [sp, #28]
 800924e:	f88d 3053 	strb.w	r3, [sp, #83]	@ 0x53
 8009252:	931a      	str	r3, [sp, #104]	@ 0x68
 8009254:	4654      	mov	r4, sl
 8009256:	2205      	movs	r2, #5
 8009258:	f814 1b01 	ldrb.w	r1, [r4], #1
 800925c:	484e      	ldr	r0, [pc, #312]	@ (8009398 <_svfiprintf_r+0x1e4>)
 800925e:	f7fe fc50 	bl	8007b02 <memchr>
 8009262:	9a04      	ldr	r2, [sp, #16]
 8009264:	b9d8      	cbnz	r0, 800929e <_svfiprintf_r+0xea>
 8009266:	06d0      	lsls	r0, r2, #27
 8009268:	bf44      	itt	mi
 800926a:	2320      	movmi	r3, #32
 800926c:	f88d 3053 	strbmi.w	r3, [sp, #83]	@ 0x53
 8009270:	0711      	lsls	r1, r2, #28
 8009272:	bf44      	itt	mi
 8009274:	232b      	movmi	r3, #43	@ 0x2b
 8009276:	f88d 3053 	strbmi.w	r3, [sp, #83]	@ 0x53
 800927a:	f89a 3000 	ldrb.w	r3, [sl]
 800927e:	2b2a      	cmp	r3, #42	@ 0x2a
 8009280:	d015      	beq.n	80092ae <_svfiprintf_r+0xfa>
 8009282:	4654      	mov	r4, sl
 8009284:	2000      	movs	r0, #0
 8009286:	f04f 0c0a 	mov.w	ip, #10
 800928a:	9a07      	ldr	r2, [sp, #28]
 800928c:	4621      	mov	r1, r4
 800928e:	f811 3b01 	ldrb.w	r3, [r1], #1
 8009292:	3b30      	subs	r3, #48	@ 0x30
 8009294:	2b09      	cmp	r3, #9
 8009296:	d94b      	bls.n	8009330 <_svfiprintf_r+0x17c>
 8009298:	b1b0      	cbz	r0, 80092c8 <_svfiprintf_r+0x114>
 800929a:	9207      	str	r2, [sp, #28]
 800929c:	e014      	b.n	80092c8 <_svfiprintf_r+0x114>
 800929e:	eba0 0308 	sub.w	r3, r0, r8
 80092a2:	fa09 f303 	lsl.w	r3, r9, r3
 80092a6:	4313      	orrs	r3, r2
 80092a8:	46a2      	mov	sl, r4
 80092aa:	9304      	str	r3, [sp, #16]
 80092ac:	e7d2      	b.n	8009254 <_svfiprintf_r+0xa0>
 80092ae:	9b03      	ldr	r3, [sp, #12]
 80092b0:	1d19      	adds	r1, r3, #4
 80092b2:	681b      	ldr	r3, [r3, #0]
 80092b4:	9103      	str	r1, [sp, #12]
 80092b6:	2b00      	cmp	r3, #0
 80092b8:	bfbb      	ittet	lt
 80092ba:	425b      	neglt	r3, r3
 80092bc:	f042 0202 	orrlt.w	r2, r2, #2
 80092c0:	9307      	strge	r3, [sp, #28]
 80092c2:	9307      	strlt	r3, [sp, #28]
 80092c4:	bfb8      	it	lt
 80092c6:	9204      	strlt	r2, [sp, #16]
 80092c8:	7823      	ldrb	r3, [r4, #0]
 80092ca:	2b2e      	cmp	r3, #46	@ 0x2e
 80092cc:	d10a      	bne.n	80092e4 <_svfiprintf_r+0x130>
 80092ce:	7863      	ldrb	r3, [r4, #1]
 80092d0:	2b2a      	cmp	r3, #42	@ 0x2a
 80092d2:	d132      	bne.n	800933a <_svfiprintf_r+0x186>
 80092d4:	9b03      	ldr	r3, [sp, #12]
 80092d6:	3402      	adds	r4, #2
 80092d8:	1d1a      	adds	r2, r3, #4
 80092da:	681b      	ldr	r3, [r3, #0]
 80092dc:	9203      	str	r2, [sp, #12]
 80092de:	ea43 73e3 	orr.w	r3, r3, r3, asr #31
 80092e2:	9305      	str	r3, [sp, #20]
 80092e4:	f8df a0b4 	ldr.w	sl, [pc, #180]	@ 800939c <_svfiprintf_r+0x1e8>
 80092e8:	2203      	movs	r2, #3
 80092ea:	4650      	mov	r0, sl
 80092ec:	7821      	ldrb	r1, [r4, #0]
 80092ee:	f7fe fc08 	bl	8007b02 <memchr>
 80092f2:	b138      	cbz	r0, 8009304 <_svfiprintf_r+0x150>
 80092f4:	2240      	movs	r2, #64	@ 0x40
 80092f6:	9b04      	ldr	r3, [sp, #16]
 80092f8:	eba0 000a 	sub.w	r0, r0, sl
 80092fc:	4082      	lsls	r2, r0
 80092fe:	4313      	orrs	r3, r2
 8009300:	3401      	adds	r4, #1
 8009302:	9304      	str	r3, [sp, #16]
 8009304:	f814 1b01 	ldrb.w	r1, [r4], #1
 8009308:	2206      	movs	r2, #6
 800930a:	4825      	ldr	r0, [pc, #148]	@ (80093a0 <_svfiprintf_r+0x1ec>)
 800930c:	f88d 1028 	strb.w	r1, [sp, #40]	@ 0x28
 8009310:	f7fe fbf7 	bl	8007b02 <memchr>
 8009314:	2800      	cmp	r0, #0
 8009316:	d036      	beq.n	8009386 <_svfiprintf_r+0x1d2>
 8009318:	4b22      	ldr	r3, [pc, #136]	@ (80093a4 <_svfiprintf_r+0x1f0>)
 800931a:	bb1b      	cbnz	r3, 8009364 <_svfiprintf_r+0x1b0>
 800931c:	9b03      	ldr	r3, [sp, #12]
 800931e:	3307      	adds	r3, #7
 8009320:	f023 0307 	bic.w	r3, r3, #7
 8009324:	3308      	adds	r3, #8
 8009326:	9303      	str	r3, [sp, #12]
 8009328:	9b09      	ldr	r3, [sp, #36]	@ 0x24
 800932a:	4433      	add	r3, r6
 800932c:	9309      	str	r3, [sp, #36]	@ 0x24
 800932e:	e76a      	b.n	8009206 <_svfiprintf_r+0x52>
 8009330:	460c      	mov	r4, r1
 8009332:	2001      	movs	r0, #1
 8009334:	fb0c 3202 	mla	r2, ip, r2, r3
 8009338:	e7a8      	b.n	800928c <_svfiprintf_r+0xd8>
 800933a:	2300      	movs	r3, #0
 800933c:	f04f 0c0a 	mov.w	ip, #10
 8009340:	4619      	mov	r1, r3
 8009342:	3401      	adds	r4, #1
 8009344:	9305      	str	r3, [sp, #20]
 8009346:	4620      	mov	r0, r4
 8009348:	f810 2b01 	ldrb.w	r2, [r0], #1
 800934c:	3a30      	subs	r2, #48	@ 0x30
 800934e:	2a09      	cmp	r2, #9
 8009350:	d903      	bls.n	800935a <_svfiprintf_r+0x1a6>
 8009352:	2b00      	cmp	r3, #0
 8009354:	d0c6      	beq.n	80092e4 <_svfiprintf_r+0x130>
 8009356:	9105      	str	r1, [sp, #20]
 8009358:	e7c4      	b.n	80092e4 <_svfiprintf_r+0x130>
 800935a:	4604      	mov	r4, r0
 800935c:	2301      	movs	r3, #1
 800935e:	fb0c 2101 	mla	r1, ip, r1, r2
 8009362:	e7f0      	b.n	8009346 <_svfiprintf_r+0x192>
 8009364:	ab03      	add	r3, sp, #12
 8009366:	9300      	str	r3, [sp, #0]
 8009368:	462a      	mov	r2, r5
 800936a:	4638      	mov	r0, r7
 800936c:	4b0e      	ldr	r3, [pc, #56]	@ (80093a8 <_svfiprintf_r+0x1f4>)
 800936e:	a904      	add	r1, sp, #16
 8009370:	f7fd fe64 	bl	800703c <_printf_float>
 8009374:	1c42      	adds	r2, r0, #1
 8009376:	4606      	mov	r6, r0
 8009378:	d1d6      	bne.n	8009328 <_svfiprintf_r+0x174>
 800937a:	89ab      	ldrh	r3, [r5, #12]
 800937c:	065b      	lsls	r3, r3, #25
 800937e:	f53f af2d 	bmi.w	80091dc <_svfiprintf_r+0x28>
 8009382:	9809      	ldr	r0, [sp, #36]	@ 0x24
 8009384:	e72c      	b.n	80091e0 <_svfiprintf_r+0x2c>
 8009386:	ab03      	add	r3, sp, #12
 8009388:	9300      	str	r3, [sp, #0]
 800938a:	462a      	mov	r2, r5
 800938c:	4638      	mov	r0, r7
 800938e:	4b06      	ldr	r3, [pc, #24]	@ (80093a8 <_svfiprintf_r+0x1f4>)
 8009390:	a904      	add	r1, sp, #16
 8009392:	f7fe f8f1 	bl	8007578 <_printf_i>
 8009396:	e7ed      	b.n	8009374 <_svfiprintf_r+0x1c0>
 8009398:	0800bc10 	.word	0x0800bc10
 800939c:	0800bc16 	.word	0x0800bc16
 80093a0:	0800bc1a 	.word	0x0800bc1a
 80093a4:	0800703d 	.word	0x0800703d
 80093a8:	080090fd 	.word	0x080090fd

080093ac <__sflush_r>:
 80093ac:	f9b1 200c 	ldrsh.w	r2, [r1, #12]
 80093b0:	b5f8      	push	{r3, r4, r5, r6, r7, lr}
 80093b2:	0716      	lsls	r6, r2, #28
 80093b4:	4605      	mov	r5, r0
 80093b6:	460c      	mov	r4, r1
 80093b8:	d454      	bmi.n	8009464 <__sflush_r+0xb8>
 80093ba:	684b      	ldr	r3, [r1, #4]
 80093bc:	2b00      	cmp	r3, #0
 80093be:	dc02      	bgt.n	80093c6 <__sflush_r+0x1a>
 80093c0:	6c0b      	ldr	r3, [r1, #64]	@ 0x40
 80093c2:	2b00      	cmp	r3, #0
 80093c4:	dd48      	ble.n	8009458 <__sflush_r+0xac>
 80093c6:	6ae6      	ldr	r6, [r4, #44]	@ 0x2c
 80093c8:	2e00      	cmp	r6, #0
 80093ca:	d045      	beq.n	8009458 <__sflush_r+0xac>
 80093cc:	2300      	movs	r3, #0
 80093ce:	f412 5280 	ands.w	r2, r2, #4096	@ 0x1000
 80093d2:	682f      	ldr	r7, [r5, #0]
 80093d4:	6a21      	ldr	r1, [r4, #32]
 80093d6:	602b      	str	r3, [r5, #0]
 80093d8:	d030      	beq.n	800943c <__sflush_r+0x90>
 80093da:	6d62      	ldr	r2, [r4, #84]	@ 0x54
 80093dc:	89a3      	ldrh	r3, [r4, #12]
 80093de:	0759      	lsls	r1, r3, #29
 80093e0:	d505      	bpl.n	80093ee <__sflush_r+0x42>
 80093e2:	6863      	ldr	r3, [r4, #4]
 80093e4:	1ad2      	subs	r2, r2, r3
 80093e6:	6b63      	ldr	r3, [r4, #52]	@ 0x34
 80093e8:	b10b      	cbz	r3, 80093ee <__sflush_r+0x42>
 80093ea:	6c23      	ldr	r3, [r4, #64]	@ 0x40
 80093ec:	1ad2      	subs	r2, r2, r3
 80093ee:	2300      	movs	r3, #0
 80093f0:	4628      	mov	r0, r5
 80093f2:	6ae6      	ldr	r6, [r4, #44]	@ 0x2c
 80093f4:	6a21      	ldr	r1, [r4, #32]
 80093f6:	47b0      	blx	r6
 80093f8:	1c43      	adds	r3, r0, #1
 80093fa:	89a3      	ldrh	r3, [r4, #12]
 80093fc:	d106      	bne.n	800940c <__sflush_r+0x60>
 80093fe:	6829      	ldr	r1, [r5, #0]
 8009400:	291d      	cmp	r1, #29
 8009402:	d82b      	bhi.n	800945c <__sflush_r+0xb0>
 8009404:	4a28      	ldr	r2, [pc, #160]	@ (80094a8 <__sflush_r+0xfc>)
 8009406:	410a      	asrs	r2, r1
 8009408:	07d6      	lsls	r6, r2, #31
 800940a:	d427      	bmi.n	800945c <__sflush_r+0xb0>
 800940c:	2200      	movs	r2, #0
 800940e:	6062      	str	r2, [r4, #4]
 8009410:	6922      	ldr	r2, [r4, #16]
 8009412:	04d9      	lsls	r1, r3, #19
 8009414:	6022      	str	r2, [r4, #0]
 8009416:	d504      	bpl.n	8009422 <__sflush_r+0x76>
 8009418:	1c42      	adds	r2, r0, #1
 800941a:	d101      	bne.n	8009420 <__sflush_r+0x74>
 800941c:	682b      	ldr	r3, [r5, #0]
 800941e:	b903      	cbnz	r3, 8009422 <__sflush_r+0x76>
 8009420:	6560      	str	r0, [r4, #84]	@ 0x54
 8009422:	6b61      	ldr	r1, [r4, #52]	@ 0x34
 8009424:	602f      	str	r7, [r5, #0]
 8009426:	b1b9      	cbz	r1, 8009458 <__sflush_r+0xac>
 8009428:	f104 0344 	add.w	r3, r4, #68	@ 0x44
 800942c:	4299      	cmp	r1, r3
 800942e:	d002      	beq.n	8009436 <__sflush_r+0x8a>
 8009430:	4628      	mov	r0, r5
 8009432:	f7ff f9e5 	bl	8008800 <_free_r>
 8009436:	2300      	movs	r3, #0
 8009438:	6363      	str	r3, [r4, #52]	@ 0x34
 800943a:	e00d      	b.n	8009458 <__sflush_r+0xac>
 800943c:	2301      	movs	r3, #1
 800943e:	4628      	mov	r0, r5
 8009440:	47b0      	blx	r6
 8009442:	4602      	mov	r2, r0
 8009444:	1c50      	adds	r0, r2, #1
 8009446:	d1c9      	bne.n	80093dc <__sflush_r+0x30>
 8009448:	682b      	ldr	r3, [r5, #0]
 800944a:	2b00      	cmp	r3, #0
 800944c:	d0c6      	beq.n	80093dc <__sflush_r+0x30>
 800944e:	2b1d      	cmp	r3, #29
 8009450:	d001      	beq.n	8009456 <__sflush_r+0xaa>
 8009452:	2b16      	cmp	r3, #22
 8009454:	d11d      	bne.n	8009492 <__sflush_r+0xe6>
 8009456:	602f      	str	r7, [r5, #0]
 8009458:	2000      	movs	r0, #0
 800945a:	e021      	b.n	80094a0 <__sflush_r+0xf4>
 800945c:	f043 0340 	orr.w	r3, r3, #64	@ 0x40
 8009460:	b21b      	sxth	r3, r3
 8009462:	e01a      	b.n	800949a <__sflush_r+0xee>
 8009464:	690f      	ldr	r7, [r1, #16]
 8009466:	2f00      	cmp	r7, #0
 8009468:	d0f6      	beq.n	8009458 <__sflush_r+0xac>
 800946a:	0793      	lsls	r3, r2, #30
 800946c:	bf18      	it	ne
 800946e:	2300      	movne	r3, #0
 8009470:	680e      	ldr	r6, [r1, #0]
 8009472:	bf08      	it	eq
 8009474:	694b      	ldreq	r3, [r1, #20]
 8009476:	1bf6      	subs	r6, r6, r7
 8009478:	600f      	str	r7, [r1, #0]
 800947a:	608b      	str	r3, [r1, #8]
 800947c:	2e00      	cmp	r6, #0
 800947e:	ddeb      	ble.n	8009458 <__sflush_r+0xac>
 8009480:	4633      	mov	r3, r6
 8009482:	463a      	mov	r2, r7
 8009484:	4628      	mov	r0, r5
 8009486:	6a21      	ldr	r1, [r4, #32]
 8009488:	f8d4 c028 	ldr.w	ip, [r4, #40]	@ 0x28
 800948c:	47e0      	blx	ip
 800948e:	2800      	cmp	r0, #0
 8009490:	dc07      	bgt.n	80094a2 <__sflush_r+0xf6>
 8009492:	f9b4 300c 	ldrsh.w	r3, [r4, #12]
 8009496:	f043 0340 	orr.w	r3, r3, #64	@ 0x40
 800949a:	f04f 30ff 	mov.w	r0, #4294967295
 800949e:	81a3      	strh	r3, [r4, #12]
 80094a0:	bdf8      	pop	{r3, r4, r5, r6, r7, pc}
 80094a2:	4407      	add	r7, r0
 80094a4:	1a36      	subs	r6, r6, r0
 80094a6:	e7e9      	b.n	800947c <__sflush_r+0xd0>
 80094a8:	dfbffffe 	.word	0xdfbffffe

080094ac <_fflush_r>:
 80094ac:	b538      	push	{r3, r4, r5, lr}
 80094ae:	690b      	ldr	r3, [r1, #16]
 80094b0:	4605      	mov	r5, r0
 80094b2:	460c      	mov	r4, r1
 80094b4:	b913      	cbnz	r3, 80094bc <_fflush_r+0x10>
 80094b6:	2500      	movs	r5, #0
 80094b8:	4628      	mov	r0, r5
 80094ba:	bd38      	pop	{r3, r4, r5, pc}
 80094bc:	b118      	cbz	r0, 80094c6 <_fflush_r+0x1a>
 80094be:	6a03      	ldr	r3, [r0, #32]
 80094c0:	b90b      	cbnz	r3, 80094c6 <_fflush_r+0x1a>
 80094c2:	f7fe fa05 	bl	80078d0 <__sinit>
 80094c6:	f9b4 300c 	ldrsh.w	r3, [r4, #12]
 80094ca:	2b00      	cmp	r3, #0
 80094cc:	d0f3      	beq.n	80094b6 <_fflush_r+0xa>
 80094ce:	6e62      	ldr	r2, [r4, #100]	@ 0x64
 80094d0:	07d0      	lsls	r0, r2, #31
 80094d2:	d404      	bmi.n	80094de <_fflush_r+0x32>
 80094d4:	0599      	lsls	r1, r3, #22
 80094d6:	d402      	bmi.n	80094de <_fflush_r+0x32>
 80094d8:	6da0      	ldr	r0, [r4, #88]	@ 0x58
 80094da:	f7fe fb10 	bl	8007afe <__retarget_lock_acquire_recursive>
 80094de:	4628      	mov	r0, r5
 80094e0:	4621      	mov	r1, r4
 80094e2:	f7ff ff63 	bl	80093ac <__sflush_r>
 80094e6:	6e63      	ldr	r3, [r4, #100]	@ 0x64
 80094e8:	4605      	mov	r5, r0
 80094ea:	07da      	lsls	r2, r3, #31
 80094ec:	d4e4      	bmi.n	80094b8 <_fflush_r+0xc>
 80094ee:	89a3      	ldrh	r3, [r4, #12]
 80094f0:	059b      	lsls	r3, r3, #22
 80094f2:	d4e1      	bmi.n	80094b8 <_fflush_r+0xc>
 80094f4:	6da0      	ldr	r0, [r4, #88]	@ 0x58
 80094f6:	f7fe fb03 	bl	8007b00 <__retarget_lock_release_recursive>
 80094fa:	e7dd      	b.n	80094b8 <_fflush_r+0xc>

080094fc <fiprintf>:
 80094fc:	b40e      	push	{r1, r2, r3}
 80094fe:	b503      	push	{r0, r1, lr}
 8009500:	4601      	mov	r1, r0
 8009502:	ab03      	add	r3, sp, #12
 8009504:	4805      	ldr	r0, [pc, #20]	@ (800951c <fiprintf+0x20>)
 8009506:	f853 2b04 	ldr.w	r2, [r3], #4
 800950a:	6800      	ldr	r0, [r0, #0]
 800950c:	9301      	str	r3, [sp, #4]
 800950e:	f000 f8cf 	bl	80096b0 <_vfiprintf_r>
 8009512:	b002      	add	sp, #8
 8009514:	f85d eb04 	ldr.w	lr, [sp], #4
 8009518:	b003      	add	sp, #12
 800951a:	4770      	bx	lr
 800951c:	20000074 	.word	0x20000074

08009520 <memmove>:
 8009520:	4288      	cmp	r0, r1
 8009522:	b510      	push	{r4, lr}
 8009524:	eb01 0402 	add.w	r4, r1, r2
 8009528:	d902      	bls.n	8009530 <memmove+0x10>
 800952a:	4284      	cmp	r4, r0
 800952c:	4623      	mov	r3, r4
 800952e:	d807      	bhi.n	8009540 <memmove+0x20>
 8009530:	1e43      	subs	r3, r0, #1
 8009532:	42a1      	cmp	r1, r4
 8009534:	d008      	beq.n	8009548 <memmove+0x28>
 8009536:	f811 2b01 	ldrb.w	r2, [r1], #1
 800953a:	f803 2f01 	strb.w	r2, [r3, #1]!
 800953e:	e7f8      	b.n	8009532 <memmove+0x12>
 8009540:	4601      	mov	r1, r0
 8009542:	4402      	add	r2, r0
 8009544:	428a      	cmp	r2, r1
 8009546:	d100      	bne.n	800954a <memmove+0x2a>
 8009548:	bd10      	pop	{r4, pc}
 800954a:	f813 4d01 	ldrb.w	r4, [r3, #-1]!
 800954e:	f802 4d01 	strb.w	r4, [r2, #-1]!
 8009552:	e7f7      	b.n	8009544 <memmove+0x24>

08009554 <_sbrk_r>:
 8009554:	b538      	push	{r3, r4, r5, lr}
 8009556:	2300      	movs	r3, #0
 8009558:	4d05      	ldr	r5, [pc, #20]	@ (8009570 <_sbrk_r+0x1c>)
 800955a:	4604      	mov	r4, r0
 800955c:	4608      	mov	r0, r1
 800955e:	602b      	str	r3, [r5, #0]
 8009560:	f7f9 ff3e 	bl	80033e0 <_sbrk>
 8009564:	1c43      	adds	r3, r0, #1
 8009566:	d102      	bne.n	800956e <_sbrk_r+0x1a>
 8009568:	682b      	ldr	r3, [r5, #0]
 800956a:	b103      	cbz	r3, 800956e <_sbrk_r+0x1a>
 800956c:	6023      	str	r3, [r4, #0]
 800956e:	bd38      	pop	{r3, r4, r5, pc}
 8009570:	20000d08 	.word	0x20000d08

08009574 <memcpy>:
 8009574:	440a      	add	r2, r1
 8009576:	4291      	cmp	r1, r2
 8009578:	f100 33ff 	add.w	r3, r0, #4294967295
 800957c:	d100      	bne.n	8009580 <memcpy+0xc>
 800957e:	4770      	bx	lr
 8009580:	b510      	push	{r4, lr}
 8009582:	f811 4b01 	ldrb.w	r4, [r1], #1
 8009586:	4291      	cmp	r1, r2
 8009588:	f803 4f01 	strb.w	r4, [r3, #1]!
 800958c:	d1f9      	bne.n	8009582 <memcpy+0xe>
 800958e:	bd10      	pop	{r4, pc}

08009590 <abort>:
 8009590:	2006      	movs	r0, #6
 8009592:	b508      	push	{r3, lr}
 8009594:	f000 fa60 	bl	8009a58 <raise>
 8009598:	2001      	movs	r0, #1
 800959a:	f7f9 feff 	bl	800339c <_exit>

0800959e <_calloc_r>:
 800959e:	b570      	push	{r4, r5, r6, lr}
 80095a0:	fba1 5402 	umull	r5, r4, r1, r2
 80095a4:	b93c      	cbnz	r4, 80095b6 <_calloc_r+0x18>
 80095a6:	4629      	mov	r1, r5
 80095a8:	f7ff f99c 	bl	80088e4 <_malloc_r>
 80095ac:	4606      	mov	r6, r0
 80095ae:	b928      	cbnz	r0, 80095bc <_calloc_r+0x1e>
 80095b0:	2600      	movs	r6, #0
 80095b2:	4630      	mov	r0, r6
 80095b4:	bd70      	pop	{r4, r5, r6, pc}
 80095b6:	220c      	movs	r2, #12
 80095b8:	6002      	str	r2, [r0, #0]
 80095ba:	e7f9      	b.n	80095b0 <_calloc_r+0x12>
 80095bc:	462a      	mov	r2, r5
 80095be:	4621      	mov	r1, r4
 80095c0:	f7fe fa1f 	bl	8007a02 <memset>
 80095c4:	e7f5      	b.n	80095b2 <_calloc_r+0x14>

080095c6 <__ascii_mbtowc>:
 80095c6:	b082      	sub	sp, #8
 80095c8:	b901      	cbnz	r1, 80095cc <__ascii_mbtowc+0x6>
 80095ca:	a901      	add	r1, sp, #4
 80095cc:	b142      	cbz	r2, 80095e0 <__ascii_mbtowc+0x1a>
 80095ce:	b14b      	cbz	r3, 80095e4 <__ascii_mbtowc+0x1e>
 80095d0:	7813      	ldrb	r3, [r2, #0]
 80095d2:	600b      	str	r3, [r1, #0]
 80095d4:	7812      	ldrb	r2, [r2, #0]
 80095d6:	1e10      	subs	r0, r2, #0
 80095d8:	bf18      	it	ne
 80095da:	2001      	movne	r0, #1
 80095dc:	b002      	add	sp, #8
 80095de:	4770      	bx	lr
 80095e0:	4610      	mov	r0, r2
 80095e2:	e7fb      	b.n	80095dc <__ascii_mbtowc+0x16>
 80095e4:	f06f 0001 	mvn.w	r0, #1
 80095e8:	e7f8      	b.n	80095dc <__ascii_mbtowc+0x16>

080095ea <_realloc_r>:
 80095ea:	e92d 41f0 	stmdb	sp!, {r4, r5, r6, r7, r8, lr}
 80095ee:	4680      	mov	r8, r0
 80095f0:	4615      	mov	r5, r2
 80095f2:	460c      	mov	r4, r1
 80095f4:	b921      	cbnz	r1, 8009600 <_realloc_r+0x16>
 80095f6:	4611      	mov	r1, r2
 80095f8:	e8bd 41f0 	ldmia.w	sp!, {r4, r5, r6, r7, r8, lr}
 80095fc:	f7ff b972 	b.w	80088e4 <_malloc_r>
 8009600:	b92a      	cbnz	r2, 800960e <_realloc_r+0x24>
 8009602:	f7ff f8fd 	bl	8008800 <_free_r>
 8009606:	2400      	movs	r4, #0
 8009608:	4620      	mov	r0, r4
 800960a:	e8bd 81f0 	ldmia.w	sp!, {r4, r5, r6, r7, r8, pc}
 800960e:	f000 fa3f 	bl	8009a90 <_malloc_usable_size_r>
 8009612:	4285      	cmp	r5, r0
 8009614:	4606      	mov	r6, r0
 8009616:	d802      	bhi.n	800961e <_realloc_r+0x34>
 8009618:	ebb5 0f50 	cmp.w	r5, r0, lsr #1
 800961c:	d8f4      	bhi.n	8009608 <_realloc_r+0x1e>
 800961e:	4629      	mov	r1, r5
 8009620:	4640      	mov	r0, r8
 8009622:	f7ff f95f 	bl	80088e4 <_malloc_r>
 8009626:	4607      	mov	r7, r0
 8009628:	2800      	cmp	r0, #0
 800962a:	d0ec      	beq.n	8009606 <_realloc_r+0x1c>
 800962c:	42b5      	cmp	r5, r6
 800962e:	462a      	mov	r2, r5
 8009630:	4621      	mov	r1, r4
 8009632:	bf28      	it	cs
 8009634:	4632      	movcs	r2, r6
 8009636:	f7ff ff9d 	bl	8009574 <memcpy>
 800963a:	4621      	mov	r1, r4
 800963c:	4640      	mov	r0, r8
 800963e:	f7ff f8df 	bl	8008800 <_free_r>
 8009642:	463c      	mov	r4, r7
 8009644:	e7e0      	b.n	8009608 <_realloc_r+0x1e>

08009646 <__ascii_wctomb>:
 8009646:	4603      	mov	r3, r0
 8009648:	4608      	mov	r0, r1
 800964a:	b141      	cbz	r1, 800965e <__ascii_wctomb+0x18>
 800964c:	2aff      	cmp	r2, #255	@ 0xff
 800964e:	d904      	bls.n	800965a <__ascii_wctomb+0x14>
 8009650:	228a      	movs	r2, #138	@ 0x8a
 8009652:	f04f 30ff 	mov.w	r0, #4294967295
 8009656:	601a      	str	r2, [r3, #0]
 8009658:	4770      	bx	lr
 800965a:	2001      	movs	r0, #1
 800965c:	700a      	strb	r2, [r1, #0]
 800965e:	4770      	bx	lr

08009660 <__sfputc_r>:
 8009660:	6893      	ldr	r3, [r2, #8]
 8009662:	b410      	push	{r4}
 8009664:	3b01      	subs	r3, #1
 8009666:	2b00      	cmp	r3, #0
 8009668:	6093      	str	r3, [r2, #8]
 800966a:	da07      	bge.n	800967c <__sfputc_r+0x1c>
 800966c:	6994      	ldr	r4, [r2, #24]
 800966e:	42a3      	cmp	r3, r4
 8009670:	db01      	blt.n	8009676 <__sfputc_r+0x16>
 8009672:	290a      	cmp	r1, #10
 8009674:	d102      	bne.n	800967c <__sfputc_r+0x1c>
 8009676:	bc10      	pop	{r4}
 8009678:	f000 b932 	b.w	80098e0 <__swbuf_r>
 800967c:	6813      	ldr	r3, [r2, #0]
 800967e:	1c58      	adds	r0, r3, #1
 8009680:	6010      	str	r0, [r2, #0]
 8009682:	7019      	strb	r1, [r3, #0]
 8009684:	4608      	mov	r0, r1
 8009686:	bc10      	pop	{r4}
 8009688:	4770      	bx	lr

0800968a <__sfputs_r>:
 800968a:	b5f8      	push	{r3, r4, r5, r6, r7, lr}
 800968c:	4606      	mov	r6, r0
 800968e:	460f      	mov	r7, r1
 8009690:	4614      	mov	r4, r2
 8009692:	18d5      	adds	r5, r2, r3
 8009694:	42ac      	cmp	r4, r5
 8009696:	d101      	bne.n	800969c <__sfputs_r+0x12>
 8009698:	2000      	movs	r0, #0
 800969a:	e007      	b.n	80096ac <__sfputs_r+0x22>
 800969c:	463a      	mov	r2, r7
 800969e:	4630      	mov	r0, r6
 80096a0:	f814 1b01 	ldrb.w	r1, [r4], #1
 80096a4:	f7ff ffdc 	bl	8009660 <__sfputc_r>
 80096a8:	1c43      	adds	r3, r0, #1
 80096aa:	d1f3      	bne.n	8009694 <__sfputs_r+0xa>
 80096ac:	bdf8      	pop	{r3, r4, r5, r6, r7, pc}
	...

080096b0 <_vfiprintf_r>:
 80096b0:	e92d 4ff0 	stmdb	sp!, {r4, r5, r6, r7, r8, r9, sl, fp, lr}
 80096b4:	460d      	mov	r5, r1
 80096b6:	4614      	mov	r4, r2
 80096b8:	4698      	mov	r8, r3
 80096ba:	4606      	mov	r6, r0
 80096bc:	b09d      	sub	sp, #116	@ 0x74
 80096be:	b118      	cbz	r0, 80096c8 <_vfiprintf_r+0x18>
 80096c0:	6a03      	ldr	r3, [r0, #32]
 80096c2:	b90b      	cbnz	r3, 80096c8 <_vfiprintf_r+0x18>
 80096c4:	f7fe f904 	bl	80078d0 <__sinit>
 80096c8:	6e6b      	ldr	r3, [r5, #100]	@ 0x64
 80096ca:	07d9      	lsls	r1, r3, #31
 80096cc:	d405      	bmi.n	80096da <_vfiprintf_r+0x2a>
 80096ce:	89ab      	ldrh	r3, [r5, #12]
 80096d0:	059a      	lsls	r2, r3, #22
 80096d2:	d402      	bmi.n	80096da <_vfiprintf_r+0x2a>
 80096d4:	6da8      	ldr	r0, [r5, #88]	@ 0x58
 80096d6:	f7fe fa12 	bl	8007afe <__retarget_lock_acquire_recursive>
 80096da:	89ab      	ldrh	r3, [r5, #12]
 80096dc:	071b      	lsls	r3, r3, #28
 80096de:	d501      	bpl.n	80096e4 <_vfiprintf_r+0x34>
 80096e0:	692b      	ldr	r3, [r5, #16]
 80096e2:	b99b      	cbnz	r3, 800970c <_vfiprintf_r+0x5c>
 80096e4:	4629      	mov	r1, r5
 80096e6:	4630      	mov	r0, r6
 80096e8:	f000 f938 	bl	800995c <__swsetup_r>
 80096ec:	b170      	cbz	r0, 800970c <_vfiprintf_r+0x5c>
 80096ee:	6e6b      	ldr	r3, [r5, #100]	@ 0x64
 80096f0:	07dc      	lsls	r4, r3, #31
 80096f2:	d504      	bpl.n	80096fe <_vfiprintf_r+0x4e>
 80096f4:	f04f 30ff 	mov.w	r0, #4294967295
 80096f8:	b01d      	add	sp, #116	@ 0x74
 80096fa:	e8bd 8ff0 	ldmia.w	sp!, {r4, r5, r6, r7, r8, r9, sl, fp, pc}
 80096fe:	89ab      	ldrh	r3, [r5, #12]
 8009700:	0598      	lsls	r0, r3, #22
 8009702:	d4f7      	bmi.n	80096f4 <_vfiprintf_r+0x44>
 8009704:	6da8      	ldr	r0, [r5, #88]	@ 0x58
 8009706:	f7fe f9fb 	bl	8007b00 <__retarget_lock_release_recursive>
 800970a:	e7f3      	b.n	80096f4 <_vfiprintf_r+0x44>
 800970c:	2300      	movs	r3, #0
 800970e:	9309      	str	r3, [sp, #36]	@ 0x24
 8009710:	2320      	movs	r3, #32
 8009712:	f88d 3029 	strb.w	r3, [sp, #41]	@ 0x29
 8009716:	2330      	movs	r3, #48	@ 0x30
 8009718:	f04f 0901 	mov.w	r9, #1
 800971c:	f8cd 800c 	str.w	r8, [sp, #12]
 8009720:	f8df 81a8 	ldr.w	r8, [pc, #424]	@ 80098cc <_vfiprintf_r+0x21c>
 8009724:	f88d 302a 	strb.w	r3, [sp, #42]	@ 0x2a
 8009728:	4623      	mov	r3, r4
 800972a:	469a      	mov	sl, r3
 800972c:	f813 2b01 	ldrb.w	r2, [r3], #1
 8009730:	b10a      	cbz	r2, 8009736 <_vfiprintf_r+0x86>
 8009732:	2a25      	cmp	r2, #37	@ 0x25
 8009734:	d1f9      	bne.n	800972a <_vfiprintf_r+0x7a>
 8009736:	ebba 0b04 	subs.w	fp, sl, r4
 800973a:	d00b      	beq.n	8009754 <_vfiprintf_r+0xa4>
 800973c:	465b      	mov	r3, fp
 800973e:	4622      	mov	r2, r4
 8009740:	4629      	mov	r1, r5
 8009742:	4630      	mov	r0, r6
 8009744:	f7ff ffa1 	bl	800968a <__sfputs_r>
 8009748:	3001      	adds	r0, #1
 800974a:	f000 80a7 	beq.w	800989c <_vfiprintf_r+0x1ec>
 800974e:	9a09      	ldr	r2, [sp, #36]	@ 0x24
 8009750:	445a      	add	r2, fp
 8009752:	9209      	str	r2, [sp, #36]	@ 0x24
 8009754:	f89a 3000 	ldrb.w	r3, [sl]
 8009758:	2b00      	cmp	r3, #0
 800975a:	f000 809f 	beq.w	800989c <_vfiprintf_r+0x1ec>
 800975e:	2300      	movs	r3, #0
 8009760:	f04f 32ff 	mov.w	r2, #4294967295
 8009764:	e9cd 2305 	strd	r2, r3, [sp, #20]
 8009768:	f10a 0a01 	add.w	sl, sl, #1
 800976c:	9304      	str	r3, [sp, #16]
 800976e:	9307      	str	r3, [sp, #28]
 8009770:	f88d 3053 	strb.w	r3, [sp, #83]	@ 0x53
 8009774:	931a      	str	r3, [sp, #104]	@ 0x68
 8009776:	4654      	mov	r4, sl
 8009778:	2205      	movs	r2, #5
 800977a:	f814 1b01 	ldrb.w	r1, [r4], #1
 800977e:	4853      	ldr	r0, [pc, #332]	@ (80098cc <_vfiprintf_r+0x21c>)
 8009780:	f7fe f9bf 	bl	8007b02 <memchr>
 8009784:	9a04      	ldr	r2, [sp, #16]
 8009786:	b9d8      	cbnz	r0, 80097c0 <_vfiprintf_r+0x110>
 8009788:	06d1      	lsls	r1, r2, #27
 800978a:	bf44      	itt	mi
 800978c:	2320      	movmi	r3, #32
 800978e:	f88d 3053 	strbmi.w	r3, [sp, #83]	@ 0x53
 8009792:	0713      	lsls	r3, r2, #28
 8009794:	bf44      	itt	mi
 8009796:	232b      	movmi	r3, #43	@ 0x2b
 8009798:	f88d 3053 	strbmi.w	r3, [sp, #83]	@ 0x53
 800979c:	f89a 3000 	ldrb.w	r3, [sl]
 80097a0:	2b2a      	cmp	r3, #42	@ 0x2a
 80097a2:	d015      	beq.n	80097d0 <_vfiprintf_r+0x120>
 80097a4:	4654      	mov	r4, sl
 80097a6:	2000      	movs	r0, #0
 80097a8:	f04f 0c0a 	mov.w	ip, #10
 80097ac:	9a07      	ldr	r2, [sp, #28]
 80097ae:	4621      	mov	r1, r4
 80097b0:	f811 3b01 	ldrb.w	r3, [r1], #1
 80097b4:	3b30      	subs	r3, #48	@ 0x30
 80097b6:	2b09      	cmp	r3, #9
 80097b8:	d94b      	bls.n	8009852 <_vfiprintf_r+0x1a2>
 80097ba:	b1b0      	cbz	r0, 80097ea <_vfiprintf_r+0x13a>
 80097bc:	9207      	str	r2, [sp, #28]
 80097be:	e014      	b.n	80097ea <_vfiprintf_r+0x13a>
 80097c0:	eba0 0308 	sub.w	r3, r0, r8
 80097c4:	fa09 f303 	lsl.w	r3, r9, r3
 80097c8:	4313      	orrs	r3, r2
 80097ca:	46a2      	mov	sl, r4
 80097cc:	9304      	str	r3, [sp, #16]
 80097ce:	e7d2      	b.n	8009776 <_vfiprintf_r+0xc6>
 80097d0:	9b03      	ldr	r3, [sp, #12]
 80097d2:	1d19      	adds	r1, r3, #4
 80097d4:	681b      	ldr	r3, [r3, #0]
 80097d6:	9103      	str	r1, [sp, #12]
 80097d8:	2b00      	cmp	r3, #0
 80097da:	bfbb      	ittet	lt
 80097dc:	425b      	neglt	r3, r3
 80097de:	f042 0202 	orrlt.w	r2, r2, #2
 80097e2:	9307      	strge	r3, [sp, #28]
 80097e4:	9307      	strlt	r3, [sp, #28]
 80097e6:	bfb8      	it	lt
 80097e8:	9204      	strlt	r2, [sp, #16]
 80097ea:	7823      	ldrb	r3, [r4, #0]
 80097ec:	2b2e      	cmp	r3, #46	@ 0x2e
 80097ee:	d10a      	bne.n	8009806 <_vfiprintf_r+0x156>
 80097f0:	7863      	ldrb	r3, [r4, #1]
 80097f2:	2b2a      	cmp	r3, #42	@ 0x2a
 80097f4:	d132      	bne.n	800985c <_vfiprintf_r+0x1ac>
 80097f6:	9b03      	ldr	r3, [sp, #12]
 80097f8:	3402      	adds	r4, #2
 80097fa:	1d1a      	adds	r2, r3, #4
 80097fc:	681b      	ldr	r3, [r3, #0]
 80097fe:	9203      	str	r2, [sp, #12]
 8009800:	ea43 73e3 	orr.w	r3, r3, r3, asr #31
 8009804:	9305      	str	r3, [sp, #20]
 8009806:	f8df a0c8 	ldr.w	sl, [pc, #200]	@ 80098d0 <_vfiprintf_r+0x220>
 800980a:	2203      	movs	r2, #3
 800980c:	4650      	mov	r0, sl
 800980e:	7821      	ldrb	r1, [r4, #0]
 8009810:	f7fe f977 	bl	8007b02 <memchr>
 8009814:	b138      	cbz	r0, 8009826 <_vfiprintf_r+0x176>
 8009816:	2240      	movs	r2, #64	@ 0x40
 8009818:	9b04      	ldr	r3, [sp, #16]
 800981a:	eba0 000a 	sub.w	r0, r0, sl
 800981e:	4082      	lsls	r2, r0
 8009820:	4313      	orrs	r3, r2
 8009822:	3401      	adds	r4, #1
 8009824:	9304      	str	r3, [sp, #16]
 8009826:	f814 1b01 	ldrb.w	r1, [r4], #1
 800982a:	2206      	movs	r2, #6
 800982c:	4829      	ldr	r0, [pc, #164]	@ (80098d4 <_vfiprintf_r+0x224>)
 800982e:	f88d 1028 	strb.w	r1, [sp, #40]	@ 0x28
 8009832:	f7fe f966 	bl	8007b02 <memchr>
 8009836:	2800      	cmp	r0, #0
 8009838:	d03f      	beq.n	80098ba <_vfiprintf_r+0x20a>
 800983a:	4b27      	ldr	r3, [pc, #156]	@ (80098d8 <_vfiprintf_r+0x228>)
 800983c:	bb1b      	cbnz	r3, 8009886 <_vfiprintf_r+0x1d6>
 800983e:	9b03      	ldr	r3, [sp, #12]
 8009840:	3307      	adds	r3, #7
 8009842:	f023 0307 	bic.w	r3, r3, #7
 8009846:	3308      	adds	r3, #8
 8009848:	9303      	str	r3, [sp, #12]
 800984a:	9b09      	ldr	r3, [sp, #36]	@ 0x24
 800984c:	443b      	add	r3, r7
 800984e:	9309      	str	r3, [sp, #36]	@ 0x24
 8009850:	e76a      	b.n	8009728 <_vfiprintf_r+0x78>
 8009852:	460c      	mov	r4, r1
 8009854:	2001      	movs	r0, #1
 8009856:	fb0c 3202 	mla	r2, ip, r2, r3
 800985a:	e7a8      	b.n	80097ae <_vfiprintf_r+0xfe>
 800985c:	2300      	movs	r3, #0
 800985e:	f04f 0c0a 	mov.w	ip, #10
 8009862:	4619      	mov	r1, r3
 8009864:	3401      	adds	r4, #1
 8009866:	9305      	str	r3, [sp, #20]
 8009868:	4620      	mov	r0, r4
 800986a:	f810 2b01 	ldrb.w	r2, [r0], #1
 800986e:	3a30      	subs	r2, #48	@ 0x30
 8009870:	2a09      	cmp	r2, #9
 8009872:	d903      	bls.n	800987c <_vfiprintf_r+0x1cc>
 8009874:	2b00      	cmp	r3, #0
 8009876:	d0c6      	beq.n	8009806 <_vfiprintf_r+0x156>
 8009878:	9105      	str	r1, [sp, #20]
 800987a:	e7c4      	b.n	8009806 <_vfiprintf_r+0x156>
 800987c:	4604      	mov	r4, r0
 800987e:	2301      	movs	r3, #1
 8009880:	fb0c 2101 	mla	r1, ip, r1, r2
 8009884:	e7f0      	b.n	8009868 <_vfiprintf_r+0x1b8>
 8009886:	ab03      	add	r3, sp, #12
 8009888:	9300      	str	r3, [sp, #0]
 800988a:	462a      	mov	r2, r5
 800988c:	4630      	mov	r0, r6
 800988e:	4b13      	ldr	r3, [pc, #76]	@ (80098dc <_vfiprintf_r+0x22c>)
 8009890:	a904      	add	r1, sp, #16
 8009892:	f7fd fbd3 	bl	800703c <_printf_float>
 8009896:	4607      	mov	r7, r0
 8009898:	1c78      	adds	r0, r7, #1
 800989a:	d1d6      	bne.n	800984a <_vfiprintf_r+0x19a>
 800989c:	6e6b      	ldr	r3, [r5, #100]	@ 0x64
 800989e:	07d9      	lsls	r1, r3, #31
 80098a0:	d405      	bmi.n	80098ae <_vfiprintf_r+0x1fe>
 80098a2:	89ab      	ldrh	r3, [r5, #12]
 80098a4:	059a      	lsls	r2, r3, #22
 80098a6:	d402      	bmi.n	80098ae <_vfiprintf_r+0x1fe>
 80098a8:	6da8      	ldr	r0, [r5, #88]	@ 0x58
 80098aa:	f7fe f929 	bl	8007b00 <__retarget_lock_release_recursive>
 80098ae:	89ab      	ldrh	r3, [r5, #12]
 80098b0:	065b      	lsls	r3, r3, #25
 80098b2:	f53f af1f 	bmi.w	80096f4 <_vfiprintf_r+0x44>
 80098b6:	9809      	ldr	r0, [sp, #36]	@ 0x24
 80098b8:	e71e      	b.n	80096f8 <_vfiprintf_r+0x48>
 80098ba:	ab03      	add	r3, sp, #12
 80098bc:	9300      	str	r3, [sp, #0]
 80098be:	462a      	mov	r2, r5
 80098c0:	4630      	mov	r0, r6
 80098c2:	4b06      	ldr	r3, [pc, #24]	@ (80098dc <_vfiprintf_r+0x22c>)
 80098c4:	a904      	add	r1, sp, #16
 80098c6:	f7fd fe57 	bl	8007578 <_printf_i>
 80098ca:	e7e4      	b.n	8009896 <_vfiprintf_r+0x1e6>
 80098cc:	0800bc10 	.word	0x0800bc10
 80098d0:	0800bc16 	.word	0x0800bc16
 80098d4:	0800bc1a 	.word	0x0800bc1a
 80098d8:	0800703d 	.word	0x0800703d
 80098dc:	0800968b 	.word	0x0800968b

080098e0 <__swbuf_r>:
 80098e0:	b5f8      	push	{r3, r4, r5, r6, r7, lr}
 80098e2:	460e      	mov	r6, r1
 80098e4:	4614      	mov	r4, r2
 80098e6:	4605      	mov	r5, r0
 80098e8:	b118      	cbz	r0, 80098f2 <__swbuf_r+0x12>
 80098ea:	6a03      	ldr	r3, [r0, #32]
 80098ec:	b90b      	cbnz	r3, 80098f2 <__swbuf_r+0x12>
 80098ee:	f7fd ffef 	bl	80078d0 <__sinit>
 80098f2:	69a3      	ldr	r3, [r4, #24]
 80098f4:	60a3      	str	r3, [r4, #8]
 80098f6:	89a3      	ldrh	r3, [r4, #12]
 80098f8:	071a      	lsls	r2, r3, #28
 80098fa:	d501      	bpl.n	8009900 <__swbuf_r+0x20>
 80098fc:	6923      	ldr	r3, [r4, #16]
 80098fe:	b943      	cbnz	r3, 8009912 <__swbuf_r+0x32>
 8009900:	4621      	mov	r1, r4
 8009902:	4628      	mov	r0, r5
 8009904:	f000 f82a 	bl	800995c <__swsetup_r>
 8009908:	b118      	cbz	r0, 8009912 <__swbuf_r+0x32>
 800990a:	f04f 37ff 	mov.w	r7, #4294967295
 800990e:	4638      	mov	r0, r7
 8009910:	bdf8      	pop	{r3, r4, r5, r6, r7, pc}
 8009912:	6823      	ldr	r3, [r4, #0]
 8009914:	6922      	ldr	r2, [r4, #16]
 8009916:	b2f6      	uxtb	r6, r6
 8009918:	1a98      	subs	r0, r3, r2
 800991a:	6963      	ldr	r3, [r4, #20]
 800991c:	4637      	mov	r7, r6
 800991e:	4283      	cmp	r3, r0
 8009920:	dc05      	bgt.n	800992e <__swbuf_r+0x4e>
 8009922:	4621      	mov	r1, r4
 8009924:	4628      	mov	r0, r5
 8009926:	f7ff fdc1 	bl	80094ac <_fflush_r>
 800992a:	2800      	cmp	r0, #0
 800992c:	d1ed      	bne.n	800990a <__swbuf_r+0x2a>
 800992e:	68a3      	ldr	r3, [r4, #8]
 8009930:	3b01      	subs	r3, #1
 8009932:	60a3      	str	r3, [r4, #8]
 8009934:	6823      	ldr	r3, [r4, #0]
 8009936:	1c5a      	adds	r2, r3, #1
 8009938:	6022      	str	r2, [r4, #0]
 800993a:	701e      	strb	r6, [r3, #0]
 800993c:	6962      	ldr	r2, [r4, #20]
 800993e:	1c43      	adds	r3, r0, #1
 8009940:	429a      	cmp	r2, r3
 8009942:	d004      	beq.n	800994e <__swbuf_r+0x6e>
 8009944:	89a3      	ldrh	r3, [r4, #12]
 8009946:	07db      	lsls	r3, r3, #31
 8009948:	d5e1      	bpl.n	800990e <__swbuf_r+0x2e>
 800994a:	2e0a      	cmp	r6, #10
 800994c:	d1df      	bne.n	800990e <__swbuf_r+0x2e>
 800994e:	4621      	mov	r1, r4
 8009950:	4628      	mov	r0, r5
 8009952:	f7ff fdab 	bl	80094ac <_fflush_r>
 8009956:	2800      	cmp	r0, #0
 8009958:	d0d9      	beq.n	800990e <__swbuf_r+0x2e>
 800995a:	e7d6      	b.n	800990a <__swbuf_r+0x2a>

0800995c <__swsetup_r>:
 800995c:	b538      	push	{r3, r4, r5, lr}
 800995e:	4b29      	ldr	r3, [pc, #164]	@ (8009a04 <__swsetup_r+0xa8>)
 8009960:	4605      	mov	r5, r0
 8009962:	6818      	ldr	r0, [r3, #0]
 8009964:	460c      	mov	r4, r1
 8009966:	b118      	cbz	r0, 8009970 <__swsetup_r+0x14>
 8009968:	6a03      	ldr	r3, [r0, #32]
 800996a:	b90b      	cbnz	r3, 8009970 <__swsetup_r+0x14>
 800996c:	f7fd ffb0 	bl	80078d0 <__sinit>
 8009970:	f9b4 300c 	ldrsh.w	r3, [r4, #12]
 8009974:	0719      	lsls	r1, r3, #28
 8009976:	d422      	bmi.n	80099be <__swsetup_r+0x62>
 8009978:	06da      	lsls	r2, r3, #27
 800997a:	d407      	bmi.n	800998c <__swsetup_r+0x30>
 800997c:	2209      	movs	r2, #9
 800997e:	602a      	str	r2, [r5, #0]
 8009980:	f043 0340 	orr.w	r3, r3, #64	@ 0x40
 8009984:	f04f 30ff 	mov.w	r0, #4294967295
 8009988:	81a3      	strh	r3, [r4, #12]
 800998a:	e033      	b.n	80099f4 <__swsetup_r+0x98>
 800998c:	0758      	lsls	r0, r3, #29
 800998e:	d512      	bpl.n	80099b6 <__swsetup_r+0x5a>
 8009990:	6b61      	ldr	r1, [r4, #52]	@ 0x34
 8009992:	b141      	cbz	r1, 80099a6 <__swsetup_r+0x4a>
 8009994:	f104 0344 	add.w	r3, r4, #68	@ 0x44
 8009998:	4299      	cmp	r1, r3
 800999a:	d002      	beq.n	80099a2 <__swsetup_r+0x46>
 800999c:	4628      	mov	r0, r5
 800999e:	f7fe ff2f 	bl	8008800 <_free_r>
 80099a2:	2300      	movs	r3, #0
 80099a4:	6363      	str	r3, [r4, #52]	@ 0x34
 80099a6:	89a3      	ldrh	r3, [r4, #12]
 80099a8:	f023 0324 	bic.w	r3, r3, #36	@ 0x24
 80099ac:	81a3      	strh	r3, [r4, #12]
 80099ae:	2300      	movs	r3, #0
 80099b0:	6063      	str	r3, [r4, #4]
 80099b2:	6923      	ldr	r3, [r4, #16]
 80099b4:	6023      	str	r3, [r4, #0]
 80099b6:	89a3      	ldrh	r3, [r4, #12]
 80099b8:	f043 0308 	orr.w	r3, r3, #8
 80099bc:	81a3      	strh	r3, [r4, #12]
 80099be:	6923      	ldr	r3, [r4, #16]
 80099c0:	b94b      	cbnz	r3, 80099d6 <__swsetup_r+0x7a>
 80099c2:	89a3      	ldrh	r3, [r4, #12]
 80099c4:	f403 7320 	and.w	r3, r3, #640	@ 0x280
 80099c8:	f5b3 7f00 	cmp.w	r3, #512	@ 0x200
 80099cc:	d003      	beq.n	80099d6 <__swsetup_r+0x7a>
 80099ce:	4621      	mov	r1, r4
 80099d0:	4628      	mov	r0, r5
 80099d2:	f000 f88a 	bl	8009aea <__smakebuf_r>
 80099d6:	f9b4 300c 	ldrsh.w	r3, [r4, #12]
 80099da:	f013 0201 	ands.w	r2, r3, #1
 80099de:	d00a      	beq.n	80099f6 <__swsetup_r+0x9a>
 80099e0:	2200      	movs	r2, #0
 80099e2:	60a2      	str	r2, [r4, #8]
 80099e4:	6962      	ldr	r2, [r4, #20]
 80099e6:	4252      	negs	r2, r2
 80099e8:	61a2      	str	r2, [r4, #24]
 80099ea:	6922      	ldr	r2, [r4, #16]
 80099ec:	b942      	cbnz	r2, 8009a00 <__swsetup_r+0xa4>
 80099ee:	f013 0080 	ands.w	r0, r3, #128	@ 0x80
 80099f2:	d1c5      	bne.n	8009980 <__swsetup_r+0x24>
 80099f4:	bd38      	pop	{r3, r4, r5, pc}
 80099f6:	0799      	lsls	r1, r3, #30
 80099f8:	bf58      	it	pl
 80099fa:	6962      	ldrpl	r2, [r4, #20]
 80099fc:	60a2      	str	r2, [r4, #8]
 80099fe:	e7f4      	b.n	80099ea <__swsetup_r+0x8e>
 8009a00:	2000      	movs	r0, #0
 8009a02:	e7f7      	b.n	80099f4 <__swsetup_r+0x98>
 8009a04:	20000074 	.word	0x20000074

08009a08 <_raise_r>:
 8009a08:	291f      	cmp	r1, #31
 8009a0a:	b538      	push	{r3, r4, r5, lr}
 8009a0c:	4605      	mov	r5, r0
 8009a0e:	460c      	mov	r4, r1
 8009a10:	d904      	bls.n	8009a1c <_raise_r+0x14>
 8009a12:	2316      	movs	r3, #22
 8009a14:	6003      	str	r3, [r0, #0]
 8009a16:	f04f 30ff 	mov.w	r0, #4294967295
 8009a1a:	bd38      	pop	{r3, r4, r5, pc}
 8009a1c:	6bc2      	ldr	r2, [r0, #60]	@ 0x3c
 8009a1e:	b112      	cbz	r2, 8009a26 <_raise_r+0x1e>
 8009a20:	f852 3021 	ldr.w	r3, [r2, r1, lsl #2]
 8009a24:	b94b      	cbnz	r3, 8009a3a <_raise_r+0x32>
 8009a26:	4628      	mov	r0, r5
 8009a28:	f000 f830 	bl	8009a8c <_getpid_r>
 8009a2c:	4622      	mov	r2, r4
 8009a2e:	4601      	mov	r1, r0
 8009a30:	4628      	mov	r0, r5
 8009a32:	e8bd 4038 	ldmia.w	sp!, {r3, r4, r5, lr}
 8009a36:	f000 b817 	b.w	8009a68 <_kill_r>
 8009a3a:	2b01      	cmp	r3, #1
 8009a3c:	d00a      	beq.n	8009a54 <_raise_r+0x4c>
 8009a3e:	1c59      	adds	r1, r3, #1
 8009a40:	d103      	bne.n	8009a4a <_raise_r+0x42>
 8009a42:	2316      	movs	r3, #22
 8009a44:	6003      	str	r3, [r0, #0]
 8009a46:	2001      	movs	r0, #1
 8009a48:	e7e7      	b.n	8009a1a <_raise_r+0x12>
 8009a4a:	2100      	movs	r1, #0
 8009a4c:	4620      	mov	r0, r4
 8009a4e:	f842 1024 	str.w	r1, [r2, r4, lsl #2]
 8009a52:	4798      	blx	r3
 8009a54:	2000      	movs	r0, #0
 8009a56:	e7e0      	b.n	8009a1a <_raise_r+0x12>

08009a58 <raise>:
 8009a58:	4b02      	ldr	r3, [pc, #8]	@ (8009a64 <raise+0xc>)
 8009a5a:	4601      	mov	r1, r0
 8009a5c:	6818      	ldr	r0, [r3, #0]
 8009a5e:	f7ff bfd3 	b.w	8009a08 <_raise_r>
 8009a62:	bf00      	nop
 8009a64:	20000074 	.word	0x20000074

08009a68 <_kill_r>:
 8009a68:	b538      	push	{r3, r4, r5, lr}
 8009a6a:	2300      	movs	r3, #0
 8009a6c:	4d06      	ldr	r5, [pc, #24]	@ (8009a88 <_kill_r+0x20>)
 8009a6e:	4604      	mov	r4, r0
 8009a70:	4608      	mov	r0, r1
 8009a72:	4611      	mov	r1, r2
 8009a74:	602b      	str	r3, [r5, #0]
 8009a76:	f7f9 fc87 	bl	8003388 <_kill>
 8009a7a:	1c43      	adds	r3, r0, #1
 8009a7c:	d102      	bne.n	8009a84 <_kill_r+0x1c>
 8009a7e:	682b      	ldr	r3, [r5, #0]
 8009a80:	b103      	cbz	r3, 8009a84 <_kill_r+0x1c>
 8009a82:	6023      	str	r3, [r4, #0]
 8009a84:	bd38      	pop	{r3, r4, r5, pc}
 8009a86:	bf00      	nop
 8009a88:	20000d08 	.word	0x20000d08

08009a8c <_getpid_r>:
 8009a8c:	f7f9 bc7a 	b.w	8003384 <_getpid>

08009a90 <_malloc_usable_size_r>:
 8009a90:	f851 3c04 	ldr.w	r3, [r1, #-4]
 8009a94:	1f18      	subs	r0, r3, #4
 8009a96:	2b00      	cmp	r3, #0
 8009a98:	bfbc      	itt	lt
 8009a9a:	580b      	ldrlt	r3, [r1, r0]
 8009a9c:	18c0      	addlt	r0, r0, r3
 8009a9e:	4770      	bx	lr

08009aa0 <__swhatbuf_r>:
 8009aa0:	b570      	push	{r4, r5, r6, lr}
 8009aa2:	460c      	mov	r4, r1
 8009aa4:	f9b1 100e 	ldrsh.w	r1, [r1, #14]
 8009aa8:	4615      	mov	r5, r2
 8009aaa:	2900      	cmp	r1, #0
 8009aac:	461e      	mov	r6, r3
 8009aae:	b096      	sub	sp, #88	@ 0x58
 8009ab0:	da0c      	bge.n	8009acc <__swhatbuf_r+0x2c>
 8009ab2:	89a3      	ldrh	r3, [r4, #12]
 8009ab4:	2100      	movs	r1, #0
 8009ab6:	f013 0f80 	tst.w	r3, #128	@ 0x80
 8009aba:	bf14      	ite	ne
 8009abc:	2340      	movne	r3, #64	@ 0x40
 8009abe:	f44f 6380 	moveq.w	r3, #1024	@ 0x400
 8009ac2:	2000      	movs	r0, #0
 8009ac4:	6031      	str	r1, [r6, #0]
 8009ac6:	602b      	str	r3, [r5, #0]
 8009ac8:	b016      	add	sp, #88	@ 0x58
 8009aca:	bd70      	pop	{r4, r5, r6, pc}
 8009acc:	466a      	mov	r2, sp
 8009ace:	f000 f849 	bl	8009b64 <_fstat_r>
 8009ad2:	2800      	cmp	r0, #0
 8009ad4:	dbed      	blt.n	8009ab2 <__swhatbuf_r+0x12>
 8009ad6:	9901      	ldr	r1, [sp, #4]
 8009ad8:	f401 4170 	and.w	r1, r1, #61440	@ 0xf000
 8009adc:	f5a1 5300 	sub.w	r3, r1, #8192	@ 0x2000
 8009ae0:	4259      	negs	r1, r3
 8009ae2:	4159      	adcs	r1, r3
 8009ae4:	f44f 6380 	mov.w	r3, #1024	@ 0x400
 8009ae8:	e7eb      	b.n	8009ac2 <__swhatbuf_r+0x22>

08009aea <__smakebuf_r>:
 8009aea:	898b      	ldrh	r3, [r1, #12]
 8009aec:	b5f7      	push	{r0, r1, r2, r4, r5, r6, r7, lr}
 8009aee:	079d      	lsls	r5, r3, #30
 8009af0:	4606      	mov	r6, r0
 8009af2:	460c      	mov	r4, r1
 8009af4:	d507      	bpl.n	8009b06 <__smakebuf_r+0x1c>
 8009af6:	f104 0347 	add.w	r3, r4, #71	@ 0x47
 8009afa:	6023      	str	r3, [r4, #0]
 8009afc:	6123      	str	r3, [r4, #16]
 8009afe:	2301      	movs	r3, #1
 8009b00:	6163      	str	r3, [r4, #20]
 8009b02:	b003      	add	sp, #12
 8009b04:	bdf0      	pop	{r4, r5, r6, r7, pc}
 8009b06:	466a      	mov	r2, sp
 8009b08:	ab01      	add	r3, sp, #4
 8009b0a:	f7ff ffc9 	bl	8009aa0 <__swhatbuf_r>
 8009b0e:	9f00      	ldr	r7, [sp, #0]
 8009b10:	4605      	mov	r5, r0
 8009b12:	4639      	mov	r1, r7
 8009b14:	4630      	mov	r0, r6
 8009b16:	f7fe fee5 	bl	80088e4 <_malloc_r>
 8009b1a:	b948      	cbnz	r0, 8009b30 <__smakebuf_r+0x46>
 8009b1c:	f9b4 300c 	ldrsh.w	r3, [r4, #12]
 8009b20:	059a      	lsls	r2, r3, #22
 8009b22:	d4ee      	bmi.n	8009b02 <__smakebuf_r+0x18>
 8009b24:	f023 0303 	bic.w	r3, r3, #3
 8009b28:	f043 0302 	orr.w	r3, r3, #2
 8009b2c:	81a3      	strh	r3, [r4, #12]
 8009b2e:	e7e2      	b.n	8009af6 <__smakebuf_r+0xc>
 8009b30:	89a3      	ldrh	r3, [r4, #12]
 8009b32:	e9c4 0704 	strd	r0, r7, [r4, #16]
 8009b36:	f043 0380 	orr.w	r3, r3, #128	@ 0x80
 8009b3a:	81a3      	strh	r3, [r4, #12]
 8009b3c:	9b01      	ldr	r3, [sp, #4]
 8009b3e:	6020      	str	r0, [r4, #0]
 8009b40:	b15b      	cbz	r3, 8009b5a <__smakebuf_r+0x70>
 8009b42:	4630      	mov	r0, r6
 8009b44:	f9b4 100e 	ldrsh.w	r1, [r4, #14]
 8009b48:	f000 f81e 	bl	8009b88 <_isatty_r>
 8009b4c:	b128      	cbz	r0, 8009b5a <__smakebuf_r+0x70>
 8009b4e:	89a3      	ldrh	r3, [r4, #12]
 8009b50:	f023 0303 	bic.w	r3, r3, #3
 8009b54:	f043 0301 	orr.w	r3, r3, #1
 8009b58:	81a3      	strh	r3, [r4, #12]
 8009b5a:	89a3      	ldrh	r3, [r4, #12]
 8009b5c:	431d      	orrs	r5, r3
 8009b5e:	81a5      	strh	r5, [r4, #12]
 8009b60:	e7cf      	b.n	8009b02 <__smakebuf_r+0x18>
	...

08009b64 <_fstat_r>:
 8009b64:	b538      	push	{r3, r4, r5, lr}
 8009b66:	2300      	movs	r3, #0
 8009b68:	4d06      	ldr	r5, [pc, #24]	@ (8009b84 <_fstat_r+0x20>)
 8009b6a:	4604      	mov	r4, r0
 8009b6c:	4608      	mov	r0, r1
 8009b6e:	4611      	mov	r1, r2
 8009b70:	602b      	str	r3, [r5, #0]
 8009b72:	f7f9 fc2b 	bl	80033cc <_fstat>
 8009b76:	1c43      	adds	r3, r0, #1
 8009b78:	d102      	bne.n	8009b80 <_fstat_r+0x1c>
 8009b7a:	682b      	ldr	r3, [r5, #0]
 8009b7c:	b103      	cbz	r3, 8009b80 <_fstat_r+0x1c>
 8009b7e:	6023      	str	r3, [r4, #0]
 8009b80:	bd38      	pop	{r3, r4, r5, pc}
 8009b82:	bf00      	nop
 8009b84:	20000d08 	.word	0x20000d08

08009b88 <_isatty_r>:
 8009b88:	b538      	push	{r3, r4, r5, lr}
 8009b8a:	2300      	movs	r3, #0
 8009b8c:	4d05      	ldr	r5, [pc, #20]	@ (8009ba4 <_isatty_r+0x1c>)
 8009b8e:	4604      	mov	r4, r0
 8009b90:	4608      	mov	r0, r1
 8009b92:	602b      	str	r3, [r5, #0]
 8009b94:	f7f9 fc20 	bl	80033d8 <_isatty>
 8009b98:	1c43      	adds	r3, r0, #1
 8009b9a:	d102      	bne.n	8009ba2 <_isatty_r+0x1a>
 8009b9c:	682b      	ldr	r3, [r5, #0]
 8009b9e:	b103      	cbz	r3, 8009ba2 <_isatty_r+0x1a>
 8009ba0:	6023      	str	r3, [r4, #0]
 8009ba2:	bd38      	pop	{r3, r4, r5, pc}
 8009ba4:	20000d08 	.word	0x20000d08

08009ba8 <_init>:
 8009ba8:	b5f8      	push	{r3, r4, r5, r6, r7, lr}
 8009baa:	bf00      	nop
 8009bac:	bcf8      	pop	{r3, r4, r5, r6, r7}
 8009bae:	bc08      	pop	{r3}
 8009bb0:	469e      	mov	lr, r3
 8009bb2:	4770      	bx	lr

08009bb4 <_fini>:
 8009bb4:	b5f8      	push	{r3, r4, r5, r6, r7, lr}
 8009bb6:	bf00      	nop
 8009bb8:	bcf8      	pop	{r3, r4, r5, r6, r7}
 8009bba:	bc08      	pop	{r3}
 8009bbc:	469e      	mov	lr, r3
 8009bbe:	4770      	bx	lr
