
GameBox.elf:     file format elf32-littlearm

Sections:
Idx Name          Size      VMA       LMA       File off  Algn
  0 .isr_vector   0000010c  08000000  08000000  00010000  2**0
                  CONTENTS, ALLOC, LOAD, READONLY, DATA
  1 .text         00006878  0800010c  0800010c  0001010c  2**2
                  CONTENTS, ALLOC, LOAD, READONLY, CODE
  2 .rodata       00001e28  08006984  08006984  00016984  2**2
                  CONTENTS, ALLOC, LOAD, READONLY, DATA
  3 .ARM.extab    00000000  080087ac  080087ac  000200b4  2**0
                  CONTENTS
  4 .ARM          00000000  080087ac  080087ac  000200b4  2**0
                  CONTENTS
  5 .preinit_array 00000000  080087ac  080087ac  000200b4  2**0
                  CONTENTS, ALLOC, LOAD, DATA
  6 .init_array   00000004  080087ac  080087ac  000187ac  2**2
                  CONTENTS, ALLOC, LOAD, DATA
  7 .fini_array   00000004  080087b0  080087b0  000187b0  2**2
                  CONTENTS, ALLOC, LOAD, DATA
  8 .data         000000b4  20000000  080087b4  00020000  2**2
                  CONTENTS, ALLOC, LOAD, DATA
  9 .bss          00000944  200000b4  08008868  000200b4  2**2
                  ALLOC
 10 ._user_heap_stack 00000600  200009f8  08008868  000209f8  2**0
                  ALLOC
 11 .ARM.attributes 00000029  00000000  00000000  000200b4  2**0
                  CONTENTS, READONLY
 12 .debug_info   0001a648  00000000  00000000  000200dd  2**0
                  CONTENTS, READONLY, DEBUGGING, OCTETS
 13 .debug_abbrev 00003f9f  00000000  00000000  0003a725  2**0
                  CONTENTS, READONLY, DEBUGGING, OCTETS
 14 .debug_loc    0000cd43  00000000  00000000  0003e6c4  2**0
                  CONTENTS, READONLY, DEBUGGING, OCTETS
 15 .debug_aranges 00001090  00000000  00000000  0004b408  2**3
                  CONTENTS, READONLY, DEBUGGING, OCTETS
 16 .debug_ranges 00001d30  00000000  00000000  0004c498  2**3
                  CONTENTS, READONLY, DEBUGGING, OCTETS
 17 .debug_macro  0001a642  00000000  00000000  0004e1c8  2**0
                  CONTENTS, READONLY, DEBUGGING, OCTETS
 18 .debug_line   00019dfe  00000000  00000000  0006880a  2**0
                  CONTENTS, READONLY, DEBUGGING, OCTETS
 19 .debug_str    000945e8  00000000  00000000  00082608  2**0
                  CONTENTS, READONLY, DEBUGGING, OCTETS
 20 .comment      00000050  00000000  00000000  00116bf0  2**0
                  CONTENTS, READONLY
 21 .debug_frame  00003b20  00000000  00000000  00116c40  2**2
                  CONTENTS, READONLY, DEBUGGING, OCTETS

Disassembly of section .text:

0800010c <__do_global_dtors_aux>:
 800010c:	b510      	push	{r4, lr}
 800010e:	4c05      	ldr	r4, [pc, #20]	; (8000124 <__do_global_dtors_aux+0x18>)
 8000110:	7823      	ldrb	r3, [r4, #0]
 8000112:	b933      	cbnz	r3, 8000122 <__do_global_dtors_aux+0x16>
 8000114:	4b04      	ldr	r3, [pc, #16]	; (8000128 <__do_global_dtors_aux+0x1c>)
 8000116:	b113      	cbz	r3, 800011e <__do_global_dtors_aux+0x12>
 8000118:	4804      	ldr	r0, [pc, #16]	; (800012c <__do_global_dtors_aux+0x20>)
 800011a:	f3af 8000 	nop.w
 800011e:	2301      	movs	r3, #1
 8000120:	7023      	strb	r3, [r4, #0]
 8000122:	bd10      	pop	{r4, pc}
 8000124:	200000b4 	.word	0x200000b4
 8000128:	00000000 	.word	0x00000000
 800012c:	0800696c 	.word	0x0800696c

08000130 <frame_dummy>:
 8000130:	b508      	push	{r3, lr}
 8000132:	4b03      	ldr	r3, [pc, #12]	; (8000140 <frame_dummy+0x10>)
 8000134:	b11b      	cbz	r3, 800013e <frame_dummy+0xe>
 8000136:	4903      	ldr	r1, [pc, #12]	; (8000144 <frame_dummy+0x14>)
 8000138:	4803      	ldr	r0, [pc, #12]	; (8000148 <frame_dummy+0x18>)
 800013a:	f3af 8000 	nop.w
 800013e:	bd08      	pop	{r3, pc}
 8000140:	00000000 	.word	0x00000000
 8000144:	200000b8 	.word	0x200000b8
 8000148:	0800696c 	.word	0x0800696c

0800014c <randinit>:
  return val;
}

void randinit(void)
{
  srand((uint8)timestamp);
 800014c:	4b01      	ldr	r3, [pc, #4]	; (8000154 <randinit+0x8>)
 800014e:	7818      	ldrb	r0, [r3, #0]
 8000150:	f005 bba0 	b.w	8005894 <srand>
 8000154:	20000148 	.word	0x20000148

08000158 <getrand>:
}

uint8 getrand(uint8 N)
{
 8000158:	b510      	push	{r4, lr}
 800015a:	4604      	mov	r4, r0
  return (rand() % (N + 1));
 800015c:	f005 fbc8 	bl	80058f0 <rand>
 8000160:	1c63      	adds	r3, r4, #1
 8000162:	fb90 f2f3 	sdiv	r2, r0, r3
 8000166:	fb02 0013 	mls	r0, r2, r3, r0
}
 800016a:	b2c0      	uxtb	r0, r0
 800016c:	bd10      	pop	{r4, pc}

0800016e <dig_to_smb>:

uint8 dig_to_smb(uint8 dig)
{
  switch (dig)
 800016e:	2809      	cmp	r0, #9
 8000170:	bf9a      	itte	ls
 8000172:	3030      	addls	r0, #48	; 0x30
 8000174:	b2c0      	uxtbls	r0, r0
{
 8000176:	2000      	movhi	r0, #0
    case 7: return '7'; 
    case 8: return '8';
    case 9: return '9';
  }
  return 0;
}
 8000178:	4770      	bx	lr

0800017a <u16_to_str>:

void u16_to_str(uint8* str, uint16 num, uint8 N)
{ 
 800017a:	b530      	push	{r4, r5, lr}
  //sprintf((char*)str, "%u", num);
  
  str[0] = dig_to_smb((uint8)(num/10000));
 800017c:	f242 7410 	movw	r4, #10000	; 0x2710
 8000180:	fbb1 f3f4 	udiv	r3, r1, r4
 8000184:	b2db      	uxtb	r3, r3
  switch (dig)
 8000186:	2b09      	cmp	r3, #9
  str[0] = dig_to_smb((uint8)(num/10000));
 8000188:	bf8e      	itee	hi
 800018a:	2300      	movhi	r3, #0
 800018c:	3330      	addls	r3, #48	; 0x30
 800018e:	b2db      	uxtbls	r3, r3
 8000190:	7003      	strb	r3, [r0, #0]
  num %= 10000;
 8000192:	fbb1 f3f4 	udiv	r3, r1, r4
 8000196:	fb04 1113 	mls	r1, r4, r3, r1
  str[1] = dig_to_smb((uint8)(num/1000));
 800019a:	f44f 747a 	mov.w	r4, #1000	; 0x3e8
 800019e:	fbb1 f3f4 	udiv	r3, r1, r4
  num %= 1000;
 80001a2:	fb04 1113 	mls	r1, r4, r3, r1
  str[2] = dig_to_smb((uint8)(num/100));
 80001a6:	2464      	movs	r4, #100	; 0x64
  str[1] = dig_to_smb((uint8)(num/1000));
 80001a8:	f103 0530 	add.w	r5, r3, #48	; 0x30
  str[2] = dig_to_smb((uint8)(num/100));
 80001ac:	fbb1 f3f4 	udiv	r3, r1, r4
  num %= 100;
 80001b0:	fb04 1113 	mls	r1, r4, r3, r1
  str[3] = dig_to_smb((uint8)(num/10));
 80001b4:	240a      	movs	r4, #10
  str[1] = dig_to_smb((uint8)(num/1000));
 80001b6:	7045      	strb	r5, [r0, #1]
  str[2] = dig_to_smb((uint8)(num/100));
 80001b8:	f103 0530 	add.w	r5, r3, #48	; 0x30
  str[3] = dig_to_smb((uint8)(num/10));
 80001bc:	fbb1 f3f4 	udiv	r3, r1, r4
  str[2] = dig_to_smb((uint8)(num/100));
 80001c0:	7085      	strb	r5, [r0, #2]
  str[4] = dig_to_smb((uint8)(num%10));
 80001c2:	fb04 1113 	mls	r1, r4, r3, r1
  str[3] = dig_to_smb((uint8)(num/10));
 80001c6:	f103 0530 	add.w	r5, r3, #48	; 0x30
  str[5] = '\0';
 80001ca:	2300      	movs	r3, #0
  str[4] = dig_to_smb((uint8)(num%10));
 80001cc:	3130      	adds	r1, #48	; 0x30
  
  if(N == 10)
 80001ce:	42a2      	cmp	r2, r4
  str[3] = dig_to_smb((uint8)(num/10));
 80001d0:	70c5      	strb	r5, [r0, #3]
  str[4] = dig_to_smb((uint8)(num%10));
 80001d2:	7101      	strb	r1, [r0, #4]
  str[5] = '\0';
 80001d4:	7143      	strb	r3, [r0, #5]
  if(N == 10)
 80001d6:	d112      	bne.n	80001fe <u16_to_str+0x84>
 80001d8:	1e42      	subs	r2, r0, #1
 80001da:	1d44      	adds	r4, r0, #5
  {
    uint8 chars = 0;
    for(int i = 0; i < 6; i++)
    {
      if((str[i] == '0') && !chars) continue;
 80001dc:	f812 1f01 	ldrb.w	r1, [r2, #1]!
 80001e0:	2930      	cmp	r1, #48	; 0x30
 80001e2:	d100      	bne.n	80001e6 <u16_to_str+0x6c>
 80001e4:	b113      	cbz	r3, 80001ec <u16_to_str+0x72>
      str[chars] = str[i];
 80001e6:	54c1      	strb	r1, [r0, r3]
      chars++;
 80001e8:	3301      	adds	r3, #1
 80001ea:	b2db      	uxtb	r3, r3
    for(int i = 0; i < 6; i++)
 80001ec:	4294      	cmp	r4, r2
 80001ee:	d1f5      	bne.n	80001dc <u16_to_str+0x62>
    }
    if(chars == 1) 
 80001f0:	2b01      	cmp	r3, #1
 80001f2:	d103      	bne.n	80001fc <u16_to_str+0x82>
    {
      str[0] = '0';
 80001f4:	2330      	movs	r3, #48	; 0x30
 80001f6:	7003      	strb	r3, [r0, #0]
      str[1] = '\0';
 80001f8:	2300      	movs	r3, #0
 80001fa:	7043      	strb	r3, [r0, #1]
  if((N < 5) && (N > 0))
  {
    for(uint8 i = 0; i <= N; i++) 
      str[i] = str[5 - N + i];
  }
}
 80001fc:	bd30      	pop	{r4, r5, pc}
  if((N < 5) && (N > 0))
 80001fe:	1e53      	subs	r3, r2, #1
 8000200:	2b03      	cmp	r3, #3
 8000202:	d8fb      	bhi.n	80001fc <u16_to_str+0x82>
 8000204:	f1c2 0205 	rsb	r2, r2, #5
 8000208:	4402      	add	r2, r0
 800020a:	1e43      	subs	r3, r0, #1
 800020c:	3006      	adds	r0, #6
      str[i] = str[5 - N + i];
 800020e:	f812 1b01 	ldrb.w	r1, [r2], #1
    for(uint8 i = 0; i <= N; i++) 
 8000212:	4282      	cmp	r2, r0
      str[i] = str[5 - N + i];
 8000214:	f803 1f01 	strb.w	r1, [r3, #1]!
    for(uint8 i = 0; i <= N; i++) 
 8000218:	d1f9      	bne.n	800020e <u16_to_str+0x94>
 800021a:	e7ef      	b.n	80001fc <u16_to_str+0x82>

0800021c <initbuttons>:
  //brightPWM = EEPROM_readbyte(PWM_MEMADR);
}

void initbuttons(void)
{
  B1 = CreateBtn(BTN_1_GPIO_Port, BTN_1_Pin, &timestamp);
 800021c:	2340      	movs	r3, #64	; 0x40
 800021e:	4a12      	ldr	r2, [pc, #72]	; (8000268 <initbuttons+0x4c>)
 8000220:	4812      	ldr	r0, [pc, #72]	; (800026c <initbuttons+0x50>)
{
 8000222:	b510      	push	{r4, lr}
  B1 = CreateBtn(BTN_1_GPIO_Port, BTN_1_Pin, &timestamp);
 8000224:	e9c2 0300 	strd	r0, r3, [r2]
 8000228:	2300      	movs	r3, #0
  B2 = CreateBtn(BTN_2_GPIO_Port, BTN_2_Pin, &timestamp);
 800022a:	2480      	movs	r4, #128	; 0x80
  B1 = CreateBtn(BTN_1_GPIO_Port, BTN_1_Pin, &timestamp);
 800022c:	4910      	ldr	r1, [pc, #64]	; (8000270 <initbuttons+0x54>)
 800022e:	e9c2 3303 	strd	r3, r3, [r2, #12]
 8000232:	6091      	str	r1, [r2, #8]
 8000234:	7513      	strb	r3, [r2, #20]
  B2 = CreateBtn(BTN_2_GPIO_Port, BTN_2_Pin, &timestamp);
 8000236:	4a0f      	ldr	r2, [pc, #60]	; (8000274 <initbuttons+0x58>)
 8000238:	e9c2 4101 	strd	r4, r1, [r2, #4]
  B3 = CreateBtn(BTN_3_GPIO_Port, BTN_3_Pin, &timestamp);
 800023c:	2410      	movs	r4, #16
  B2 = CreateBtn(BTN_2_GPIO_Port, BTN_2_Pin, &timestamp);
 800023e:	6010      	str	r0, [r2, #0]
 8000240:	e9c2 3303 	strd	r3, r3, [r2, #12]
 8000244:	7513      	strb	r3, [r2, #20]
  B3 = CreateBtn(BTN_3_GPIO_Port, BTN_3_Pin, &timestamp);
 8000246:	4a0c      	ldr	r2, [pc, #48]	; (8000278 <initbuttons+0x5c>)
 8000248:	6010      	str	r0, [r2, #0]
 800024a:	e9c2 4101 	strd	r4, r1, [r2, #4]
 800024e:	e9c2 3303 	strd	r3, r3, [r2, #12]
 8000252:	7513      	strb	r3, [r2, #20]
  B4 = CreateBtn(BTN_4_GPIO_Port, BTN_4_Pin, &timestamp);
 8000254:	4a09      	ldr	r2, [pc, #36]	; (800027c <initbuttons+0x60>)
 8000256:	6010      	str	r0, [r2, #0]
 8000258:	2020      	movs	r0, #32
 800025a:	e9c2 3303 	strd	r3, r3, [r2, #12]
 800025e:	7513      	strb	r3, [r2, #20]
 8000260:	e9c2 0101 	strd	r0, r1, [r2, #4]
}
 8000264:	bd10      	pop	{r4, pc}
 8000266:	bf00      	nop
 8000268:	200000d0 	.word	0x200000d0
 800026c:	40010c00 	.word	0x40010c00
 8000270:	20000148 	.word	0x20000148
 8000274:	200000e8 	.word	0x200000e8
 8000278:	20000100 	.word	0x20000100
 800027c:	20000118 	.word	0x20000118

08000280 <getbatlvl>:
{
  uint8 lvl = (240 - Ub) / 14;
  static uint8 Umax = 241;
  static uint8 Umin = 220;
  static uint8 reslvl = 0;
  if(Ub < 157) return 100; // bat to low, immediately shotdown code - 100
 8000280:	289c      	cmp	r0, #156	; 0x9c
{
 8000282:	b510      	push	{r4, lr}
  if(Ub < 157) return 100; // bat to low, immediately shotdown code - 100
 8000284:	d946      	bls.n	8000314 <getbatlvl+0x94>
  if(val > max) val = max;
 8000286:	28f1      	cmp	r0, #241	; 0xf1
 8000288:	4601      	mov	r1, r0
 800028a:	bf28      	it	cs
 800028c:	21f1      	movcs	r1, #241	; 0xf1
  Ub = clamp(Ub, 157, 241);
  if((Ub <= Umax) && (Ub >= Umin)) return reslvl;
 800028e:	4a22      	ldr	r2, [pc, #136]	; (8000318 <getbatlvl+0x98>)
 8000290:	7813      	ldrb	r3, [r2, #0]
 8000292:	428b      	cmp	r3, r1
 8000294:	4b21      	ldr	r3, [pc, #132]	; (800031c <getbatlvl+0x9c>)
 8000296:	d305      	bcc.n	80002a4 <getbatlvl+0x24>
 8000298:	4c21      	ldr	r4, [pc, #132]	; (8000320 <getbatlvl+0xa0>)
 800029a:	7824      	ldrb	r4, [r4, #0]
 800029c:	428c      	cmp	r4, r1
 800029e:	d801      	bhi.n	80002a4 <getbatlvl+0x24>
      case 3: Umin = 178; Umax = 199; reslvl = 3; break;
      case 4: Umin = 164; Umax = 185; reslvl = 4; break;
      case 5: Umin = 157; Umax = 171; reslvl = 5; break;
    }
  }
  return reslvl;
 80002a0:	7818      	ldrb	r0, [r3, #0]
}
 80002a2:	bd10      	pop	{r4, pc}
  uint8 lvl = (240 - Ub) / 14;
 80002a4:	210e      	movs	r1, #14
 80002a6:	f1c0 00f0 	rsb	r0, r0, #240	; 0xf0
 80002aa:	fb90 f0f1 	sdiv	r0, r0, r1
    switch(lvl)
 80002ae:	b2c0      	uxtb	r0, r0
 80002b0:	2805      	cmp	r0, #5
 80002b2:	d8f5      	bhi.n	80002a0 <getbatlvl+0x20>
 80002b4:	e8df f000 	tbb	[pc, r0]
 80002b8:	19120b03 	.word	0x19120b03
 80002bc:	2720      	.short	0x2720
      case 0: Umin = 220; Umax = 241; reslvl = 0; break;
 80002be:	20dc      	movs	r0, #220	; 0xdc
 80002c0:	4917      	ldr	r1, [pc, #92]	; (8000320 <getbatlvl+0xa0>)
 80002c2:	7008      	strb	r0, [r1, #0]
 80002c4:	21f1      	movs	r1, #241	; 0xf1
 80002c6:	7011      	strb	r1, [r2, #0]
 80002c8:	2200      	movs	r2, #0
      case 5: Umin = 157; Umax = 171; reslvl = 5; break;
 80002ca:	701a      	strb	r2, [r3, #0]
 80002cc:	e7e8      	b.n	80002a0 <getbatlvl+0x20>
      case 1: Umin = 206; Umax = 227; reslvl = 1; break;
 80002ce:	20ce      	movs	r0, #206	; 0xce
 80002d0:	4913      	ldr	r1, [pc, #76]	; (8000320 <getbatlvl+0xa0>)
 80002d2:	7008      	strb	r0, [r1, #0]
 80002d4:	21e3      	movs	r1, #227	; 0xe3
 80002d6:	7011      	strb	r1, [r2, #0]
 80002d8:	2201      	movs	r2, #1
 80002da:	e7f6      	b.n	80002ca <getbatlvl+0x4a>
      case 2: Umin = 192; Umax = 213; reslvl = 2; break;
 80002dc:	20c0      	movs	r0, #192	; 0xc0
 80002de:	4910      	ldr	r1, [pc, #64]	; (8000320 <getbatlvl+0xa0>)
 80002e0:	7008      	strb	r0, [r1, #0]
 80002e2:	21d5      	movs	r1, #213	; 0xd5
 80002e4:	7011      	strb	r1, [r2, #0]
 80002e6:	2202      	movs	r2, #2
 80002e8:	e7ef      	b.n	80002ca <getbatlvl+0x4a>
      case 3: Umin = 178; Umax = 199; reslvl = 3; break;
 80002ea:	20b2      	movs	r0, #178	; 0xb2
 80002ec:	490c      	ldr	r1, [pc, #48]	; (8000320 <getbatlvl+0xa0>)
 80002ee:	7008      	strb	r0, [r1, #0]
 80002f0:	21c7      	movs	r1, #199	; 0xc7
 80002f2:	7011      	strb	r1, [r2, #0]
 80002f4:	2203      	movs	r2, #3
 80002f6:	e7e8      	b.n	80002ca <getbatlvl+0x4a>
      case 4: Umin = 164; Umax = 185; reslvl = 4; break;
 80002f8:	20a4      	movs	r0, #164	; 0xa4
 80002fa:	4909      	ldr	r1, [pc, #36]	; (8000320 <getbatlvl+0xa0>)
 80002fc:	7008      	strb	r0, [r1, #0]
 80002fe:	21b9      	movs	r1, #185	; 0xb9
 8000300:	7011      	strb	r1, [r2, #0]
 8000302:	2204      	movs	r2, #4
 8000304:	e7e1      	b.n	80002ca <getbatlvl+0x4a>
      case 5: Umin = 157; Umax = 171; reslvl = 5; break;
 8000306:	209d      	movs	r0, #157	; 0x9d
 8000308:	4905      	ldr	r1, [pc, #20]	; (8000320 <getbatlvl+0xa0>)
 800030a:	7008      	strb	r0, [r1, #0]
 800030c:	21ab      	movs	r1, #171	; 0xab
 800030e:	7011      	strb	r1, [r2, #0]
 8000310:	2205      	movs	r2, #5
 8000312:	e7da      	b.n	80002ca <getbatlvl+0x4a>
  if(Ub < 157) return 100; // bat to low, immediately shotdown code - 100
 8000314:	2064      	movs	r0, #100	; 0x64
 8000316:	e7c4      	b.n	80002a2 <getbatlvl+0x22>
 8000318:	20000004 	.word	0x20000004
 800031c:	20000136 	.word	0x20000136
 8000320:	20000005 	.word	0x20000005

08000324 <ShutDownLB>:
  batlvl = getbatlvl(Ubat);
  if(batlvl == 100) ShutDownLB();
}
        
void ShutDownLB(void)
{
 8000324:	b508      	push	{r3, lr}
  LCD_bufupload_buferase();
 8000326:	f000 fb0f 	bl	8000948 <LCD_bufupload_buferase>
  HAL_GPIO_WritePin(SHUTDOWN_GPIO_Port, SHUTDOWN_Pin, RESET);
 800032a:	2200      	movs	r2, #0
 800032c:	f44f 5100 	mov.w	r1, #8192	; 0x2000
 8000330:	480a      	ldr	r0, [pc, #40]	; (800035c <ShutDownLB+0x38>)
 8000332:	f004 f807 	bl	8004344 <HAL_GPIO_WritePin>
  LCD_printstr8x5((uint8*)"Низкий заряд батареи!", 1, 0);
 8000336:	2200      	movs	r2, #0
 8000338:	2101      	movs	r1, #1
 800033a:	4809      	ldr	r0, [pc, #36]	; (8000360 <ShutDownLB+0x3c>)
 800033c:	f000 faa4 	bl	8000888 <LCD_printstr8x5>
  LCD_printstr8x5((uint8*)"Устройство", 3, 0);
 8000340:	2200      	movs	r2, #0
 8000342:	2103      	movs	r1, #3
 8000344:	4807      	ldr	r0, [pc, #28]	; (8000364 <ShutDownLB+0x40>)
 8000346:	f000 fa9f 	bl	8000888 <LCD_printstr8x5>
  LCD_printstr8x5((uint8*)"сейчас выключится!", 5, 0);
 800034a:	2200      	movs	r2, #0
 800034c:	2105      	movs	r1, #5
 800034e:	4806      	ldr	r0, [pc, #24]	; (8000368 <ShutDownLB+0x44>)
 8000350:	f000 fa9a 	bl	8000888 <LCD_printstr8x5>
  LCD_bufupload_buferase();
 8000354:	f000 faf8 	bl	8000948 <LCD_bufupload_buferase>
  while(1);
 8000358:	e7fe      	b.n	8000358 <ShutDownLB+0x34>
 800035a:	bf00      	nop
 800035c:	40011000 	.word	0x40011000
 8000360:	08006991 	.word	0x08006991
 8000364:	080069a7 	.word	0x080069a7
 8000368:	080069b2 	.word	0x080069b2

0800036c <batcheck>:
{
 800036c:	b508      	push	{r3, lr}
  batlvl = getbatlvl(Ubat);
 800036e:	4b05      	ldr	r3, [pc, #20]	; (8000384 <batcheck+0x18>)
 8000370:	7818      	ldrb	r0, [r3, #0]
 8000372:	f7ff ff85 	bl	8000280 <getbatlvl>
 8000376:	4b04      	ldr	r3, [pc, #16]	; (8000388 <batcheck+0x1c>)
  if(batlvl == 100) ShutDownLB();
 8000378:	2864      	cmp	r0, #100	; 0x64
  batlvl = getbatlvl(Ubat);
 800037a:	7018      	strb	r0, [r3, #0]
  if(batlvl == 100) ShutDownLB();
 800037c:	d101      	bne.n	8000382 <batcheck+0x16>
 800037e:	f7ff ffd1 	bl	8000324 <ShutDownLB>
}
 8000382:	bd08      	pop	{r3, pc}
 8000384:	20000130 	.word	0x20000130
 8000388:	20000131 	.word	0x20000131

0800038c <ShutDown>:
}

void ShutDown(void)
{
 800038c:	b508      	push	{r3, lr}
  LCD_bufupload_buferase();
 800038e:	f000 fadb 	bl	8000948 <LCD_bufupload_buferase>
  HAL_GPIO_WritePin(SHUTDOWN_GPIO_Port, SHUTDOWN_Pin, RESET);
 8000392:	2200      	movs	r2, #0
 8000394:	f44f 5100 	mov.w	r1, #8192	; 0x2000
 8000398:	4805      	ldr	r0, [pc, #20]	; (80003b0 <ShutDown+0x24>)
 800039a:	f003 ffd3 	bl	8004344 <HAL_GPIO_WritePin>
  LCD_printstr8x5((uint8*)"Выключение...", 3, 0);
 800039e:	2200      	movs	r2, #0
 80003a0:	2103      	movs	r1, #3
 80003a2:	4804      	ldr	r0, [pc, #16]	; (80003b4 <ShutDown+0x28>)
 80003a4:	f000 fa70 	bl	8000888 <LCD_printstr8x5>
  LCD_bufupload_buferase();
 80003a8:	f000 face 	bl	8000948 <LCD_bufupload_buferase>
  while(1);
 80003ac:	e7fe      	b.n	80003ac <ShutDown+0x20>
 80003ae:	bf00      	nop
 80003b0:	40011000 	.word	0x40011000
 80003b4:	080069c5 	.word	0x080069c5

080003b8 <getbrightlvl>:
}

void getbrightlvl(void)
{
  brightlvl = ((brightPWM - 10) / 30) - 1;
 80003b8:	221e      	movs	r2, #30
 80003ba:	4b04      	ldr	r3, [pc, #16]	; (80003cc <getbrightlvl+0x14>)
 80003bc:	781b      	ldrb	r3, [r3, #0]
 80003be:	3b0a      	subs	r3, #10
 80003c0:	fb93 f3f2 	sdiv	r3, r3, r2
 80003c4:	4a02      	ldr	r2, [pc, #8]	; (80003d0 <getbrightlvl+0x18>)
 80003c6:	3b01      	subs	r3, #1
 80003c8:	7013      	strb	r3, [r2, #0]
}
 80003ca:	4770      	bx	lr
 80003cc:	20000006 	.word	0x20000006
 80003d0:	20000132 	.word	0x20000132

080003d4 <decbright>:

void decbright(void)
{
  if(brightPWM <= 40) brightPWM = 70; 
 80003d4:	4b04      	ldr	r3, [pc, #16]	; (80003e8 <decbright+0x14>)
 80003d6:	781a      	ldrb	r2, [r3, #0]
 80003d8:	2a28      	cmp	r2, #40	; 0x28
 80003da:	bf9c      	itt	ls
 80003dc:	2246      	movls	r2, #70	; 0x46
 80003de:	701a      	strbls	r2, [r3, #0]
  brightPWM -=30;
 80003e0:	781a      	ldrb	r2, [r3, #0]
 80003e2:	3a1e      	subs	r2, #30
 80003e4:	701a      	strb	r2, [r3, #0]
  //EEPROM_writebyte(PWM_MEMADR, brightPWM);
}
 80003e6:	4770      	bx	lr
 80003e8:	20000006 	.word	0x20000006

080003ec <incbright>:

void incbright(void)
{
  if(brightPWM >= 250) brightPWM = 220; 
 80003ec:	4b04      	ldr	r3, [pc, #16]	; (8000400 <incbright+0x14>)
 80003ee:	781a      	ldrb	r2, [r3, #0]
 80003f0:	2af9      	cmp	r2, #249	; 0xf9
 80003f2:	bf84      	itt	hi
 80003f4:	22dc      	movhi	r2, #220	; 0xdc
 80003f6:	701a      	strbhi	r2, [r3, #0]
  brightPWM +=30;
 80003f8:	781a      	ldrb	r2, [r3, #0]
 80003fa:	321e      	adds	r2, #30
 80003fc:	701a      	strb	r2, [r3, #0]
  //EEPROM_writebyte(PWM_MEMADR, brightPWM);
}
 80003fe:	4770      	bx	lr
 8000400:	20000006 	.word	0x20000006

08000404 <BrightPWMgen>:

extern TIM_HandleTypeDef htim1;
void BrightPWMgen(uint8 duty_cycle)
{
	uint16 dutyCycle = duty_cycle * 255;
 8000404:	ebc0 2300 	rsb	r3, r0, r0, lsl #8
	__HAL_TIM_SET_COMPARE(&htim1, TIM_CHANNEL_1, dutyCycle);
 8000408:	4802      	ldr	r0, [pc, #8]	; (8000414 <BrightPWMgen+0x10>)
	HAL_TIM_PWM_Start(&htim1, TIM_CHANNEL_1);
 800040a:	2100      	movs	r1, #0
	__HAL_TIM_SET_COMPARE(&htim1, TIM_CHANNEL_1, dutyCycle);
 800040c:	6802      	ldr	r2, [r0, #0]
 800040e:	6353      	str	r3, [r2, #52]	; 0x34
	HAL_TIM_PWM_Start(&htim1, TIM_CHANNEL_1);
 8000410:	f005 b9b8 	b.w	8005784 <HAL_TIM_PWM_Start>
 8000414:	20000638 	.word	0x20000638

08000418 <commoninit>:
{
 8000418:	b508      	push	{r3, lr}
  HAL_GPIO_WritePin(SHUTDOWN_GPIO_Port, SHUTDOWN_Pin, SET);
 800041a:	2201      	movs	r2, #1
 800041c:	f44f 5100 	mov.w	r1, #8192	; 0x2000
 8000420:	4806      	ldr	r0, [pc, #24]	; (800043c <commoninit+0x24>)
 8000422:	f003 ff8f 	bl	8004344 <HAL_GPIO_WritePin>
  HAL_GPIO_WritePin(SOUND_OUT_GPIO_Port, SOUND_OUT_Pin, RESET);
 8000426:	4806      	ldr	r0, [pc, #24]	; (8000440 <commoninit+0x28>)
 8000428:	2200      	movs	r2, #0
 800042a:	2110      	movs	r1, #16
 800042c:	f003 ff8a 	bl	8004344 <HAL_GPIO_WritePin>
}
 8000430:	e8bd 4008 	ldmia.w	sp!, {r3, lr}
  BrightPWMgen(220);
 8000434:	20dc      	movs	r0, #220	; 0xdc
 8000436:	f7ff bfe5 	b.w	8000404 <BrightPWMgen>
 800043a:	bf00      	nop
 800043c:	40011000 	.word	0x40011000
 8000440:	40010800 	.word	0x40010800

08000444 <Sounds>:
}

void Sounds(uint16 delay)
{
 8000444:	b570      	push	{r4, r5, r6, lr}
  uint32 j;
  for(uint16 i = 0; i < (15000/delay); i++)
 8000446:	f643 2598 	movw	r5, #15000	; 0x3a98
 800044a:	2400      	movs	r4, #0
 800044c:	fbb5 f5f0 	udiv	r5, r5, r0
  {  
  	HAL_GPIO_WritePin(SOUND_OUT_GPIO_Port, SOUND_OUT_Pin, SET);
 8000450:	4e07      	ldr	r6, [pc, #28]	; (8000470 <Sounds+0x2c>)
  for(uint16 i = 0; i < (15000/delay); i++)
 8000452:	42a5      	cmp	r5, r4
 8000454:	d100      	bne.n	8000458 <Sounds+0x14>
    while(j--);
    HAL_GPIO_WritePin(SOUND_OUT_GPIO_Port, SOUND_OUT_Pin, RESET);
    j = delay * 6;
    while(j--);
  }
}
 8000456:	bd70      	pop	{r4, r5, r6, pc}
  	HAL_GPIO_WritePin(SOUND_OUT_GPIO_Port, SOUND_OUT_Pin, SET);
 8000458:	2201      	movs	r2, #1
 800045a:	2110      	movs	r1, #16
 800045c:	4630      	mov	r0, r6
 800045e:	f003 ff71 	bl	8004344 <HAL_GPIO_WritePin>
    HAL_GPIO_WritePin(SOUND_OUT_GPIO_Port, SOUND_OUT_Pin, RESET);
 8000462:	2200      	movs	r2, #0
 8000464:	2110      	movs	r1, #16
 8000466:	4630      	mov	r0, r6
 8000468:	f003 ff6c 	bl	8004344 <HAL_GPIO_WritePin>
  for(uint16 i = 0; i < (15000/delay); i++)
 800046c:	3401      	adds	r4, #1
 800046e:	e7f0      	b.n	8000452 <Sounds+0xe>
 8000470:	40010800 	.word	0x40010800

08000474 <RTCgetdata>:

void RTCgetdata(tRTC* RTCdat)
{
  RTC_TimeTypeDef sTime = {0};
 8000474:	2300      	movs	r3, #0
{
 8000476:	b537      	push	{r0, r1, r2, r4, r5, lr}
 8000478:	4604      	mov	r4, r0
  RTC_DateTypeDef sDate = {0};
  HAL_RTC_GetDate(&hrtc, &sDate, RTC_FORMAT_BCD);
 800047a:	4d13      	ldr	r5, [pc, #76]	; (80004c8 <RTCgetdata+0x54>)
 800047c:	a901      	add	r1, sp, #4
 800047e:	2201      	movs	r2, #1
 8000480:	4628      	mov	r0, r5
  RTC_TimeTypeDef sTime = {0};
 8000482:	f8ad 3000 	strh.w	r3, [sp]
 8000486:	f88d 3002 	strb.w	r3, [sp, #2]
  RTC_DateTypeDef sDate = {0};
 800048a:	9301      	str	r3, [sp, #4]
  HAL_RTC_GetDate(&hrtc, &sDate, RTC_FORMAT_BCD);
 800048c:	f004 fcee 	bl	8004e6c <HAL_RTC_GetDate>
  HAL_RTC_GetTime(&hrtc, &sTime, RTC_FORMAT_BCD);
 8000490:	2201      	movs	r2, #1
 8000492:	4669      	mov	r1, sp
 8000494:	4628      	mov	r0, r5
 8000496:	f004 fbd3 	bl	8004c40 <HAL_RTC_GetTime>
  RTCdat->sec = sTime.Seconds;
 800049a:	f89d 3002 	ldrb.w	r3, [sp, #2]
 800049e:	7023      	strb	r3, [r4, #0]
  RTCdat->min = sTime.Minutes;
 80004a0:	f89d 3001 	ldrb.w	r3, [sp, #1]
 80004a4:	7063      	strb	r3, [r4, #1]
  RTCdat->hour = sTime.Hours;
 80004a6:	f89d 3000 	ldrb.w	r3, [sp]
 80004aa:	70a3      	strb	r3, [r4, #2]
  RTCdat->day = sDate.Date;
 80004ac:	f89d 3006 	ldrb.w	r3, [sp, #6]
 80004b0:	70e3      	strb	r3, [r4, #3]
  RTCdat->month = sDate.Month;
 80004b2:	f89d 3005 	ldrb.w	r3, [sp, #5]
 80004b6:	7163      	strb	r3, [r4, #5]
  RTCdat->weekday = sDate.WeekDay;
 80004b8:	f89d 3004 	ldrb.w	r3, [sp, #4]
 80004bc:	7123      	strb	r3, [r4, #4]
  RTCdat->year = sDate.Year;
 80004be:	f89d 3007 	ldrb.w	r3, [sp, #7]
 80004c2:	71a3      	strb	r3, [r4, #6]
}
 80004c4:	b003      	add	sp, #12
 80004c6:	bd30      	pop	{r4, r5, pc}
 80004c8:	200005cc 	.word	0x200005cc

080004cc <RTCsenddata>:

void RTCsenddata(tRTC* RTCdat)
{
 80004cc:	b513      	push	{r0, r1, r4, lr}
  RTC_TimeTypeDef sTime = {0};
  RTC_DateTypeDef sDate = {0};
  sTime.Seconds = RTCdat->sec;
 80004ce:	7803      	ldrb	r3, [r0, #0]
  sTime.Hours = RTCdat->hour;
  sDate.Date = RTCdat->day;
  sDate.Month = RTCdat->month;
  sDate.WeekDay = RTCdat->weekday;
  sDate.Year = RTCdat->year;
  HAL_RTC_SetTime(&hrtc, &sTime, RTC_FORMAT_BCD);
 80004d0:	4c10      	ldr	r4, [pc, #64]	; (8000514 <RTCsenddata+0x48>)
  sTime.Seconds = RTCdat->sec;
 80004d2:	f88d 3002 	strb.w	r3, [sp, #2]
  sTime.Minutes = RTCdat->min;
 80004d6:	7843      	ldrb	r3, [r0, #1]
  HAL_RTC_SetTime(&hrtc, &sTime, RTC_FORMAT_BCD);
 80004d8:	4669      	mov	r1, sp
  sTime.Minutes = RTCdat->min;
 80004da:	f88d 3001 	strb.w	r3, [sp, #1]
  sTime.Hours = RTCdat->hour;
 80004de:	7883      	ldrb	r3, [r0, #2]
  HAL_RTC_SetTime(&hrtc, &sTime, RTC_FORMAT_BCD);
 80004e0:	2201      	movs	r2, #1
  sTime.Hours = RTCdat->hour;
 80004e2:	f88d 3000 	strb.w	r3, [sp]
  sDate.Date = RTCdat->day;
 80004e6:	78c3      	ldrb	r3, [r0, #3]
 80004e8:	f88d 3006 	strb.w	r3, [sp, #6]
  sDate.Month = RTCdat->month;
 80004ec:	7943      	ldrb	r3, [r0, #5]
 80004ee:	f88d 3005 	strb.w	r3, [sp, #5]
  sDate.WeekDay = RTCdat->weekday;
 80004f2:	7903      	ldrb	r3, [r0, #4]
 80004f4:	f88d 3004 	strb.w	r3, [sp, #4]
  sDate.Year = RTCdat->year;
 80004f8:	7983      	ldrb	r3, [r0, #6]
  HAL_RTC_SetTime(&hrtc, &sTime, RTC_FORMAT_BCD);
 80004fa:	4620      	mov	r0, r4
  sDate.Year = RTCdat->year;
 80004fc:	f88d 3007 	strb.w	r3, [sp, #7]
  HAL_RTC_SetTime(&hrtc, &sTime, RTC_FORMAT_BCD);
 8000500:	f004 fb4f 	bl	8004ba2 <HAL_RTC_SetTime>
  HAL_RTC_SetDate(&hrtc, &sDate, RTC_FORMAT_BCD);
 8000504:	2201      	movs	r2, #1
 8000506:	4620      	mov	r0, r4
 8000508:	a901      	add	r1, sp, #4
 800050a:	f004 fc57 	bl	8004dbc <HAL_RTC_SetDate>
}
 800050e:	b002      	add	sp, #8
 8000510:	bd10      	pop	{r4, pc}
 8000512:	bf00      	nop
 8000514:	200005cc 	.word	0x200005cc

08000518 <rtcrawtobcd>:

void rtcrawtobcd(void)
{
  rtcbcd.year = (uint8)((rtcraw.year / 10) << 4) | (rtcraw.year % 10);
 8000518:	230a      	movs	r3, #10
 800051a:	481c      	ldr	r0, [pc, #112]	; (800058c <rtcrawtobcd+0x74>)
{
 800051c:	b510      	push	{r4, lr}
  rtcbcd.year = (uint8)((rtcraw.year / 10) << 4) | (rtcraw.year % 10);
 800051e:	7982      	ldrb	r2, [r0, #6]
 8000520:	491b      	ldr	r1, [pc, #108]	; (8000590 <rtcrawtobcd+0x78>)
 8000522:	fbb2 f4f3 	udiv	r4, r2, r3
 8000526:	fb03 2214 	mls	r2, r3, r4, r2
 800052a:	ea42 1204 	orr.w	r2, r2, r4, lsl #4
 800052e:	718a      	strb	r2, [r1, #6]
  rtcbcd.month = (0x80 | (uint8)((rtcraw.month / 10) << 4)) | rtcraw.month % 10;
 8000530:	7942      	ldrb	r2, [r0, #5]
 8000532:	fbb2 f4f3 	udiv	r4, r2, r3
 8000536:	fb03 2214 	mls	r2, r3, r4, r2
 800053a:	ea42 1204 	orr.w	r2, r2, r4, lsl #4
 800053e:	f062 027f 	orn	r2, r2, #127	; 0x7f
 8000542:	714a      	strb	r2, [r1, #5]
  rtcbcd.day = (uint8)((rtcraw.day / 10) << 4) | (rtcraw.day % 10);
 8000544:	78c2      	ldrb	r2, [r0, #3]
 8000546:	fbb2 f4f3 	udiv	r4, r2, r3
 800054a:	fb03 2214 	mls	r2, r3, r4, r2
 800054e:	ea42 1204 	orr.w	r2, r2, r4, lsl #4
 8000552:	70ca      	strb	r2, [r1, #3]
  rtcbcd.weekday = rtcraw.weekday;
 8000554:	7902      	ldrb	r2, [r0, #4]
 8000556:	710a      	strb	r2, [r1, #4]
  rtcbcd.hour = (uint8)((rtcraw.hour / 10) << 4) | (rtcraw.hour % 10);
 8000558:	7882      	ldrb	r2, [r0, #2]
 800055a:	fbb2 f4f3 	udiv	r4, r2, r3
 800055e:	fb03 2214 	mls	r2, r3, r4, r2
 8000562:	ea42 1204 	orr.w	r2, r2, r4, lsl #4
 8000566:	708a      	strb	r2, [r1, #2]
  rtcbcd.min = (uint8)((rtcraw.min / 10) << 4) | (rtcraw.min % 10);
 8000568:	7842      	ldrb	r2, [r0, #1]
 800056a:	fbb2 f4f3 	udiv	r4, r2, r3
 800056e:	fb03 2214 	mls	r2, r3, r4, r2
 8000572:	ea42 1204 	orr.w	r2, r2, r4, lsl #4
 8000576:	704a      	strb	r2, [r1, #1]
  rtcbcd.sec = (uint8)((rtcraw.sec / 10) << 4) | (rtcraw.sec % 10);
 8000578:	7802      	ldrb	r2, [r0, #0]
 800057a:	fbb2 f0f3 	udiv	r0, r2, r3
 800057e:	fb03 2210 	mls	r2, r3, r0, r2
 8000582:	ea42 1200 	orr.w	r2, r2, r0, lsl #4
 8000586:	700a      	strb	r2, [r1, #0]
}
 8000588:	bd10      	pop	{r4, pc}
 800058a:	bf00      	nop
 800058c:	2000013e 	.word	0x2000013e
 8000590:	20000137 	.word	0x20000137

08000594 <rtcbcdtoraw>:

void rtcbcdtoraw(void)
{
  rtcraw.year = (rtcbcd.year >> 4) * 10 + (rtcbcd.year & 0x0F);
 8000594:	4a20      	ldr	r2, [pc, #128]	; (8000618 <rtcbcdtoraw+0x84>)
 8000596:	4b21      	ldr	r3, [pc, #132]	; (800061c <rtcbcdtoraw+0x88>)
 8000598:	7991      	ldrb	r1, [r2, #6]
 800059a:	0908      	lsrs	r0, r1, #4
 800059c:	eb00 0080 	add.w	r0, r0, r0, lsl #2
 80005a0:	f001 010f 	and.w	r1, r1, #15
 80005a4:	eb01 0140 	add.w	r1, r1, r0, lsl #1
 80005a8:	7199      	strb	r1, [r3, #6]
  rtcraw.month = ((rtcbcd.month & 0x1F) >> 4) * 10 + (rtcbcd.month & 0x0F);
 80005aa:	7951      	ldrb	r1, [r2, #5]
 80005ac:	f3c1 1000 	ubfx	r0, r1, #4, #1
 80005b0:	eb00 0080 	add.w	r0, r0, r0, lsl #2
 80005b4:	f001 010f 	and.w	r1, r1, #15
 80005b8:	eb01 0140 	add.w	r1, r1, r0, lsl #1
 80005bc:	7159      	strb	r1, [r3, #5]
  rtcraw.day = ((rtcbcd.day & 0x3F) >> 4) * 10 + (rtcbcd.day & 0x0F);
 80005be:	78d1      	ldrb	r1, [r2, #3]
 80005c0:	f3c1 1001 	ubfx	r0, r1, #4, #2
 80005c4:	eb00 0080 	add.w	r0, r0, r0, lsl #2
 80005c8:	f001 010f 	and.w	r1, r1, #15
 80005cc:	eb01 0140 	add.w	r1, r1, r0, lsl #1
 80005d0:	70d9      	strb	r1, [r3, #3]
  rtcraw.weekday = rtcbcd.weekday & 0x07;
 80005d2:	7911      	ldrb	r1, [r2, #4]
 80005d4:	f001 0107 	and.w	r1, r1, #7
 80005d8:	7119      	strb	r1, [r3, #4]
  rtcraw.hour = ((rtcbcd.hour & 0x3F) >> 4) * 10 + (rtcbcd.hour & 0x0F);
 80005da:	7891      	ldrb	r1, [r2, #2]
 80005dc:	f3c1 1001 	ubfx	r0, r1, #4, #2
 80005e0:	eb00 0080 	add.w	r0, r0, r0, lsl #2
 80005e4:	f001 010f 	and.w	r1, r1, #15
 80005e8:	eb01 0140 	add.w	r1, r1, r0, lsl #1
 80005ec:	7099      	strb	r1, [r3, #2]
  rtcraw.min = ((rtcbcd.min & 0x7F) >> 4) * 10 + (rtcbcd.min & 0x0F);
 80005ee:	7851      	ldrb	r1, [r2, #1]
  rtcraw.sec = ((rtcbcd.sec & 0x7F) >> 4) * 10 + (rtcbcd.sec & 0x0F);
 80005f0:	7812      	ldrb	r2, [r2, #0]
  rtcraw.min = ((rtcbcd.min & 0x7F) >> 4) * 10 + (rtcbcd.min & 0x0F);
 80005f2:	f3c1 1002 	ubfx	r0, r1, #4, #3
 80005f6:	eb00 0080 	add.w	r0, r0, r0, lsl #2
 80005fa:	f001 010f 	and.w	r1, r1, #15
 80005fe:	eb01 0140 	add.w	r1, r1, r0, lsl #1
 8000602:	7059      	strb	r1, [r3, #1]
  rtcraw.sec = ((rtcbcd.sec & 0x7F) >> 4) * 10 + (rtcbcd.sec & 0x0F);
 8000604:	f3c2 1102 	ubfx	r1, r2, #4, #3
 8000608:	eb01 0181 	add.w	r1, r1, r1, lsl #2
 800060c:	f002 020f 	and.w	r2, r2, #15
 8000610:	eb02 0241 	add.w	r2, r2, r1, lsl #1
 8000614:	701a      	strb	r2, [r3, #0]
}
 8000616:	4770      	bx	lr
 8000618:	20000137 	.word	0x20000137
 800061c:	2000013e 	.word	0x2000013e

08000620 <TestBtn>:
  TestBtn(&B4);
  checkjoydir();
}

void TestBtn(tButton* btn)
{
 8000620:	b510      	push	{r4, lr}
  if (!HAL_GPIO_ReadPin(btn->Port, btn->Pin) && !btn->BtnFl && ((*(btn->timecounter) - btn->btnTimer) > 30)) {
 8000622:	8881      	ldrh	r1, [r0, #4]
{
 8000624:	4604      	mov	r4, r0
  if (!HAL_GPIO_ReadPin(btn->Port, btn->Pin) && !btn->BtnFl && ((*(btn->timecounter) - btn->btnTimer) > 30)) {
 8000626:	6800      	ldr	r0, [r0, #0]
 8000628:	f003 fe86 	bl	8004338 <HAL_GPIO_ReadPin>
 800062c:	b980      	cbnz	r0, 8000650 <TestBtn+0x30>
 800062e:	7c23      	ldrb	r3, [r4, #16]
 8000630:	b973      	cbnz	r3, 8000650 <TestBtn+0x30>
 8000632:	68a3      	ldr	r3, [r4, #8]
 8000634:	681a      	ldr	r2, [r3, #0]
 8000636:	68e3      	ldr	r3, [r4, #12]
 8000638:	1ad3      	subs	r3, r2, r3
 800063a:	2b1e      	cmp	r3, #30
 800063c:	d908      	bls.n	8000650 <TestBtn+0x30>
    if(btn->Toggle) btn->Toggle = 0; 
 800063e:	7ca3      	ldrb	r3, [r4, #18]
    else btn->Toggle = 1;
    btn->BtnFl = 1;
    btn->btnTimer = *(btn->timecounter); 
 8000640:	60e2      	str	r2, [r4, #12]
    if(btn->Toggle) btn->Toggle = 0; 
 8000642:	fab3 f383 	clz	r3, r3
 8000646:	095b      	lsrs	r3, r3, #5
 8000648:	74a3      	strb	r3, [r4, #18]
    btn->BtnFl = 1;
 800064a:	f240 1301 	movw	r3, #257	; 0x101
 800064e:	8223      	strh	r3, [r4, #16]
    btn->BtnON = 1;
  }
  if (HAL_GPIO_ReadPin(btn->Port, btn->Pin) && ((*(btn->timecounter) - btn->btnTimer) > 30)) {
 8000650:	88a1      	ldrh	r1, [r4, #4]
 8000652:	6820      	ldr	r0, [r4, #0]
 8000654:	f003 fe70 	bl	8004338 <HAL_GPIO_ReadPin>
 8000658:	b150      	cbz	r0, 8000670 <TestBtn+0x50>
 800065a:	68a3      	ldr	r3, [r4, #8]
 800065c:	681a      	ldr	r2, [r3, #0]
 800065e:	68e3      	ldr	r3, [r4, #12]
 8000660:	1ad3      	subs	r3, r2, r3
 8000662:	2b1e      	cmp	r3, #30
 8000664:	d904      	bls.n	8000670 <TestBtn+0x50>
    btn->BtnFl = 0;
 8000666:	2300      	movs	r3, #0
    btn->HoldON = 0;
    btn->StuckON = 0;
    btn->btnTimer = *(btn->timecounter);
 8000668:	60e2      	str	r2, [r4, #12]
    btn->BtnFl = 0;
 800066a:	7423      	strb	r3, [r4, #16]
    btn->HoldON = 0;
 800066c:	74e3      	strb	r3, [r4, #19]
    btn->StuckON = 0;
 800066e:	7523      	strb	r3, [r4, #20]
  }
  if (!HAL_GPIO_ReadPin(btn->Port, btn->Pin) && btn->BtnFl && ((*(btn->timecounter) - btn->btnTimer) > BTN_HOLD_ON_DELAY) && ((*(btn->timecounter) - btn->btnTimer) <= BTN_STUCK_ON_DELAY)) {
 8000670:	88a1      	ldrh	r1, [r4, #4]
 8000672:	6820      	ldr	r0, [r4, #0]
 8000674:	f003 fe60 	bl	8004338 <HAL_GPIO_ReadPin>
 8000678:	b980      	cbnz	r0, 800069c <TestBtn+0x7c>
 800067a:	7c23      	ldrb	r3, [r4, #16]
 800067c:	b173      	cbz	r3, 800069c <TestBtn+0x7c>
 800067e:	68a3      	ldr	r3, [r4, #8]
 8000680:	68e2      	ldr	r2, [r4, #12]
 8000682:	681b      	ldr	r3, [r3, #0]
 8000684:	1a9b      	subs	r3, r3, r2
 8000686:	3bc9      	subs	r3, #201	; 0xc9
 8000688:	f5b3 6fe1 	cmp.w	r3, #1800	; 0x708
 800068c:	d206      	bcs.n	800069c <TestBtn+0x7c>
    btn->HoldON = 1;
 800068e:	2301      	movs	r3, #1
    if(btn->Toggle) btn->Toggle = 0; 
 8000690:	7ca2      	ldrb	r2, [r4, #18]
    btn->HoldON = 1;
 8000692:	74e3      	strb	r3, [r4, #19]
    if(btn->Toggle) btn->Toggle = 0; 
 8000694:	2a00      	cmp	r2, #0
 8000696:	bf18      	it	ne
 8000698:	4603      	movne	r3, r0
 800069a:	74a3      	strb	r3, [r4, #18]
    else btn->Toggle = 1;
  }
  if (!HAL_GPIO_ReadPin(btn->Port, btn->Pin) && btn->BtnFl && ((*(btn->timecounter) - btn->btnTimer) > BTN_STUCK_ON_DELAY)) {
 800069c:	88a1      	ldrh	r1, [r4, #4]
 800069e:	6820      	ldr	r0, [r4, #0]
 80006a0:	f003 fe4a 	bl	8004338 <HAL_GPIO_ReadPin>
 80006a4:	b980      	cbnz	r0, 80006c8 <TestBtn+0xa8>
 80006a6:	7c23      	ldrb	r3, [r4, #16]
 80006a8:	b173      	cbz	r3, 80006c8 <TestBtn+0xa8>
 80006aa:	68a3      	ldr	r3, [r4, #8]
 80006ac:	68e2      	ldr	r2, [r4, #12]
 80006ae:	681b      	ldr	r3, [r3, #0]
 80006b0:	1a9b      	subs	r3, r3, r2
 80006b2:	f5b3 6ffa 	cmp.w	r3, #2000	; 0x7d0
 80006b6:	d907      	bls.n	80006c8 <TestBtn+0xa8>
    btn->HoldON = 0;
    btn->StuckON = 1;
 80006b8:	2301      	movs	r3, #1
    if(btn->Toggle) btn->Toggle = 0; 
 80006ba:	7ca2      	ldrb	r2, [r4, #18]
    btn->HoldON = 0;
 80006bc:	74e0      	strb	r0, [r4, #19]
    if(btn->Toggle) btn->Toggle = 0; 
 80006be:	2a00      	cmp	r2, #0
 80006c0:	bf08      	it	eq
 80006c2:	4618      	moveq	r0, r3
    btn->StuckON = 1;
 80006c4:	7523      	strb	r3, [r4, #20]
    if(btn->Toggle) btn->Toggle = 0; 
 80006c6:	74a0      	strb	r0, [r4, #18]
    else btn->Toggle = 1;
  }
}
 80006c8:	bd10      	pop	{r4, pc}
	...

080006cc <checkjoydir>:

void checkjoydir(void)
{
    if(joystick.oy > 150 && joystick.joyFl == 0) {
 80006cc:	4b1b      	ldr	r3, [pc, #108]	; (800073c <checkjoydir+0x70>)
 80006ce:	7899      	ldrb	r1, [r3, #2]
 80006d0:	2996      	cmp	r1, #150	; 0x96
 80006d2:	d91e      	bls.n	8000712 <checkjoydir+0x46>
 80006d4:	781a      	ldrb	r2, [r3, #0]
 80006d6:	06d0      	lsls	r0, r2, #27
 80006d8:	d404      	bmi.n	80006e4 <checkjoydir+0x18>
        joystick.up = 1; 
 80006da:	f022 0211 	bic.w	r2, r2, #17
 80006de:	f042 0211 	orr.w	r2, r2, #17
        joystick.joyFl = 1;
    }
    if(joystick.oy < 100 && joystick.joyFl == 0) {
        joystick.down = 1; 
 80006e2:	701a      	strb	r2, [r3, #0]
        joystick.joyFl = 1;
    }
    if(joystick.ox > 150 && joystick.joyFl == 0) {
 80006e4:	7858      	ldrb	r0, [r3, #1]
 80006e6:	2896      	cmp	r0, #150	; 0x96
 80006e8:	d91d      	bls.n	8000726 <checkjoydir+0x5a>
 80006ea:	781a      	ldrb	r2, [r3, #0]
 80006ec:	f012 0f10 	tst.w	r2, #16
 80006f0:	d104      	bne.n	80006fc <checkjoydir+0x30>
        joystick.right = 1; 
 80006f2:	f022 0218 	bic.w	r2, r2, #24
 80006f6:	f042 0218 	orr.w	r2, r2, #24
        joystick.joyFl = 1;
    }
    if(joystick.ox < 100 && joystick.joyFl == 0) {
        joystick.left = 1; 
 80006fa:	701a      	strb	r2, [r3, #0]
        joystick.joyFl = 1;
    }
    if(joystick.oy < 150 && joystick.oy > 100 && joystick.ox < 150 && joystick.ox > 100) joystick.joyFl = 0;
 80006fc:	3965      	subs	r1, #101	; 0x65
 80006fe:	2930      	cmp	r1, #48	; 0x30
 8000700:	d806      	bhi.n	8000710 <checkjoydir+0x44>
 8000702:	3865      	subs	r0, #101	; 0x65
 8000704:	2830      	cmp	r0, #48	; 0x30
 8000706:	bf9e      	ittt	ls
 8000708:	781a      	ldrbls	r2, [r3, #0]
 800070a:	f36f 1204 	bfcls	r2, #4, #1
 800070e:	701a      	strbls	r2, [r3, #0]
}
 8000710:	4770      	bx	lr
    if(joystick.oy < 100 && joystick.joyFl == 0) {
 8000712:	2963      	cmp	r1, #99	; 0x63
 8000714:	d8e6      	bhi.n	80006e4 <checkjoydir+0x18>
 8000716:	781a      	ldrb	r2, [r3, #0]
 8000718:	06d0      	lsls	r0, r2, #27
 800071a:	d4e3      	bmi.n	80006e4 <checkjoydir+0x18>
        joystick.down = 1; 
 800071c:	f022 0212 	bic.w	r2, r2, #18
 8000720:	f042 0212 	orr.w	r2, r2, #18
 8000724:	e7dd      	b.n	80006e2 <checkjoydir+0x16>
    if(joystick.ox < 100 && joystick.joyFl == 0) {
 8000726:	2863      	cmp	r0, #99	; 0x63
 8000728:	d8e8      	bhi.n	80006fc <checkjoydir+0x30>
 800072a:	781a      	ldrb	r2, [r3, #0]
 800072c:	f012 0f10 	tst.w	r2, #16
 8000730:	d1e4      	bne.n	80006fc <checkjoydir+0x30>
        joystick.left = 1; 
 8000732:	f022 0214 	bic.w	r2, r2, #20
 8000736:	f042 0214 	orr.w	r2, r2, #20
 800073a:	e7de      	b.n	80006fa <checkjoydir+0x2e>
 800073c:	20000133 	.word	0x20000133

08000740 <check_btn_jstk>:
{
 8000740:	b508      	push	{r3, lr}
  TestBtn(&B1);
 8000742:	4808      	ldr	r0, [pc, #32]	; (8000764 <check_btn_jstk+0x24>)
 8000744:	f7ff ff6c 	bl	8000620 <TestBtn>
  TestBtn(&B2);
 8000748:	4807      	ldr	r0, [pc, #28]	; (8000768 <check_btn_jstk+0x28>)
 800074a:	f7ff ff69 	bl	8000620 <TestBtn>
  TestBtn(&B3);
 800074e:	4807      	ldr	r0, [pc, #28]	; (800076c <check_btn_jstk+0x2c>)
 8000750:	f7ff ff66 	bl	8000620 <TestBtn>
  TestBtn(&B4);
 8000754:	4806      	ldr	r0, [pc, #24]	; (8000770 <check_btn_jstk+0x30>)
 8000756:	f7ff ff63 	bl	8000620 <TestBtn>
}
 800075a:	e8bd 4008 	ldmia.w	sp!, {r3, lr}
  checkjoydir();
 800075e:	f7ff bfb5 	b.w	80006cc <checkjoydir>
 8000762:	bf00      	nop
 8000764:	200000d0 	.word	0x200000d0
 8000768:	200000e8 	.word	0x200000e8
 800076c:	20000100 	.word	0x20000100
 8000770:	20000118 	.word	0x20000118

08000774 <lcd_sendcommands>:
	LCD_bufupload_buferase();
	DISP_INIT_SEND_DAT;
}

void lcd_sendcommands(uint8_t* data, uint8_t N)
{
 8000774:	b570      	push	{r4, r5, r6, lr}
 8000776:	4604      	mov	r4, r0
 8000778:	460d      	mov	r5, r1
  DISP_INIT_SEND_COM;
 800077a:	4e09      	ldr	r6, [pc, #36]	; (80007a0 <lcd_sendcommands+0x2c>)
 800077c:	2200      	movs	r2, #0
 800077e:	4630      	mov	r0, r6
 8000780:	2102      	movs	r1, #2
 8000782:	f003 fddf 	bl	8004344 <HAL_GPIO_WritePin>
  HAL_SPI_Transmit(&hspi2, data, N, 10);
 8000786:	462a      	mov	r2, r5
 8000788:	4621      	mov	r1, r4
 800078a:	230a      	movs	r3, #10
 800078c:	4805      	ldr	r0, [pc, #20]	; (80007a4 <lcd_sendcommands+0x30>)
 800078e:	f004 fcbf 	bl	8005110 <HAL_SPI_Transmit>
  DISP_INIT_SEND_DAT;
 8000792:	4630      	mov	r0, r6
}
 8000794:	e8bd 4070 	ldmia.w	sp!, {r4, r5, r6, lr}
  DISP_INIT_SEND_DAT;
 8000798:	2201      	movs	r2, #1
 800079a:	2102      	movs	r1, #2
 800079c:	f003 bdd2 	b.w	8004344 <HAL_GPIO_WritePin>
 80007a0:	40010800 	.word	0x40010800
 80007a4:	200005e0 	.word	0x200005e0

080007a8 <LCD_writebyte>:

void LCD_writebyte(uint8 byte) {
 80007a8:	b510      	push	{r4, lr}
  dispbuffer[bufpg][bufcl] |= byte;
 80007aa:	4b06      	ldr	r3, [pc, #24]	; (80007c4 <LCD_writebyte+0x1c>)
 80007ac:	4906      	ldr	r1, [pc, #24]	; (80007c8 <LCD_writebyte+0x20>)
 80007ae:	781c      	ldrb	r4, [r3, #0]
 80007b0:	4a06      	ldr	r2, [pc, #24]	; (80007cc <LCD_writebyte+0x24>)
 80007b2:	780b      	ldrb	r3, [r1, #0]
 80007b4:	eb02 12c4 	add.w	r2, r2, r4, lsl #7
 80007b8:	5cd4      	ldrb	r4, [r2, r3]
 80007ba:	4320      	orrs	r0, r4
 80007bc:	54d0      	strb	r0, [r2, r3]
  bufcl++;
 80007be:	3301      	adds	r3, #1
 80007c0:	700b      	strb	r3, [r1, #0]
}
 80007c2:	bd10      	pop	{r4, pc}
 80007c4:	2000014d 	.word	0x2000014d
 80007c8:	2000014c 	.word	0x2000014c
 80007cc:	2000014e 	.word	0x2000014e

080007d0 <LCD_erasestring>:
    i++;
  }
  return i;
}

void LCD_erasestring(uint8 length, uint8 pg, uint8 cl) {
 80007d0:	b538      	push	{r3, r4, r5, lr}
 80007d2:	4604      	mov	r4, r0
  LCD_setpagecolumn(pg, cl);
  for (uint8 i = 0; i < length; i++) LCD_writebyte(0x00);
 80007d4:	2500      	movs	r5, #0
  bufpg = pg;
 80007d6:	4b06      	ldr	r3, [pc, #24]	; (80007f0 <LCD_erasestring+0x20>)
 80007d8:	7019      	strb	r1, [r3, #0]
  bufcl = cl;
 80007da:	4b06      	ldr	r3, [pc, #24]	; (80007f4 <LCD_erasestring+0x24>)
 80007dc:	701a      	strb	r2, [r3, #0]
  for (uint8 i = 0; i < length; i++) LCD_writebyte(0x00);
 80007de:	42a5      	cmp	r5, r4
 80007e0:	d100      	bne.n	80007e4 <LCD_erasestring+0x14>
}
 80007e2:	bd38      	pop	{r3, r4, r5, pc}
  for (uint8 i = 0; i < length; i++) LCD_writebyte(0x00);
 80007e4:	2000      	movs	r0, #0
 80007e6:	f7ff ffdf 	bl	80007a8 <LCD_writebyte>
 80007ea:	3501      	adds	r5, #1
 80007ec:	e7f7      	b.n	80007de <LCD_erasestring+0xe>
 80007ee:	bf00      	nop
 80007f0:	2000014d 	.word	0x2000014d
 80007f4:	2000014c 	.word	0x2000014c

080007f8 <LCD_senddata>:
void LCD_bufupload_buferase(void) {
  LCDbuf_upload();
  LCDbuf_erase();
}

void LCD_senddata(const uint8* byte, uint8 N) {
 80007f8:	e92d 43f0 	stmdb	sp!, {r4, r5, r6, r7, r8, r9, lr}
  for (uint8 i = 0; i < N; i++) {
    dispbuffer[bufpg][bufcl + i] |= byte[i];
 80007fc:	4b11      	ldr	r3, [pc, #68]	; (8000844 <LCD_senddata+0x4c>)
 80007fe:	4d12      	ldr	r5, [pc, #72]	; (8000848 <LCD_senddata+0x50>)
 8000800:	f893 c000 	ldrb.w	ip, [r3]
    if (bufcl > 127) bufpg++;
 8000804:	f993 e000 	ldrsb.w	lr, [r3]
  for (uint8 i = 0; i < N; i++) {
 8000808:	2300      	movs	r3, #0
    dispbuffer[bufpg][bufcl + i] |= byte[i];
 800080a:	f8df 8040 	ldr.w	r8, [pc, #64]	; 800084c <LCD_senddata+0x54>
  for (uint8 i = 0; i < N; i++) {
 800080e:	b2da      	uxtb	r2, r3
 8000810:	4291      	cmp	r1, r2
 8000812:	d915      	bls.n	8000840 <LCD_senddata+0x48>
    dispbuffer[bufpg][bufcl + i] |= byte[i];
 8000814:	782a      	ldrb	r2, [r5, #0]
    if (bufcl > 127) bufpg++;
 8000816:	f1be 0f00 	cmp.w	lr, #0
    dispbuffer[bufpg][bufcl + i] |= byte[i];
 800081a:	eb08 17c2 	add.w	r7, r8, r2, lsl #7
    if (bufcl > 127) bufpg++;
 800081e:	bfb8      	it	lt
 8000820:	3201      	addlt	r2, #1
    dispbuffer[bufpg][bufcl + i] |= byte[i];
 8000822:	f810 9003 	ldrb.w	r9, [r0, r3]
 8000826:	eb0c 0403 	add.w	r4, ip, r3
    if (bufcl > 127) bufpg++;
 800082a:	bfb8      	it	lt
 800082c:	702a      	strblt	r2, [r5, #0]
    dispbuffer[bufpg][bufcl + i] |= byte[i];
 800082e:	5d3e      	ldrb	r6, [r7, r4]
    if (bufpg > 7) return;
 8000830:	782a      	ldrb	r2, [r5, #0]
    dispbuffer[bufpg][bufcl + i] |= byte[i];
 8000832:	ea46 0609 	orr.w	r6, r6, r9
    if (bufpg > 7) return;
 8000836:	2a07      	cmp	r2, #7
    dispbuffer[bufpg][bufcl + i] |= byte[i];
 8000838:	553e      	strb	r6, [r7, r4]
    if (bufpg > 7) return;
 800083a:	f103 0301 	add.w	r3, r3, #1
 800083e:	d9e6      	bls.n	800080e <LCD_senddata+0x16>
  }
}
 8000840:	e8bd 83f0 	ldmia.w	sp!, {r4, r5, r6, r7, r8, r9, pc}
 8000844:	2000014c 	.word	0x2000014c
 8000848:	2000014d 	.word	0x2000014d
 800084c:	2000014e 	.word	0x2000014e

08000850 <LCD_printsmb8x5>:
void LCD_printsmb8x5(const unsigned char ch, uint8 pg, uint8 cl) {
 8000850:	b5f8      	push	{r3, r4, r5, r6, r7, lr}
  bufpg = pg;
 8000852:	4f0a      	ldr	r7, [pc, #40]	; (800087c <LCD_printsmb8x5+0x2c>)
void LCD_printsmb8x5(const unsigned char ch, uint8 pg, uint8 cl) {
 8000854:	460d      	mov	r5, r1
  bufpg = pg;
 8000856:	7039      	strb	r1, [r7, #0]
void LCD_printsmb8x5(const unsigned char ch, uint8 pg, uint8 cl) {
 8000858:	4614      	mov	r4, r2
  LCD_senddata(char_8x5[ch], 5);
 800085a:	2105      	movs	r1, #5
 800085c:	4b08      	ldr	r3, [pc, #32]	; (8000880 <LCD_printsmb8x5+0x30>)
  bufcl = cl;
 800085e:	4e09      	ldr	r6, [pc, #36]	; (8000884 <LCD_printsmb8x5+0x34>)
  LCD_senddata(char_8x5[ch], 5);
 8000860:	eb00 0080 	add.w	r0, r0, r0, lsl #2
 8000864:	4418      	add	r0, r3
  LCD_setpagecolumn(pg, cl + 5);
 8000866:	440c      	add	r4, r1
  bufcl = cl;
 8000868:	7032      	strb	r2, [r6, #0]
  LCD_senddata(char_8x5[ch], 5);
 800086a:	f7ff ffc5 	bl	80007f8 <LCD_senddata>
  bufpg = pg;
 800086e:	703d      	strb	r5, [r7, #0]
  bufcl = cl;
 8000870:	7034      	strb	r4, [r6, #0]
  LCD_writebyte(0x00);
 8000872:	2000      	movs	r0, #0
}
 8000874:	e8bd 40f8 	ldmia.w	sp!, {r3, r4, r5, r6, r7, lr}
  LCD_writebyte(0x00);
 8000878:	f7ff bf96 	b.w	80007a8 <LCD_writebyte>
 800087c:	2000014d 	.word	0x2000014d
 8000880:	08006f50 	.word	0x08006f50
 8000884:	2000014c 	.word	0x2000014c

08000888 <LCD_printstr8x5>:
uint8 LCD_printstr8x5(const uint8 *str, uint8 pg, uint8 cl) {
 8000888:	b5f7      	push	{r0, r1, r2, r4, r5, r6, r7, lr}
 800088a:	4606      	mov	r6, r0
  uint8 str_null[] = "NULL";
 800088c:	466b      	mov	r3, sp
uint8 LCD_printstr8x5(const uint8 *str, uint8 pg, uint8 cl) {
 800088e:	460c      	mov	r4, r1
  if (str == NULL) str = str_null;
 8000890:	2e00      	cmp	r6, #0
 8000892:	bf14      	ite	ne
 8000894:	4637      	movne	r7, r6
 8000896:	461f      	moveq	r7, r3
  while (str[i]) {
 8000898:	2601      	movs	r6, #1
uint8 LCD_printstr8x5(const uint8 *str, uint8 pg, uint8 cl) {
 800089a:	4615      	mov	r5, r2
  uint8 str_null[] = "NULL";
 800089c:	4a12      	ldr	r2, [pc, #72]	; (80008e8 <LCD_printstr8x5+0x60>)
 800089e:	6810      	ldr	r0, [r2, #0]
 80008a0:	7912      	ldrb	r2, [r2, #4]
 80008a2:	9000      	str	r0, [sp, #0]
 80008a4:	711a      	strb	r2, [r3, #4]
  while (str[i]) {
 80008a6:	1e73      	subs	r3, r6, #1
 80008a8:	b2db      	uxtb	r3, r3
 80008aa:	5cf8      	ldrb	r0, [r7, r3]
 80008ac:	b910      	cbnz	r0, 80008b4 <LCD_printstr8x5+0x2c>
}
 80008ae:	4618      	mov	r0, r3
 80008b0:	b003      	add	sp, #12
 80008b2:	bdf0      	pop	{r4, r5, r6, r7, pc}
    if (cl > 123 && str[i] != '\n') {
 80008b4:	2d7b      	cmp	r5, #123	; 0x7b
 80008b6:	d907      	bls.n	80008c8 <LCD_printstr8x5+0x40>
 80008b8:	280a      	cmp	r0, #10
 80008ba:	d111      	bne.n	80008e0 <LCD_printstr8x5+0x58>
    if(str[i] == '\n') {cl = 0; pg++; i++; continue;}
 80008bc:	2500      	movs	r5, #0
 80008be:	3401      	adds	r4, #1
 80008c0:	b2e4      	uxtb	r4, r4
 80008c2:	3601      	adds	r6, #1
 80008c4:	b2f6      	uxtb	r6, r6
 80008c6:	e7ee      	b.n	80008a6 <LCD_printstr8x5+0x1e>
 80008c8:	280a      	cmp	r0, #10
 80008ca:	d0f7      	beq.n	80008bc <LCD_printstr8x5+0x34>
    LCD_printsmb8x5(str[i], pg, cl);
 80008cc:	462a      	mov	r2, r5
 80008ce:	4621      	mov	r1, r4
 80008d0:	f7ff ffbe 	bl	8000850 <LCD_printsmb8x5>
    cl += 6;
 80008d4:	3506      	adds	r5, #6
    if (pg > 7) return 0;
 80008d6:	2c07      	cmp	r4, #7
    cl += 6;
 80008d8:	b2ed      	uxtb	r5, r5
    if (pg > 7) return 0;
 80008da:	d9f2      	bls.n	80008c2 <LCD_printstr8x5+0x3a>
 80008dc:	2300      	movs	r3, #0
 80008de:	e7e6      	b.n	80008ae <LCD_printstr8x5+0x26>
      pg++;
 80008e0:	3401      	adds	r4, #1
      cl = 0;
 80008e2:	2500      	movs	r5, #0
      pg++;
 80008e4:	b2e4      	uxtb	r4, r4
 80008e6:	e7f1      	b.n	80008cc <LCD_printstr8x5+0x44>
 80008e8:	080069d3 	.word	0x080069d3

080008ec <LCDbuf_upload>:
/*----------------------------------------------------------------------------*/

/*------------------------WORKING THROUGH THE BUFFER--------------------------*/
void LCDbuf_upload(void) {
 80008ec:	e92d 41f3 	stmdb	sp!, {r0, r1, r4, r5, r6, r7, r8, lr}
 80008f0:	24b0      	movs	r4, #176	; 0xb0
	for(uint8_t j = 0; j < 8; j++)
	  {
		uint8_t tmp_arr[] = {(0xB0 + j), 0x10, 0x00};
 80008f2:	f04f 0810 	mov.w	r8, #16
 80008f6:	2700      	movs	r7, #0
 80008f8:	4d0d      	ldr	r5, [pc, #52]	; (8000930 <LCDbuf_upload+0x44>)
	    lcd_sendcommands(tmp_arr, 3);
	    HAL_SPI_Transmit(&hspi2, dispbuffer[j], 128, 10);
 80008fa:	4e0e      	ldr	r6, [pc, #56]	; (8000934 <LCDbuf_upload+0x48>)
	    lcd_sendcommands(tmp_arr, 3);
 80008fc:	2103      	movs	r1, #3
		uint8_t tmp_arr[] = {(0xB0 + j), 0x10, 0x00};
 80008fe:	f88d 4004 	strb.w	r4, [sp, #4]
	    lcd_sendcommands(tmp_arr, 3);
 8000902:	a801      	add	r0, sp, #4
	for(uint8_t j = 0; j < 8; j++)
 8000904:	3401      	adds	r4, #1
		uint8_t tmp_arr[] = {(0xB0 + j), 0x10, 0x00};
 8000906:	f88d 8005 	strb.w	r8, [sp, #5]
 800090a:	f88d 7006 	strb.w	r7, [sp, #6]
	for(uint8_t j = 0; j < 8; j++)
 800090e:	b2e4      	uxtb	r4, r4
	    lcd_sendcommands(tmp_arr, 3);
 8000910:	f7ff ff30 	bl	8000774 <lcd_sendcommands>
	    HAL_SPI_Transmit(&hspi2, dispbuffer[j], 128, 10);
 8000914:	4629      	mov	r1, r5
 8000916:	230a      	movs	r3, #10
 8000918:	2280      	movs	r2, #128	; 0x80
 800091a:	4630      	mov	r0, r6
 800091c:	f004 fbf8 	bl	8005110 <HAL_SPI_Transmit>
	for(uint8_t j = 0; j < 8; j++)
 8000920:	2cb8      	cmp	r4, #184	; 0xb8
 8000922:	f105 0580 	add.w	r5, r5, #128	; 0x80
 8000926:	d1e9      	bne.n	80008fc <LCDbuf_upload+0x10>
	  }
}
 8000928:	b002      	add	sp, #8
 800092a:	e8bd 81f0 	ldmia.w	sp!, {r4, r5, r6, r7, r8, pc}
 800092e:	bf00      	nop
 8000930:	2000014e 	.word	0x2000014e
 8000934:	200005e0 	.word	0x200005e0

08000938 <LCDbuf_erase>:

void LCDbuf_erase(void) {
  for (uint8 j = 0; j < 8; j++)
    for (uint8 i = 0; i < 128; i++) dispbuffer[j][i] = 0;
 8000938:	f44f 6280 	mov.w	r2, #1024	; 0x400
 800093c:	2100      	movs	r1, #0
 800093e:	4801      	ldr	r0, [pc, #4]	; (8000944 <LCDbuf_erase+0xc>)
 8000940:	f004 bfa0 	b.w	8005884 <memset>
 8000944:	2000014e 	.word	0x2000014e

08000948 <LCD_bufupload_buferase>:
void LCD_bufupload_buferase(void) {
 8000948:	b508      	push	{r3, lr}
  LCDbuf_upload();
 800094a:	f7ff ffcf 	bl	80008ec <LCDbuf_upload>
}
 800094e:	e8bd 4008 	ldmia.w	sp!, {r3, lr}
  LCDbuf_erase();
 8000952:	f7ff bff1 	b.w	8000938 <LCDbuf_erase>
	...

08000958 <LCD_init>:
{
 8000958:	b57f      	push	{r0, r1, r2, r3, r4, r5, r6, lr}
	DISP_RESET_OFF;
 800095a:	2201      	movs	r2, #1
 800095c:	2104      	movs	r1, #4
 800095e:	481e      	ldr	r0, [pc, #120]	; (80009d8 <LCD_init+0x80>)
 8000960:	f003 fcf0 	bl	8004344 <HAL_GPIO_WritePin>
	DISP_INIT_SEND_DAT;
 8000964:	2201      	movs	r2, #1
 8000966:	2102      	movs	r1, #2
 8000968:	481b      	ldr	r0, [pc, #108]	; (80009d8 <LCD_init+0x80>)
 800096a:	f003 fceb 	bl	8004344 <HAL_GPIO_WritePin>
	HAL_Delay(2);
 800096e:	2002      	movs	r0, #2
 8000970:	f003 f86c 	bl	8003a4c <HAL_Delay>
	DISP_RESET_ON;
 8000974:	2200      	movs	r2, #0
 8000976:	2104      	movs	r1, #4
 8000978:	4817      	ldr	r0, [pc, #92]	; (80009d8 <LCD_init+0x80>)
 800097a:	f003 fce3 	bl	8004344 <HAL_GPIO_WritePin>
	HAL_Delay(2);
 800097e:	2002      	movs	r0, #2
 8000980:	f003 f864 	bl	8003a4c <HAL_Delay>
	DISP_RESET_OFF;
 8000984:	2201      	movs	r2, #1
 8000986:	2104      	movs	r1, #4
 8000988:	4813      	ldr	r0, [pc, #76]	; (80009d8 <LCD_init+0x80>)
 800098a:	f003 fcdb 	bl	8004344 <HAL_GPIO_WritePin>
	DISP_INIT_SEND_COM;
 800098e:	2200      	movs	r2, #0
 8000990:	2102      	movs	r1, #2
 8000992:	4811      	ldr	r0, [pc, #68]	; (80009d8 <LCD_init+0x80>)
 8000994:	f003 fcd6 	bl	8004344 <HAL_GPIO_WritePin>
	uint8_t init_data_array[13] = {
 8000998:	466a      	mov	r2, sp
 800099a:	4615      	mov	r5, r2
 800099c:	4b0f      	ldr	r3, [pc, #60]	; (80009dc <LCD_init+0x84>)
 800099e:	f103 0608 	add.w	r6, r3, #8
 80009a2:	4614      	mov	r4, r2
 80009a4:	6818      	ldr	r0, [r3, #0]
 80009a6:	6859      	ldr	r1, [r3, #4]
 80009a8:	3308      	adds	r3, #8
 80009aa:	c403      	stmia	r4!, {r0, r1}
 80009ac:	42b3      	cmp	r3, r6
 80009ae:	4622      	mov	r2, r4
 80009b0:	d1f7      	bne.n	80009a2 <LCD_init+0x4a>
 80009b2:	6818      	ldr	r0, [r3, #0]
 80009b4:	791b      	ldrb	r3, [r3, #4]
	HAL_SPI_Transmit(&hspi2, init_data_array, 13, 20);
 80009b6:	4629      	mov	r1, r5
 80009b8:	220d      	movs	r2, #13
	uint8_t init_data_array[13] = {
 80009ba:	6020      	str	r0, [r4, #0]
 80009bc:	7123      	strb	r3, [r4, #4]
	HAL_SPI_Transmit(&hspi2, init_data_array, 13, 20);
 80009be:	4808      	ldr	r0, [pc, #32]	; (80009e0 <LCD_init+0x88>)
 80009c0:	2314      	movs	r3, #20
 80009c2:	f004 fba5 	bl	8005110 <HAL_SPI_Transmit>
	LCD_bufupload_buferase();
 80009c6:	f7ff ffbf 	bl	8000948 <LCD_bufupload_buferase>
	DISP_INIT_SEND_DAT;
 80009ca:	2201      	movs	r2, #1
 80009cc:	2102      	movs	r1, #2
 80009ce:	4802      	ldr	r0, [pc, #8]	; (80009d8 <LCD_init+0x80>)
 80009d0:	f003 fcb8 	bl	8004344 <HAL_GPIO_WritePin>
}
 80009d4:	b004      	add	sp, #16
 80009d6:	bd70      	pop	{r4, r5, r6, pc}
 80009d8:	40010800 	.word	0x40010800
 80009dc:	08006984 	.word	0x08006984
 80009e0:	200005e0 	.word	0x200005e0

080009e4 <LCD_printweekday>:
/*----------------------------------------------------------------------------*/

/*-----------------------------SYSTEM MENU ELEMENTS---------------------------*/

void LCD_printweekday(uint8 wdaynum, uint8 pg, uint8 cl) {
  LCD_printstr8x5(weekday[wdaynum], pg, cl);
 80009e4:	4b02      	ldr	r3, [pc, #8]	; (80009f0 <LCD_printweekday+0xc>)
 80009e6:	eb00 0040 	add.w	r0, r0, r0, lsl #1
 80009ea:	4418      	add	r0, r3
 80009ec:	f7ff bf4c 	b.w	8000888 <LCD_printstr8x5>
 80009f0:	08007488 	.word	0x08007488

080009f4 <LCD_printmonth>:
}

void LCD_printmonth(uint8 mon, uint8 pg, uint8 cl) {
  LCD_printstr8x5(month[mon - 1], pg, cl);
 80009f4:	4b02      	ldr	r3, [pc, #8]	; (8000a00 <LCD_printmonth+0xc>)
 80009f6:	3801      	subs	r0, #1
 80009f8:	eb03 0080 	add.w	r0, r3, r0, lsl #2
 80009fc:	f7ff bf44 	b.w	8000888 <LCD_printstr8x5>
 8000a00:	08007458 	.word	0x08007458

08000a04 <LCD_printclockanddate>:
}

void LCD_printclockanddate(uint8 pg, uint8 cl) {
 8000a04:	e92d 41ff 	stmdb	sp!, {r0, r1, r2, r3, r4, r5, r6, r7, r8, lr}
  uint8 day[3] = {dig_to_smb((rtcbcd.day & 0x30) >> 4), dig_to_smb(rtcbcd.day & 0x0F), '\0'};
 8000a08:	4e38      	ldr	r6, [pc, #224]	; (8000aec <LCD_printclockanddate+0xe8>)
void LCD_printclockanddate(uint8 pg, uint8 cl) {
 8000a0a:	4605      	mov	r5, r0
  uint8 day[3] = {dig_to_smb((rtcbcd.day & 0x30) >> 4), dig_to_smb(rtcbcd.day & 0x0F), '\0'};
 8000a0c:	78f0      	ldrb	r0, [r6, #3]
void LCD_printclockanddate(uint8 pg, uint8 cl) {
 8000a0e:	460c      	mov	r4, r1
  uint8 day[3] = {dig_to_smb((rtcbcd.day & 0x30) >> 4), dig_to_smb(rtcbcd.day & 0x0F), '\0'};
 8000a10:	f3c0 1001 	ubfx	r0, r0, #4, #2
 8000a14:	f7ff fbab 	bl	800016e <dig_to_smb>
 8000a18:	f88d 0000 	strb.w	r0, [sp]
 8000a1c:	78f0      	ldrb	r0, [r6, #3]
  uint8 hours[3] = {dig_to_smb(rtcraw.hour / 10), dig_to_smb(rtcraw.hour % 10), '\0'};
 8000a1e:	270a      	movs	r7, #10
  uint8 day[3] = {dig_to_smb((rtcbcd.day & 0x30) >> 4), dig_to_smb(rtcbcd.day & 0x0F), '\0'};
 8000a20:	f000 000f 	and.w	r0, r0, #15
 8000a24:	f7ff fba3 	bl	800016e <dig_to_smb>
 8000a28:	f04f 0800 	mov.w	r8, #0
  uint8 hours[3] = {dig_to_smb(rtcraw.hour / 10), dig_to_smb(rtcraw.hour % 10), '\0'};
 8000a2c:	4e30      	ldr	r6, [pc, #192]	; (8000af0 <LCD_printclockanddate+0xec>)
  uint8 day[3] = {dig_to_smb((rtcbcd.day & 0x30) >> 4), dig_to_smb(rtcbcd.day & 0x0F), '\0'};
 8000a2e:	f88d 0001 	strb.w	r0, [sp, #1]
  uint8 hours[3] = {dig_to_smb(rtcraw.hour / 10), dig_to_smb(rtcraw.hour % 10), '\0'};
 8000a32:	78b0      	ldrb	r0, [r6, #2]
  uint8 day[3] = {dig_to_smb((rtcbcd.day & 0x30) >> 4), dig_to_smb(rtcbcd.day & 0x0F), '\0'};
 8000a34:	f88d 8002 	strb.w	r8, [sp, #2]
  uint8 hours[3] = {dig_to_smb(rtcraw.hour / 10), dig_to_smb(rtcraw.hour % 10), '\0'};
 8000a38:	fbb0 f0f7 	udiv	r0, r0, r7
 8000a3c:	f7ff fb97 	bl	800016e <dig_to_smb>
 8000a40:	f88d 0004 	strb.w	r0, [sp, #4]
 8000a44:	78b0      	ldrb	r0, [r6, #2]
 8000a46:	fbb0 f3f7 	udiv	r3, r0, r7
 8000a4a:	fb07 0013 	mls	r0, r7, r3, r0
 8000a4e:	b2c0      	uxtb	r0, r0
 8000a50:	f7ff fb8d 	bl	800016e <dig_to_smb>
  uint8 colon[4] = {0x00, 0x12, 0x00}; // ':' colon
 8000a54:	f44f 5390 	mov.w	r3, #4608	; 0x1200
  uint8 hours[3] = {dig_to_smb(rtcraw.hour / 10), dig_to_smb(rtcraw.hour % 10), '\0'};
 8000a58:	f88d 0005 	strb.w	r0, [sp, #5]
  uint8 minutes[3] = {dig_to_smb(rtcraw.min / 10), dig_to_smb(rtcraw.min % 10), '\0'};
 8000a5c:	7870      	ldrb	r0, [r6, #1]
  uint8 colon[4] = {0x00, 0x12, 0x00}; // ':' colon
 8000a5e:	9303      	str	r3, [sp, #12]
  uint8 minutes[3] = {dig_to_smb(rtcraw.min / 10), dig_to_smb(rtcraw.min % 10), '\0'};
 8000a60:	fbb0 f0f7 	udiv	r0, r0, r7
  uint8 hours[3] = {dig_to_smb(rtcraw.hour / 10), dig_to_smb(rtcraw.hour % 10), '\0'};
 8000a64:	f88d 8006 	strb.w	r8, [sp, #6]
  uint8 minutes[3] = {dig_to_smb(rtcraw.min / 10), dig_to_smb(rtcraw.min % 10), '\0'};
 8000a68:	f7ff fb81 	bl	800016e <dig_to_smb>
 8000a6c:	f88d 0008 	strb.w	r0, [sp, #8]
 8000a70:	7870      	ldrb	r0, [r6, #1]
 8000a72:	fbb0 f3f7 	udiv	r3, r0, r7
 8000a76:	fb07 0013 	mls	r0, r7, r3, r0
 8000a7a:	b2c0      	uxtb	r0, r0
 8000a7c:	f7ff fb77 	bl	800016e <dig_to_smb>
  LCD_printstr8x5(day, pg, cl);
 8000a80:	4622      	mov	r2, r4
 8000a82:	4629      	mov	r1, r5
  uint8 minutes[3] = {dig_to_smb(rtcraw.min / 10), dig_to_smb(rtcraw.min % 10), '\0'};
 8000a84:	f88d 0009 	strb.w	r0, [sp, #9]
  LCD_printstr8x5(day, pg, cl);
 8000a88:	4668      	mov	r0, sp
  uint8 minutes[3] = {dig_to_smb(rtcraw.min / 10), dig_to_smb(rtcraw.min % 10), '\0'};
 8000a8a:	f88d 800a 	strb.w	r8, [sp, #10]
  LCD_printstr8x5(day, pg, cl);
 8000a8e:	f7ff fefb 	bl	8000888 <LCD_printstr8x5>
  LCD_printmonth(rtcraw.month, pg, cl + 14);
 8000a92:	f104 020e 	add.w	r2, r4, #14
 8000a96:	4629      	mov	r1, r5
 8000a98:	7970      	ldrb	r0, [r6, #5]
 8000a9a:	b2d2      	uxtb	r2, r2
 8000a9c:	f7ff ffaa 	bl	80009f4 <LCD_printmonth>
  LCD_printstr8x5(weekday[wdaynum], pg, cl);
 8000aa0:	7930      	ldrb	r0, [r6, #4]
 8000aa2:	4b14      	ldr	r3, [pc, #80]	; (8000af4 <LCD_printclockanddate+0xf0>)
  LCD_printweekday(rtcraw.weekday, pg, cl + 35);
 8000aa4:	f104 0223 	add.w	r2, r4, #35	; 0x23
  LCD_printstr8x5(weekday[wdaynum], pg, cl);
 8000aa8:	eb00 0040 	add.w	r0, r0, r0, lsl #1
 8000aac:	4629      	mov	r1, r5
 8000aae:	4418      	add	r0, r3
 8000ab0:	b2d2      	uxtb	r2, r2
 8000ab2:	f7ff fee9 	bl	8000888 <LCD_printstr8x5>
  LCD_printstr8x5(hours, pg, cl + 49);
 8000ab6:	f104 0231 	add.w	r2, r4, #49	; 0x31
 8000aba:	4629      	mov	r1, r5
 8000abc:	b2d2      	uxtb	r2, r2
 8000abe:	a801      	add	r0, sp, #4
 8000ac0:	f7ff fee2 	bl	8000888 <LCD_printstr8x5>
  bufpg = pg;
 8000ac4:	4b0c      	ldr	r3, [pc, #48]	; (8000af8 <LCD_printclockanddate+0xf4>)
  LCD_setpagecolumn(pg, cl + 61);
 8000ac6:	f104 023d 	add.w	r2, r4, #61	; 0x3d
  bufpg = pg;
 8000aca:	701d      	strb	r5, [r3, #0]
  bufcl = cl;
 8000acc:	4b0b      	ldr	r3, [pc, #44]	; (8000afc <LCD_printclockanddate+0xf8>)
  LCD_senddata(colon, 3);
 8000ace:	a803      	add	r0, sp, #12
 8000ad0:	2103      	movs	r1, #3
  bufcl = cl;
 8000ad2:	701a      	strb	r2, [r3, #0]
  LCD_senddata(colon, 3);
 8000ad4:	f7ff fe90 	bl	80007f8 <LCD_senddata>
  LCD_printstr8x5(minutes, pg, cl + 64);
 8000ad8:	f104 0240 	add.w	r2, r4, #64	; 0x40
 8000adc:	4629      	mov	r1, r5
 8000ade:	b2d2      	uxtb	r2, r2
 8000ae0:	a802      	add	r0, sp, #8
 8000ae2:	f7ff fed1 	bl	8000888 <LCD_printstr8x5>
}
 8000ae6:	b004      	add	sp, #16
 8000ae8:	e8bd 81f0 	ldmia.w	sp!, {r4, r5, r6, r7, r8, pc}
 8000aec:	20000137 	.word	0x20000137
 8000af0:	2000013e 	.word	0x2000013e
 8000af4:	08007488 	.word	0x08007488
 8000af8:	2000014d 	.word	0x2000014d
 8000afc:	2000014c 	.word	0x2000014c

08000b00 <LCD_printbrightnes>:

void LCD_printbrightnes(uint8 pg, uint8 cl) //  size 26 column
{
 8000b00:	b5f8      	push	{r3, r4, r5, r6, r7, lr}
 8000b02:	460c      	mov	r4, r1
 8000b04:	4605      	mov	r5, r0
  bufpg = pg;
 8000b06:	4f0b      	ldr	r7, [pc, #44]	; (8000b34 <LCD_printbrightnes+0x34>)
  bufcl = cl;
 8000b08:	4e0b      	ldr	r6, [pc, #44]	; (8000b38 <LCD_printbrightnes+0x38>)
  bufpg = pg;
 8000b0a:	7038      	strb	r0, [r7, #0]
  bufcl = cl;
 8000b0c:	7031      	strb	r1, [r6, #0]
  LCD_setpagecolumn(pg, cl);
  LCD_senddata(bright_icon, 8);
 8000b0e:	480b      	ldr	r0, [pc, #44]	; (8000b3c <LCD_printbrightnes+0x3c>)
 8000b10:	2108      	movs	r1, #8
 8000b12:	f7ff fe71 	bl	80007f8 <LCD_senddata>
  LCD_setpagecolumn(pg, cl + 9);
  LCD_senddata(bright_lvl[brightlvl], 15);
 8000b16:	4b0a      	ldr	r3, [pc, #40]	; (8000b40 <LCD_printbrightnes+0x40>)
  LCD_setpagecolumn(pg, cl + 9);
 8000b18:	3409      	adds	r4, #9
  LCD_senddata(bright_lvl[brightlvl], 15);
 8000b1a:	7818      	ldrb	r0, [r3, #0]
 8000b1c:	4b09      	ldr	r3, [pc, #36]	; (8000b44 <LCD_printbrightnes+0x44>)
 8000b1e:	ebc0 1000 	rsb	r0, r0, r0, lsl #4
  bufpg = pg;
 8000b22:	703d      	strb	r5, [r7, #0]
  bufcl = cl;
 8000b24:	7034      	strb	r4, [r6, #0]
  LCD_senddata(bright_lvl[brightlvl], 15);
 8000b26:	4418      	add	r0, r3
 8000b28:	210f      	movs	r1, #15
}
 8000b2a:	e8bd 40f8 	ldmia.w	sp!, {r3, r4, r5, r6, r7, lr}
  LCD_senddata(bright_lvl[brightlvl], 15);
 8000b2e:	f7ff be63 	b.w	80007f8 <LCD_senddata>
 8000b32:	bf00      	nop
 8000b34:	2000014d 	.word	0x2000014d
 8000b38:	2000014c 	.word	0x2000014c
 8000b3c:	08006ad0 	.word	0x08006ad0
 8000b40:	20000132 	.word	0x20000132
 8000b44:	08006ad8 	.word	0x08006ad8

08000b48 <LCD_printbatlevel>:
  bufpg = pg;
 8000b48:	4b06      	ldr	r3, [pc, #24]	; (8000b64 <LCD_printbatlevel+0x1c>)

void LCD_printbatlevel(uint8 lvl, uint8 pg, uint8 cl) {
  if (lvl == 100) lvl = 5; // 100 -shutdown code
 8000b4a:	2864      	cmp	r0, #100	; 0x64
  bufpg = pg;
 8000b4c:	7019      	strb	r1, [r3, #0]
  if (lvl == 100) lvl = 5; // 100 -shutdown code
 8000b4e:	bf08      	it	eq
 8000b50:	2005      	moveq	r0, #5
  LCD_setpagecolumn(pg, cl);
  LCD_senddata(battary_2[lvl], 20);
 8000b52:	2114      	movs	r1, #20
  bufcl = cl;
 8000b54:	4b04      	ldr	r3, [pc, #16]	; (8000b68 <LCD_printbatlevel+0x20>)
 8000b56:	701a      	strb	r2, [r3, #0]
  LCD_senddata(battary_2[lvl], 20);
 8000b58:	4b04      	ldr	r3, [pc, #16]	; (8000b6c <LCD_printbatlevel+0x24>)
 8000b5a:	fb01 3000 	mla	r0, r1, r0, r3
 8000b5e:	f7ff be4b 	b.w	80007f8 <LCD_senddata>
 8000b62:	bf00      	nop
 8000b64:	2000014d 	.word	0x2000014d
 8000b68:	2000014c 	.word	0x2000014c
 8000b6c:	08006a58 	.word	0x08006a58

08000b70 <LCD_printmenucoursor>:
  bufpg = pg;
 8000b70:	4b03      	ldr	r3, [pc, #12]	; (8000b80 <LCD_printmenucoursor+0x10>)
 8000b72:	7018      	strb	r0, [r3, #0]
  bufcl = cl;
 8000b74:	4b03      	ldr	r3, [pc, #12]	; (8000b84 <LCD_printmenucoursor+0x14>)
}

void LCD_printmenucoursor(uint8 pg, uint8 cl) {
  LCD_setpagecolumn(pg, cl);
  LCD_senddata(menu_pointer, 8);
 8000b76:	4804      	ldr	r0, [pc, #16]	; (8000b88 <LCD_printmenucoursor+0x18>)
  bufcl = cl;
 8000b78:	7019      	strb	r1, [r3, #0]
  LCD_senddata(menu_pointer, 8);
 8000b7a:	2108      	movs	r1, #8
 8000b7c:	f7ff be3c 	b.w	80007f8 <LCD_senddata>
 8000b80:	2000014d 	.word	0x2000014d
 8000b84:	2000014c 	.word	0x2000014c
 8000b88:	08007450 	.word	0x08007450

08000b8c <LCD_printbutselhint>:
}

void LCD_printbutselhint(uint8 hintnum, uint8 pg, uint8 cl) {
 8000b8c:	e92d 4ff8 	stmdb	sp!, {r3, r4, r5, r6, r7, r8, r9, sl, fp, lr}
 8000b90:	460f      	mov	r7, r1
 8000b92:	4690      	mov	r8, r2
 8000b94:	2400      	movs	r4, #0
 8000b96:	4e0d      	ldr	r6, [pc, #52]	; (8000bcc <LCD_printbutselhint+0x40>)
  bufpg = pg;
 8000b98:	f8df 9034 	ldr.w	r9, [pc, #52]	; 8000bd0 <LCD_printbutselhint+0x44>
  bufcl = cl;
 8000b9c:	f8df a034 	ldr.w	sl, [pc, #52]	; 8000bd4 <LCD_printbutselhint+0x48>
 8000ba0:	eb06 16c0 	add.w	r6, r6, r0, lsl #7
 8000ba4:	2500      	movs	r5, #0
  bufpg = pg;
 8000ba6:	193b      	adds	r3, r7, r4
 8000ba8:	f889 3000 	strb.w	r3, [r9]
  bufcl = cl;
 8000bac:	f88a 8000 	strb.w	r8, [sl]
  for (uint8 j = 0; j < 4; j++) {
    LCD_setpagecolumn(pg + j, cl);
    for (uint8 i = 0; i < 32; i++) LCD_writebyte(but_sel_hint[hintnum][(i * 4 + j)]);
 8000bb0:	eb04 0b06 	add.w	fp, r4, r6
 8000bb4:	f81b 0025 	ldrb.w	r0, [fp, r5, lsl #2]
 8000bb8:	3501      	adds	r5, #1
 8000bba:	f7ff fdf5 	bl	80007a8 <LCD_writebyte>
 8000bbe:	2d20      	cmp	r5, #32
 8000bc0:	d1f8      	bne.n	8000bb4 <LCD_printbutselhint+0x28>
  for (uint8 j = 0; j < 4; j++) {
 8000bc2:	3401      	adds	r4, #1
 8000bc4:	2c04      	cmp	r4, #4
 8000bc6:	d1ed      	bne.n	8000ba4 <LCD_printbutselhint+0x18>
  }
}
 8000bc8:	e8bd 8ff8 	ldmia.w	sp!, {r3, r4, r5, r6, r7, r8, r9, sl, fp, pc}
 8000bcc:	08006b50 	.word	0x08006b50
 8000bd0:	2000014d 	.word	0x2000014d
 8000bd4:	2000014c 	.word	0x2000014c

08000bd8 <LCD_printvertline>:

void LCD_printvertline(uint8 linelength, uint8 startline, uint8 cl) {
  if ((linelength - startline) > 63) return;
 8000bd8:	1a43      	subs	r3, r0, r1
 8000bda:	2b3f      	cmp	r3, #63	; 0x3f
void LCD_printvertline(uint8 linelength, uint8 startline, uint8 cl) {
 8000bdc:	e92d 4ff7 	stmdb	sp!, {r0, r1, r2, r4, r5, r6, r7, r8, r9, sl, fp, lr}
 8000be0:	4615      	mov	r5, r2
  if ((linelength - startline) > 63) return;
 8000be2:	dc42      	bgt.n	8000c6a <LCD_printvertline+0x92>
  uint8 startpg = startline / 8;
  uint8 bitshifting = (startline % 8);
  uint8 lengthinpages = (linelength - (8 - bitshifting)) / 8;
  uint8 temp = (uint8) (0xFF << bitshifting);
 8000be4:	f04f 0aff 	mov.w	sl, #255	; 0xff
  uint8 startpg = startline / 8;
 8000be8:	ea4f 09d1 	mov.w	r9, r1, lsr #3
  uint8 lengthinpages = (linelength - (8 - bitshifting)) / 8;
 8000bec:	f001 0107 	and.w	r1, r1, #7
 8000bf0:	f1c1 0408 	rsb	r4, r1, #8
 8000bf4:	1b04      	subs	r4, r0, r4
  uint8 temp = (uint8) (0xFF << bitshifting);
 8000bf6:	fa0a f101 	lsl.w	r1, sl, r1
  uint8 lengthinpages = (linelength - (8 - bitshifting)) / 8;
 8000bfa:	4626      	mov	r6, r4
  uint8 temp = (uint8) (0xFF << bitshifting);
 8000bfc:	f88d 1007 	strb.w	r1, [sp, #7]
  LCD_setpagecolumn(startpg, cl);
  LCD_senddata(&temp, 1);
 8000c00:	2101      	movs	r1, #1
  temp = 0xFF;
  for (uint8 i = 0; i < lengthinpages; i++) {
 8000c02:	f04f 0b00 	mov.w	fp, #0
  uint8 lengthinpages = (linelength - (8 - bitshifting)) / 8;
 8000c06:	2c00      	cmp	r4, #0
  bufpg = pg;
 8000c08:	f8df 8078 	ldr.w	r8, [pc, #120]	; 8000c84 <LCD_printvertline+0xac>
  bufcl = cl;
 8000c0c:	4f1e      	ldr	r7, [pc, #120]	; (8000c88 <LCD_printvertline+0xb0>)
  uint8 lengthinpages = (linelength - (8 - bitshifting)) / 8;
 8000c0e:	bfb8      	it	lt
 8000c10:	1de6      	addlt	r6, r4, #7
  LCD_senddata(&temp, 1);
 8000c12:	f10d 0007 	add.w	r0, sp, #7
  bufpg = pg;
 8000c16:	f888 9000 	strb.w	r9, [r8]
  bufcl = cl;
 8000c1a:	703a      	strb	r2, [r7, #0]
  uint8 lengthinpages = (linelength - (8 - bitshifting)) / 8;
 8000c1c:	f3c6 06c7 	ubfx	r6, r6, #3, #8
  LCD_senddata(&temp, 1);
 8000c20:	f7ff fdea 	bl	80007f8 <LCD_senddata>
  temp = 0xFF;
 8000c24:	f88d a007 	strb.w	sl, [sp, #7]
  for (uint8 i = 0; i < lengthinpages; i++) {
 8000c28:	eb09 0a01 	add.w	sl, r9, r1
 8000c2c:	f10b 0b01 	add.w	fp, fp, #1
 8000c30:	fa5f f38b 	uxtb.w	r3, fp
 8000c34:	1e5a      	subs	r2, r3, #1
 8000c36:	b2d2      	uxtb	r2, r2
 8000c38:	4296      	cmp	r6, r2
 8000c3a:	d819      	bhi.n	8000c70 <LCD_printvertline+0x98>
    LCD_setpagecolumn(startpg + 1 + i, cl);
    LCD_senddata(&temp, 1);
  }
  temp = 0xFF >> (8 - (linelength - (8 - bitshifting)) % 8);
 8000c3c:	4263      	negs	r3, r4
 8000c3e:	f003 0307 	and.w	r3, r3, #7
 8000c42:	f004 0407 	and.w	r4, r4, #7
 8000c46:	bf58      	it	pl
 8000c48:	425c      	negpl	r4, r3
 8000c4a:	23ff      	movs	r3, #255	; 0xff
 8000c4c:	f1c4 0408 	rsb	r4, r4, #8
 8000c50:	fa43 f404 	asr.w	r4, r3, r4
  LCD_setpagecolumn(startpg + 1 + lengthinpages, cl);
 8000c54:	4456      	add	r6, sl
  LCD_senddata(&temp, 1);
 8000c56:	2101      	movs	r1, #1
 8000c58:	f10d 0007 	add.w	r0, sp, #7
  temp = 0xFF >> (8 - (linelength - (8 - bitshifting)) % 8);
 8000c5c:	f88d 4007 	strb.w	r4, [sp, #7]
  bufpg = pg;
 8000c60:	f888 6000 	strb.w	r6, [r8]
  bufcl = cl;
 8000c64:	703d      	strb	r5, [r7, #0]
  LCD_senddata(&temp, 1);
 8000c66:	f7ff fdc7 	bl	80007f8 <LCD_senddata>
}
 8000c6a:	b003      	add	sp, #12
 8000c6c:	e8bd 8ff0 	ldmia.w	sp!, {r4, r5, r6, r7, r8, r9, sl, fp, pc}
  bufpg = pg;
 8000c70:	444b      	add	r3, r9
    LCD_senddata(&temp, 1);
 8000c72:	2101      	movs	r1, #1
 8000c74:	f10d 0007 	add.w	r0, sp, #7
  bufpg = pg;
 8000c78:	f888 3000 	strb.w	r3, [r8]
  bufcl = cl;
 8000c7c:	703d      	strb	r5, [r7, #0]
    LCD_senddata(&temp, 1);
 8000c7e:	f7ff fdbb 	bl	80007f8 <LCD_senddata>
  for (uint8 i = 0; i < lengthinpages; i++) {
 8000c82:	e7d3      	b.n	8000c2c <LCD_printvertline+0x54>
 8000c84:	2000014d 	.word	0x2000014d
 8000c88:	2000014c 	.word	0x2000014c

08000c8c <LCD_printhorline>:

void LCD_printhorline(uint8 linelength, uint8 startstring, uint8 cl) {
  if ((linelength - cl) > 127) return;
 8000c8c:	1a83      	subs	r3, r0, r2
 8000c8e:	2b7f      	cmp	r3, #127	; 0x7f
void LCD_printhorline(uint8 linelength, uint8 startstring, uint8 cl) {
 8000c90:	e92d 41f3 	stmdb	sp!, {r0, r1, r4, r5, r6, r7, r8, lr}
 8000c94:	4614      	mov	r4, r2
  if ((linelength - cl) > 127) return;
 8000c96:	dc11      	bgt.n	8000cbc <LCD_printhorline+0x30>
  uint8 startpg = startstring / 8;
  uint8 bitshifting = (startstring % 8);
  uint8 temp = (uint8) (0x1 << bitshifting);
 8000c98:	2301      	movs	r3, #1
  uint8 startpg = startstring / 8;
 8000c9a:	08ce      	lsrs	r6, r1, #3
  bufpg = pg;
 8000c9c:	4f0e      	ldr	r7, [pc, #56]	; (8000cd8 <LCD_printhorline+0x4c>)
  bufcl = cl;
 8000c9e:	f8df 803c 	ldr.w	r8, [pc, #60]	; 8000cdc <LCD_printhorline+0x50>
  uint8 temp = (uint8) (0x1 << bitshifting);
 8000ca2:	f001 0107 	and.w	r1, r1, #7
 8000ca6:	fa03 f101 	lsl.w	r1, r3, r1
 8000caa:	4410      	add	r0, r2
 8000cac:	f88d 1007 	strb.w	r1, [sp, #7]
  bufpg = pg;
 8000cb0:	703e      	strb	r6, [r7, #0]
  bufcl = cl;
 8000cb2:	f888 2000 	strb.w	r2, [r8]
  LCD_setpagecolumn(startpg, cl);
  for (uint8 i = 0; i < linelength; i++) {
 8000cb6:	b2c5      	uxtb	r5, r0
 8000cb8:	42ac      	cmp	r4, r5
 8000cba:	d102      	bne.n	8000cc2 <LCD_printhorline+0x36>
    LCD_setpagecolumn(startpg, cl + i);
    LCD_senddata(&temp, 1);
  }
}
 8000cbc:	b002      	add	sp, #8
 8000cbe:	e8bd 81f0 	ldmia.w	sp!, {r4, r5, r6, r7, r8, pc}
    LCD_senddata(&temp, 1);
 8000cc2:	2101      	movs	r1, #1
  bufcl = cl;
 8000cc4:	f888 4000 	strb.w	r4, [r8]
    LCD_senddata(&temp, 1);
 8000cc8:	f10d 0007 	add.w	r0, sp, #7
 8000ccc:	440c      	add	r4, r1
  bufpg = pg;
 8000cce:	703e      	strb	r6, [r7, #0]
    LCD_senddata(&temp, 1);
 8000cd0:	b2e4      	uxtb	r4, r4
 8000cd2:	f7ff fd91 	bl	80007f8 <LCD_senddata>
  for (uint8 i = 0; i < linelength; i++) {
 8000cd6:	e7ef      	b.n	8000cb8 <LCD_printhorline+0x2c>
 8000cd8:	2000014d 	.word	0x2000014d
 8000cdc:	2000014c 	.word	0x2000014c

08000ce0 <LCD_printsprite>:
/*----------------------------------------------------------------------------*/

/*------------------------------GAME OBJECTS----------------------------------*/
void LCD_printsprite(int8 startline, int8 startcolumn, const tSprite * const Sprite) {
 8000ce0:	e92d 4ff0 	stmdb	sp!, {r4, r5, r6, r7, r8, r9, sl, fp, lr}
  uint16 m = 0, mprev = 0;
  uint8 column_shift = 0;
  uint8 line_shift = (uint8)startline % 8;
  int8 pages_max = (int8)Sprite->pages;
  uint8 page_shift = 0;
  bufpg = (uint8)startline / 8;
 8000ce4:	4ebc      	ldr	r6, [pc, #752]	; (8000fd8 <LCD_printsprite+0x2f8>)
 8000ce6:	f3c0 04c4 	ubfx	r4, r0, #3, #5
  int8 pages_max = (int8)Sprite->pages;
 8000cea:	f992 b000 	ldrsb.w	fp, [r2]
  bufpg = (uint8)startline / 8;
 8000cee:	7034      	strb	r4, [r6, #0]
  if (startcolumn < 0) {
    if(startline >= 0) {
      bufcl = 0;
      columns_max = (int16)Sprite->columns + (int16)startcolumn;
 8000cf0:	7854      	ldrb	r4, [r2, #1]
void LCD_printsprite(int8 startline, int8 startcolumn, const tSprite * const Sprite) {
 8000cf2:	b08d      	sub	sp, #52	; 0x34
  if (startcolumn < 0) {
 8000cf4:	2900      	cmp	r1, #0
 8000cf6:	4fb9      	ldr	r7, [pc, #740]	; (8000fdc <LCD_printsprite+0x2fc>)
  uint8 line_shift = (uint8)startline % 8;
 8000cf8:	fa5f fc80 	uxtb.w	ip, r0
 8000cfc:	f000 0307 	and.w	r3, r0, #7
      if (columns_max < 0) columns_max = 0;
      m = (uint16)(-startcolumn) * Sprite->pages;
      column_shift = (uint8)(-startcolumn);
 8000d00:	b2cd      	uxtb	r5, r1
      columns_max = (int16)Sprite->columns + (int16)startcolumn;
 8000d02:	9400      	str	r4, [sp, #0]
 8000d04:	eb01 0e04 	add.w	lr, r1, r4
  if (startcolumn < 0) {
 8000d08:	da61      	bge.n	8000dce <LCD_printsprite+0xee>
      column_shift = (uint8)(-startcolumn);
 8000d0a:	426d      	negs	r5, r5
      m = (uint16)(-startcolumn) * Sprite->pages;
 8000d0c:	424c      	negs	r4, r1
 8000d0e:	ea2e 71ee 	bic.w	r1, lr, lr, asr #31
 8000d12:	9100      	str	r1, [sp, #0]
      column_shift = (uint8)(-startcolumn);
 8000d14:	b2e9      	uxtb	r1, r5
 8000d16:	2500      	movs	r5, #0
    if(startline >= 0) {
 8000d18:	2800      	cmp	r0, #0
      bufcl = 0;
 8000d1a:	703d      	strb	r5, [r7, #0]
    if(startline >= 0) {
 8000d1c:	db3f      	blt.n	8000d9e <LCD_printsprite+0xbe>
      m = (uint16)(-startcolumn) * Sprite->pages;
 8000d1e:	f892 c000 	ldrb.w	ip, [r2]
 8000d22:	fb04 f40c 	mul.w	r4, r4, ip
      page_shift = (uint8)-startline/8 + 1;
      m = page_shift;
    }
  }
  
  switch (Sprite->direct) {
 8000d26:	f892 c008 	ldrb.w	ip, [r2, #8]
 8000d2a:	f1bc 0f00 	cmp.w	ip, #0
 8000d2e:	d07c      	beq.n	8000e2a <LCD_printsprite+0x14a>
 8000d30:	f1bc 0f01 	cmp.w	ip, #1
 8000d34:	f040 816e 	bne.w	8001014 <LCD_printsprite+0x334>
 8000d38:	2b00      	cmp	r3, #0
 8000d3a:	bf0c      	ite	eq
 8000d3c:	4659      	moveq	r1, fp
 8000d3e:	f10b 0101 	addne.w	r1, fp, #1
 8000d42:	9108      	str	r1, [sp, #32]
              mprev = m;
              m++;
            }
          }
          if ((i > 0) && (i < pages_max)) {
            if((bufpg + i) < 8 && (bufcl + j) <= 127) dispbuffer[bufpg + i][bufcl + j] |= (Sprite->sprite[mprev + page_shift * j] >> (8 - line_shift))| 
 8000d44:	7839      	ldrb	r1, [r7, #0]
 8000d46:	f896 e000 	ldrb.w	lr, [r6]
 8000d4a:	9107      	str	r1, [sp, #28]
 8000d4c:	2100      	movs	r1, #0
  uint16 m = 0, mprev = 0;
 8000d4e:	460f      	mov	r7, r1
            if((bufpg + i) < 8 && (bufcl + j) <= 127) dispbuffer[bufpg + i][bufcl + j] |= (Sprite->sprite[mprev + page_shift * j] >> (8 - line_shift))| 
 8000d50:	9102      	str	r1, [sp, #8]
 8000d52:	f1c3 0108 	rsb	r1, r3, #8
 8000d56:	9104      	str	r1, [sp, #16]
            mprev = m;
            m++;
          }
          if (i == pages_max) {
            
            if((bufpg + i) < 8 && (bufcl + j) <= 127) dispbuffer[bufpg + i][bufcl + j] |= Sprite->sprite[mprev + page_shift * j] >> (8 - line_shift);
 8000d58:	eb0e 010b 	add.w	r1, lr, fp
 8000d5c:	9109      	str	r1, [sp, #36]	; 0x24
 8000d5e:	49a0      	ldr	r1, [pc, #640]	; (8000fe0 <LCD_printsprite+0x300>)
 8000d60:	eb0e 060b 	add.w	r6, lr, fp
 8000d64:	eb01 16c6 	add.w	r6, r1, r6, lsl #7
              if((bufpg + i) < 8 && (bufcl + j) <= 127)  dispbuffer[bufpg + i][bufcl + j] |= (Sprite->sprite[mprev + page_shift * j] >> (8 - line_shift))|
 8000d68:	eb01 11ce 	add.w	r1, r1, lr, lsl #7
            if((bufpg + i) < 8 && (bufcl + j) <= 127) dispbuffer[bufpg + i][bufcl + j] |= Sprite->sprite[mprev + page_shift * j] >> (8 - line_shift);
 8000d6c:	960a      	str	r6, [sp, #40]	; 0x28
              if((bufpg + i) < 8 && (bufcl + j) <= 127)  dispbuffer[bufpg + i][bufcl + j] |= (Sprite->sprite[mprev + page_shift * j] >> (8 - line_shift))|
 8000d6e:	910b      	str	r1, [sp, #44]	; 0x2c
      for (uint8 j = 0; j < columns_max; j++) {
 8000d70:	f89d 6008 	ldrb.w	r6, [sp, #8]
 8000d74:	9900      	ldr	r1, [sp, #0]
 8000d76:	428e      	cmp	r6, r1
 8000d78:	f280 814c 	bge.w	8001014 <LCD_printsprite+0x334>
            if((bufpg + i) < 8 && (bufcl + j) <= 127) dispbuffer[bufpg + i][bufcl + j] |= (Sprite->sprite[mprev + page_shift * j] >> (8 - line_shift))| 
 8000d7c:	9907      	ldr	r1, [sp, #28]
 8000d7e:	eb01 0c06 	add.w	ip, r1, r6
 8000d82:	fb05 f106 	mul.w	r1, r5, r6
 8000d86:	9101      	str	r1, [sp, #4]
 8000d88:	3901      	subs	r1, #1
 8000d8a:	9106      	str	r1, [sp, #24]
 8000d8c:	2100      	movs	r1, #0
 8000d8e:	9103      	str	r1, [sp, #12]
            if((bufpg + i) < 8 && (bufcl + j) <= 127) dispbuffer[bufpg + i][bufcl + j] |= Sprite->sprite[mprev + page_shift * j] >> (8 - line_shift);
 8000d90:	990a      	ldr	r1, [sp, #40]	; 0x28
 8000d92:	4461      	add	r1, ip
 8000d94:	9105      	str	r1, [sp, #20]
              if((bufpg + i) < 8 && (bufcl + j) <= 127)  dispbuffer[bufpg + i][bufcl + j] |= (Sprite->sprite[mprev + page_shift * j] >> (8 - line_shift))|
 8000d96:	990b      	ldr	r1, [sp, #44]	; 0x2c
 8000d98:	eb01 080c 	add.w	r8, r1, ip
 8000d9c:	e112      	b.n	8000fc4 <LCD_printsprite+0x2e4>
      bufpg = 0;
 8000d9e:	7035      	strb	r5, [r6, #0]
      pages_max = (int8)Sprite->pages + startline/8 - 1;
 8000da0:	f892 e000 	ldrb.w	lr, [r2]
      line_shift = 8 - (uint8)-startline % 8;
 8000da4:	f1cc 0c00 	rsb	ip, ip, #0
      pages_max = (int8)Sprite->pages + startline/8 - 1;
 8000da8:	1dc5      	adds	r5, r0, #7
 8000daa:	f10e 38ff 	add.w	r8, lr, #4294967295
      line_shift = 8 - (uint8)-startline % 8;
 8000dae:	f00c 0307 	and.w	r3, ip, #7
      pages_max = (int8)Sprite->pages + startline/8 - 1;
 8000db2:	eb08 05e5 	add.w	r5, r8, r5, asr #3
      page_shift = (uint8)-startline/8 + 1;
 8000db6:	f3cc 0cc4 	ubfx	ip, ip, #3, #5
      line_shift = 8 - (uint8)-startline % 8;
 8000dba:	f1c3 0308 	rsb	r3, r3, #8
      pages_max = (int8)Sprite->pages + startline/8 - 1;
 8000dbe:	fa4f fb85 	sxtb.w	fp, r5
      page_shift = (uint8)-startline/8 + 1;
 8000dc2:	f10c 0501 	add.w	r5, ip, #1
      m = (uint16)(-startcolumn) * Sprite->pages + page_shift;
 8000dc6:	fb04 540e 	mla	r4, r4, lr, r5
      line_shift = 8 - (uint8)-startline % 8;
 8000dca:	b2db      	uxtb	r3, r3
      m = (uint16)(-startcolumn) * Sprite->pages + page_shift;
 8000dcc:	e7ab      	b.n	8000d26 <LCD_printsprite+0x46>
    if(startline >= 0){
 8000dce:	2800      	cmp	r0, #0
      bufcl = (uint8)startcolumn;
 8000dd0:	703d      	strb	r5, [r7, #0]
    if(startline >= 0){
 8000dd2:	db09      	blt.n	8000de8 <LCD_printsprite+0x108>
      columns_max = (((int16)startcolumn + (int16)Sprite->columns) > 127) ? (127 - startcolumn) : Sprite->columns;
 8000dd4:	f1be 0f7f 	cmp.w	lr, #127	; 0x7f
 8000dd8:	dd02      	ble.n	8000de0 <LCD_printsprite+0x100>
 8000dda:	f1c1 017f 	rsb	r1, r1, #127	; 0x7f
 8000dde:	9100      	str	r1, [sp, #0]
  uint8 page_shift = 0;
 8000de0:	2500      	movs	r5, #0
  uint8 column_shift = 0;
 8000de2:	4629      	mov	r1, r5
  uint16 m = 0, mprev = 0;
 8000de4:	462c      	mov	r4, r5
 8000de6:	e79e      	b.n	8000d26 <LCD_printsprite+0x46>
      columns_max = (((int16)startcolumn + (int16)Sprite->columns) > 127) ? (127 - startcolumn) : Sprite->columns;
 8000de8:	f1be 0f7f 	cmp.w	lr, #127	; 0x7f
 8000dec:	bfc8      	it	gt
 8000dee:	f1c1 037f 	rsbgt	r3, r1, #127	; 0x7f
      bufpg = 0;
 8000df2:	f04f 0100 	mov.w	r1, #0
      pages_max = (int8)Sprite->pages + startline/8 - 1;
 8000df6:	4604      	mov	r4, r0
      bufpg = 0;
 8000df8:	7031      	strb	r1, [r6, #0]
      columns_max = (((int16)startcolumn + (int16)Sprite->columns) > 127) ? (127 - startcolumn) : Sprite->columns;
 8000dfa:	bfc8      	it	gt
 8000dfc:	9300      	strgt	r3, [sp, #0]
      pages_max = (int8)Sprite->pages + startline/8 - 1;
 8000dfe:	7811      	ldrb	r1, [r2, #0]
      line_shift = 8 - (uint8)-startline % 8;
 8000e00:	f1cc 0300 	rsb	r3, ip, #0
 8000e04:	b2dd      	uxtb	r5, r3
      pages_max = (int8)Sprite->pages + startline/8 - 1;
 8000e06:	2800      	cmp	r0, #0
 8000e08:	bfb8      	it	lt
 8000e0a:	1dc4      	addlt	r4, r0, #7
      line_shift = 8 - (uint8)-startline % 8;
 8000e0c:	f003 0307 	and.w	r3, r3, #7
      pages_max = (int8)Sprite->pages + startline/8 - 1;
 8000e10:	3901      	subs	r1, #1
      page_shift = (uint8)-startline/8 + 1;
 8000e12:	08ed      	lsrs	r5, r5, #3
      pages_max = (int8)Sprite->pages + startline/8 - 1;
 8000e14:	eb01 01e4 	add.w	r1, r1, r4, asr #3
      line_shift = 8 - (uint8)-startline % 8;
 8000e18:	f1c3 0308 	rsb	r3, r3, #8
      page_shift = (uint8)-startline/8 + 1;
 8000e1c:	3501      	adds	r5, #1
      pages_max = (int8)Sprite->pages + startline/8 - 1;
 8000e1e:	fa4f fb81 	sxtb.w	fp, r1
      m = page_shift;
 8000e22:	462c      	mov	r4, r5
  uint8 column_shift = 0;
 8000e24:	2100      	movs	r1, #0
      line_shift = 8 - (uint8)-startline % 8;
 8000e26:	b2db      	uxtb	r3, r3
      m = page_shift;
 8000e28:	e77d      	b.n	8000d26 <LCD_printsprite+0x46>
 8000e2a:	2b00      	cmp	r3, #0
 8000e2c:	bf0c      	ite	eq
 8000e2e:	4658      	moveq	r0, fp
 8000e30:	f10b 0001 	addne.w	r0, fp, #1
 8000e34:	9006      	str	r0, [sp, #24]
        for (uint8 j = 0; j < columns_max; j++) {
          if (i == 0) {
            dispbuffer[bufpg + i][bufcl + j] |= Sprite->sprite[j + column_shift] << line_shift;
          }
          if ((i > 0) && (i < pages_max)) {
            dispbuffer[bufpg + i][bufcl + j] |= (Sprite->sprite[(i - 1) * Sprite->columns + j + column_shift] >> (8 - line_shift)) | 
 8000e36:	7830      	ldrb	r0, [r6, #0]
 8000e38:	4666      	mov	r6, ip
 8000e3a:	9001      	str	r0, [sp, #4]
 8000e3c:	f1c3 0008 	rsb	r0, r3, #8
            dispbuffer[bufpg + i][bufcl + j] |= Sprite->sprite[j + column_shift] << line_shift;
 8000e40:	9c01      	ldr	r4, [sp, #4]
            dispbuffer[bufpg + i][bufcl + j] |= (Sprite->sprite[(i - 1) * Sprite->columns + j + column_shift] >> (8 - line_shift)) | 
 8000e42:	9004      	str	r0, [sp, #16]
            dispbuffer[bufpg + i][bufcl + j] |= Sprite->sprite[j + column_shift] << line_shift;
 8000e44:	4866      	ldr	r0, [pc, #408]	; (8000fe0 <LCD_printsprite+0x300>)
            dispbuffer[bufpg + i][bufcl + j] |= (Sprite->sprite[(i - 1) * Sprite->columns + j + column_shift] >> (8 - line_shift)) | 
 8000e46:	f897 e000 	ldrb.w	lr, [r7]
            dispbuffer[bufpg + i][bufcl + j] |= Sprite->sprite[j + column_shift] << line_shift;
 8000e4a:	eb00 10c4 	add.w	r0, r0, r4, lsl #7
 8000e4e:	9005      	str	r0, [sp, #20]
      for (uint8 i = 0; i < (line_shift ? (pages_max + 1) : pages_max); i++) {
 8000e50:	9806      	ldr	r0, [sp, #24]
 8000e52:	b2f7      	uxtb	r7, r6
 8000e54:	4287      	cmp	r7, r0
 8000e56:	f280 80dd 	bge.w	8001014 <LCD_printsprite+0x334>
            dispbuffer[bufpg + i][bufcl + j] |= (Sprite->sprite[(i - 1) * Sprite->columns + j + column_shift] >> (8 - line_shift)) | 
 8000e5a:	9801      	ldr	r0, [sp, #4]
 8000e5c:	f04f 0c00 	mov.w	ip, #0
 8000e60:	19c4      	adds	r4, r0, r7
 8000e62:	1e78      	subs	r0, r7, #1
 8000e64:	9003      	str	r0, [sp, #12]
 8000e66:	485e      	ldr	r0, [pc, #376]	; (8000fe0 <LCD_printsprite+0x300>)
 8000e68:	eb00 14c4 	add.w	r4, r0, r4, lsl #7
 8000e6c:	e07c      	b.n	8000f68 <LCD_printsprite+0x288>
          if (i == 0) {
 8000e6e:	2900      	cmp	r1, #0
 8000e70:	f040 8081 	bne.w	8000f76 <LCD_printsprite+0x296>
            if(startline >= 0){ 
 8000e74:	2800      	cmp	r0, #0
 8000e76:	f2c0 80b5 	blt.w	8000fe4 <LCD_printsprite+0x304>
              if((bufpg + i) < 8 && (bufcl + j) <= 127)  dispbuffer[bufpg + i][bufcl + j] |= Sprite->sprite[m] << line_shift;
 8000e7a:	f1be 0f07 	cmp.w	lr, #7
 8000e7e:	dc0b      	bgt.n	8000e98 <LCD_printsprite+0x1b8>
 8000e80:	f1bc 0f7f 	cmp.w	ip, #127	; 0x7f
 8000e84:	d808      	bhi.n	8000e98 <LCD_printsprite+0x1b8>
 8000e86:	6857      	ldr	r7, [r2, #4]
 8000e88:	5d3f      	ldrb	r7, [r7, r4]
 8000e8a:	409f      	lsls	r7, r3
              if((bufpg + i) < 8 && (bufcl + j) <= 127)  dispbuffer[bufpg + i][bufcl + j] |= (Sprite->sprite[mprev + page_shift * j] >> (8 - line_shift))|
 8000e8c:	f898 9000 	ldrb.w	r9, [r8]
 8000e90:	ea47 0709 	orr.w	r7, r7, r9
 8000e94:	f888 7000 	strb.w	r7, [r8]
              m++;
 8000e98:	4627      	mov	r7, r4
 8000e9a:	3401      	adds	r4, #1
          if (i == pages_max) {
 8000e9c:	4559      	cmp	r1, fp
 8000e9e:	f040 808e 	bne.w	8000fbe <LCD_printsprite+0x2de>
            if((bufpg + i) < 8 && (bufcl + j) <= 127) dispbuffer[bufpg + i][bufcl + j] |= Sprite->sprite[mprev + page_shift * j] >> (8 - line_shift);
 8000ea2:	9909      	ldr	r1, [sp, #36]	; 0x24
 8000ea4:	2907      	cmp	r1, #7
 8000ea6:	f300 808a 	bgt.w	8000fbe <LCD_printsprite+0x2de>
 8000eaa:	f1bc 0f7f 	cmp.w	ip, #127	; 0x7f
 8000eae:	f200 8086 	bhi.w	8000fbe <LCD_printsprite+0x2de>
 8000eb2:	6851      	ldr	r1, [r2, #4]
 8000eb4:	9e01      	ldr	r6, [sp, #4]
 8000eb6:	4439      	add	r1, r7
 8000eb8:	5d89      	ldrb	r1, [r1, r6]
 8000eba:	9e04      	ldr	r6, [sp, #16]
 8000ebc:	4131      	asrs	r1, r6
 8000ebe:	9e05      	ldr	r6, [sp, #20]
 8000ec0:	f896 9000 	ldrb.w	r9, [r6]
 8000ec4:	ea41 0109 	orr.w	r1, r1, r9
 8000ec8:	7031      	strb	r1, [r6, #0]
 8000eca:	e078      	b.n	8000fbe <LCD_printsprite+0x2de>
          if (i == 0) {
 8000ecc:	bb27      	cbnz	r7, 8000f18 <LCD_printsprite+0x238>
            dispbuffer[bufpg + i][bufcl + j] |= Sprite->sprite[j + column_shift] << line_shift;
 8000ece:	6855      	ldr	r5, [r2, #4]
 8000ed0:	f8dd 9014 	ldr.w	r9, [sp, #20]
 8000ed4:	4405      	add	r5, r0
 8000ed6:	5c6d      	ldrb	r5, [r5, r1]
 8000ed8:	eb0e 0800 	add.w	r8, lr, r0
 8000edc:	f819 9008 	ldrb.w	r9, [r9, r8]
 8000ee0:	409d      	lsls	r5, r3
 8000ee2:	ea45 0509 	orr.w	r5, r5, r9
 8000ee6:	f8dd 9014 	ldr.w	r9, [sp, #20]
 8000eea:	f809 5008 	strb.w	r5, [r9, r8]
                                                (Sprite->sprite[i * Sprite->columns + j + column_shift] << line_shift);
          }
          if (i == pages_max) {
 8000eee:	455f      	cmp	r7, fp
 8000ef0:	d138      	bne.n	8000f64 <LCD_printsprite+0x284>
            dispbuffer[bufpg + i][bufcl + j] |= Sprite->sprite[(i - 1) * Sprite->columns + j + column_shift] >> (8 - line_shift);
 8000ef2:	6855      	ldr	r5, [r2, #4]
 8000ef4:	eb0e 0900 	add.w	r9, lr, r0
 8000ef8:	f892 8001 	ldrb.w	r8, [r2, #1]
 8000efc:	4428      	add	r0, r5
 8000efe:	9d03      	ldr	r5, [sp, #12]
 8000f00:	fb08 1805 	mla	r8, r8, r5, r1
 8000f04:	9d04      	ldr	r5, [sp, #16]
 8000f06:	f818 0000 	ldrb.w	r0, [r8, r0]
 8000f0a:	4128      	asrs	r0, r5
 8000f0c:	f814 5009 	ldrb.w	r5, [r4, r9]
 8000f10:	4328      	orrs	r0, r5
 8000f12:	f804 0009 	strb.w	r0, [r4, r9]
 8000f16:	e025      	b.n	8000f64 <LCD_printsprite+0x284>
          if ((i > 0) && (i < pages_max)) {
 8000f18:	455f      	cmp	r7, fp
 8000f1a:	dae8      	bge.n	8000eee <LCD_printsprite+0x20e>
            dispbuffer[bufpg + i][bufcl + j] |= (Sprite->sprite[(i - 1) * Sprite->columns + j + column_shift] >> (8 - line_shift)) | 
 8000f1c:	7855      	ldrb	r5, [r2, #1]
 8000f1e:	f8dd 800c 	ldr.w	r8, [sp, #12]
 8000f22:	9502      	str	r5, [sp, #8]
 8000f24:	fb05 fa08 	mul.w	sl, r5, r8
 8000f28:	f8d2 8004 	ldr.w	r8, [r2, #4]
 8000f2c:	9d04      	ldr	r5, [sp, #16]
 8000f2e:	44d0      	add	r8, sl
 8000f30:	4488      	add	r8, r1
 8000f32:	f818 8000 	ldrb.w	r8, [r8, r0]
 8000f36:	eb0e 0900 	add.w	r9, lr, r0
 8000f3a:	fa48 f505 	asr.w	r5, r8, r5
 8000f3e:	9507      	str	r5, [sp, #28]
                                                (Sprite->sprite[i * Sprite->columns + j + column_shift] << line_shift);
 8000f40:	f8dd 8008 	ldr.w	r8, [sp, #8]
 8000f44:	6855      	ldr	r5, [r2, #4]
 8000f46:	44a8      	add	r8, r5
 8000f48:	4645      	mov	r5, r8
 8000f4a:	4455      	add	r5, sl
 8000f4c:	440d      	add	r5, r1
 8000f4e:	5c28      	ldrb	r0, [r5, r0]
            dispbuffer[bufpg + i][bufcl + j] |= (Sprite->sprite[(i - 1) * Sprite->columns + j + column_shift] >> (8 - line_shift)) | 
 8000f50:	9d07      	ldr	r5, [sp, #28]
                                                (Sprite->sprite[i * Sprite->columns + j + column_shift] << line_shift);
 8000f52:	4098      	lsls	r0, r3
            dispbuffer[bufpg + i][bufcl + j] |= (Sprite->sprite[(i - 1) * Sprite->columns + j + column_shift] >> (8 - line_shift)) | 
 8000f54:	ea45 0800 	orr.w	r8, r5, r0
 8000f58:	f814 0009 	ldrb.w	r0, [r4, r9]
 8000f5c:	ea48 0800 	orr.w	r8, r8, r0
 8000f60:	f804 8009 	strb.w	r8, [r4, r9]
        for (uint8 j = 0; j < columns_max; j++) {
 8000f64:	f10c 0c01 	add.w	ip, ip, #1
 8000f68:	9d00      	ldr	r5, [sp, #0]
 8000f6a:	fa5f f08c 	uxtb.w	r0, ip
 8000f6e:	42a8      	cmp	r0, r5
 8000f70:	dbac      	blt.n	8000ecc <LCD_printsprite+0x1ec>
      for (uint8 i = 0; i < (line_shift ? (pages_max + 1) : pages_max); i++) {
 8000f72:	3601      	adds	r6, #1
 8000f74:	e76c      	b.n	8000e50 <LCD_printsprite+0x170>
          if ((i > 0) && (i < pages_max)) {
 8000f76:	4559      	cmp	r1, fp
 8000f78:	da90      	bge.n	8000e9c <LCD_printsprite+0x1bc>
            if((bufpg + i) < 8 && (bufcl + j) <= 127) dispbuffer[bufpg + i][bufcl + j] |= (Sprite->sprite[mprev + page_shift * j] >> (8 - line_shift))| 
 8000f7a:	4471      	add	r1, lr
 8000f7c:	2907      	cmp	r1, #7
 8000f7e:	dc1c      	bgt.n	8000fba <LCD_printsprite+0x2da>
 8000f80:	f1bc 0f7f 	cmp.w	ip, #127	; 0x7f
 8000f84:	d819      	bhi.n	8000fba <LCD_printsprite+0x2da>
 8000f86:	4e16      	ldr	r6, [pc, #88]	; (8000fe0 <LCD_printsprite+0x300>)
 8000f88:	f8d2 9004 	ldr.w	r9, [r2, #4]
 8000f8c:	eb06 11c1 	add.w	r1, r6, r1, lsl #7
 8000f90:	9e01      	ldr	r6, [sp, #4]
 8000f92:	444f      	add	r7, r9
 8000f94:	f817 a006 	ldrb.w	sl, [r7, r6]
 8000f98:	9e04      	ldr	r6, [sp, #16]
 8000f9a:	f811 700c 	ldrb.w	r7, [r1, ip]
 8000f9e:	fa4a fa06 	asr.w	sl, sl, r6
                                                                                          (Sprite->sprite[m + page_shift * j] << line_shift);
 8000fa2:	9e01      	ldr	r6, [sp, #4]
 8000fa4:	44a1      	add	r9, r4
            if((bufpg + i) < 8 && (bufcl + j) <= 127) dispbuffer[bufpg + i][bufcl + j] |= (Sprite->sprite[mprev + page_shift * j] >> (8 - line_shift))| 
 8000fa6:	ea4a 0707 	orr.w	r7, sl, r7
                                                                                          (Sprite->sprite[m + page_shift * j] << line_shift);
 8000faa:	f819 a006 	ldrb.w	sl, [r9, r6]
 8000fae:	fa0a fa03 	lsl.w	sl, sl, r3
            if((bufpg + i) < 8 && (bufcl + j) <= 127) dispbuffer[bufpg + i][bufcl + j] |= (Sprite->sprite[mprev + page_shift * j] >> (8 - line_shift))| 
 8000fb2:	ea47 070a 	orr.w	r7, r7, sl
 8000fb6:	f801 700c 	strb.w	r7, [r1, ip]
            m++;
 8000fba:	4627      	mov	r7, r4
 8000fbc:	3401      	adds	r4, #1
        for (uint8 i = 0; i < (line_shift ? (pages_max + 1) : pages_max); i++) {
 8000fbe:	9903      	ldr	r1, [sp, #12]
 8000fc0:	3101      	adds	r1, #1
 8000fc2:	9103      	str	r1, [sp, #12]
 8000fc4:	f89d 100c 	ldrb.w	r1, [sp, #12]
 8000fc8:	9e08      	ldr	r6, [sp, #32]
 8000fca:	42b1      	cmp	r1, r6
 8000fcc:	f6ff af4f 	blt.w	8000e6e <LCD_printsprite+0x18e>
      for (uint8 j = 0; j < columns_max; j++) {
 8000fd0:	9902      	ldr	r1, [sp, #8]
 8000fd2:	3101      	adds	r1, #1
 8000fd4:	9102      	str	r1, [sp, #8]
 8000fd6:	e6cb      	b.n	8000d70 <LCD_printsprite+0x90>
 8000fd8:	2000014d 	.word	0x2000014d
 8000fdc:	2000014c 	.word	0x2000014c
 8000fe0:	2000014e 	.word	0x2000014e
              if((bufpg + i) < 8 && (bufcl + j) <= 127)  dispbuffer[bufpg + i][bufcl + j] |= (Sprite->sprite[mprev + page_shift * j] >> (8 - line_shift))|
 8000fe4:	f1be 0f07 	cmp.w	lr, #7
 8000fe8:	f73f af56 	bgt.w	8000e98 <LCD_printsprite+0x1b8>
 8000fec:	f1bc 0f7f 	cmp.w	ip, #127	; 0x7f
 8000ff0:	f63f af52 	bhi.w	8000e98 <LCD_printsprite+0x1b8>
 8000ff4:	6857      	ldr	r7, [r2, #4]
 8000ff6:	9e06      	ldr	r6, [sp, #24]
 8000ff8:	eb07 0906 	add.w	r9, r7, r6
 8000ffc:	f819 9004 	ldrb.w	r9, [r9, r4]
 8001000:	9e04      	ldr	r6, [sp, #16]
                                                                                             (Sprite->sprite[m + page_shift * j] << line_shift);
 8001002:	4427      	add	r7, r4
              if((bufpg + i) < 8 && (bufcl + j) <= 127)  dispbuffer[bufpg + i][bufcl + j] |= (Sprite->sprite[mprev + page_shift * j] >> (8 - line_shift))|
 8001004:	fa49 f906 	asr.w	r9, r9, r6
                                                                                             (Sprite->sprite[m + page_shift * j] << line_shift);
 8001008:	9e01      	ldr	r6, [sp, #4]
 800100a:	5dbf      	ldrb	r7, [r7, r6]
 800100c:	409f      	lsls	r7, r3
              if((bufpg + i) < 8 && (bufcl + j) <= 127)  dispbuffer[bufpg + i][bufcl + j] |= (Sprite->sprite[mprev + page_shift * j] >> (8 - line_shift))|
 800100e:	ea49 0707 	orr.w	r7, r9, r7
 8001012:	e73b      	b.n	8000e8c <LCD_printsprite+0x1ac>
          }
        }
      }
      break;
  }
}
 8001014:	b00d      	add	sp, #52	; 0x34
 8001016:	e8bd 8ff0 	ldmia.w	sp!, {r4, r5, r6, r7, r8, r9, sl, fp, pc}
 800101a:	bf00      	nop

0800101c <LCD_printgamestatbar>:

void LCD_printgamestatbar(tGamer* gamer) {
 800101c:	b57f      	push	{r0, r1, r2, r3, r4, r5, r6, lr}
 800101e:	4927      	ldr	r1, [pc, #156]	; (80010bc <LCD_printgamestatbar+0xa0>)
 8001020:	4604      	mov	r4, r0
  for (uint8 i = 0; i < 128; i++) dispbuffer[0][i] |= GameStatusBar[i];
 8001022:	2300      	movs	r3, #0
 8001024:	460a      	mov	r2, r1
 8001026:	4d26      	ldr	r5, [pc, #152]	; (80010c0 <LCD_printgamestatbar+0xa4>)
 8001028:	7808      	ldrb	r0, [r1, #0]
 800102a:	f815 6b01 	ldrb.w	r6, [r5], #1
 800102e:	3301      	adds	r3, #1
 8001030:	b2db      	uxtb	r3, r3
 8001032:	4330      	orrs	r0, r6
 8001034:	2b80      	cmp	r3, #128	; 0x80
 8001036:	f801 0b01 	strb.w	r0, [r1], #1
 800103a:	d1f5      	bne.n	8001028 <LCD_printgamestatbar+0xc>
  for (uint8 i = 9; i < (9 + gamer->health); i++) dispbuffer[0][i] |= 0b00111100; // helth bar
 800103c:	2309      	movs	r3, #9
 800103e:	f994 1000 	ldrsb.w	r1, [r4]
 8001042:	3108      	adds	r1, #8
 8001044:	4299      	cmp	r1, r3
 8001046:	da2a      	bge.n	800109e <LCD_printgamestatbar+0x82>
  for (uint8 i = 102; i < (102 + gamer->energy); i++) dispbuffer[0][i] |= 0b00111100; // energy bar
 8001048:	2366      	movs	r3, #102	; 0x66
 800104a:	f994 1001 	ldrsb.w	r1, [r4, #1]
 800104e:	3165      	adds	r1, #101	; 0x65
 8001050:	4299      	cmp	r1, r3
 8001052:	da2b      	bge.n	80010ac <LCD_printgamestatbar+0x90>
  dispbuffer[0][102 + gamer->energymax] |= 0b01111110;
 8001054:	f994 3002 	ldrsb.w	r3, [r4, #2]
  uint8 money[6];
  uint16 display_value = gamer->money;
  if(display_value > 999) display_value = 999;
  u16_to_str(money, display_value, 10);
 8001058:	4668      	mov	r0, sp
  dispbuffer[0][102 + gamer->energymax] |= 0b01111110;
 800105a:	3366      	adds	r3, #102	; 0x66
 800105c:	5cd1      	ldrb	r1, [r2, r3]
 800105e:	f041 017e 	orr.w	r1, r1, #126	; 0x7e
 8001062:	54d1      	strb	r1, [r2, r3]
  u16_to_str(money, display_value, 10);
 8001064:	f240 33e7 	movw	r3, #999	; 0x3e7
  uint16 display_value = gamer->money;
 8001068:	68a1      	ldr	r1, [r4, #8]
  u16_to_str(money, display_value, 10);
 800106a:	220a      	movs	r2, #10
 800106c:	4299      	cmp	r1, r3
 800106e:	bf28      	it	cs
 8001070:	4619      	movcs	r1, r3
 8001072:	f7ff f882 	bl	800017a <u16_to_str>
  uint8 bombs[6];
  display_value = gamer->bombs;
 8001076:	7921      	ldrb	r1, [r4, #4]
  if(display_value > 99) display_value = 99;
  u16_to_str(bombs, display_value, 10);
 8001078:	a802      	add	r0, sp, #8
 800107a:	2963      	cmp	r1, #99	; 0x63
 800107c:	bf28      	it	cs
 800107e:	2163      	movcs	r1, #99	; 0x63
 8001080:	220a      	movs	r2, #10
 8001082:	f7ff f87a 	bl	800017a <u16_to_str>
  LCD_printstr8x5(money, 0, 50);
 8001086:	2232      	movs	r2, #50	; 0x32
 8001088:	2100      	movs	r1, #0
 800108a:	4668      	mov	r0, sp
 800108c:	f7ff fbfc 	bl	8000888 <LCD_printstr8x5>
  LCD_printstr8x5(bombs, 0, 81);
 8001090:	2251      	movs	r2, #81	; 0x51
 8001092:	2100      	movs	r1, #0
 8001094:	a802      	add	r0, sp, #8
 8001096:	f7ff fbf7 	bl	8000888 <LCD_printstr8x5>
  //LCD_printstr8x5(money, 2, 10);
  //LCD_printstr8x5(bombs, 3, 10);
}
 800109a:	b004      	add	sp, #16
 800109c:	bd70      	pop	{r4, r5, r6, pc}
  for (uint8 i = 9; i < (9 + gamer->health); i++) dispbuffer[0][i] |= 0b00111100; // helth bar
 800109e:	5cd1      	ldrb	r1, [r2, r3]
 80010a0:	f041 013c 	orr.w	r1, r1, #60	; 0x3c
 80010a4:	54d1      	strb	r1, [r2, r3]
 80010a6:	3301      	adds	r3, #1
 80010a8:	b2db      	uxtb	r3, r3
 80010aa:	e7c8      	b.n	800103e <LCD_printgamestatbar+0x22>
  for (uint8 i = 102; i < (102 + gamer->energy); i++) dispbuffer[0][i] |= 0b00111100; // energy bar
 80010ac:	5cd1      	ldrb	r1, [r2, r3]
 80010ae:	f041 013c 	orr.w	r1, r1, #60	; 0x3c
 80010b2:	54d1      	strb	r1, [r2, r3]
 80010b4:	3301      	adds	r3, #1
 80010b6:	b2db      	uxtb	r3, r3
 80010b8:	e7c7      	b.n	800104a <LCD_printgamestatbar+0x2e>
 80010ba:	bf00      	nop
 80010bc:	2000014e 	.word	0x2000014e
 80010c0:	080069d8 	.word	0x080069d8

080010c4 <_write>:
/* USER CODE END PFP */

/* Private user code ---------------------------------------------------------*/
/* USER CODE BEGIN 0 */
int _write(int file, char *ptr, int len)
{
 80010c4:	4610      	mov	r0, r2
	for (int i = 0; i < len; i++)
 80010c6:	2300      	movs	r3, #0
  \param [in]     ch  Character to transmit.
  \returns            Character to transmit.
 */
__STATIC_INLINE uint32_t ITM_SendChar (uint32_t ch)
{
  if (((ITM->TCR & ITM_TCR_ITMENA_Msk) != 0UL) &&      /* ITM enabled */
 80010c8:	f04f 4260 	mov.w	r2, #3758096384	; 0xe0000000
{
 80010cc:	b530      	push	{r4, r5, lr}
	for (int i = 0; i < len; i++)
 80010ce:	4283      	cmp	r3, r0
 80010d0:	db00      	blt.n	80010d4 <_write+0x10>
	{
		ITM_SendChar(*ptr++);
	}
	return len;
}
 80010d2:	bd30      	pop	{r4, r5, pc}
 80010d4:	f8d2 4e80 	ldr.w	r4, [r2, #3712]	; 0xe80
 80010d8:	07e5      	lsls	r5, r4, #31
 80010da:	d507      	bpl.n	80010ec <_write+0x28>
      ((ITM->TER & 1UL               ) != 0UL)   )     /* ITM Port #0 enabled */
 80010dc:	f8d2 4e00 	ldr.w	r4, [r2, #3584]	; 0xe00
  if (((ITM->TCR & ITM_TCR_ITMENA_Msk) != 0UL) &&      /* ITM enabled */
 80010e0:	07e4      	lsls	r4, r4, #31
 80010e2:	d503      	bpl.n	80010ec <_write+0x28>
		ITM_SendChar(*ptr++);
 80010e4:	5ccc      	ldrb	r4, [r1, r3]
  {
    while (ITM->PORT[0U].u32 == 0UL)
 80010e6:	6815      	ldr	r5, [r2, #0]
 80010e8:	b115      	cbz	r5, 80010f0 <_write+0x2c>
    {
      __NOP();
    }
    ITM->PORT[0U].u8 = (uint8_t)ch;
 80010ea:	7014      	strb	r4, [r2, #0]
	for (int i = 0; i < len; i++)
 80010ec:	3301      	adds	r3, #1
 80010ee:	e7ee      	b.n	80010ce <_write+0xa>
      __NOP();
 80010f0:	bf00      	nop
 80010f2:	e7f8      	b.n	80010e6 <_write+0x22>

080010f4 <SystemClock_Config>:
/**
  * @brief System Clock Configuration
  * @retval None
  */
void SystemClock_Config(void)
{
 80010f4:	b510      	push	{r4, lr}
 80010f6:	b094      	sub	sp, #80	; 0x50
  RCC_OscInitTypeDef RCC_OscInitStruct = {0};
 80010f8:	2214      	movs	r2, #20
 80010fa:	2100      	movs	r1, #0
 80010fc:	a80c      	add	r0, sp, #48	; 0x30
 80010fe:	f004 fbc1 	bl	8005884 <memset>
  RCC_ClkInitTypeDef RCC_ClkInitStruct = {0};
 8001102:	2214      	movs	r2, #20
 8001104:	2100      	movs	r1, #0
 8001106:	eb0d 0002 	add.w	r0, sp, r2
 800110a:	f004 fbbb 	bl	8005884 <memset>
  RCC_PeriphCLKInitTypeDef PeriphClkInit = {0};
 800110e:	2210      	movs	r2, #16
 8001110:	2100      	movs	r1, #0
 8001112:	a801      	add	r0, sp, #4
 8001114:	f004 fbb6 	bl	8005884 <memset>
  RCC_OscInitStruct.OscillatorType = RCC_OSCILLATORTYPE_HSE|RCC_OSCILLATORTYPE_LSE;
  RCC_OscInitStruct.HSEState = RCC_HSE_ON;
  RCC_OscInitStruct.HSEPredivValue = RCC_HSE_PREDIV_DIV1;
  RCC_OscInitStruct.LSEState = RCC_LSE_ON;
  RCC_OscInitStruct.HSIState = RCC_HSI_ON;
  RCC_OscInitStruct.PLL.PLLState = RCC_PLL_ON;
 8001118:	2402      	movs	r4, #2
  RCC_OscInitStruct.HSEState = RCC_HSE_ON;
 800111a:	f44f 3380 	mov.w	r3, #65536	; 0x10000
 800111e:	2105      	movs	r1, #5
  RCC_OscInitStruct.LSEState = RCC_LSE_ON;
 8001120:	2201      	movs	r2, #1
  RCC_OscInitStruct.HSEState = RCC_HSE_ON;
 8001122:	e9cd 130a 	strd	r1, r3, [sp, #40]	; 0x28
  RCC_OscInitStruct.PLL.PLLSource = RCC_PLLSOURCE_HSE;
 8001126:	e9cd 4311 	strd	r4, r3, [sp, #68]	; 0x44
  RCC_OscInitStruct.PLL.PLLMUL = RCC_PLL_MUL9;
 800112a:	f44f 13e0 	mov.w	r3, #1835008	; 0x1c0000
  if (HAL_RCC_OscConfig(&RCC_OscInitStruct) != HAL_OK)
 800112e:	a80a      	add	r0, sp, #40	; 0x28
  RCC_OscInitStruct.HSIState = RCC_HSI_ON;
 8001130:	e9cd 220d 	strd	r2, r2, [sp, #52]	; 0x34
  RCC_OscInitStruct.PLL.PLLMUL = RCC_PLL_MUL9;
 8001134:	9313      	str	r3, [sp, #76]	; 0x4c
  if (HAL_RCC_OscConfig(&RCC_OscInitStruct) != HAL_OK)
 8001136:	f003 f911 	bl	800435c <HAL_RCC_OscConfig>
 800113a:	b108      	cbz	r0, 8001140 <SystemClock_Config+0x4c>
  \details Disables IRQ interrupts by setting the I-bit in the CPSR.
           Can only be executed in Privileged modes.
 */
__STATIC_FORCEINLINE void __disable_irq(void)
{
  __ASM volatile ("cpsid i" : : : "memory");
 800113c:	b672      	cpsid	i
void Error_Handler(void)
{
  /* USER CODE BEGIN Error_Handler_Debug */
  /* User can add his own implementation to report the HAL error return state */
  __disable_irq();
  while (1)
 800113e:	e7fe      	b.n	800113e <SystemClock_Config+0x4a>
  RCC_ClkInitStruct.ClockType = RCC_CLOCKTYPE_HCLK|RCC_CLOCKTYPE_SYSCLK
 8001140:	230f      	movs	r3, #15
  RCC_ClkInitStruct.SYSCLKSource = RCC_SYSCLKSOURCE_PLLCLK;
 8001142:	e9cd 3405 	strd	r3, r4, [sp, #20]
  RCC_ClkInitStruct.APB1CLKDivider = RCC_HCLK_DIV2;
 8001146:	f44f 6380 	mov.w	r3, #1024	; 0x400
  RCC_ClkInitStruct.AHBCLKDivider = RCC_SYSCLK_DIV1;
 800114a:	9007      	str	r0, [sp, #28]
  RCC_ClkInitStruct.APB2CLKDivider = RCC_HCLK_DIV1;
 800114c:	e9cd 3008 	strd	r3, r0, [sp, #32]
  if (HAL_RCC_ClockConfig(&RCC_ClkInitStruct, FLASH_LATENCY_2) != HAL_OK)
 8001150:	4621      	mov	r1, r4
 8001152:	a805      	add	r0, sp, #20
 8001154:	f003 fad8 	bl	8004708 <HAL_RCC_ClockConfig>
 8001158:	b108      	cbz	r0, 800115e <SystemClock_Config+0x6a>
 800115a:	b672      	cpsid	i
  while (1)
 800115c:	e7fe      	b.n	800115c <SystemClock_Config+0x68>
  PeriphClkInit.RTCClockSelection = RCC_RTCCLKSOURCE_LSE;
 800115e:	f44f 7380 	mov.w	r3, #256	; 0x100
 8001162:	2203      	movs	r2, #3
 8001164:	e9cd 2301 	strd	r2, r3, [sp, #4]
  PeriphClkInit.AdcClockSelection = RCC_ADCPCLK2_DIV6;
 8001168:	f44f 4300 	mov.w	r3, #32768	; 0x8000
  if (HAL_RCCEx_PeriphCLKConfig(&PeriphClkInit) != HAL_OK)
 800116c:	a801      	add	r0, sp, #4
  PeriphClkInit.AdcClockSelection = RCC_ADCPCLK2_DIV6;
 800116e:	9303      	str	r3, [sp, #12]
  if (HAL_RCCEx_PeriphCLKConfig(&PeriphClkInit) != HAL_OK)
 8001170:	f003 fb76 	bl	8004860 <HAL_RCCEx_PeriphCLKConfig>
 8001174:	b108      	cbz	r0, 800117a <SystemClock_Config+0x86>
 8001176:	b672      	cpsid	i
  while (1)
 8001178:	e7fe      	b.n	8001178 <SystemClock_Config+0x84>
}
 800117a:	b014      	add	sp, #80	; 0x50
 800117c:	bd10      	pop	{r4, pc}
	...

08001180 <main>:
{
 8001180:	b580      	push	{r7, lr}
  __HAL_RCC_GPIOC_CLK_ENABLE();
 8001182:	4ca0      	ldr	r4, [pc, #640]	; (8001404 <main+0x284>)
{
 8001184:	b09a      	sub	sp, #104	; 0x68
  HAL_Init();
 8001186:	f002 fc49 	bl	8003a1c <HAL_Init>
  SystemClock_Config();
 800118a:	f7ff ffb3 	bl	80010f4 <SystemClock_Config>
  GPIO_InitTypeDef GPIO_InitStruct = {0};
 800118e:	2210      	movs	r2, #16
 8001190:	2100      	movs	r1, #0
 8001192:	a812      	add	r0, sp, #72	; 0x48
 8001194:	f004 fb76 	bl	8005884 <memset>
  __HAL_RCC_GPIOC_CLK_ENABLE();
 8001198:	69a3      	ldr	r3, [r4, #24]
  HAL_GPIO_WritePin(SHUTDOWN_GPIO_Port, SHUTDOWN_Pin, GPIO_PIN_SET);
 800119a:	2201      	movs	r2, #1
  __HAL_RCC_GPIOC_CLK_ENABLE();
 800119c:	f043 0310 	orr.w	r3, r3, #16
 80011a0:	61a3      	str	r3, [r4, #24]
 80011a2:	69a3      	ldr	r3, [r4, #24]
  HAL_GPIO_WritePin(SHUTDOWN_GPIO_Port, SHUTDOWN_Pin, GPIO_PIN_SET);
 80011a4:	f44f 5100 	mov.w	r1, #8192	; 0x2000
  __HAL_RCC_GPIOC_CLK_ENABLE();
 80011a8:	f003 0310 	and.w	r3, r3, #16
 80011ac:	9301      	str	r3, [sp, #4]
 80011ae:	9b01      	ldr	r3, [sp, #4]
  __HAL_RCC_GPIOD_CLK_ENABLE();
 80011b0:	69a3      	ldr	r3, [r4, #24]
  HAL_GPIO_WritePin(SHUTDOWN_GPIO_Port, SHUTDOWN_Pin, GPIO_PIN_SET);
 80011b2:	4895      	ldr	r0, [pc, #596]	; (8001408 <main+0x288>)
  __HAL_RCC_GPIOD_CLK_ENABLE();
 80011b4:	f043 0320 	orr.w	r3, r3, #32
 80011b8:	61a3      	str	r3, [r4, #24]
 80011ba:	69a3      	ldr	r3, [r4, #24]
  GPIO_InitStruct.Mode = GPIO_MODE_OUTPUT_OD;
 80011bc:	f44f 5500 	mov.w	r5, #8192	; 0x2000
  __HAL_RCC_GPIOD_CLK_ENABLE();
 80011c0:	f003 0320 	and.w	r3, r3, #32
 80011c4:	9302      	str	r3, [sp, #8]
 80011c6:	9b02      	ldr	r3, [sp, #8]
  __HAL_RCC_GPIOA_CLK_ENABLE();
 80011c8:	69a3      	ldr	r3, [r4, #24]
  GPIO_InitStruct.Speed = GPIO_SPEED_FREQ_LOW;
 80011ca:	f04f 0802 	mov.w	r8, #2
  __HAL_RCC_GPIOA_CLK_ENABLE();
 80011ce:	f043 0304 	orr.w	r3, r3, #4
 80011d2:	61a3      	str	r3, [r4, #24]
 80011d4:	69a3      	ldr	r3, [r4, #24]
  GPIO_InitStruct.Mode = GPIO_MODE_OUTPUT_PP;
 80011d6:	2601      	movs	r6, #1
  __HAL_RCC_GPIOA_CLK_ENABLE();
 80011d8:	f003 0304 	and.w	r3, r3, #4
 80011dc:	9303      	str	r3, [sp, #12]
 80011de:	9b03      	ldr	r3, [sp, #12]
  __HAL_RCC_GPIOB_CLK_ENABLE();
 80011e0:	69a3      	ldr	r3, [r4, #24]
  GPIO_InitStruct.Pin = JOYSTICK_BTN_Pin;
 80011e2:	2708      	movs	r7, #8
  __HAL_RCC_GPIOB_CLK_ENABLE();
 80011e4:	f043 0308 	orr.w	r3, r3, #8
 80011e8:	61a3      	str	r3, [r4, #24]
 80011ea:	69a3      	ldr	r3, [r4, #24]
 80011ec:	f003 0308 	and.w	r3, r3, #8
 80011f0:	9304      	str	r3, [sp, #16]
 80011f2:	9b04      	ldr	r3, [sp, #16]
  HAL_GPIO_WritePin(SHUTDOWN_GPIO_Port, SHUTDOWN_Pin, GPIO_PIN_SET);
 80011f4:	f003 f8a6 	bl	8004344 <HAL_GPIO_WritePin>
  HAL_GPIO_WritePin(GPIOA, DISP_RS_Pin|DISP_RSE_Pin|SOUND_OUT_Pin, GPIO_PIN_RESET);
 80011f8:	2200      	movs	r2, #0
 80011fa:	2116      	movs	r1, #22
 80011fc:	4883      	ldr	r0, [pc, #524]	; (800140c <main+0x28c>)
 80011fe:	f003 f8a1 	bl	8004344 <HAL_GPIO_WritePin>
  GPIO_InitStruct.Mode = GPIO_MODE_OUTPUT_OD;
 8001202:	2311      	movs	r3, #17
 8001204:	e9cd 5312 	strd	r5, r3, [sp, #72]	; 0x48
  GPIO_InitStruct.Speed = GPIO_SPEED_FREQ_LOW;
 8001208:	2500      	movs	r5, #0
  HAL_GPIO_Init(SHUTDOWN_GPIO_Port, &GPIO_InitStruct);
 800120a:	487f      	ldr	r0, [pc, #508]	; (8001408 <main+0x288>)
 800120c:	a912      	add	r1, sp, #72	; 0x48
  GPIO_InitStruct.Speed = GPIO_SPEED_FREQ_LOW;
 800120e:	e9cd 5814 	strd	r5, r8, [sp, #80]	; 0x50
  HAL_GPIO_Init(SHUTDOWN_GPIO_Port, &GPIO_InitStruct);
 8001212:	f002 ffb7 	bl	8004184 <HAL_GPIO_Init>
  GPIO_InitStruct.Mode = GPIO_MODE_OUTPUT_PP;
 8001216:	2316      	movs	r3, #22
  HAL_GPIO_Init(GPIOA, &GPIO_InitStruct);
 8001218:	487c      	ldr	r0, [pc, #496]	; (800140c <main+0x28c>)
 800121a:	a912      	add	r1, sp, #72	; 0x48
  GPIO_InitStruct.Mode = GPIO_MODE_OUTPUT_PP;
 800121c:	e9cd 3612 	strd	r3, r6, [sp, #72]	; 0x48
  GPIO_InitStruct.Speed = GPIO_SPEED_FREQ_LOW;
 8001220:	e9cd 5814 	strd	r5, r8, [sp, #80]	; 0x50
  HAL_GPIO_Init(GPIOA, &GPIO_InitStruct);
 8001224:	f002 ffae 	bl	8004184 <HAL_GPIO_Init>
  HAL_GPIO_Init(JOYSTICK_BTN_GPIO_Port, &GPIO_InitStruct);
 8001228:	4878      	ldr	r0, [pc, #480]	; (800140c <main+0x28c>)
 800122a:	a912      	add	r1, sp, #72	; 0x48
  GPIO_InitStruct.Mode = GPIO_MODE_INPUT;
 800122c:	e9cd 7512 	strd	r7, r5, [sp, #72]	; 0x48
  GPIO_InitStruct.Pull = GPIO_PULLUP;
 8001230:	9614      	str	r6, [sp, #80]	; 0x50
  HAL_GPIO_Init(JOYSTICK_BTN_GPIO_Port, &GPIO_InitStruct);
 8001232:	f002 ffa7 	bl	8004184 <HAL_GPIO_Init>
  GPIO_InitStruct.Pin = BTN_3_Pin|BTN_4_Pin|BTN_1_Pin|BTN_2_Pin;
 8001236:	23f0      	movs	r3, #240	; 0xf0
  HAL_GPIO_Init(GPIOB, &GPIO_InitStruct);
 8001238:	4875      	ldr	r0, [pc, #468]	; (8001410 <main+0x290>)
 800123a:	a912      	add	r1, sp, #72	; 0x48
  GPIO_InitStruct.Mode = GPIO_MODE_INPUT;
 800123c:	e9cd 3512 	strd	r3, r5, [sp, #72]	; 0x48
  GPIO_InitStruct.Pull = GPIO_PULLUP;
 8001240:	9614      	str	r6, [sp, #80]	; 0x50
  HAL_GPIO_Init(GPIOB, &GPIO_InitStruct);
 8001242:	f002 ff9f 	bl	8004184 <HAL_GPIO_Init>
  __HAL_RCC_DMA1_CLK_ENABLE();
 8001246:	6963      	ldr	r3, [r4, #20]
  HAL_NVIC_SetPriority(DMA1_Channel1_IRQn, 0, 0);
 8001248:	462a      	mov	r2, r5
  __HAL_RCC_DMA1_CLK_ENABLE();
 800124a:	4333      	orrs	r3, r6
 800124c:	6163      	str	r3, [r4, #20]
 800124e:	6963      	ldr	r3, [r4, #20]
  HAL_NVIC_SetPriority(DMA1_Channel1_IRQn, 0, 0);
 8001250:	4629      	mov	r1, r5
  __HAL_RCC_DMA1_CLK_ENABLE();
 8001252:	4033      	ands	r3, r6
  HAL_NVIC_SetPriority(DMA1_Channel1_IRQn, 0, 0);
 8001254:	200b      	movs	r0, #11
  __HAL_RCC_DMA1_CLK_ENABLE();
 8001256:	9300      	str	r3, [sp, #0]
 8001258:	9b00      	ldr	r3, [sp, #0]
  HAL_NVIC_SetPriority(DMA1_Channel1_IRQn, 0, 0);
 800125a:	f002 fe43 	bl	8003ee4 <HAL_NVIC_SetPriority>
  HAL_NVIC_EnableIRQ(DMA1_Channel1_IRQn);
 800125e:	200b      	movs	r0, #11
 8001260:	f002 fe72 	bl	8003f48 <HAL_NVIC_EnableIRQ>
  hadc1.Instance = ADC1;
 8001264:	4c6b      	ldr	r4, [pc, #428]	; (8001414 <main+0x294>)
 8001266:	4b6c      	ldr	r3, [pc, #432]	; (8001418 <main+0x298>)
  ADC_ChannelConfTypeDef sConfig = {0};
 8001268:	e9cd 5512 	strd	r5, r5, [sp, #72]	; 0x48
  hadc1.Instance = ADC1;
 800126c:	6023      	str	r3, [r4, #0]
  hadc1.Init.ScanConvMode = ADC_SCAN_ENABLE;
 800126e:	f44f 7380 	mov.w	r3, #256	; 0x100
  ADC_ChannelConfTypeDef sConfig = {0};
 8001272:	9514      	str	r5, [sp, #80]	; 0x50
  hadc1.Init.ScanConvMode = ADC_SCAN_ENABLE;
 8001274:	60a3      	str	r3, [r4, #8]
  hadc1.Init.ContinuousConvMode = DISABLE;
 8001276:	7325      	strb	r5, [r4, #12]
  hadc1.Init.ExternalTrigConv = ADC_SOFTWARE_START;
 8001278:	f44f 2360 	mov.w	r3, #917504	; 0xe0000
  hadc1.Init.DiscontinuousConvMode = DISABLE;
 800127c:	7525      	strb	r5, [r4, #20]
  hadc1.Init.DataAlign = ADC_DATAALIGN_RIGHT;
 800127e:	6065      	str	r5, [r4, #4]
  hadc1.Init.NbrOfConversion = 3;
 8001280:	2503      	movs	r5, #3
  if (HAL_ADC_Init(&hadc1) != HAL_OK)
 8001282:	4620      	mov	r0, r4
  hadc1.Init.ExternalTrigConv = ADC_SOFTWARE_START;
 8001284:	61e3      	str	r3, [r4, #28]
  hadc1.Init.NbrOfConversion = 3;
 8001286:	6125      	str	r5, [r4, #16]
  if (HAL_ADC_Init(&hadc1) != HAL_OK)
 8001288:	f002 fd9c 	bl	8003dc4 <HAL_ADC_Init>
 800128c:	b108      	cbz	r0, 8001292 <main+0x112>
 800128e:	b672      	cpsid	i
  while (1)
 8001290:	e7fe      	b.n	8001290 <main+0x110>
  sConfig.SamplingTime = ADC_SAMPLETIME_239CYCLES_5;
 8001292:	2307      	movs	r3, #7
  sConfig.Rank = ADC_REGULAR_RANK_1;
 8001294:	e9cd 0612 	strd	r0, r6, [sp, #72]	; 0x48
  if (HAL_ADC_ConfigChannel(&hadc1, &sConfig) != HAL_OK)
 8001298:	a912      	add	r1, sp, #72	; 0x48
 800129a:	4620      	mov	r0, r4
  sConfig.SamplingTime = ADC_SAMPLETIME_239CYCLES_5;
 800129c:	9314      	str	r3, [sp, #80]	; 0x50
  if (HAL_ADC_ConfigChannel(&hadc1, &sConfig) != HAL_OK)
 800129e:	f002 fc23 	bl	8003ae8 <HAL_ADC_ConfigChannel>
 80012a2:	b108      	cbz	r0, 80012a8 <main+0x128>
 80012a4:	b672      	cpsid	i
  while (1)
 80012a6:	e7fe      	b.n	80012a6 <main+0x126>
  sConfig.Channel = ADC_CHANNEL_9;
 80012a8:	2309      	movs	r3, #9
  if (HAL_ADC_ConfigChannel(&hadc1, &sConfig) != HAL_OK)
 80012aa:	4620      	mov	r0, r4
 80012ac:	a912      	add	r1, sp, #72	; 0x48
  sConfig.Rank = ADC_REGULAR_RANK_2;
 80012ae:	e9cd 3812 	strd	r3, r8, [sp, #72]	; 0x48
  if (HAL_ADC_ConfigChannel(&hadc1, &sConfig) != HAL_OK)
 80012b2:	f002 fc19 	bl	8003ae8 <HAL_ADC_ConfigChannel>
 80012b6:	b108      	cbz	r0, 80012bc <main+0x13c>
 80012b8:	b672      	cpsid	i
  while (1)
 80012ba:	e7fe      	b.n	80012ba <main+0x13a>
  if (HAL_ADC_ConfigChannel(&hadc1, &sConfig) != HAL_OK)
 80012bc:	4620      	mov	r0, r4
 80012be:	a912      	add	r1, sp, #72	; 0x48
  sConfig.Rank = ADC_REGULAR_RANK_3;
 80012c0:	e9cd 7512 	strd	r7, r5, [sp, #72]	; 0x48
  if (HAL_ADC_ConfigChannel(&hadc1, &sConfig) != HAL_OK)
 80012c4:	f002 fc10 	bl	8003ae8 <HAL_ADC_ConfigChannel>
 80012c8:	4603      	mov	r3, r0
 80012ca:	b108      	cbz	r0, 80012d0 <main+0x150>
 80012cc:	b672      	cpsid	i
  while (1)
 80012ce:	e7fe      	b.n	80012ce <main+0x14e>
  hspi2.Init.Mode = SPI_MODE_MASTER;
 80012d0:	f44f 7282 	mov.w	r2, #260	; 0x104
  hspi2.Instance = SPI2;
 80012d4:	4851      	ldr	r0, [pc, #324]	; (800141c <main+0x29c>)
  hspi2.Init.Mode = SPI_MODE_MASTER;
 80012d6:	4c52      	ldr	r4, [pc, #328]	; (8001420 <main+0x2a0>)
  hspi2.Init.DataSize = SPI_DATASIZE_8BIT;
 80012d8:	e9c0 3302 	strd	r3, r3, [r0, #8]
  hspi2.Init.Mode = SPI_MODE_MASTER;
 80012dc:	e9c0 4200 	strd	r4, r2, [r0]
  hspi2.Init.CLKPhase = SPI_PHASE_1EDGE;
 80012e0:	e9c0 3304 	strd	r3, r3, [r0, #16]
  hspi2.Init.NSS = SPI_NSS_HARD_OUTPUT;
 80012e4:	f44f 2280 	mov.w	r2, #262144	; 0x40000
  hspi2.Init.TIMode = SPI_TIMODE_DISABLE;
 80012e8:	e9c0 3308 	strd	r3, r3, [r0, #32]
  hspi2.Init.CRCCalculation = SPI_CRCCALCULATION_DISABLE;
 80012ec:	6283      	str	r3, [r0, #40]	; 0x28
  hspi2.Init.CRCPolynomial = 10;
 80012ee:	230a      	movs	r3, #10
  hspi2.Init.BaudRatePrescaler = SPI_BAUDRATEPRESCALER_4;
 80012f0:	e9c0 2706 	strd	r2, r7, [r0, #24]
  hspi2.Init.CRCPolynomial = 10;
 80012f4:	62c3      	str	r3, [r0, #44]	; 0x2c
  if (HAL_SPI_Init(&hspi2) != HAL_OK)
 80012f6:	f003 feb3 	bl	8005060 <HAL_SPI_Init>
 80012fa:	4604      	mov	r4, r0
 80012fc:	b108      	cbz	r0, 8001302 <main+0x182>
 80012fe:	b672      	cpsid	i
  while (1)
 8001300:	e7fe      	b.n	8001300 <main+0x180>
  TIM_ClockConfigTypeDef sClockSourceConfig = {0};
 8001302:	4601      	mov	r1, r0
 8001304:	2210      	movs	r2, #16
 8001306:	a807      	add	r0, sp, #28
 8001308:	f004 fabc 	bl	8005884 <memset>
  TIM_OC_InitTypeDef sConfigOC = {0};
 800130c:	221c      	movs	r2, #28
 800130e:	4621      	mov	r1, r4
 8001310:	a80b      	add	r0, sp, #44	; 0x2c
  TIM_MasterConfigTypeDef sMasterConfig = {0};
 8001312:	e9cd 4405 	strd	r4, r4, [sp, #20]
  TIM_OC_InitTypeDef sConfigOC = {0};
 8001316:	f004 fab5 	bl	8005884 <memset>
  TIM_BreakDeadTimeConfigTypeDef sBreakDeadTimeConfig = {0};
 800131a:	2220      	movs	r2, #32
 800131c:	4621      	mov	r1, r4
 800131e:	a812      	add	r0, sp, #72	; 0x48
 8001320:	f004 fab0 	bl	8005884 <memset>
  htim1.Instance = TIM1;
 8001324:	4d3f      	ldr	r5, [pc, #252]	; (8001424 <main+0x2a4>)
 8001326:	4b40      	ldr	r3, [pc, #256]	; (8001428 <main+0x2a8>)
  if (HAL_TIM_Base_Init(&htim1) != HAL_OK)
 8001328:	4628      	mov	r0, r5
  htim1.Init.Prescaler = 0;
 800132a:	e9c5 3400 	strd	r3, r4, [r5]
  htim1.Init.Period = 65535;
 800132e:	f64f 73ff 	movw	r3, #65535	; 0xffff
  htim1.Init.AutoReloadPreload = TIM_AUTORELOAD_PRELOAD_DISABLE;
 8001332:	e9c5 4405 	strd	r4, r4, [r5, #20]
  htim1.Init.ClockDivision = TIM_CLOCKDIVISION_DIV1;
 8001336:	e9c5 3403 	strd	r3, r4, [r5, #12]
  htim1.Init.CounterMode = TIM_COUNTERMODE_UP;
 800133a:	60ac      	str	r4, [r5, #8]
  if (HAL_TIM_Base_Init(&htim1) != HAL_OK)
 800133c:	f004 f844 	bl	80053c8 <HAL_TIM_Base_Init>
 8001340:	b108      	cbz	r0, 8001346 <main+0x1c6>
 8001342:	b672      	cpsid	i
  while (1)
 8001344:	e7fe      	b.n	8001344 <main+0x1c4>
  sClockSourceConfig.ClockSource = TIM_CLOCKSOURCE_INTERNAL;
 8001346:	f44f 5380 	mov.w	r3, #4096	; 0x1000
  if (HAL_TIM_ConfigClockSource(&htim1, &sClockSourceConfig) != HAL_OK)
 800134a:	4628      	mov	r0, r5
 800134c:	a907      	add	r1, sp, #28
  sClockSourceConfig.ClockSource = TIM_CLOCKSOURCE_INTERNAL;
 800134e:	9307      	str	r3, [sp, #28]
  if (HAL_TIM_ConfigClockSource(&htim1, &sClockSourceConfig) != HAL_OK)
 8001350:	f004 f923 	bl	800559a <HAL_TIM_ConfigClockSource>
 8001354:	b108      	cbz	r0, 800135a <main+0x1da>
 8001356:	b672      	cpsid	i
  while (1)
 8001358:	e7fe      	b.n	8001358 <main+0x1d8>
  if (HAL_TIM_PWM_Init(&htim1) != HAL_OK)
 800135a:	4628      	mov	r0, r5
 800135c:	f004 f860 	bl	8005420 <HAL_TIM_PWM_Init>
 8001360:	b108      	cbz	r0, 8001366 <main+0x1e6>
 8001362:	b672      	cpsid	i
  while (1)
 8001364:	e7fe      	b.n	8001364 <main+0x1e4>
  sMasterConfig.MasterSlaveMode = TIM_MASTERSLAVEMODE_DISABLE;
 8001366:	e9cd 0005 	strd	r0, r0, [sp, #20]
  if (HAL_TIMEx_MasterConfigSynchronization(&htim1, &sMasterConfig) != HAL_OK)
 800136a:	a905      	add	r1, sp, #20
 800136c:	4628      	mov	r0, r5
 800136e:	f004 fa0b 	bl	8005788 <HAL_TIMEx_MasterConfigSynchronization>
 8001372:	4602      	mov	r2, r0
 8001374:	b108      	cbz	r0, 800137a <main+0x1fa>
 8001376:	b672      	cpsid	i
  while (1)
 8001378:	e7fe      	b.n	8001378 <main+0x1f8>
  sConfigOC.Pulse = 45000;
 800137a:	2160      	movs	r1, #96	; 0x60
 800137c:	f64a 73c8 	movw	r3, #45000	; 0xafc8
  sConfigOC.OCNPolarity = TIM_OCNPOLARITY_HIGH;
 8001380:	e9cd 000d 	strd	r0, r0, [sp, #52]	; 0x34
  sConfigOC.Pulse = 45000;
 8001384:	e9cd 130b 	strd	r1, r3, [sp, #44]	; 0x2c
  sConfigOC.OCIdleState = TIM_OCIDLESTATE_RESET;
 8001388:	e9cd 000f 	strd	r0, r0, [sp, #60]	; 0x3c
  sConfigOC.OCNIdleState = TIM_OCNIDLESTATE_RESET;
 800138c:	9011      	str	r0, [sp, #68]	; 0x44
  if (HAL_TIM_PWM_ConfigChannel(&htim1, &sConfigOC, TIM_CHANNEL_1) != HAL_OK)
 800138e:	a90b      	add	r1, sp, #44	; 0x2c
 8001390:	4628      	mov	r0, r5
 8001392:	f004 f89d 	bl	80054d0 <HAL_TIM_PWM_ConfigChannel>
 8001396:	b108      	cbz	r0, 800139c <main+0x21c>
 8001398:	b672      	cpsid	i
  while (1)
 800139a:	e7fe      	b.n	800139a <main+0x21a>
  sBreakDeadTimeConfig.OffStateRunMode = TIM_OSSR_DISABLE;
 800139c:	2300      	movs	r3, #0
  sBreakDeadTimeConfig.BreakPolarity = TIM_BREAKPOLARITY_HIGH;
 800139e:	f44f 5200 	mov.w	r2, #8192	; 0x2000
  if (HAL_TIMEx_ConfigBreakDeadTime(&htim1, &sBreakDeadTimeConfig) != HAL_OK)
 80013a2:	4820      	ldr	r0, [pc, #128]	; (8001424 <main+0x2a4>)
 80013a4:	a912      	add	r1, sp, #72	; 0x48
  sBreakDeadTimeConfig.OffStateIDLEMode = TIM_OSSI_DISABLE;
 80013a6:	e9cd 3312 	strd	r3, r3, [sp, #72]	; 0x48
  sBreakDeadTimeConfig.DeadTime = 0;
 80013aa:	e9cd 3314 	strd	r3, r3, [sp, #80]	; 0x50
  sBreakDeadTimeConfig.BreakState = TIM_BREAK_DISABLE;
 80013ae:	9316      	str	r3, [sp, #88]	; 0x58
  sBreakDeadTimeConfig.BreakPolarity = TIM_BREAKPOLARITY_HIGH;
 80013b0:	9217      	str	r2, [sp, #92]	; 0x5c
  sBreakDeadTimeConfig.AutomaticOutput = TIM_AUTOMATICOUTPUT_DISABLE;
 80013b2:	9319      	str	r3, [sp, #100]	; 0x64
  if (HAL_TIMEx_ConfigBreakDeadTime(&htim1, &sBreakDeadTimeConfig) != HAL_OK)
 80013b4:	f004 fa16 	bl	80057e4 <HAL_TIMEx_ConfigBreakDeadTime>
 80013b8:	4604      	mov	r4, r0
 80013ba:	b108      	cbz	r0, 80013c0 <main+0x240>
 80013bc:	b672      	cpsid	i
  while (1)
 80013be:	e7fe      	b.n	80013be <main+0x23e>
  HAL_TIM_MspPostInit(&htim1);
 80013c0:	4818      	ldr	r0, [pc, #96]	; (8001424 <main+0x2a4>)
 80013c2:	f000 ff51 	bl	8002268 <HAL_TIM_MspPostInit>
  hrtc.Init.AsynchPrediv = RTC_AUTO_1_SECOND;
 80013c6:	f04f 33ff 	mov.w	r3, #4294967295
  hrtc.Instance = RTC;
 80013ca:	4818      	ldr	r0, [pc, #96]	; (800142c <main+0x2ac>)
  hrtc.Init.AsynchPrediv = RTC_AUTO_1_SECOND;
 80013cc:	4a18      	ldr	r2, [pc, #96]	; (8001430 <main+0x2b0>)
  hrtc.Init.OutPut = RTC_OUTPUTSOURCE_NONE;
 80013ce:	6084      	str	r4, [r0, #8]
  hrtc.Init.AsynchPrediv = RTC_AUTO_1_SECOND;
 80013d0:	e9c0 2300 	strd	r2, r3, [r0]
  if (HAL_RTC_Init(&hrtc) != HAL_OK)
 80013d4:	f003 fd92 	bl	8004efc <HAL_RTC_Init>
 80013d8:	b108      	cbz	r0, 80013de <main+0x25e>
 80013da:	b672      	cpsid	i
  while (1)
 80013dc:	e7fe      	b.n	80013dc <main+0x25c>
  commoninit();
 80013de:	f7ff f81b 	bl	8000418 <commoninit>
  randinit();
 80013e2:	f7fe feb3 	bl	800014c <randinit>
  LCD_init();
 80013e6:	f7ff fab7 	bl	8000958 <LCD_init>
  LCD_bufupload_buferase();
 80013ea:	f7ff faad 	bl	8000948 <LCD_bufupload_buferase>
  initbuttons();
 80013ee:	f7fe ff15 	bl	800021c <initbuttons>
  HAL_ADC_Start_DMA(&hadc1, (uint32_t*)ADC_data.array, 3);
 80013f2:	2203      	movs	r2, #3
 80013f4:	490f      	ldr	r1, [pc, #60]	; (8001434 <main+0x2b4>)
 80013f6:	4807      	ldr	r0, [pc, #28]	; (8001414 <main+0x294>)
 80013f8:	f002 fc30 	bl	8003c5c <HAL_ADC_Start_DMA>
    MainMenu();
 80013fc:	f000 fc12 	bl	8001c24 <MainMenu>
  while (1)
 8001400:	e7fc      	b.n	80013fc <main+0x27c>
 8001402:	bf00      	nop
 8001404:	40021000 	.word	0x40021000
 8001408:	40011000 	.word	0x40011000
 800140c:	40010800 	.word	0x40010800
 8001410:	40010c00 	.word	0x40010c00
 8001414:	20000558 	.word	0x20000558
 8001418:	40012400 	.word	0x40012400
 800141c:	200005e0 	.word	0x200005e0
 8001420:	40003800 	.word	0x40003800
 8001424:	20000638 	.word	0x20000638
 8001428:	40012c00 	.word	0x40012c00
 800142c:	200005cc 	.word	0x200005cc
 8001430:	40002800 	.word	0x40002800
 8001434:	2000054e 	.word	0x2000054e

08001438 <HAL_IncTick>:
{
 8001438:	b510      	push	{r4, lr}
  uwTick += uwTickFreq;
 800143a:	4a0f      	ldr	r2, [pc, #60]	; (8001478 <HAL_IncTick+0x40>)
 800143c:	4b0f      	ldr	r3, [pc, #60]	; (800147c <HAL_IncTick+0x44>)
 800143e:	6811      	ldr	r1, [r2, #0]
 8001440:	781b      	ldrb	r3, [r3, #0]
  timestamp++;
 8001442:	4c0f      	ldr	r4, [pc, #60]	; (8001480 <HAL_IncTick+0x48>)
  uwTick += uwTickFreq;
 8001444:	440b      	add	r3, r1
 8001446:	6013      	str	r3, [r2, #0]
  timestamp++;
 8001448:	6823      	ldr	r3, [r4, #0]
 800144a:	3301      	adds	r3, #1
 800144c:	6023      	str	r3, [r4, #0]
  SchedPeriodIncr();
 800144e:	f000 fdb3 	bl	8001fb8 <SchedPeriodIncr>
  if( ((timestamp - timer_adc) > 20) && adc_complete_fl )
 8001452:	4a0c      	ldr	r2, [pc, #48]	; (8001484 <HAL_IncTick+0x4c>)
 8001454:	6821      	ldr	r1, [r4, #0]
 8001456:	6813      	ldr	r3, [r2, #0]
 8001458:	1acb      	subs	r3, r1, r3
 800145a:	2b14      	cmp	r3, #20
 800145c:	d90a      	bls.n	8001474 <HAL_IncTick+0x3c>
 800145e:	4b0a      	ldr	r3, [pc, #40]	; (8001488 <HAL_IncTick+0x50>)
 8001460:	781b      	ldrb	r3, [r3, #0]
 8001462:	b13b      	cbz	r3, 8001474 <HAL_IncTick+0x3c>
}
 8001464:	e8bd 4010 	ldmia.w	sp!, {r4, lr}
    timer_adc = timestamp;
 8001468:	6011      	str	r1, [r2, #0]
    HAL_ADC_Start_DMA(&hadc1, (uint32_t*)ADC_data.array, 3);
 800146a:	4808      	ldr	r0, [pc, #32]	; (800148c <HAL_IncTick+0x54>)
 800146c:	2203      	movs	r2, #3
 800146e:	4908      	ldr	r1, [pc, #32]	; (8001490 <HAL_IncTick+0x58>)
 8001470:	f002 bbf4 	b.w	8003c5c <HAL_ADC_Start_DMA>
}
 8001474:	bd10      	pop	{r4, pc}
 8001476:	bf00      	nop
 8001478:	200009e4 	.word	0x200009e4
 800147c:	2000004b 	.word	0x2000004b
 8001480:	20000148 	.word	0x20000148
 8001484:	20000680 	.word	0x20000680
 8001488:	20000554 	.word	0x20000554
 800148c:	20000558 	.word	0x20000558
 8001490:	2000054e 	.word	0x2000054e

08001494 <HAL_ADC_ConvCpltCallback>:
  if(hadc->Instance == ADC1)
 8001494:	6802      	ldr	r2, [r0, #0]
 8001496:	4b09      	ldr	r3, [pc, #36]	; (80014bc <HAL_ADC_ConvCpltCallback+0x28>)
 8001498:	429a      	cmp	r2, r3
 800149a:	d10e      	bne.n	80014ba <HAL_ADC_ConvCpltCallback+0x26>
    joystick.ox = (uint8_t)(ADC_data.jox/16);
 800149c:	4b08      	ldr	r3, [pc, #32]	; (80014c0 <HAL_ADC_ConvCpltCallback+0x2c>)
 800149e:	4909      	ldr	r1, [pc, #36]	; (80014c4 <HAL_ADC_ConvCpltCallback+0x30>)
 80014a0:	885a      	ldrh	r2, [r3, #2]
 80014a2:	0912      	lsrs	r2, r2, #4
 80014a4:	704a      	strb	r2, [r1, #1]
    joystick.oy = (uint8_t)(ADC_data.joy/16);
 80014a6:	889a      	ldrh	r2, [r3, #4]
    Ubat = (uint8_t)(ADC_data.batlvl/16);
 80014a8:	881b      	ldrh	r3, [r3, #0]
    joystick.oy = (uint8_t)(ADC_data.joy/16);
 80014aa:	0912      	lsrs	r2, r2, #4
 80014ac:	708a      	strb	r2, [r1, #2]
    Ubat = (uint8_t)(ADC_data.batlvl/16);
 80014ae:	4a06      	ldr	r2, [pc, #24]	; (80014c8 <HAL_ADC_ConvCpltCallback+0x34>)
 80014b0:	091b      	lsrs	r3, r3, #4
 80014b2:	7013      	strb	r3, [r2, #0]
    adc_complete_fl = 1;
 80014b4:	2201      	movs	r2, #1
 80014b6:	4b05      	ldr	r3, [pc, #20]	; (80014cc <HAL_ADC_ConvCpltCallback+0x38>)
 80014b8:	701a      	strb	r2, [r3, #0]
}
 80014ba:	4770      	bx	lr
 80014bc:	40012400 	.word	0x40012400
 80014c0:	2000054e 	.word	0x2000054e
 80014c4:	20000133 	.word	0x20000133
 80014c8:	20000130 	.word	0x20000130
 80014cc:	20000554 	.word	0x20000554

080014d0 <Error_Handler>:
 80014d0:	b672      	cpsid	i
  while (1)
 80014d2:	e7fe      	b.n	80014d2 <Error_Handler+0x2>

080014d4 <setdatetime>:
#include "ufo_battle.h"
#include "math.h"


void setdatetime(void)
{
 80014d4:	e92d 4ff0 	stmdb	sp!, {r4, r5, r6, r7, r8, r9, sl, fp, lr}
  uint8 selectpos = 0;
  RTCgetdata(&rtcbcd);
  rtcbcdtoraw();
  uint8 displaingSaveFlag = 0;
  uint8 displaingSaveLatch = 0;
  uint32 tim = 0;
 80014d8:	f04f 0800 	mov.w	r8, #0
  RTCgetdata(&rtcbcd);
 80014dc:	48ba      	ldr	r0, [pc, #744]	; (80017c8 <setdatetime+0x2f4>)
{
 80014de:	b08b      	sub	sp, #44	; 0x2c
  RTCgetdata(&rtcbcd);
 80014e0:	f7fe ffc8 	bl	8000474 <RTCgetdata>
  uint8 displaingSaveLatch = 0;
 80014e4:	4647      	mov	r7, r8
  rtcbcdtoraw();
 80014e6:	f7ff f855 	bl	8000594 <rtcbcdtoraw>
  uint8 selectpos = 0;
 80014ea:	4646      	mov	r6, r8
  while(1)
  {  
    checkjoydir();
    TestBtn(&B1); TestBtn(&B2); TestBtn(&B3); TestBtn(&B4);
 80014ec:	f8df a2dc 	ldr.w	sl, [pc, #732]	; 80017cc <setdatetime+0x2f8>
    if(B1.BtnON){
      B1.BtnON = 0;
      return;
    }
    
    if(joystick.right == 1)
 80014f0:	f8df 92dc 	ldr.w	r9, [pc, #732]	; 80017d0 <setdatetime+0x2fc>
    TestBtn(&B1); TestBtn(&B2); TestBtn(&B3); TestBtn(&B4);
 80014f4:	4cb7      	ldr	r4, [pc, #732]	; (80017d4 <setdatetime+0x300>)
    checkjoydir();
 80014f6:	f7ff f8e9 	bl	80006cc <checkjoydir>
    TestBtn(&B1); TestBtn(&B2); TestBtn(&B3); TestBtn(&B4);
 80014fa:	4650      	mov	r0, sl
 80014fc:	f7ff f890 	bl	8000620 <TestBtn>
 8001500:	4620      	mov	r0, r4
 8001502:	f7ff f88d 	bl	8000620 <TestBtn>
 8001506:	48b4      	ldr	r0, [pc, #720]	; (80017d8 <setdatetime+0x304>)
 8001508:	f7ff f88a 	bl	8000620 <TestBtn>
 800150c:	48b3      	ldr	r0, [pc, #716]	; (80017dc <setdatetime+0x308>)
 800150e:	f7ff f887 	bl	8000620 <TestBtn>
    if(B2.BtnON){
 8001512:	7c63      	ldrb	r3, [r4, #17]
 8001514:	9301      	str	r3, [sp, #4]
 8001516:	b133      	cbz	r3, 8001526 <setdatetime+0x52>
      B2.BtnON = 0;
 8001518:	2300      	movs	r3, #0
      RTCsenddata(&rtcbcd);
 800151a:	48ab      	ldr	r0, [pc, #684]	; (80017c8 <setdatetime+0x2f4>)
      B2.BtnON = 0;
 800151c:	7463      	strb	r3, [r4, #17]
      RTCsenddata(&rtcbcd);
 800151e:	f7fe ffd5 	bl	80004cc <RTCsenddata>
      displaingSaveFlag = 1;
 8001522:	2301      	movs	r3, #1
 8001524:	9301      	str	r3, [sp, #4]
    if(B1.BtnON){
 8001526:	f89a 2011 	ldrb.w	r2, [sl, #17]
 800152a:	b12a      	cbz	r2, 8001538 <setdatetime+0x64>
      B1.BtnON = 0;
 800152c:	2300      	movs	r3, #0
 800152e:	f88a 3011 	strb.w	r3, [sl, #17]
    }
    
    rtcrawtobcd();
    LCD_bufupload_buferase();
  }
}
 8001532:	b00b      	add	sp, #44	; 0x2c
 8001534:	e8bd 8ff0 	ldmia.w	sp!, {r4, r5, r6, r7, r8, r9, sl, fp, pc}
    if(joystick.right == 1)
 8001538:	f899 3000 	ldrb.w	r3, [r9]
 800153c:	0719      	lsls	r1, r3, #28
 800153e:	d508      	bpl.n	8001552 <setdatetime+0x7e>
      selectpos++;
 8001540:	3601      	adds	r6, #1
 8001542:	b2f6      	uxtb	r6, r6
      if(selectpos == 7) selectpos = 0;
 8001544:	2e07      	cmp	r6, #7
 8001546:	bf08      	it	eq
 8001548:	2600      	moveq	r6, #0
      joystick.right = 0;
 800154a:	f362 03c3 	bfi	r3, r2, #3, #1
 800154e:	f889 3000 	strb.w	r3, [r9]
    if(joystick.left == 1)
 8001552:	f899 3000 	ldrb.w	r3, [r9]
 8001556:	075a      	lsls	r2, r3, #29
 8001558:	d508      	bpl.n	800156c <setdatetime+0x98>
      selectpos--;
 800155a:	3e01      	subs	r6, #1
 800155c:	b2f6      	uxtb	r6, r6
      if(selectpos == 255) selectpos = 6;
 800155e:	2eff      	cmp	r6, #255	; 0xff
 8001560:	bf08      	it	eq
 8001562:	2606      	moveq	r6, #6
      joystick.left = 0;
 8001564:	f36f 0382 	bfc	r3, #2, #1
 8001568:	f889 3000 	strb.w	r3, [r9]
    uint8 day[4] = {dig_to_smb((rtcbcd.day & 0x30) >> 4), dig_to_smb(rtcbcd.day & 0x0F), '.', '\0'};
 800156c:	4c96      	ldr	r4, [pc, #600]	; (80017c8 <setdatetime+0x2f4>)
 800156e:	2500      	movs	r5, #0
 8001570:	78e0      	ldrb	r0, [r4, #3]
 8001572:	f04f 0b2e 	mov.w	fp, #46	; 0x2e
 8001576:	f3c0 1001 	ubfx	r0, r0, #4, #2
 800157a:	f7fe fdf8 	bl	800016e <dig_to_smb>
 800157e:	f88d 000c 	strb.w	r0, [sp, #12]
 8001582:	78e0      	ldrb	r0, [r4, #3]
 8001584:	f000 000f 	and.w	r0, r0, #15
 8001588:	f7fe fdf1 	bl	800016e <dig_to_smb>
 800158c:	f88d 000d 	strb.w	r0, [sp, #13]
    uint8 month[5] = {dig_to_smb((rtcbcd.month & 0x10) >> 4), dig_to_smb(rtcbcd.month & 0x0F), '.', '\0'};
 8001590:	7960      	ldrb	r0, [r4, #5]
    uint8 day[4] = {dig_to_smb((rtcbcd.day & 0x30) >> 4), dig_to_smb(rtcbcd.day & 0x0F), '.', '\0'};
 8001592:	f88d b00e 	strb.w	fp, [sp, #14]
    uint8 month[5] = {dig_to_smb((rtcbcd.month & 0x10) >> 4), dig_to_smb(rtcbcd.month & 0x0F), '.', '\0'};
 8001596:	f3c0 1000 	ubfx	r0, r0, #4, #1
    uint8 day[4] = {dig_to_smb((rtcbcd.day & 0x30) >> 4), dig_to_smb(rtcbcd.day & 0x0F), '.', '\0'};
 800159a:	f88d 500f 	strb.w	r5, [sp, #15]
    uint8 month[5] = {dig_to_smb((rtcbcd.month & 0x10) >> 4), dig_to_smb(rtcbcd.month & 0x0F), '.', '\0'};
 800159e:	9506      	str	r5, [sp, #24]
 80015a0:	f88d 501c 	strb.w	r5, [sp, #28]
 80015a4:	f7fe fde3 	bl	800016e <dig_to_smb>
 80015a8:	f88d 0018 	strb.w	r0, [sp, #24]
 80015ac:	7960      	ldrb	r0, [r4, #5]
 80015ae:	f000 000f 	and.w	r0, r0, #15
 80015b2:	f7fe fddc 	bl	800016e <dig_to_smb>
    uint8 year[5] = {'2', '0', dig_to_smb((rtcbcd.year & 0xF0) >> 4), dig_to_smb(rtcbcd.year & 0x0F), '\0'};
 80015b6:	2332      	movs	r3, #50	; 0x32
 80015b8:	f88d 3020 	strb.w	r3, [sp, #32]
 80015bc:	2330      	movs	r3, #48	; 0x30
    uint8 month[5] = {dig_to_smb((rtcbcd.month & 0x10) >> 4), dig_to_smb(rtcbcd.month & 0x0F), '.', '\0'};
 80015be:	f88d 0019 	strb.w	r0, [sp, #25]
    uint8 year[5] = {'2', '0', dig_to_smb((rtcbcd.year & 0xF0) >> 4), dig_to_smb(rtcbcd.year & 0x0F), '\0'};
 80015c2:	79a0      	ldrb	r0, [r4, #6]
 80015c4:	f88d 3021 	strb.w	r3, [sp, #33]	; 0x21
 80015c8:	0900      	lsrs	r0, r0, #4
    uint8 month[5] = {dig_to_smb((rtcbcd.month & 0x10) >> 4), dig_to_smb(rtcbcd.month & 0x0F), '.', '\0'};
 80015ca:	f88d b01a 	strb.w	fp, [sp, #26]
    uint8 year[5] = {'2', '0', dig_to_smb((rtcbcd.year & 0xF0) >> 4), dig_to_smb(rtcbcd.year & 0x0F), '\0'};
 80015ce:	f7fe fdce 	bl	800016e <dig_to_smb>
 80015d2:	f88d 0022 	strb.w	r0, [sp, #34]	; 0x22
 80015d6:	79a0      	ldrb	r0, [r4, #6]
    uint8 hour[4] = {dig_to_smb((rtcbcd.hour & 0x30) >> 4), dig_to_smb(rtcbcd.hour & 0x0F), ':', '\0'};
 80015d8:	f04f 0b3a 	mov.w	fp, #58	; 0x3a
    uint8 year[5] = {'2', '0', dig_to_smb((rtcbcd.year & 0xF0) >> 4), dig_to_smb(rtcbcd.year & 0x0F), '\0'};
 80015dc:	f000 000f 	and.w	r0, r0, #15
 80015e0:	f7fe fdc5 	bl	800016e <dig_to_smb>
    LCD_printstr8x5(day, 0, 2);
 80015e4:	4629      	mov	r1, r5
 80015e6:	2202      	movs	r2, #2
    uint8 year[5] = {'2', '0', dig_to_smb((rtcbcd.year & 0xF0) >> 4), dig_to_smb(rtcbcd.year & 0x0F), '\0'};
 80015e8:	f88d 0023 	strb.w	r0, [sp, #35]	; 0x23
    LCD_printstr8x5(day, 0, 2);
 80015ec:	a803      	add	r0, sp, #12
    uint8 year[5] = {'2', '0', dig_to_smb((rtcbcd.year & 0xF0) >> 4), dig_to_smb(rtcbcd.year & 0x0F), '\0'};
 80015ee:	f88d 5024 	strb.w	r5, [sp, #36]	; 0x24
    LCD_printstr8x5(day, 0, 2);
 80015f2:	f7ff f949 	bl	8000888 <LCD_printstr8x5>
    LCD_printstr8x5(month, 0, 18);
 80015f6:	4629      	mov	r1, r5
 80015f8:	2212      	movs	r2, #18
 80015fa:	a806      	add	r0, sp, #24
 80015fc:	f7ff f944 	bl	8000888 <LCD_printstr8x5>
    LCD_printstr8x5(year, 0, 34);
 8001600:	4629      	mov	r1, r5
 8001602:	2222      	movs	r2, #34	; 0x22
 8001604:	a808      	add	r0, sp, #32
 8001606:	f7ff f93f 	bl	8000888 <LCD_printstr8x5>
    uint8 hour[4] = {dig_to_smb((rtcbcd.hour & 0x30) >> 4), dig_to_smb(rtcbcd.hour & 0x0F), ':', '\0'};
 800160a:	78a0      	ldrb	r0, [r4, #2]
 800160c:	f3c0 1001 	ubfx	r0, r0, #4, #2
 8001610:	f7fe fdad 	bl	800016e <dig_to_smb>
 8001614:	f88d 0010 	strb.w	r0, [sp, #16]
 8001618:	78a0      	ldrb	r0, [r4, #2]
 800161a:	f000 000f 	and.w	r0, r0, #15
 800161e:	f7fe fda6 	bl	800016e <dig_to_smb>
 8001622:	f88d 0011 	strb.w	r0, [sp, #17]
    uint8 min[4] = {dig_to_smb((rtcbcd.min & 0x70) >> 4), dig_to_smb(rtcbcd.min & 0x0F), ':', '\0'};
 8001626:	7860      	ldrb	r0, [r4, #1]
    uint8 hour[4] = {dig_to_smb((rtcbcd.hour & 0x30) >> 4), dig_to_smb(rtcbcd.hour & 0x0F), ':', '\0'};
 8001628:	f88d b012 	strb.w	fp, [sp, #18]
    uint8 min[4] = {dig_to_smb((rtcbcd.min & 0x70) >> 4), dig_to_smb(rtcbcd.min & 0x0F), ':', '\0'};
 800162c:	f3c0 1002 	ubfx	r0, r0, #4, #3
    uint8 hour[4] = {dig_to_smb((rtcbcd.hour & 0x30) >> 4), dig_to_smb(rtcbcd.hour & 0x0F), ':', '\0'};
 8001630:	f88d 5013 	strb.w	r5, [sp, #19]
    uint8 min[4] = {dig_to_smb((rtcbcd.min & 0x70) >> 4), dig_to_smb(rtcbcd.min & 0x0F), ':', '\0'};
 8001634:	f7fe fd9b 	bl	800016e <dig_to_smb>
 8001638:	f88d 0014 	strb.w	r0, [sp, #20]
 800163c:	7860      	ldrb	r0, [r4, #1]
 800163e:	f000 000f 	and.w	r0, r0, #15
 8001642:	f7fe fd94 	bl	800016e <dig_to_smb>
 8001646:	f88d 0015 	strb.w	r0, [sp, #21]
    uint8 sec[3] = {dig_to_smb((rtcbcd.sec & 0x70) >> 4), dig_to_smb(rtcbcd.sec & 0x0F), '\0'};
 800164a:	7820      	ldrb	r0, [r4, #0]
    uint8 min[4] = {dig_to_smb((rtcbcd.min & 0x70) >> 4), dig_to_smb(rtcbcd.min & 0x0F), ':', '\0'};
 800164c:	f88d b016 	strb.w	fp, [sp, #22]
    uint8 sec[3] = {dig_to_smb((rtcbcd.sec & 0x70) >> 4), dig_to_smb(rtcbcd.sec & 0x0F), '\0'};
 8001650:	f3c0 1002 	ubfx	r0, r0, #4, #3
    uint8 min[4] = {dig_to_smb((rtcbcd.min & 0x70) >> 4), dig_to_smb(rtcbcd.min & 0x0F), ':', '\0'};
 8001654:	f88d 5017 	strb.w	r5, [sp, #23]
    uint8 sec[3] = {dig_to_smb((rtcbcd.sec & 0x70) >> 4), dig_to_smb(rtcbcd.sec & 0x0F), '\0'};
 8001658:	f7fe fd89 	bl	800016e <dig_to_smb>
 800165c:	f88d 0008 	strb.w	r0, [sp, #8]
 8001660:	7820      	ldrb	r0, [r4, #0]
    LCD_printweekday(rtcraw.weekday, 0, 115);
 8001662:	4c5f      	ldr	r4, [pc, #380]	; (80017e0 <setdatetime+0x30c>)
    uint8 sec[3] = {dig_to_smb((rtcbcd.sec & 0x70) >> 4), dig_to_smb(rtcbcd.sec & 0x0F), '\0'};
 8001664:	f000 000f 	and.w	r0, r0, #15
 8001668:	f7fe fd81 	bl	800016e <dig_to_smb>
    LCD_printstr8x5(hour, 0, 62);
 800166c:	4629      	mov	r1, r5
 800166e:	223e      	movs	r2, #62	; 0x3e
    uint8 sec[3] = {dig_to_smb((rtcbcd.sec & 0x70) >> 4), dig_to_smb(rtcbcd.sec & 0x0F), '\0'};
 8001670:	f88d 0009 	strb.w	r0, [sp, #9]
    LCD_printstr8x5(hour, 0, 62);
 8001674:	a804      	add	r0, sp, #16
    uint8 sec[3] = {dig_to_smb((rtcbcd.sec & 0x70) >> 4), dig_to_smb(rtcbcd.sec & 0x0F), '\0'};
 8001676:	f88d 500a 	strb.w	r5, [sp, #10]
    LCD_printstr8x5(hour, 0, 62);
 800167a:	f7ff f905 	bl	8000888 <LCD_printstr8x5>
    LCD_printstr8x5(min, 0, 80);
 800167e:	4629      	mov	r1, r5
 8001680:	2250      	movs	r2, #80	; 0x50
 8001682:	a805      	add	r0, sp, #20
 8001684:	f7ff f900 	bl	8000888 <LCD_printstr8x5>
    LCD_printstr8x5(sec, 0, 98);
 8001688:	4629      	mov	r1, r5
 800168a:	2262      	movs	r2, #98	; 0x62
 800168c:	a802      	add	r0, sp, #8
 800168e:	f7ff f8fb 	bl	8000888 <LCD_printstr8x5>
    LCD_printweekday(rtcraw.weekday, 0, 115);
 8001692:	2273      	movs	r2, #115	; 0x73
 8001694:	4629      	mov	r1, r5
 8001696:	7920      	ldrb	r0, [r4, #4]
 8001698:	f7ff f9a4 	bl	80009e4 <LCD_printweekday>
    switch(selectpos)
 800169c:	1e72      	subs	r2, r6, #1
 800169e:	f8df b138 	ldr.w	fp, [pc, #312]	; 80017d8 <setdatetime+0x304>
 80016a2:	4d4e      	ldr	r5, [pc, #312]	; (80017dc <setdatetime+0x308>)
 80016a4:	2a05      	cmp	r2, #5
 80016a6:	d807      	bhi.n	80016b8 <setdatetime+0x1e4>
 80016a8:	e8df f012 	tbh	[pc, r2, lsl #1]
 80016ac:	00a6005e 	.word	0x00a6005e
 80016b0:	010800d7 	.word	0x010800d7
 80016b4:	016a0139 	.word	0x016a0139
        LCD_erasestring(128, 1, 0); 
 80016b8:	2200      	movs	r2, #0
 80016ba:	2101      	movs	r1, #1
 80016bc:	2080      	movs	r0, #128	; 0x80
 80016be:	f7ff f887 	bl	80007d0 <LCD_erasestring>
        LCD_printhorline(12, 8, 2); 
 80016c2:	2202      	movs	r2, #2
 80016c4:	2108      	movs	r1, #8
 80016c6:	200c      	movs	r0, #12
 80016c8:	f7ff fae0 	bl	8000c8c <LCD_printhorline>
        if(B3.BtnON || B3.HoldON || B3.StuckON){B3.BtnON = 0; rtcraw.day--; if(rtcraw.day > 31) rtcraw.day = 31; HAL_Delay(200);}
 80016cc:	f8db 2010 	ldr.w	r2, [fp, #16]
 80016d0:	f012 2fff 	tst.w	r2, #4278255360	; 0xff00ff00
 80016d4:	d102      	bne.n	80016dc <setdatetime+0x208>
 80016d6:	f89b 2014 	ldrb.w	r2, [fp, #20]
 80016da:	b162      	cbz	r2, 80016f6 <setdatetime+0x222>
 80016dc:	78e3      	ldrb	r3, [r4, #3]
 80016de:	2200      	movs	r2, #0
 80016e0:	3b01      	subs	r3, #1
 80016e2:	b2db      	uxtb	r3, r3
 80016e4:	2b1f      	cmp	r3, #31
 80016e6:	bf88      	it	hi
 80016e8:	231f      	movhi	r3, #31
 80016ea:	20c8      	movs	r0, #200	; 0xc8
 80016ec:	f88b 2011 	strb.w	r2, [fp, #17]
 80016f0:	70e3      	strb	r3, [r4, #3]
 80016f2:	f002 f9ab 	bl	8003a4c <HAL_Delay>
        if(B4.BtnON || B4.HoldON || B4.StuckON){B4.BtnON = 0; rtcraw.day++; if(rtcraw.day > 31) rtcraw.day = 0; HAL_Delay(200);}
 80016f6:	692b      	ldr	r3, [r5, #16]
 80016f8:	f013 2fff 	tst.w	r3, #4278255360	; 0xff00ff00
 80016fc:	d101      	bne.n	8001702 <setdatetime+0x22e>
 80016fe:	7d2b      	ldrb	r3, [r5, #20]
 8001700:	b15b      	cbz	r3, 800171a <setdatetime+0x246>
 8001702:	2200      	movs	r2, #0
 8001704:	78e3      	ldrb	r3, [r4, #3]
 8001706:	746a      	strb	r2, [r5, #17]
 8001708:	3301      	adds	r3, #1
 800170a:	b2db      	uxtb	r3, r3
 800170c:	2b1f      	cmp	r3, #31
 800170e:	bf94      	ite	ls
 8001710:	70e3      	strbls	r3, [r4, #3]
 8001712:	70e2      	strbhi	r2, [r4, #3]
 8001714:	20c8      	movs	r0, #200	; 0xc8
 8001716:	f002 f999 	bl	8003a4c <HAL_Delay>
    LCD_printbutselhint(7, 3, 40);
 800171a:	2228      	movs	r2, #40	; 0x28
 800171c:	2103      	movs	r1, #3
 800171e:	2007      	movs	r0, #7
 8001720:	f7ff fa34 	bl	8000b8c <LCD_printbutselhint>
    LCD_printbutselhint(6, 3, 89);
 8001724:	2259      	movs	r2, #89	; 0x59
 8001726:	2103      	movs	r1, #3
 8001728:	2006      	movs	r0, #6
 800172a:	f7ff fa2f 	bl	8000b8c <LCD_printbutselhint>
    LCD_printstr8x5((uint8*)"вых", 7, 85);
 800172e:	2255      	movs	r2, #85	; 0x55
 8001730:	2107      	movs	r1, #7
 8001732:	482c      	ldr	r0, [pc, #176]	; (80017e4 <setdatetime+0x310>)
 8001734:	f7ff f8a8 	bl	8000888 <LCD_printstr8x5>
    LCD_printstr8x5((uint8*)"ок", 7, 110);
 8001738:	226e      	movs	r2, #110	; 0x6e
 800173a:	2107      	movs	r1, #7
 800173c:	482a      	ldr	r0, [pc, #168]	; (80017e8 <setdatetime+0x314>)
 800173e:	f7ff f8a3 	bl	8000888 <LCD_printstr8x5>
    LCD_printstr8x5((uint8*)"-  +", 2, 93); 
 8001742:	225d      	movs	r2, #93	; 0x5d
 8001744:	2102      	movs	r1, #2
 8001746:	4829      	ldr	r0, [pc, #164]	; (80017ec <setdatetime+0x318>)
 8001748:	f7ff f89e 	bl	8000888 <LCD_printstr8x5>
    if(displaingSaveFlag) {
 800174c:	9b01      	ldr	r3, [sp, #4]
 800174e:	4c28      	ldr	r4, [pc, #160]	; (80017f0 <setdatetime+0x31c>)
 8001750:	2b00      	cmp	r3, #0
 8001752:	f000 8146 	beq.w	80019e2 <setdatetime+0x50e>
      tim = timestamp;
 8001756:	f8d4 8000 	ldr.w	r8, [r4]
    if(displaingSaveLatch) LCD_printstr8x5((uint8*)"СОХРАНЕНО", 7, 2);
 800175a:	2202      	movs	r2, #2
 800175c:	2107      	movs	r1, #7
 800175e:	4825      	ldr	r0, [pc, #148]	; (80017f4 <setdatetime+0x320>)
 8001760:	f7ff f892 	bl	8000888 <LCD_printstr8x5>
 8001764:	2701      	movs	r7, #1
 8001766:	e13f      	b.n	80019e8 <setdatetime+0x514>
        LCD_erasestring(128, 1, 0); 
 8001768:	2200      	movs	r2, #0
 800176a:	2101      	movs	r1, #1
 800176c:	2080      	movs	r0, #128	; 0x80
 800176e:	f7ff f82f 	bl	80007d0 <LCD_erasestring>
        LCD_printhorline(12, 8, 18);
 8001772:	2212      	movs	r2, #18
 8001774:	2108      	movs	r1, #8
 8001776:	200c      	movs	r0, #12
 8001778:	f7ff fa88 	bl	8000c8c <LCD_printhorline>
        if(B3.BtnON || B3.HoldON || B3.StuckON){B3.BtnON = 0; rtcraw.month--; if(rtcraw.month > 12) rtcraw.month = 12; HAL_Delay(200);}
 800177c:	f8db 2010 	ldr.w	r2, [fp, #16]
 8001780:	f012 2fff 	tst.w	r2, #4278255360	; 0xff00ff00
 8001784:	d102      	bne.n	800178c <setdatetime+0x2b8>
 8001786:	f89b 2014 	ldrb.w	r2, [fp, #20]
 800178a:	b162      	cbz	r2, 80017a6 <setdatetime+0x2d2>
 800178c:	7963      	ldrb	r3, [r4, #5]
 800178e:	2200      	movs	r2, #0
 8001790:	3b01      	subs	r3, #1
 8001792:	b2db      	uxtb	r3, r3
 8001794:	2b0c      	cmp	r3, #12
 8001796:	bf88      	it	hi
 8001798:	230c      	movhi	r3, #12
 800179a:	20c8      	movs	r0, #200	; 0xc8
 800179c:	f88b 2011 	strb.w	r2, [fp, #17]
 80017a0:	7163      	strb	r3, [r4, #5]
 80017a2:	f002 f953 	bl	8003a4c <HAL_Delay>
        if(B4.BtnON || B4.HoldON || B4.StuckON){B4.BtnON = 0; rtcraw.month++; if(rtcraw.month > 12) rtcraw.month = 0; HAL_Delay(200);}
 80017a6:	692b      	ldr	r3, [r5, #16]
 80017a8:	f013 2fff 	tst.w	r3, #4278255360	; 0xff00ff00
 80017ac:	d102      	bne.n	80017b4 <setdatetime+0x2e0>
 80017ae:	7d2b      	ldrb	r3, [r5, #20]
 80017b0:	2b00      	cmp	r3, #0
 80017b2:	d0b2      	beq.n	800171a <setdatetime+0x246>
 80017b4:	2200      	movs	r2, #0
 80017b6:	7963      	ldrb	r3, [r4, #5]
 80017b8:	746a      	strb	r2, [r5, #17]
 80017ba:	3301      	adds	r3, #1
 80017bc:	b2db      	uxtb	r3, r3
 80017be:	2b0c      	cmp	r3, #12
 80017c0:	bf94      	ite	ls
 80017c2:	7163      	strbls	r3, [r4, #5]
 80017c4:	7162      	strbhi	r2, [r4, #5]
 80017c6:	e7a5      	b.n	8001714 <setdatetime+0x240>
 80017c8:	20000137 	.word	0x20000137
 80017cc:	200000d0 	.word	0x200000d0
 80017d0:	20000133 	.word	0x20000133
 80017d4:	200000e8 	.word	0x200000e8
 80017d8:	20000100 	.word	0x20000100
 80017dc:	20000118 	.word	0x20000118
 80017e0:	2000013e 	.word	0x2000013e
 80017e4:	0800749d 	.word	0x0800749d
 80017e8:	080074a1 	.word	0x080074a1
 80017ec:	080074a4 	.word	0x080074a4
 80017f0:	20000148 	.word	0x20000148
 80017f4:	080074a9 	.word	0x080074a9
        LCD_erasestring(128, 1, 0); 
 80017f8:	2200      	movs	r2, #0
 80017fa:	2101      	movs	r1, #1
 80017fc:	2080      	movs	r0, #128	; 0x80
 80017fe:	f7fe ffe7 	bl	80007d0 <LCD_erasestring>
        LCD_printhorline(24, 8, 34); 
 8001802:	2222      	movs	r2, #34	; 0x22
 8001804:	2108      	movs	r1, #8
 8001806:	2018      	movs	r0, #24
 8001808:	f7ff fa40 	bl	8000c8c <LCD_printhorline>
        if(B3.BtnON || B3.HoldON || B3.StuckON){B3.BtnON = 0; rtcraw.year--; if(rtcraw.year > 99) rtcraw.year = 99; HAL_Delay(200);}
 800180c:	f8db 2010 	ldr.w	r2, [fp, #16]
 8001810:	f012 2fff 	tst.w	r2, #4278255360	; 0xff00ff00
 8001814:	d102      	bne.n	800181c <setdatetime+0x348>
 8001816:	f89b 2014 	ldrb.w	r2, [fp, #20]
 800181a:	b162      	cbz	r2, 8001836 <setdatetime+0x362>
 800181c:	79a3      	ldrb	r3, [r4, #6]
 800181e:	2200      	movs	r2, #0
 8001820:	3b01      	subs	r3, #1
 8001822:	b2db      	uxtb	r3, r3
 8001824:	2b63      	cmp	r3, #99	; 0x63
 8001826:	bf88      	it	hi
 8001828:	2363      	movhi	r3, #99	; 0x63
 800182a:	20c8      	movs	r0, #200	; 0xc8
 800182c:	f88b 2011 	strb.w	r2, [fp, #17]
 8001830:	71a3      	strb	r3, [r4, #6]
 8001832:	f002 f90b 	bl	8003a4c <HAL_Delay>
        if(B4.BtnON || B4.HoldON || B4.StuckON){B4.BtnON = 0; rtcraw.year++; if(rtcraw.year > 99) rtcraw.year = 0; HAL_Delay(200);}
 8001836:	692b      	ldr	r3, [r5, #16]
 8001838:	f013 2fff 	tst.w	r3, #4278255360	; 0xff00ff00
 800183c:	d103      	bne.n	8001846 <setdatetime+0x372>
 800183e:	7d2b      	ldrb	r3, [r5, #20]
 8001840:	2b00      	cmp	r3, #0
 8001842:	f43f af6a 	beq.w	800171a <setdatetime+0x246>
 8001846:	2200      	movs	r2, #0
 8001848:	79a3      	ldrb	r3, [r4, #6]
 800184a:	746a      	strb	r2, [r5, #17]
 800184c:	3301      	adds	r3, #1
 800184e:	b2db      	uxtb	r3, r3
 8001850:	2b63      	cmp	r3, #99	; 0x63
 8001852:	bf94      	ite	ls
 8001854:	71a3      	strbls	r3, [r4, #6]
 8001856:	71a2      	strbhi	r2, [r4, #6]
 8001858:	e75c      	b.n	8001714 <setdatetime+0x240>
        LCD_erasestring(128, 1, 0); 
 800185a:	2200      	movs	r2, #0
 800185c:	2101      	movs	r1, #1
 800185e:	2080      	movs	r0, #128	; 0x80
 8001860:	f7fe ffb6 	bl	80007d0 <LCD_erasestring>
        LCD_printhorline(12, 8, 62);
 8001864:	223e      	movs	r2, #62	; 0x3e
 8001866:	2108      	movs	r1, #8
 8001868:	200c      	movs	r0, #12
 800186a:	f7ff fa0f 	bl	8000c8c <LCD_printhorline>
        if(B3.BtnON || B3.HoldON || B3.StuckON){B3.BtnON = 0; rtcraw.hour--; if(rtcraw.hour > 23) rtcraw.hour = 23; HAL_Delay(200);}
 800186e:	f8db 2010 	ldr.w	r2, [fp, #16]
 8001872:	f012 2fff 	tst.w	r2, #4278255360	; 0xff00ff00
 8001876:	d102      	bne.n	800187e <setdatetime+0x3aa>
 8001878:	f89b 2014 	ldrb.w	r2, [fp, #20]
 800187c:	b162      	cbz	r2, 8001898 <setdatetime+0x3c4>
 800187e:	78a3      	ldrb	r3, [r4, #2]
 8001880:	2200      	movs	r2, #0
 8001882:	3b01      	subs	r3, #1
 8001884:	b2db      	uxtb	r3, r3
 8001886:	2b17      	cmp	r3, #23
 8001888:	bf88      	it	hi
 800188a:	2317      	movhi	r3, #23
 800188c:	20c8      	movs	r0, #200	; 0xc8
 800188e:	f88b 2011 	strb.w	r2, [fp, #17]
 8001892:	70a3      	strb	r3, [r4, #2]
 8001894:	f002 f8da 	bl	8003a4c <HAL_Delay>
        if(B4.BtnON || B4.HoldON || B4.StuckON){B4.BtnON = 0; rtcraw.hour++; if(rtcraw.hour > 23) rtcraw.hour = 0; HAL_Delay(200);}
 8001898:	692b      	ldr	r3, [r5, #16]
 800189a:	f013 2fff 	tst.w	r3, #4278255360	; 0xff00ff00
 800189e:	d103      	bne.n	80018a8 <setdatetime+0x3d4>
 80018a0:	7d2b      	ldrb	r3, [r5, #20]
 80018a2:	2b00      	cmp	r3, #0
 80018a4:	f43f af39 	beq.w	800171a <setdatetime+0x246>
 80018a8:	2200      	movs	r2, #0
 80018aa:	78a3      	ldrb	r3, [r4, #2]
 80018ac:	746a      	strb	r2, [r5, #17]
 80018ae:	3301      	adds	r3, #1
 80018b0:	b2db      	uxtb	r3, r3
 80018b2:	2b17      	cmp	r3, #23
 80018b4:	bf94      	ite	ls
 80018b6:	70a3      	strbls	r3, [r4, #2]
 80018b8:	70a2      	strbhi	r2, [r4, #2]
 80018ba:	e72b      	b.n	8001714 <setdatetime+0x240>
        LCD_erasestring(128, 1, 0); 
 80018bc:	2200      	movs	r2, #0
 80018be:	2101      	movs	r1, #1
 80018c0:	2080      	movs	r0, #128	; 0x80
 80018c2:	f7fe ff85 	bl	80007d0 <LCD_erasestring>
        LCD_printhorline(12, 8, 80); 
 80018c6:	2250      	movs	r2, #80	; 0x50
 80018c8:	2108      	movs	r1, #8
 80018ca:	200c      	movs	r0, #12
 80018cc:	f7ff f9de 	bl	8000c8c <LCD_printhorline>
        if(B3.BtnON || B3.HoldON || B3.StuckON){B3.BtnON = 0; rtcraw.min--; if(rtcraw.min > 59) rtcraw.min = 59; HAL_Delay(200);}
 80018d0:	f8db 2010 	ldr.w	r2, [fp, #16]
 80018d4:	f012 2fff 	tst.w	r2, #4278255360	; 0xff00ff00
 80018d8:	d102      	bne.n	80018e0 <setdatetime+0x40c>
 80018da:	f89b 2014 	ldrb.w	r2, [fp, #20]
 80018de:	b162      	cbz	r2, 80018fa <setdatetime+0x426>
 80018e0:	7863      	ldrb	r3, [r4, #1]
 80018e2:	2200      	movs	r2, #0
 80018e4:	3b01      	subs	r3, #1
 80018e6:	b2db      	uxtb	r3, r3
 80018e8:	2b3b      	cmp	r3, #59	; 0x3b
 80018ea:	bf88      	it	hi
 80018ec:	233b      	movhi	r3, #59	; 0x3b
 80018ee:	20c8      	movs	r0, #200	; 0xc8
 80018f0:	f88b 2011 	strb.w	r2, [fp, #17]
 80018f4:	7063      	strb	r3, [r4, #1]
 80018f6:	f002 f8a9 	bl	8003a4c <HAL_Delay>
        if(B4.BtnON || B4.HoldON || B4.StuckON){B4.BtnON = 0; rtcraw.min++; if(rtcraw.min > 59) rtcraw.min = 0; HAL_Delay(200);}
 80018fa:	692b      	ldr	r3, [r5, #16]
 80018fc:	f013 2fff 	tst.w	r3, #4278255360	; 0xff00ff00
 8001900:	d103      	bne.n	800190a <setdatetime+0x436>
 8001902:	7d2b      	ldrb	r3, [r5, #20]
 8001904:	2b00      	cmp	r3, #0
 8001906:	f43f af08 	beq.w	800171a <setdatetime+0x246>
 800190a:	2200      	movs	r2, #0
 800190c:	7863      	ldrb	r3, [r4, #1]
 800190e:	746a      	strb	r2, [r5, #17]
 8001910:	3301      	adds	r3, #1
 8001912:	b2db      	uxtb	r3, r3
 8001914:	2b3b      	cmp	r3, #59	; 0x3b
 8001916:	bf94      	ite	ls
 8001918:	7063      	strbls	r3, [r4, #1]
 800191a:	7062      	strbhi	r2, [r4, #1]
 800191c:	e6fa      	b.n	8001714 <setdatetime+0x240>
        LCD_erasestring(128, 1, 0);
 800191e:	2200      	movs	r2, #0
 8001920:	2101      	movs	r1, #1
 8001922:	2080      	movs	r0, #128	; 0x80
 8001924:	f7fe ff54 	bl	80007d0 <LCD_erasestring>
        LCD_printhorline(12, 8, 98);
 8001928:	2262      	movs	r2, #98	; 0x62
 800192a:	2108      	movs	r1, #8
 800192c:	200c      	movs	r0, #12
 800192e:	f7ff f9ad 	bl	8000c8c <LCD_printhorline>
        if(B3.BtnON || B3.HoldON || B3.StuckON){B3.BtnON = 0; rtcraw.sec--; if(rtcraw.sec > 59) rtcraw.sec = 59; HAL_Delay(200);}
 8001932:	f8db 2010 	ldr.w	r2, [fp, #16]
 8001936:	f012 2fff 	tst.w	r2, #4278255360	; 0xff00ff00
 800193a:	d102      	bne.n	8001942 <setdatetime+0x46e>
 800193c:	f89b 2014 	ldrb.w	r2, [fp, #20]
 8001940:	b162      	cbz	r2, 800195c <setdatetime+0x488>
 8001942:	7823      	ldrb	r3, [r4, #0]
 8001944:	2200      	movs	r2, #0
 8001946:	3b01      	subs	r3, #1
 8001948:	b2db      	uxtb	r3, r3
 800194a:	2b3b      	cmp	r3, #59	; 0x3b
 800194c:	bf88      	it	hi
 800194e:	233b      	movhi	r3, #59	; 0x3b
 8001950:	20c8      	movs	r0, #200	; 0xc8
 8001952:	f88b 2011 	strb.w	r2, [fp, #17]
 8001956:	7023      	strb	r3, [r4, #0]
 8001958:	f002 f878 	bl	8003a4c <HAL_Delay>
        if(B4.BtnON || B4.HoldON || B4.StuckON){B4.BtnON = 0; rtcraw.sec++; if(rtcraw.sec > 59) rtcraw.sec = 0; HAL_Delay(200);}
 800195c:	692b      	ldr	r3, [r5, #16]
 800195e:	f013 2fff 	tst.w	r3, #4278255360	; 0xff00ff00
 8001962:	d103      	bne.n	800196c <setdatetime+0x498>
 8001964:	7d2b      	ldrb	r3, [r5, #20]
 8001966:	2b00      	cmp	r3, #0
 8001968:	f43f aed7 	beq.w	800171a <setdatetime+0x246>
 800196c:	2200      	movs	r2, #0
 800196e:	7823      	ldrb	r3, [r4, #0]
 8001970:	746a      	strb	r2, [r5, #17]
 8001972:	3301      	adds	r3, #1
 8001974:	b2db      	uxtb	r3, r3
 8001976:	2b3b      	cmp	r3, #59	; 0x3b
 8001978:	bf94      	ite	ls
 800197a:	7023      	strbls	r3, [r4, #0]
 800197c:	7022      	strbhi	r2, [r4, #0]
 800197e:	e6c9      	b.n	8001714 <setdatetime+0x240>
        LCD_erasestring(128, 1, 0);
 8001980:	2200      	movs	r2, #0
 8001982:	2101      	movs	r1, #1
 8001984:	2080      	movs	r0, #128	; 0x80
 8001986:	f7fe ff23 	bl	80007d0 <LCD_erasestring>
        LCD_printhorline(12, 8, 115);
 800198a:	2273      	movs	r2, #115	; 0x73
 800198c:	2108      	movs	r1, #8
 800198e:	200c      	movs	r0, #12
 8001990:	f7ff f97c 	bl	8000c8c <LCD_printhorline>
        if(B3.BtnON || B3.HoldON || B3.StuckON){B3.BtnON = 0; rtcraw.weekday--; if(rtcraw.weekday > 6) rtcraw.weekday = 6; HAL_Delay(200);}
 8001994:	f8db 2010 	ldr.w	r2, [fp, #16]
 8001998:	f012 2fff 	tst.w	r2, #4278255360	; 0xff00ff00
 800199c:	d102      	bne.n	80019a4 <setdatetime+0x4d0>
 800199e:	f89b 2014 	ldrb.w	r2, [fp, #20]
 80019a2:	b162      	cbz	r2, 80019be <setdatetime+0x4ea>
 80019a4:	7923      	ldrb	r3, [r4, #4]
 80019a6:	2200      	movs	r2, #0
 80019a8:	3b01      	subs	r3, #1
 80019aa:	b2db      	uxtb	r3, r3
 80019ac:	2b06      	cmp	r3, #6
 80019ae:	bf88      	it	hi
 80019b0:	2306      	movhi	r3, #6
 80019b2:	20c8      	movs	r0, #200	; 0xc8
 80019b4:	f88b 2011 	strb.w	r2, [fp, #17]
 80019b8:	7123      	strb	r3, [r4, #4]
 80019ba:	f002 f847 	bl	8003a4c <HAL_Delay>
        if(B4.BtnON || B4.HoldON || B4.StuckON){B4.BtnON = 0; rtcraw.weekday++; if(rtcraw.weekday > 6) rtcraw.weekday = 0; HAL_Delay(200);}
 80019be:	692b      	ldr	r3, [r5, #16]
 80019c0:	f013 2fff 	tst.w	r3, #4278255360	; 0xff00ff00
 80019c4:	d103      	bne.n	80019ce <setdatetime+0x4fa>
 80019c6:	7d2b      	ldrb	r3, [r5, #20]
 80019c8:	2b00      	cmp	r3, #0
 80019ca:	f43f aea6 	beq.w	800171a <setdatetime+0x246>
 80019ce:	2200      	movs	r2, #0
 80019d0:	7923      	ldrb	r3, [r4, #4]
 80019d2:	746a      	strb	r2, [r5, #17]
 80019d4:	3301      	adds	r3, #1
 80019d6:	b2db      	uxtb	r3, r3
 80019d8:	2b06      	cmp	r3, #6
 80019da:	bf94      	ite	ls
 80019dc:	7123      	strbls	r3, [r4, #4]
 80019de:	7122      	strbhi	r2, [r4, #4]
 80019e0:	e698      	b.n	8001714 <setdatetime+0x240>
    if(displaingSaveLatch) LCD_printstr8x5((uint8*)"СОХРАНЕНО", 7, 2);
 80019e2:	2f00      	cmp	r7, #0
 80019e4:	f47f aeb9 	bne.w	800175a <setdatetime+0x286>
    if(((timestamp - tim) > 2000) && displaingSaveLatch) {
 80019e8:	6823      	ldr	r3, [r4, #0]
 80019ea:	eba3 0308 	sub.w	r3, r3, r8
 80019ee:	f5b3 6ffa 	cmp.w	r3, #2000	; 0x7d0
 80019f2:	d906      	bls.n	8001a02 <setdatetime+0x52e>
 80019f4:	b12f      	cbz	r7, 8001a02 <setdatetime+0x52e>
      LCD_erasestring(128, 7, 0);
 80019f6:	2200      	movs	r2, #0
 80019f8:	2107      	movs	r1, #7
 80019fa:	2080      	movs	r0, #128	; 0x80
 80019fc:	f7fe fee8 	bl	80007d0 <LCD_erasestring>
      displaingSaveLatch = 0;
 8001a00:	2700      	movs	r7, #0
    rtcrawtobcd();
 8001a02:	f7fe fd89 	bl	8000518 <rtcrawtobcd>
    LCD_bufupload_buferase();
 8001a06:	f7fe ff9f 	bl	8000948 <LCD_bufupload_buferase>
  {  
 8001a0a:	e573      	b.n	80014f4 <setdatetime+0x20>

08001a0c <testscreen>:

void testscreen(void)
{
 8001a0c:	b570      	push	{r4, r5, r6, lr}
 8001a0e:	b08a      	sub	sp, #40	; 0x28
  while(1)
  {
    RTCgetdata(&rtcbcd);
 8001a10:	4d79      	ldr	r5, [pc, #484]	; (8001bf8 <testscreen+0x1ec>)
    rtcbcdtoraw();    
    uint8 day[4] = {dig_to_smb((rtcbcd.day & 0x30) >> 4), dig_to_smb(rtcbcd.day & 0x0F), '.', '\0'};
 8001a12:	2400      	movs	r4, #0
    RTCgetdata(&rtcbcd);
 8001a14:	4628      	mov	r0, r5
 8001a16:	f7fe fd2d 	bl	8000474 <RTCgetdata>
    rtcbcdtoraw();    
 8001a1a:	f7fe fdbb 	bl	8000594 <rtcbcdtoraw>
    uint8 day[4] = {dig_to_smb((rtcbcd.day & 0x30) >> 4), dig_to_smb(rtcbcd.day & 0x0F), '.', '\0'};
 8001a1e:	78e8      	ldrb	r0, [r5, #3]
 8001a20:	262e      	movs	r6, #46	; 0x2e
 8001a22:	f3c0 1001 	ubfx	r0, r0, #4, #2
 8001a26:	f7fe fba2 	bl	800016e <dig_to_smb>
 8001a2a:	f88d 0008 	strb.w	r0, [sp, #8]
 8001a2e:	78e8      	ldrb	r0, [r5, #3]
 8001a30:	f000 000f 	and.w	r0, r0, #15
 8001a34:	f7fe fb9b 	bl	800016e <dig_to_smb>
 8001a38:	f88d 0009 	strb.w	r0, [sp, #9]
    uint8 temp[6];    
    //u16_to_str(temp, ((((rtcbcd.month & 0x10) >> 4) * 10) + (rtcbcd.month & 0x0F)), DISABLE);
    //uint8 month[4] = {temp[3], temp[4], '.', '\0'};
    uint8 month[4] = {dig_to_smb(((rtcbcd.month & 0x10) >> 4) * 10), dig_to_smb(rtcbcd.month & 0x0F), '.', '\0'};
 8001a3c:	7968      	ldrb	r0, [r5, #5]
    uint8 day[4] = {dig_to_smb((rtcbcd.day & 0x30) >> 4), dig_to_smb(rtcbcd.day & 0x0F), '.', '\0'};
 8001a3e:	f88d 600a 	strb.w	r6, [sp, #10]
    uint8 month[4] = {dig_to_smb(((rtcbcd.month & 0x10) >> 4) * 10), dig_to_smb(rtcbcd.month & 0x0F), '.', '\0'};
 8001a42:	f3c0 1000 	ubfx	r0, r0, #4, #1
 8001a46:	eb00 0080 	add.w	r0, r0, r0, lsl #2
 8001a4a:	0040      	lsls	r0, r0, #1
    uint8 day[4] = {dig_to_smb((rtcbcd.day & 0x30) >> 4), dig_to_smb(rtcbcd.day & 0x0F), '.', '\0'};
 8001a4c:	f88d 400b 	strb.w	r4, [sp, #11]
    uint8 month[4] = {dig_to_smb(((rtcbcd.month & 0x10) >> 4) * 10), dig_to_smb(rtcbcd.month & 0x0F), '.', '\0'};
 8001a50:	f7fe fb8d 	bl	800016e <dig_to_smb>
 8001a54:	f88d 000c 	strb.w	r0, [sp, #12]
 8001a58:	7968      	ldrb	r0, [r5, #5]
 8001a5a:	f000 000f 	and.w	r0, r0, #15
 8001a5e:	f7fe fb86 	bl	800016e <dig_to_smb>
    uint8 year[5] = {'2', '0', dig_to_smb((rtcbcd.year & 0xF0) >> 4), dig_to_smb(rtcbcd.year & 0x0F), '\0'};
 8001a62:	2332      	movs	r3, #50	; 0x32
 8001a64:	f88d 3018 	strb.w	r3, [sp, #24]
 8001a68:	2330      	movs	r3, #48	; 0x30
    uint8 month[4] = {dig_to_smb(((rtcbcd.month & 0x10) >> 4) * 10), dig_to_smb(rtcbcd.month & 0x0F), '.', '\0'};
 8001a6a:	f88d 000d 	strb.w	r0, [sp, #13]
    uint8 year[5] = {'2', '0', dig_to_smb((rtcbcd.year & 0xF0) >> 4), dig_to_smb(rtcbcd.year & 0x0F), '\0'};
 8001a6e:	79a8      	ldrb	r0, [r5, #6]
 8001a70:	f88d 3019 	strb.w	r3, [sp, #25]
 8001a74:	0900      	lsrs	r0, r0, #4
    uint8 month[4] = {dig_to_smb(((rtcbcd.month & 0x10) >> 4) * 10), dig_to_smb(rtcbcd.month & 0x0F), '.', '\0'};
 8001a76:	f88d 600e 	strb.w	r6, [sp, #14]
 8001a7a:	f88d 400f 	strb.w	r4, [sp, #15]
    uint8 year[5] = {'2', '0', dig_to_smb((rtcbcd.year & 0xF0) >> 4), dig_to_smb(rtcbcd.year & 0x0F), '\0'};
 8001a7e:	f7fe fb76 	bl	800016e <dig_to_smb>
 8001a82:	f88d 001a 	strb.w	r0, [sp, #26]
 8001a86:	79a8      	ldrb	r0, [r5, #6]
    LCD_printstr8x5(day, 0, 2);
    LCD_printstr8x5(month, 0, 18);
    LCD_printstr8x5(year, 0, 34);
    uint8 hour[4] = {dig_to_smb((rtcbcd.hour & 0x30) >> 4), dig_to_smb(rtcbcd.hour & 0x0F), ':', '\0'};
 8001a88:	263a      	movs	r6, #58	; 0x3a
    uint8 year[5] = {'2', '0', dig_to_smb((rtcbcd.year & 0xF0) >> 4), dig_to_smb(rtcbcd.year & 0x0F), '\0'};
 8001a8a:	f000 000f 	and.w	r0, r0, #15
 8001a8e:	f7fe fb6e 	bl	800016e <dig_to_smb>
    LCD_printstr8x5(day, 0, 2);
 8001a92:	2202      	movs	r2, #2
 8001a94:	4621      	mov	r1, r4
    uint8 year[5] = {'2', '0', dig_to_smb((rtcbcd.year & 0xF0) >> 4), dig_to_smb(rtcbcd.year & 0x0F), '\0'};
 8001a96:	f88d 001b 	strb.w	r0, [sp, #27]
    LCD_printstr8x5(day, 0, 2);
 8001a9a:	a802      	add	r0, sp, #8
    uint8 year[5] = {'2', '0', dig_to_smb((rtcbcd.year & 0xF0) >> 4), dig_to_smb(rtcbcd.year & 0x0F), '\0'};
 8001a9c:	f88d 401c 	strb.w	r4, [sp, #28]
    LCD_printstr8x5(day, 0, 2);
 8001aa0:	f7fe fef2 	bl	8000888 <LCD_printstr8x5>
    LCD_printstr8x5(month, 0, 18);
 8001aa4:	2212      	movs	r2, #18
 8001aa6:	4621      	mov	r1, r4
 8001aa8:	a803      	add	r0, sp, #12
 8001aaa:	f7fe feed 	bl	8000888 <LCD_printstr8x5>
    LCD_printstr8x5(year, 0, 34);
 8001aae:	2222      	movs	r2, #34	; 0x22
 8001ab0:	4621      	mov	r1, r4
 8001ab2:	a806      	add	r0, sp, #24
 8001ab4:	f7fe fee8 	bl	8000888 <LCD_printstr8x5>
    uint8 hour[4] = {dig_to_smb((rtcbcd.hour & 0x30) >> 4), dig_to_smb(rtcbcd.hour & 0x0F), ':', '\0'};
 8001ab8:	78a8      	ldrb	r0, [r5, #2]
 8001aba:	f3c0 1001 	ubfx	r0, r0, #4, #2
 8001abe:	f7fe fb56 	bl	800016e <dig_to_smb>
 8001ac2:	f88d 0010 	strb.w	r0, [sp, #16]
 8001ac6:	78a8      	ldrb	r0, [r5, #2]
 8001ac8:	f000 000f 	and.w	r0, r0, #15
 8001acc:	f7fe fb4f 	bl	800016e <dig_to_smb>
 8001ad0:	f88d 0011 	strb.w	r0, [sp, #17]
    uint8 min[4] = {dig_to_smb((rtcbcd.min & 0x70) >> 4), dig_to_smb(rtcbcd.min & 0x0F), ':', '\0'};
 8001ad4:	7868      	ldrb	r0, [r5, #1]
    uint8 hour[4] = {dig_to_smb((rtcbcd.hour & 0x30) >> 4), dig_to_smb(rtcbcd.hour & 0x0F), ':', '\0'};
 8001ad6:	f88d 6012 	strb.w	r6, [sp, #18]
    uint8 min[4] = {dig_to_smb((rtcbcd.min & 0x70) >> 4), dig_to_smb(rtcbcd.min & 0x0F), ':', '\0'};
 8001ada:	f3c0 1002 	ubfx	r0, r0, #4, #3
    uint8 hour[4] = {dig_to_smb((rtcbcd.hour & 0x30) >> 4), dig_to_smb(rtcbcd.hour & 0x0F), ':', '\0'};
 8001ade:	f88d 4013 	strb.w	r4, [sp, #19]
    uint8 min[4] = {dig_to_smb((rtcbcd.min & 0x70) >> 4), dig_to_smb(rtcbcd.min & 0x0F), ':', '\0'};
 8001ae2:	f7fe fb44 	bl	800016e <dig_to_smb>
 8001ae6:	f88d 0014 	strb.w	r0, [sp, #20]
 8001aea:	7868      	ldrb	r0, [r5, #1]
 8001aec:	f000 000f 	and.w	r0, r0, #15
 8001af0:	f7fe fb3d 	bl	800016e <dig_to_smb>
 8001af4:	f88d 0015 	strb.w	r0, [sp, #21]
    uint8 sec[3] = {dig_to_smb((rtcbcd.sec & 0x70) >> 4), dig_to_smb(rtcbcd.sec & 0x0F), '\0'};
 8001af8:	7828      	ldrb	r0, [r5, #0]
    uint8 min[4] = {dig_to_smb((rtcbcd.min & 0x70) >> 4), dig_to_smb(rtcbcd.min & 0x0F), ':', '\0'};
 8001afa:	f88d 6016 	strb.w	r6, [sp, #22]
    uint8 sec[3] = {dig_to_smb((rtcbcd.sec & 0x70) >> 4), dig_to_smb(rtcbcd.sec & 0x0F), '\0'};
 8001afe:	f3c0 1002 	ubfx	r0, r0, #4, #3
    uint8 min[4] = {dig_to_smb((rtcbcd.min & 0x70) >> 4), dig_to_smb(rtcbcd.min & 0x0F), ':', '\0'};
 8001b02:	f88d 4017 	strb.w	r4, [sp, #23]
    uint8 sec[3] = {dig_to_smb((rtcbcd.sec & 0x70) >> 4), dig_to_smb(rtcbcd.sec & 0x0F), '\0'};
 8001b06:	f7fe fb32 	bl	800016e <dig_to_smb>
 8001b0a:	f88d 0004 	strb.w	r0, [sp, #4]
 8001b0e:	7828      	ldrb	r0, [r5, #0]
    LCD_printstr8x5(temp, 2, 44);
    LCD_printstr8x5((uint8*)"Ярк. = ", 3, 2);
    u16_to_str(temp, brightPWM, DISABLE);
    LCD_printstr8x5(temp, 3, 44);
    LCD_printstr8x5((uint8*)"Дж.X = ", 5, 2);
    u16_to_str(temp, joystick.ox, DISABLE);
 8001b10:	4d3a      	ldr	r5, [pc, #232]	; (8001bfc <testscreen+0x1f0>)
    uint8 sec[3] = {dig_to_smb((rtcbcd.sec & 0x70) >> 4), dig_to_smb(rtcbcd.sec & 0x0F), '\0'};
 8001b12:	f000 000f 	and.w	r0, r0, #15
 8001b16:	f7fe fb2a 	bl	800016e <dig_to_smb>
    LCD_printstr8x5(hour, 0, 62);
 8001b1a:	223e      	movs	r2, #62	; 0x3e
 8001b1c:	4621      	mov	r1, r4
    uint8 sec[3] = {dig_to_smb((rtcbcd.sec & 0x70) >> 4), dig_to_smb(rtcbcd.sec & 0x0F), '\0'};
 8001b1e:	f88d 0005 	strb.w	r0, [sp, #5]
    LCD_printstr8x5(hour, 0, 62);
 8001b22:	a804      	add	r0, sp, #16
    uint8 sec[3] = {dig_to_smb((rtcbcd.sec & 0x70) >> 4), dig_to_smb(rtcbcd.sec & 0x0F), '\0'};
 8001b24:	f88d 4006 	strb.w	r4, [sp, #6]
    LCD_printstr8x5(hour, 0, 62);
 8001b28:	f7fe feae 	bl	8000888 <LCD_printstr8x5>
    LCD_printstr8x5(min, 0, 80);
 8001b2c:	2250      	movs	r2, #80	; 0x50
 8001b2e:	4621      	mov	r1, r4
 8001b30:	a805      	add	r0, sp, #20
 8001b32:	f7fe fea9 	bl	8000888 <LCD_printstr8x5>
    LCD_printstr8x5(sec, 0, 98);
 8001b36:	2262      	movs	r2, #98	; 0x62
 8001b38:	4621      	mov	r1, r4
 8001b3a:	a801      	add	r0, sp, #4
 8001b3c:	f7fe fea4 	bl	8000888 <LCD_printstr8x5>
    LCD_printweekday(rtcraw.weekday, 0, 115);
 8001b40:	4b2f      	ldr	r3, [pc, #188]	; (8001c00 <testscreen+0x1f4>)
 8001b42:	2273      	movs	r2, #115	; 0x73
 8001b44:	7918      	ldrb	r0, [r3, #4]
 8001b46:	4621      	mov	r1, r4
 8001b48:	f7fe ff4c 	bl	80009e4 <LCD_printweekday>
    batcheck();
 8001b4c:	f7fe fc0e 	bl	800036c <batcheck>
    LCD_printstr8x5((uint8*)"Бат. = ", 2, 2);
 8001b50:	2202      	movs	r2, #2
 8001b52:	482c      	ldr	r0, [pc, #176]	; (8001c04 <testscreen+0x1f8>)
 8001b54:	4611      	mov	r1, r2
 8001b56:	f7fe fe97 	bl	8000888 <LCD_printstr8x5>
    u16_to_str(temp, Ubat, DISABLE);
 8001b5a:	4b2b      	ldr	r3, [pc, #172]	; (8001c08 <testscreen+0x1fc>)
 8001b5c:	4622      	mov	r2, r4
 8001b5e:	7819      	ldrb	r1, [r3, #0]
 8001b60:	a808      	add	r0, sp, #32
 8001b62:	f7fe fb0a 	bl	800017a <u16_to_str>
    LCD_printstr8x5(temp, 2, 44);
 8001b66:	222c      	movs	r2, #44	; 0x2c
 8001b68:	2102      	movs	r1, #2
 8001b6a:	a808      	add	r0, sp, #32
 8001b6c:	f7fe fe8c 	bl	8000888 <LCD_printstr8x5>
    LCD_printstr8x5((uint8*)"Ярк. = ", 3, 2);
 8001b70:	2202      	movs	r2, #2
 8001b72:	2103      	movs	r1, #3
 8001b74:	4825      	ldr	r0, [pc, #148]	; (8001c0c <testscreen+0x200>)
 8001b76:	f7fe fe87 	bl	8000888 <LCD_printstr8x5>
    u16_to_str(temp, brightPWM, DISABLE);
 8001b7a:	4b25      	ldr	r3, [pc, #148]	; (8001c10 <testscreen+0x204>)
 8001b7c:	4622      	mov	r2, r4
 8001b7e:	7819      	ldrb	r1, [r3, #0]
 8001b80:	a808      	add	r0, sp, #32
 8001b82:	f7fe fafa 	bl	800017a <u16_to_str>
    LCD_printstr8x5(temp, 3, 44);
 8001b86:	222c      	movs	r2, #44	; 0x2c
 8001b88:	2103      	movs	r1, #3
 8001b8a:	a808      	add	r0, sp, #32
 8001b8c:	f7fe fe7c 	bl	8000888 <LCD_printstr8x5>
    LCD_printstr8x5((uint8*)"Дж.X = ", 5, 2);
 8001b90:	2202      	movs	r2, #2
 8001b92:	2105      	movs	r1, #5
 8001b94:	481f      	ldr	r0, [pc, #124]	; (8001c14 <testscreen+0x208>)
 8001b96:	f7fe fe77 	bl	8000888 <LCD_printstr8x5>
    u16_to_str(temp, joystick.ox, DISABLE);
 8001b9a:	7869      	ldrb	r1, [r5, #1]
 8001b9c:	4622      	mov	r2, r4
 8001b9e:	a808      	add	r0, sp, #32
 8001ba0:	f7fe faeb 	bl	800017a <u16_to_str>
    LCD_printstr8x5(temp, 5, 44);
 8001ba4:	222c      	movs	r2, #44	; 0x2c
 8001ba6:	2105      	movs	r1, #5
 8001ba8:	a808      	add	r0, sp, #32
 8001baa:	f7fe fe6d 	bl	8000888 <LCD_printstr8x5>
    LCD_printstr8x5((uint8*)"Дж.Y = ", 6, 2);
 8001bae:	2202      	movs	r2, #2
 8001bb0:	2106      	movs	r1, #6
 8001bb2:	4819      	ldr	r0, [pc, #100]	; (8001c18 <testscreen+0x20c>)
 8001bb4:	f7fe fe68 	bl	8000888 <LCD_printstr8x5>
    u16_to_str(temp, joystick.oy, DISABLE);
 8001bb8:	78a9      	ldrb	r1, [r5, #2]
 8001bba:	4622      	mov	r2, r4
 8001bbc:	a808      	add	r0, sp, #32
 8001bbe:	f7fe fadc 	bl	800017a <u16_to_str>
    LCD_printstr8x5(temp, 6, 44);
 8001bc2:	222c      	movs	r2, #44	; 0x2c
 8001bc4:	2106      	movs	r1, #6
 8001bc6:	a808      	add	r0, sp, #32
 8001bc8:	f7fe fe5e 	bl	8000888 <LCD_printstr8x5>
  
    LCD_printbutselhint(1, 2, 89);
    LCD_printstr8x5((uint8*)"выход", 6, 86);
    TestBtn(&B1);
 8001bcc:	4d13      	ldr	r5, [pc, #76]	; (8001c1c <testscreen+0x210>)
    LCD_printbutselhint(1, 2, 89);
 8001bce:	2259      	movs	r2, #89	; 0x59
 8001bd0:	2102      	movs	r1, #2
 8001bd2:	2001      	movs	r0, #1
 8001bd4:	f7fe ffda 	bl	8000b8c <LCD_printbutselhint>
    LCD_printstr8x5((uint8*)"выход", 6, 86);
 8001bd8:	2256      	movs	r2, #86	; 0x56
 8001bda:	2106      	movs	r1, #6
 8001bdc:	4810      	ldr	r0, [pc, #64]	; (8001c20 <testscreen+0x214>)
 8001bde:	f7fe fe53 	bl	8000888 <LCD_printstr8x5>
    TestBtn(&B1);
 8001be2:	4628      	mov	r0, r5
 8001be4:	f7fe fd1c 	bl	8000620 <TestBtn>
    if(B1.BtnON) {B1.BtnON = 0; return;}
 8001be8:	7c6b      	ldrb	r3, [r5, #17]
 8001bea:	b113      	cbz	r3, 8001bf2 <testscreen+0x1e6>
 8001bec:	746c      	strb	r4, [r5, #17]
    LCD_bufupload_buferase();
  }
}
 8001bee:	b00a      	add	sp, #40	; 0x28
 8001bf0:	bd70      	pop	{r4, r5, r6, pc}
    LCD_bufupload_buferase();
 8001bf2:	f7fe fea9 	bl	8000948 <LCD_bufupload_buferase>
  {
 8001bf6:	e70b      	b.n	8001a10 <testscreen+0x4>
 8001bf8:	20000137 	.word	0x20000137
 8001bfc:	20000133 	.word	0x20000133
 8001c00:	2000013e 	.word	0x2000013e
 8001c04:	080074b3 	.word	0x080074b3
 8001c08:	20000130 	.word	0x20000130
 8001c0c:	080074bb 	.word	0x080074bb
 8001c10:	20000006 	.word	0x20000006
 8001c14:	080074c3 	.word	0x080074c3
 8001c18:	080074cb 	.word	0x080074cb
 8001c1c:	200000d0 	.word	0x200000d0
 8001c20:	080074d3 	.word	0x080074d3

08001c24 <MainMenu>:
  
void MainMenu(void)
{
 8001c24:	b538      	push	{r3, r4, r5, lr}
  //--------------------START MENU-------------------
  if(CFlags.MenuFl)
 8001c26:	4cb7      	ldr	r4, [pc, #732]	; (8001f04 <MainMenu+0x2e0>)
 8001c28:	7823      	ldrb	r3, [r4, #0]
 8001c2a:	07dd      	lsls	r5, r3, #31
 8001c2c:	d572      	bpl.n	8001d14 <MainMenu+0xf0>
  {
    checkjoydir();
    TestBtn(&B2);
 8001c2e:	4db6      	ldr	r5, [pc, #728]	; (8001f08 <MainMenu+0x2e4>)
    checkjoydir();
 8001c30:	f7fe fd4c 	bl	80006cc <checkjoydir>
    TestBtn(&B2);
 8001c34:	4628      	mov	r0, r5
 8001c36:	f7fe fcf3 	bl	8000620 <TestBtn>
    if(B2.BtnON) 
 8001c3a:	7c6b      	ldrb	r3, [r5, #17]
 8001c3c:	b183      	cbz	r3, 8001c60 <MainMenu+0x3c>
    {
      B2.BtnON = 0;
 8001c3e:	2300      	movs	r3, #0
 8001c40:	746b      	strb	r3, [r5, #17]
      switch(CFlags.coursorpos) { 
 8001c42:	7823      	ldrb	r3, [r4, #0]
 8001c44:	095a      	lsrs	r2, r3, #5
 8001c46:	2a02      	cmp	r2, #2
 8001c48:	f000 814d 	beq.w	8001ee6 <MainMenu+0x2c2>
 8001c4c:	2a03      	cmp	r2, #3
 8001c4e:	f000 814f 	beq.w	8001ef0 <MainMenu+0x2cc>
 8001c52:	2a01      	cmp	r2, #1
 8001c54:	d104      	bne.n	8001c60 <MainMenu+0x3c>
        case 1: CFlags.MenuFl = 0; CFlags.RunGameFl = 1; CFlags.coursorpos = 1; break;
 8001c56:	f003 031c 	and.w	r3, r3, #28
 8001c5a:	f043 0322 	orr.w	r3, r3, #34	; 0x22
        case 2: CFlags.MenuFl = 0; CFlags.MenuSettingsFl = 1; CFlags.coursorpos = 1; break;
 8001c5e:	7023      	strb	r3, [r4, #0]
        case 3: ShutDown(); break;
      }
    }
    if(joystick.down == 1)
 8001c60:	4aaa      	ldr	r2, [pc, #680]	; (8001f0c <MainMenu+0x2e8>)
 8001c62:	7813      	ldrb	r3, [r2, #0]
 8001c64:	0798      	lsls	r0, r3, #30
 8001c66:	d50f      	bpl.n	8001c88 <MainMenu+0x64>
    {
      joystick.down = 0;
 8001c68:	f36f 0341 	bfc	r3, #1, #1
 8001c6c:	7013      	strb	r3, [r2, #0]
      CFlags.coursorpos++;
 8001c6e:	7823      	ldrb	r3, [r4, #0]
 8001c70:	3320      	adds	r3, #32
      if(CFlags.coursorpos == 4) CFlags.coursorpos = 1;
 8001c72:	b2d9      	uxtb	r1, r3
      CFlags.coursorpos++;
 8001c74:	7023      	strb	r3, [r4, #0]
      if(CFlags.coursorpos == 4) CFlags.coursorpos = 1;
 8001c76:	f003 03e0 	and.w	r3, r3, #224	; 0xe0
 8001c7a:	2b80      	cmp	r3, #128	; 0x80
 8001c7c:	bf01      	itttt	eq
 8001c7e:	460b      	moveq	r3, r1
 8001c80:	2101      	moveq	r1, #1
 8001c82:	f361 1347 	bfieq	r3, r1, #5, #3
 8001c86:	7023      	strbeq	r3, [r4, #0]
    }
    if(joystick.up == 1)
 8001c88:	7813      	ldrb	r3, [r2, #0]
 8001c8a:	07d9      	lsls	r1, r3, #31
 8001c8c:	d50e      	bpl.n	8001cac <MainMenu+0x88>
    {
      joystick.up = 0;
 8001c8e:	f36f 0300 	bfc	r3, #0, #1
 8001c92:	7013      	strb	r3, [r2, #0]
      CFlags.coursorpos--;
 8001c94:	7823      	ldrb	r3, [r4, #0]
 8001c96:	33e0      	adds	r3, #224	; 0xe0
      if(CFlags.coursorpos == 0) CFlags.coursorpos = 3;
 8001c98:	f013 0fe0 	tst.w	r3, #224	; 0xe0
 8001c9c:	b2da      	uxtb	r2, r3
      CFlags.coursorpos--;
 8001c9e:	7023      	strb	r3, [r4, #0]
      if(CFlags.coursorpos == 0) CFlags.coursorpos = 3;
 8001ca0:	bf01      	itttt	eq
 8001ca2:	4613      	moveq	r3, r2
 8001ca4:	2203      	moveq	r2, #3
 8001ca6:	f362 1347 	bfieq	r3, r2, #5, #3
 8001caa:	7023      	strbeq	r3, [r4, #0]
    }
    
    if(CFlags.coursorpos == 1) LCD_printmenucoursor(2, 4);
 8001cac:	7823      	ldrb	r3, [r4, #0]
 8001cae:	f003 03e0 	and.w	r3, r3, #224	; 0xe0
 8001cb2:	2b20      	cmp	r3, #32
 8001cb4:	d103      	bne.n	8001cbe <MainMenu+0x9a>
 8001cb6:	2104      	movs	r1, #4
 8001cb8:	2002      	movs	r0, #2
 8001cba:	f7fe ff59 	bl	8000b70 <LCD_printmenucoursor>
    if(CFlags.coursorpos == 2) LCD_printmenucoursor(4, 4);
 8001cbe:	7823      	ldrb	r3, [r4, #0]
 8001cc0:	f003 03e0 	and.w	r3, r3, #224	; 0xe0
 8001cc4:	2b40      	cmp	r3, #64	; 0x40
 8001cc6:	d103      	bne.n	8001cd0 <MainMenu+0xac>
 8001cc8:	2104      	movs	r1, #4
 8001cca:	4608      	mov	r0, r1
 8001ccc:	f7fe ff50 	bl	8000b70 <LCD_printmenucoursor>
    if(CFlags.coursorpos == 3) LCD_printmenucoursor(6, 4);
 8001cd0:	7823      	ldrb	r3, [r4, #0]
 8001cd2:	f003 03e0 	and.w	r3, r3, #224	; 0xe0
 8001cd6:	2b60      	cmp	r3, #96	; 0x60
 8001cd8:	d103      	bne.n	8001ce2 <MainMenu+0xbe>
 8001cda:	2104      	movs	r1, #4
 8001cdc:	2006      	movs	r0, #6
 8001cde:	f7fe ff47 	bl	8000b70 <LCD_printmenucoursor>
    
    LCD_printstr8x5((uint8*)"ИГРА", 2, 19);
 8001ce2:	2213      	movs	r2, #19
 8001ce4:	2102      	movs	r1, #2
 8001ce6:	488a      	ldr	r0, [pc, #552]	; (8001f10 <MainMenu+0x2ec>)
 8001ce8:	f7fe fdce 	bl	8000888 <LCD_printstr8x5>
    LCD_printstr8x5((uint8*)"НАСТРОЙКА", 4, 19);
 8001cec:	2213      	movs	r2, #19
 8001cee:	2104      	movs	r1, #4
 8001cf0:	4888      	ldr	r0, [pc, #544]	; (8001f14 <MainMenu+0x2f0>)
 8001cf2:	f7fe fdc9 	bl	8000888 <LCD_printstr8x5>
    LCD_printstr8x5((uint8*)"ВЫКЛЮЧИТЬ", 6, 19);
 8001cf6:	2213      	movs	r2, #19
 8001cf8:	2106      	movs	r1, #6
 8001cfa:	4887      	ldr	r0, [pc, #540]	; (8001f18 <MainMenu+0x2f4>)
 8001cfc:	f7fe fdc4 	bl	8000888 <LCD_printstr8x5>
    
    LCD_printbutselhint(0, 2, 89);
 8001d00:	2259      	movs	r2, #89	; 0x59
 8001d02:	2102      	movs	r1, #2
 8001d04:	2000      	movs	r0, #0
 8001d06:	f7fe ff41 	bl	8000b8c <LCD_printbutselhint>
    LCD_printstr8x5((uint8*)"вход", 6, 93);
 8001d0a:	225d      	movs	r2, #93	; 0x5d
 8001d0c:	2106      	movs	r1, #6
 8001d0e:	4883      	ldr	r0, [pc, #524]	; (8001f1c <MainMenu+0x2f8>)
 8001d10:	f7fe fdba 	bl	8000888 <LCD_printstr8x5>
  }  
  //-------------------------------------------------
  
  //--------------------SETTINGS---------------------
  if(CFlags.MenuSettingsFl)
 8001d14:	7823      	ldrb	r3, [r4, #0]
 8001d16:	075d      	lsls	r5, r3, #29
 8001d18:	f140 80af 	bpl.w	8001e7a <MainMenu+0x256>
  {
    checkjoydir();
    TestBtn(&B1); TestBtn(&B2);
 8001d1c:	4d7a      	ldr	r5, [pc, #488]	; (8001f08 <MainMenu+0x2e4>)
    checkjoydir();
 8001d1e:	f7fe fcd5 	bl	80006cc <checkjoydir>
    TestBtn(&B1); TestBtn(&B2);
 8001d22:	487f      	ldr	r0, [pc, #508]	; (8001f20 <MainMenu+0x2fc>)
 8001d24:	f7fe fc7c 	bl	8000620 <TestBtn>
 8001d28:	4628      	mov	r0, r5
 8001d2a:	f7fe fc79 	bl	8000620 <TestBtn>
    if(B2.BtnON) 
 8001d2e:	7c6b      	ldrb	r3, [r5, #17]
 8001d30:	b14b      	cbz	r3, 8001d46 <MainMenu+0x122>
    {
      B2.BtnON = 0;
 8001d32:	2300      	movs	r3, #0
 8001d34:	746b      	strb	r3, [r5, #17]
      switch(CFlags.coursorpos) { 
 8001d36:	7823      	ldrb	r3, [r4, #0]
 8001d38:	095b      	lsrs	r3, r3, #5
 8001d3a:	2b02      	cmp	r3, #2
 8001d3c:	f000 80db 	beq.w	8001ef6 <MainMenu+0x2d2>
 8001d40:	2b03      	cmp	r3, #3
 8001d42:	f000 80db 	beq.w	8001efc <MainMenu+0x2d8>
        case 1: break;
        case 2: setdatetime(); break;
        case 3: testscreen(); break;
      }
    }
    if(B1.BtnON) 
 8001d46:	4b76      	ldr	r3, [pc, #472]	; (8001f20 <MainMenu+0x2fc>)
 8001d48:	7c5a      	ldrb	r2, [r3, #17]
 8001d4a:	b13a      	cbz	r2, 8001d5c <MainMenu+0x138>
    {
      B1.BtnON = 0;
 8001d4c:	2200      	movs	r2, #0
 8001d4e:	745a      	strb	r2, [r3, #17]
      CFlags.MenuSettingsFl = 0;
      CFlags.MenuFl = 1;
 8001d50:	7823      	ldrb	r3, [r4, #0]
 8001d52:	f003 031a 	and.w	r3, r3, #26
 8001d56:	f043 0341 	orr.w	r3, r3, #65	; 0x41
 8001d5a:	7023      	strb	r3, [r4, #0]
      CFlags.coursorpos = 2;
    }
    if(joystick.down == 1)
 8001d5c:	4a6b      	ldr	r2, [pc, #428]	; (8001f0c <MainMenu+0x2e8>)
 8001d5e:	7813      	ldrb	r3, [r2, #0]
 8001d60:	0798      	lsls	r0, r3, #30
 8001d62:	d50f      	bpl.n	8001d84 <MainMenu+0x160>
    {
      joystick.down = 0;
 8001d64:	f36f 0341 	bfc	r3, #1, #1
 8001d68:	7013      	strb	r3, [r2, #0]
      CFlags.coursorpos++;
 8001d6a:	7823      	ldrb	r3, [r4, #0]
 8001d6c:	3320      	adds	r3, #32
      if(CFlags.coursorpos == 4) CFlags.coursorpos = 1;
 8001d6e:	b2d9      	uxtb	r1, r3
      CFlags.coursorpos++;
 8001d70:	7023      	strb	r3, [r4, #0]
      if(CFlags.coursorpos == 4) CFlags.coursorpos = 1;
 8001d72:	f003 03e0 	and.w	r3, r3, #224	; 0xe0
 8001d76:	2b80      	cmp	r3, #128	; 0x80
 8001d78:	bf01      	itttt	eq
 8001d7a:	460b      	moveq	r3, r1
 8001d7c:	2101      	moveq	r1, #1
 8001d7e:	f361 1347 	bfieq	r3, r1, #5, #3
 8001d82:	7023      	strbeq	r3, [r4, #0]
    }
    if(joystick.up == 1)
 8001d84:	7813      	ldrb	r3, [r2, #0]
 8001d86:	07d9      	lsls	r1, r3, #31
 8001d88:	d50e      	bpl.n	8001da8 <MainMenu+0x184>
    {
      joystick.up = 0;
 8001d8a:	f36f 0300 	bfc	r3, #0, #1
 8001d8e:	7013      	strb	r3, [r2, #0]
      CFlags.coursorpos--;
 8001d90:	7823      	ldrb	r3, [r4, #0]
 8001d92:	33e0      	adds	r3, #224	; 0xe0
      if(CFlags.coursorpos == 0) CFlags.coursorpos = 3;
 8001d94:	f013 0fe0 	tst.w	r3, #224	; 0xe0
 8001d98:	b2da      	uxtb	r2, r3
      CFlags.coursorpos--;
 8001d9a:	7023      	strb	r3, [r4, #0]
      if(CFlags.coursorpos == 0) CFlags.coursorpos = 3;
 8001d9c:	bf01      	itttt	eq
 8001d9e:	4613      	moveq	r3, r2
 8001da0:	2203      	moveq	r2, #3
 8001da2:	f362 1347 	bfieq	r3, r2, #5, #3
 8001da6:	7023      	strbeq	r3, [r4, #0]
    }
    
    if(CFlags.coursorpos == 1) {
 8001da8:	7823      	ldrb	r3, [r4, #0]
 8001daa:	f003 03e0 	and.w	r3, r3, #224	; 0xe0
 8001dae:	2b20      	cmp	r3, #32
 8001db0:	d12e      	bne.n	8001e10 <MainMenu+0x1ec>
      TestBtn(&B3); TestBtn(&B4);
 8001db2:	4d5c      	ldr	r5, [pc, #368]	; (8001f24 <MainMenu+0x300>)
 8001db4:	4628      	mov	r0, r5
 8001db6:	f7fe fc33 	bl	8000620 <TestBtn>
 8001dba:	485b      	ldr	r0, [pc, #364]	; (8001f28 <MainMenu+0x304>)
 8001dbc:	f7fe fc30 	bl	8000620 <TestBtn>
      if(B3.BtnON || B3.HoldON || B3.StuckON) {B3.BtnON = 0; decbright();}
 8001dc0:	692b      	ldr	r3, [r5, #16]
 8001dc2:	f013 2fff 	tst.w	r3, #4278255360	; 0xff00ff00
 8001dc6:	d101      	bne.n	8001dcc <MainMenu+0x1a8>
 8001dc8:	7d2b      	ldrb	r3, [r5, #20]
 8001dca:	b11b      	cbz	r3, 8001dd4 <MainMenu+0x1b0>
 8001dcc:	2300      	movs	r3, #0
 8001dce:	746b      	strb	r3, [r5, #17]
 8001dd0:	f7fe fb00 	bl	80003d4 <decbright>
      if(B4.BtnON || B4.HoldON || B4.StuckON) {B4.BtnON = 0; incbright();}      
 8001dd4:	4b54      	ldr	r3, [pc, #336]	; (8001f28 <MainMenu+0x304>)
 8001dd6:	691a      	ldr	r2, [r3, #16]
 8001dd8:	f012 2fff 	tst.w	r2, #4278255360	; 0xff00ff00
 8001ddc:	d101      	bne.n	8001de2 <MainMenu+0x1be>
 8001dde:	7d1a      	ldrb	r2, [r3, #20]
 8001de0:	b11a      	cbz	r2, 8001dea <MainMenu+0x1c6>
 8001de2:	2200      	movs	r2, #0
 8001de4:	745a      	strb	r2, [r3, #17]
 8001de6:	f7fe fb01 	bl	80003ec <incbright>
      LCD_printmenucoursor(2, 4);
 8001dea:	2104      	movs	r1, #4
 8001dec:	2002      	movs	r0, #2
 8001dee:	f7fe febf 	bl	8000b70 <LCD_printmenucoursor>
      LCD_printbutselhint(4, 2, 89);
 8001df2:	2259      	movs	r2, #89	; 0x59
 8001df4:	2102      	movs	r1, #2
 8001df6:	2004      	movs	r0, #4
 8001df8:	f7fe fec8 	bl	8000b8c <LCD_printbutselhint>
      LCD_printstr8x5((uint8*)"вых.", 6, 86);
 8001dfc:	2256      	movs	r2, #86	; 0x56
 8001dfe:	2106      	movs	r1, #6
 8001e00:	484a      	ldr	r0, [pc, #296]	; (8001f2c <MainMenu+0x308>)
 8001e02:	f7fe fd41 	bl	8000888 <LCD_printstr8x5>
      LCD_printstr8x5((uint8*)"-  +", 1, 93);
 8001e06:	225d      	movs	r2, #93	; 0x5d
 8001e08:	2101      	movs	r1, #1
 8001e0a:	4849      	ldr	r0, [pc, #292]	; (8001f30 <MainMenu+0x30c>)
 8001e0c:	f7fe fd3c 	bl	8000888 <LCD_printstr8x5>
    }
    if(CFlags.coursorpos == 2) {
 8001e10:	7823      	ldrb	r3, [r4, #0]
 8001e12:	f003 03e0 	and.w	r3, r3, #224	; 0xe0
 8001e16:	2b40      	cmp	r3, #64	; 0x40
 8001e18:	d10d      	bne.n	8001e36 <MainMenu+0x212>
      LCD_printmenucoursor(4, 4);
 8001e1a:	2104      	movs	r1, #4
 8001e1c:	4608      	mov	r0, r1
 8001e1e:	f7fe fea7 	bl	8000b70 <LCD_printmenucoursor>
      LCD_printbutselhint(5, 2, 89);
 8001e22:	2259      	movs	r2, #89	; 0x59
 8001e24:	2102      	movs	r1, #2
 8001e26:	2005      	movs	r0, #5
 8001e28:	f7fe feb0 	bl	8000b8c <LCD_printbutselhint>
      LCD_printstr8x5((uint8*)"вых.вх.", 6, 86);
 8001e2c:	2256      	movs	r2, #86	; 0x56
 8001e2e:	2106      	movs	r1, #6
 8001e30:	4840      	ldr	r0, [pc, #256]	; (8001f34 <MainMenu+0x310>)
 8001e32:	f7fe fd29 	bl	8000888 <LCD_printstr8x5>
    }
    if(CFlags.coursorpos == 3) {
 8001e36:	7823      	ldrb	r3, [r4, #0]
 8001e38:	f003 03e0 	and.w	r3, r3, #224	; 0xe0
 8001e3c:	2b60      	cmp	r3, #96	; 0x60
 8001e3e:	d10d      	bne.n	8001e5c <MainMenu+0x238>
      LCD_printmenucoursor(6, 4);
 8001e40:	2104      	movs	r1, #4
 8001e42:	2006      	movs	r0, #6
 8001e44:	f7fe fe94 	bl	8000b70 <LCD_printmenucoursor>
      LCD_printbutselhint(5, 2, 89);
 8001e48:	2259      	movs	r2, #89	; 0x59
 8001e4a:	2102      	movs	r1, #2
 8001e4c:	2005      	movs	r0, #5
 8001e4e:	f7fe fe9d 	bl	8000b8c <LCD_printbutselhint>
      LCD_printstr8x5((uint8*)"вых.вх.", 6, 86);
 8001e52:	2256      	movs	r2, #86	; 0x56
 8001e54:	2106      	movs	r1, #6
 8001e56:	4837      	ldr	r0, [pc, #220]	; (8001f34 <MainMenu+0x310>)
 8001e58:	f7fe fd16 	bl	8000888 <LCD_printstr8x5>
    }
    LCD_printstr8x5((uint8*)"ЯРКОСТЬ", 2, 19);
 8001e5c:	2213      	movs	r2, #19
 8001e5e:	2102      	movs	r1, #2
 8001e60:	4835      	ldr	r0, [pc, #212]	; (8001f38 <MainMenu+0x314>)
 8001e62:	f7fe fd11 	bl	8000888 <LCD_printstr8x5>
    LCD_printstr8x5((uint8*)"ДАТА/ВРЕМЯ", 4, 19);
 8001e66:	2213      	movs	r2, #19
 8001e68:	2104      	movs	r1, #4
 8001e6a:	4834      	ldr	r0, [pc, #208]	; (8001f3c <MainMenu+0x318>)
 8001e6c:	f7fe fd0c 	bl	8000888 <LCD_printstr8x5>
    LCD_printstr8x5((uint8*)"ТЕСТ", 6, 19);
 8001e70:	2213      	movs	r2, #19
 8001e72:	2106      	movs	r1, #6
 8001e74:	4832      	ldr	r0, [pc, #200]	; (8001f40 <MainMenu+0x31c>)
 8001e76:	f7fe fd07 	bl	8000888 <LCD_printstr8x5>
  }
  //-------------------------------------------------
  
  batcheck();
 8001e7a:	f7fe fa77 	bl	800036c <batcheck>
  BrightPWMgen(brightPWM);
 8001e7e:	4b31      	ldr	r3, [pc, #196]	; (8001f44 <MainMenu+0x320>)
 8001e80:	7818      	ldrb	r0, [r3, #0]
 8001e82:	f7fe fabf 	bl	8000404 <BrightPWMgen>
  getbrightlvl();
 8001e86:	f7fe fa97 	bl	80003b8 <getbrightlvl>
  RTCgetdata(&rtcbcd);
 8001e8a:	482f      	ldr	r0, [pc, #188]	; (8001f48 <MainMenu+0x324>)
 8001e8c:	f7fe faf2 	bl	8000474 <RTCgetdata>
  rtcbcdtoraw();
 8001e90:	f7fe fb80 	bl	8000594 <rtcbcdtoraw>
  
  LCD_printclockanddate(0, 26);
 8001e94:	211a      	movs	r1, #26
 8001e96:	2000      	movs	r0, #0
 8001e98:	f7fe fdb4 	bl	8000a04 <LCD_printclockanddate>
  LCD_printbatlevel(batlvl, 0, 105);
 8001e9c:	4b2b      	ldr	r3, [pc, #172]	; (8001f4c <MainMenu+0x328>)
 8001e9e:	2269      	movs	r2, #105	; 0x69
 8001ea0:	7818      	ldrb	r0, [r3, #0]
 8001ea2:	2100      	movs	r1, #0
 8001ea4:	f7fe fe50 	bl	8000b48 <LCD_printbatlevel>
  LCD_printbrightnes(0, 0);
 8001ea8:	2100      	movs	r1, #0
 8001eaa:	4608      	mov	r0, r1
 8001eac:	f7fe fe28 	bl	8000b00 <LCD_printbrightnes>
  LCD_printvertline(55, 8, 80);
 8001eb0:	2250      	movs	r2, #80	; 0x50
 8001eb2:	2108      	movs	r1, #8
 8001eb4:	2037      	movs	r0, #55	; 0x37
 8001eb6:	f7fe fe8f 	bl	8000bd8 <LCD_printvertline>
  LCD_printvertline(55, 8, 0);
 8001eba:	2200      	movs	r2, #0
 8001ebc:	2108      	movs	r1, #8
 8001ebe:	2037      	movs	r0, #55	; 0x37
 8001ec0:	f7fe fe8a 	bl	8000bd8 <LCD_printvertline>
  LCD_printvertline(55, 8, 126);
 8001ec4:	227e      	movs	r2, #126	; 0x7e
 8001ec6:	2108      	movs	r1, #8
 8001ec8:	2037      	movs	r0, #55	; 0x37
 8001eca:	f7fe fe85 	bl	8000bd8 <LCD_printvertline>

  LCD_bufupload_buferase();
 8001ece:	f7fe fd3b 	bl	8000948 <LCD_bufupload_buferase>
  HAL_Delay(50);
 8001ed2:	2032      	movs	r0, #50	; 0x32
 8001ed4:	f001 fdba 	bl	8003a4c <HAL_Delay>
  
  //----------------------GAME-----------------------
  if(CFlags.RunGameFl)
 8001ed8:	7823      	ldrb	r3, [r4, #0]
 8001eda:	079b      	lsls	r3, r3, #30
 8001edc:	d511      	bpl.n	8001f02 <MainMenu+0x2de>
  {
    ufobattle();
  }
  //-------------------------------------------------
  
}
 8001ede:	e8bd 4038 	ldmia.w	sp!, {r3, r4, r5, lr}
    ufobattle();
 8001ee2:	f001 bd15 	b.w	8003910 <ufobattle>
        case 2: CFlags.MenuFl = 0; CFlags.MenuSettingsFl = 1; CFlags.coursorpos = 1; break;
 8001ee6:	f003 031a 	and.w	r3, r3, #26
 8001eea:	f043 0324 	orr.w	r3, r3, #36	; 0x24
 8001eee:	e6b6      	b.n	8001c5e <MainMenu+0x3a>
        case 3: ShutDown(); break;
 8001ef0:	f7fe fa4c 	bl	800038c <ShutDown>
 8001ef4:	e6b4      	b.n	8001c60 <MainMenu+0x3c>
        case 2: setdatetime(); break;
 8001ef6:	f7ff faed 	bl	80014d4 <setdatetime>
 8001efa:	e724      	b.n	8001d46 <MainMenu+0x122>
        case 3: testscreen(); break;
 8001efc:	f7ff fd86 	bl	8001a0c <testscreen>
 8001f00:	e721      	b.n	8001d46 <MainMenu+0x122>
}
 8001f02:	bd38      	pop	{r3, r4, r5, pc}
 8001f04:	20000000 	.word	0x20000000
 8001f08:	200000e8 	.word	0x200000e8
 8001f0c:	20000133 	.word	0x20000133
 8001f10:	08007574 	.word	0x08007574
 8001f14:	080074d9 	.word	0x080074d9
 8001f18:	080074e3 	.word	0x080074e3
 8001f1c:	080074ed 	.word	0x080074ed
 8001f20:	200000d0 	.word	0x200000d0
 8001f24:	20000100 	.word	0x20000100
 8001f28:	20000118 	.word	0x20000118
 8001f2c:	080074f2 	.word	0x080074f2
 8001f30:	080074a4 	.word	0x080074a4
 8001f34:	080074f7 	.word	0x080074f7
 8001f38:	080074ff 	.word	0x080074ff
 8001f3c:	08007507 	.word	0x08007507
 8001f40:	08007512 	.word	0x08007512
 8001f44:	20000006 	.word	0x20000006
 8001f48:	20000137 	.word	0x20000137
 8001f4c:	20000131 	.word	0x20000131

08001f50 <SchedAddEvent>:

static uint8 SchedulerRegistredEvents = 0;
tEvent SchedulerEvent[MAX_EVENT];

uint8 SchedAddEvent(void (*func)(void), uint16 period)
{
 8001f50:	b570      	push	{r4, r5, r6, lr}
  SchedulerEvent[SchedulerRegistredEvents].callfunc = func;
 8001f52:	4a07      	ldr	r2, [pc, #28]	; (8001f70 <SchedAddEvent+0x20>)
 8001f54:	4d07      	ldr	r5, [pc, #28]	; (8001f74 <SchedAddEvent+0x24>)
 8001f56:	7813      	ldrb	r3, [r2, #0]
 8001f58:	eb05 1403 	add.w	r4, r5, r3, lsl #4
  SchedulerEvent[SchedulerRegistredEvents].period = period;
 8001f5c:	6061      	str	r1, [r4, #4]
  SchedulerEvent[SchedulerRegistredEvents].run_flag = ON;
 8001f5e:	2101      	movs	r1, #1
 8001f60:	7321      	strb	r1, [r4, #12]
  return SchedulerRegistredEvents++;
 8001f62:	1859      	adds	r1, r3, r1
  SchedulerEvent[SchedulerRegistredEvents].callfunc = func;
 8001f64:	011e      	lsls	r6, r3, #4
  return SchedulerRegistredEvents++;
 8001f66:	7011      	strb	r1, [r2, #0]
  SchedulerEvent[SchedulerRegistredEvents].callfunc = func;
 8001f68:	51a8      	str	r0, [r5, r6]
}
 8001f6a:	4618      	mov	r0, r3
 8001f6c:	bd70      	pop	{r4, r5, r6, pc}
 8001f6e:	bf00      	nop
 8001f70:	20000864 	.word	0x20000864
 8001f74:	20000684 	.word	0x20000684

08001f78 <SchedRemoveAllEvents>:

void SchedRemoveAllEvents(void)
{
  SchedulerRegistredEvents = 0;
 8001f78:	2200      	movs	r2, #0
 8001f7a:	4b01      	ldr	r3, [pc, #4]	; (8001f80 <SchedRemoveAllEvents+0x8>)
 8001f7c:	701a      	strb	r2, [r3, #0]
}
 8001f7e:	4770      	bx	lr
 8001f80:	20000864 	.word	0x20000864

08001f84 <SchedEventProcess>:

void SchedEventProcess(void)
{
 8001f84:	b5f8      	push	{r3, r4, r5, r6, r7, lr}
  for(uint8 i = 0; i < SchedulerRegistredEvents; i++)
 8001f86:	2400      	movs	r4, #0
  {
    if(SchedulerEvent[i].eventcounter >= SchedulerEvent[i].period)
    {
      SchedulerEvent[i].eventcounter = 0;
 8001f88:	4627      	mov	r7, r4
  for(uint8 i = 0; i < SchedulerRegistredEvents; i++)
 8001f8a:	4e09      	ldr	r6, [pc, #36]	; (8001fb0 <SchedEventProcess+0x2c>)
    if(SchedulerEvent[i].eventcounter >= SchedulerEvent[i].period)
 8001f8c:	4d09      	ldr	r5, [pc, #36]	; (8001fb4 <SchedEventProcess+0x30>)
  for(uint8 i = 0; i < SchedulerRegistredEvents; i++)
 8001f8e:	7832      	ldrb	r2, [r6, #0]
 8001f90:	b2e3      	uxtb	r3, r4
 8001f92:	429a      	cmp	r2, r3
 8001f94:	d800      	bhi.n	8001f98 <SchedEventProcess+0x14>
      SchedulerEvent[i].callfunc();
    }
  }
}
 8001f96:	bdf8      	pop	{r3, r4, r5, r6, r7, pc}
    if(SchedulerEvent[i].eventcounter >= SchedulerEvent[i].period)
 8001f98:	011a      	lsls	r2, r3, #4
 8001f9a:	eb05 1303 	add.w	r3, r5, r3, lsl #4
 8001f9e:	e9d3 1001 	ldrd	r1, r0, [r3, #4]
 8001fa2:	4288      	cmp	r0, r1
 8001fa4:	d302      	bcc.n	8001fac <SchedEventProcess+0x28>
      SchedulerEvent[i].eventcounter = 0;
 8001fa6:	609f      	str	r7, [r3, #8]
      SchedulerEvent[i].callfunc();
 8001fa8:	58ab      	ldr	r3, [r5, r2]
 8001faa:	4798      	blx	r3
  for(uint8 i = 0; i < SchedulerRegistredEvents; i++)
 8001fac:	3401      	adds	r4, #1
 8001fae:	e7ee      	b.n	8001f8e <SchedEventProcess+0xa>
 8001fb0:	20000864 	.word	0x20000864
 8001fb4:	20000684 	.word	0x20000684

08001fb8 <SchedPeriodIncr>:

void SchedPeriodIncr(void)
{
  for(uint8 i = 0; i < SchedulerRegistredEvents; i++) {
 8001fb8:	2200      	movs	r2, #0
 8001fba:	4b07      	ldr	r3, [pc, #28]	; (8001fd8 <SchedPeriodIncr+0x20>)
 8001fbc:	7818      	ldrb	r0, [r3, #0]
 8001fbe:	4b07      	ldr	r3, [pc, #28]	; (8001fdc <SchedPeriodIncr+0x24>)
 8001fc0:	b2d1      	uxtb	r1, r2
 8001fc2:	4288      	cmp	r0, r1
 8001fc4:	d800      	bhi.n	8001fc8 <SchedPeriodIncr+0x10>
    if(SchedulerEvent[i].run_flag) 
      SchedulerEvent[i].eventcounter++;
  }
}
 8001fc6:	4770      	bx	lr
    if(SchedulerEvent[i].run_flag) 
 8001fc8:	7b19      	ldrb	r1, [r3, #12]
 8001fca:	b111      	cbz	r1, 8001fd2 <SchedPeriodIncr+0x1a>
      SchedulerEvent[i].eventcounter++;
 8001fcc:	6899      	ldr	r1, [r3, #8]
 8001fce:	3101      	adds	r1, #1
 8001fd0:	6099      	str	r1, [r3, #8]
  for(uint8 i = 0; i < SchedulerRegistredEvents; i++) {
 8001fd2:	3201      	adds	r2, #1
 8001fd4:	3310      	adds	r3, #16
 8001fd6:	e7f3      	b.n	8001fc0 <SchedPeriodIncr+0x8>
 8001fd8:	20000864 	.word	0x20000864
 8001fdc:	20000684 	.word	0x20000684

08001fe0 <SchedRemoveEvent>:

void  SchedRemoveEvent(void (*func)(void))
{
    uint8 temp_fl = 0;
    for(uint8 i = 0; i < SchedulerRegistredEvents; i++){
 8001fe0:	2100      	movs	r1, #0
{
 8001fe2:	b570      	push	{r4, r5, r6, lr}
    uint8 temp_fl = 0;
 8001fe4:	460c      	mov	r4, r1
    for(uint8 i = 0; i < SchedulerRegistredEvents; i++){
 8001fe6:	4d0d      	ldr	r5, [pc, #52]	; (800201c <SchedRemoveEvent+0x3c>)
 8001fe8:	4b0d      	ldr	r3, [pc, #52]	; (8002020 <SchedRemoveEvent+0x40>)
 8001fea:	782a      	ldrb	r2, [r5, #0]
 8001fec:	b2ce      	uxtb	r6, r1
 8001fee:	42b2      	cmp	r2, r6
 8001ff0:	d803      	bhi.n	8001ffa <SchedRemoveEvent+0x1a>
            SchedulerEvent[i].period = SchedulerEvent[i+1].period;
            SchedulerEvent[i].run_flag = SchedulerEvent[i+1].run_flag;
            SchedulerEvent[i].eventcounter = SchedulerEvent[i+1].eventcounter;
        }
    }
    if(temp_fl) SchedulerRegistredEvents--;
 8001ff2:	b10c      	cbz	r4, 8001ff8 <SchedRemoveEvent+0x18>
 8001ff4:	3a01      	subs	r2, #1
 8001ff6:	702a      	strb	r2, [r5, #0]
}
 8001ff8:	bd70      	pop	{r4, r5, r6, pc}
        if(SchedulerEvent[i].callfunc == func || temp_fl) {
 8001ffa:	681e      	ldr	r6, [r3, #0]
 8001ffc:	4286      	cmp	r6, r0
 8001ffe:	d000      	beq.n	8002002 <SchedRemoveEvent+0x22>
 8002000:	b144      	cbz	r4, 8002014 <SchedRemoveEvent+0x34>
            SchedulerEvent[i].callfunc = SchedulerEvent[i+1].callfunc;
 8002002:	691c      	ldr	r4, [r3, #16]
 8002004:	601c      	str	r4, [r3, #0]
            SchedulerEvent[i].period = SchedulerEvent[i+1].period;
 8002006:	695c      	ldr	r4, [r3, #20]
 8002008:	605c      	str	r4, [r3, #4]
            SchedulerEvent[i].run_flag = SchedulerEvent[i+1].run_flag;
 800200a:	7f1c      	ldrb	r4, [r3, #28]
 800200c:	731c      	strb	r4, [r3, #12]
            SchedulerEvent[i].eventcounter = SchedulerEvent[i+1].eventcounter;
 800200e:	699c      	ldr	r4, [r3, #24]
 8002010:	609c      	str	r4, [r3, #8]
            temp_fl = 1;
 8002012:	2401      	movs	r4, #1
    for(uint8 i = 0; i < SchedulerRegistredEvents; i++){
 8002014:	3101      	adds	r1, #1
 8002016:	3310      	adds	r3, #16
 8002018:	e7e8      	b.n	8001fec <SchedRemoveEvent+0xc>
 800201a:	bf00      	nop
 800201c:	20000864 	.word	0x20000864
 8002020:	20000684 	.word	0x20000684

08002024 <SchedPauseEvent>:

void  SchedPauseEvent(void (*func)(void))
{
 8002024:	b530      	push	{r4, r5, lr}
    for(uint8 i = 0; i < SchedulerRegistredEvents; i ++){
 8002026:	4b08      	ldr	r3, [pc, #32]	; (8002048 <SchedPauseEvent+0x24>)
 8002028:	4a08      	ldr	r2, [pc, #32]	; (800204c <SchedPauseEvent+0x28>)
 800202a:	781c      	ldrb	r4, [r3, #0]
 800202c:	2300      	movs	r3, #0
        if(SchedulerEvent[i].callfunc == func){
            SchedulerEvent[i].run_flag = OFF;
 800202e:	461d      	mov	r5, r3
    for(uint8 i = 0; i < SchedulerRegistredEvents; i ++){
 8002030:	b2d9      	uxtb	r1, r3
 8002032:	428c      	cmp	r4, r1
 8002034:	d800      	bhi.n	8002038 <SchedPauseEvent+0x14>
        }
    }
}
 8002036:	bd30      	pop	{r4, r5, pc}
        if(SchedulerEvent[i].callfunc == func){
 8002038:	6811      	ldr	r1, [r2, #0]
 800203a:	3301      	adds	r3, #1
 800203c:	4281      	cmp	r1, r0
            SchedulerEvent[i].run_flag = OFF;
 800203e:	bf08      	it	eq
 8002040:	7315      	strbeq	r5, [r2, #12]
    for(uint8 i = 0; i < SchedulerRegistredEvents; i ++){
 8002042:	3210      	adds	r2, #16
 8002044:	e7f4      	b.n	8002030 <SchedPauseEvent+0xc>
 8002046:	bf00      	nop
 8002048:	20000864 	.word	0x20000864
 800204c:	20000684 	.word	0x20000684

08002050 <SchedResumeEvent>:
void  SchedResumeEvent(void (*func)(void))
{
 8002050:	b530      	push	{r4, r5, lr}
    for(uint8 i = 0; i < SchedulerRegistredEvents; i ++){
 8002052:	2200      	movs	r2, #0
        if(SchedulerEvent[i].callfunc == func){
            SchedulerEvent[i].run_flag = ON;
 8002054:	2501      	movs	r5, #1
    for(uint8 i = 0; i < SchedulerRegistredEvents; i ++){
 8002056:	4b07      	ldr	r3, [pc, #28]	; (8002074 <SchedResumeEvent+0x24>)
 8002058:	781c      	ldrb	r4, [r3, #0]
 800205a:	4b07      	ldr	r3, [pc, #28]	; (8002078 <SchedResumeEvent+0x28>)
 800205c:	b2d1      	uxtb	r1, r2
 800205e:	428c      	cmp	r4, r1
 8002060:	d800      	bhi.n	8002064 <SchedResumeEvent+0x14>
        }
    }
}
 8002062:	bd30      	pop	{r4, r5, pc}
        if(SchedulerEvent[i].callfunc == func){
 8002064:	6819      	ldr	r1, [r3, #0]
 8002066:	3201      	adds	r2, #1
 8002068:	4281      	cmp	r1, r0
            SchedulerEvent[i].run_flag = ON;
 800206a:	bf08      	it	eq
 800206c:	731d      	strbeq	r5, [r3, #12]
    for(uint8 i = 0; i < SchedulerRegistredEvents; i ++){
 800206e:	3310      	adds	r3, #16
 8002070:	e7f4      	b.n	800205c <SchedResumeEvent+0xc>
 8002072:	bf00      	nop
 8002074:	20000864 	.word	0x20000864
 8002078:	20000684 	.word	0x20000684

0800207c <SchedEventSetPeriod>:

void  SchedEventSetPeriod(void (*func)(void), uint16 period)
{
    for(uint8 i = 0; i < SchedulerRegistredEvents; i ++){
 800207c:	2200      	movs	r2, #0
{
 800207e:	b530      	push	{r4, r5, lr}
    for(uint8 i = 0; i < SchedulerRegistredEvents; i ++){
 8002080:	4b06      	ldr	r3, [pc, #24]	; (800209c <SchedEventSetPeriod+0x20>)
 8002082:	781d      	ldrb	r5, [r3, #0]
 8002084:	4b06      	ldr	r3, [pc, #24]	; (80020a0 <SchedEventSetPeriod+0x24>)
 8002086:	b2d4      	uxtb	r4, r2
 8002088:	42a5      	cmp	r5, r4
 800208a:	d800      	bhi.n	800208e <SchedEventSetPeriod+0x12>
        if(SchedulerEvent[i].callfunc == func){
            SchedulerEvent[i].period = period;
        }
    }
}
 800208c:	bd30      	pop	{r4, r5, pc}
        if(SchedulerEvent[i].callfunc == func){
 800208e:	681c      	ldr	r4, [r3, #0]
 8002090:	3201      	adds	r2, #1
 8002092:	4284      	cmp	r4, r0
            SchedulerEvent[i].period = period;
 8002094:	bf08      	it	eq
 8002096:	6059      	streq	r1, [r3, #4]
    for(uint8 i = 0; i < SchedulerRegistredEvents; i ++){
 8002098:	3310      	adds	r3, #16
 800209a:	e7f4      	b.n	8002086 <SchedEventSetPeriod+0xa>
 800209c:	20000864 	.word	0x20000864
 80020a0:	20000684 	.word	0x20000684

080020a4 <HAL_MspInit>:
{
  /* USER CODE BEGIN MspInit 0 */

  /* USER CODE END MspInit 0 */

  __HAL_RCC_AFIO_CLK_ENABLE();
 80020a4:	4b0e      	ldr	r3, [pc, #56]	; (80020e0 <HAL_MspInit+0x3c>)
{
 80020a6:	b082      	sub	sp, #8
  __HAL_RCC_AFIO_CLK_ENABLE();
 80020a8:	699a      	ldr	r2, [r3, #24]
 80020aa:	f042 0201 	orr.w	r2, r2, #1
 80020ae:	619a      	str	r2, [r3, #24]
 80020b0:	699a      	ldr	r2, [r3, #24]
 80020b2:	f002 0201 	and.w	r2, r2, #1
 80020b6:	9200      	str	r2, [sp, #0]
 80020b8:	9a00      	ldr	r2, [sp, #0]
  __HAL_RCC_PWR_CLK_ENABLE();
 80020ba:	69da      	ldr	r2, [r3, #28]
 80020bc:	f042 5280 	orr.w	r2, r2, #268435456	; 0x10000000
 80020c0:	61da      	str	r2, [r3, #28]
 80020c2:	69db      	ldr	r3, [r3, #28]

  /* System interrupt init*/

  /** NOJTAG: JTAG-DP Disabled and SW-DP Enabled
  */
  __HAL_AFIO_REMAP_SWJ_NOJTAG();
 80020c4:	4a07      	ldr	r2, [pc, #28]	; (80020e4 <HAL_MspInit+0x40>)
  __HAL_RCC_PWR_CLK_ENABLE();
 80020c6:	f003 5380 	and.w	r3, r3, #268435456	; 0x10000000
 80020ca:	9301      	str	r3, [sp, #4]
 80020cc:	9b01      	ldr	r3, [sp, #4]
  __HAL_AFIO_REMAP_SWJ_NOJTAG();
 80020ce:	6853      	ldr	r3, [r2, #4]
 80020d0:	f023 63e0 	bic.w	r3, r3, #117440512	; 0x7000000
 80020d4:	f043 7300 	orr.w	r3, r3, #33554432	; 0x2000000
 80020d8:	6053      	str	r3, [r2, #4]

  /* USER CODE BEGIN MspInit 1 */

  /* USER CODE END MspInit 1 */
}
 80020da:	b002      	add	sp, #8
 80020dc:	4770      	bx	lr
 80020de:	bf00      	nop
 80020e0:	40021000 	.word	0x40021000
 80020e4:	40010000 	.word	0x40010000

080020e8 <HAL_ADC_MspInit>:
* @param hadc: ADC handle pointer
* @retval None
*/
void HAL_ADC_MspInit(ADC_HandleTypeDef* hadc)
{
  GPIO_InitTypeDef GPIO_InitStruct = {0};
 80020e8:	2210      	movs	r2, #16
{
 80020ea:	b530      	push	{r4, r5, lr}
 80020ec:	4605      	mov	r5, r0
 80020ee:	b089      	sub	sp, #36	; 0x24
  GPIO_InitTypeDef GPIO_InitStruct = {0};
 80020f0:	eb0d 0002 	add.w	r0, sp, r2
 80020f4:	2100      	movs	r1, #0
 80020f6:	f003 fbc5 	bl	8005884 <memset>
  if(hadc->Instance==ADC1)
 80020fa:	682a      	ldr	r2, [r5, #0]
 80020fc:	4b23      	ldr	r3, [pc, #140]	; (800218c <HAL_ADC_MspInit+0xa4>)
 80020fe:	429a      	cmp	r2, r3
 8002100:	d142      	bne.n	8002188 <HAL_ADC_MspInit+0xa0>
  {
  /* USER CODE BEGIN ADC1_MspInit 0 */

  /* USER CODE END ADC1_MspInit 0 */
    /* Peripheral clock enable */
    __HAL_RCC_ADC1_CLK_ENABLE();
 8002102:	f503 436c 	add.w	r3, r3, #60416	; 0xec00
 8002106:	699a      	ldr	r2, [r3, #24]
    PA0-WKUP     ------> ADC1_IN0
    PB0     ------> ADC1_IN8
    PB1     ------> ADC1_IN9
    */
    GPIO_InitStruct.Pin = BAT_LVL_CTRL_Pin;
    GPIO_InitStruct.Mode = GPIO_MODE_ANALOG;
 8002108:	2403      	movs	r4, #3
    __HAL_RCC_ADC1_CLK_ENABLE();
 800210a:	f442 7200 	orr.w	r2, r2, #512	; 0x200
 800210e:	619a      	str	r2, [r3, #24]
 8002110:	699a      	ldr	r2, [r3, #24]
    HAL_GPIO_Init(BAT_LVL_CTRL_GPIO_Port, &GPIO_InitStruct);
 8002112:	481f      	ldr	r0, [pc, #124]	; (8002190 <HAL_ADC_MspInit+0xa8>)
    __HAL_RCC_ADC1_CLK_ENABLE();
 8002114:	f402 7200 	and.w	r2, r2, #512	; 0x200
 8002118:	9201      	str	r2, [sp, #4]
 800211a:	9a01      	ldr	r2, [sp, #4]
    __HAL_RCC_GPIOA_CLK_ENABLE();
 800211c:	699a      	ldr	r2, [r3, #24]
    HAL_GPIO_Init(BAT_LVL_CTRL_GPIO_Port, &GPIO_InitStruct);
 800211e:	a904      	add	r1, sp, #16
    __HAL_RCC_GPIOA_CLK_ENABLE();
 8002120:	f042 0204 	orr.w	r2, r2, #4
 8002124:	619a      	str	r2, [r3, #24]
 8002126:	699a      	ldr	r2, [r3, #24]
 8002128:	f002 0204 	and.w	r2, r2, #4
 800212c:	9202      	str	r2, [sp, #8]
 800212e:	9a02      	ldr	r2, [sp, #8]
    __HAL_RCC_GPIOB_CLK_ENABLE();
 8002130:	699a      	ldr	r2, [r3, #24]
 8002132:	f042 0208 	orr.w	r2, r2, #8
 8002136:	619a      	str	r2, [r3, #24]
 8002138:	699b      	ldr	r3, [r3, #24]
 800213a:	f003 0308 	and.w	r3, r3, #8
 800213e:	9303      	str	r3, [sp, #12]
 8002140:	9b03      	ldr	r3, [sp, #12]
    GPIO_InitStruct.Mode = GPIO_MODE_ANALOG;
 8002142:	2301      	movs	r3, #1
 8002144:	e9cd 3404 	strd	r3, r4, [sp, #16]
    HAL_GPIO_Init(BAT_LVL_CTRL_GPIO_Port, &GPIO_InitStruct);
 8002148:	f002 f81c 	bl	8004184 <HAL_GPIO_Init>

    GPIO_InitStruct.Pin = JOYSTICK_OX_Pin|JOYSTICK_OY_Pin;
    GPIO_InitStruct.Mode = GPIO_MODE_ANALOG;
    HAL_GPIO_Init(GPIOB, &GPIO_InitStruct);
 800214c:	4811      	ldr	r0, [pc, #68]	; (8002194 <HAL_ADC_MspInit+0xac>)
 800214e:	a904      	add	r1, sp, #16
    GPIO_InitStruct.Mode = GPIO_MODE_ANALOG;
 8002150:	e9cd 4404 	strd	r4, r4, [sp, #16]
    HAL_GPIO_Init(GPIOB, &GPIO_InitStruct);
 8002154:	f002 f816 	bl	8004184 <HAL_GPIO_Init>

    /* ADC1 DMA Init */
    /* ADC1 Init */
    hdma_adc1.Instance = DMA1_Channel1;
    hdma_adc1.Init.Direction = DMA_PERIPH_TO_MEMORY;
 8002158:	2300      	movs	r3, #0
    hdma_adc1.Instance = DMA1_Channel1;
 800215a:	4c0f      	ldr	r4, [pc, #60]	; (8002198 <HAL_ADC_MspInit+0xb0>)
    hdma_adc1.Init.Direction = DMA_PERIPH_TO_MEMORY;
 800215c:	4a0f      	ldr	r2, [pc, #60]	; (800219c <HAL_ADC_MspInit+0xb4>)
    hdma_adc1.Init.PeriphInc = DMA_PINC_DISABLE;
    hdma_adc1.Init.MemInc = DMA_MINC_ENABLE;
    hdma_adc1.Init.PeriphDataAlignment = DMA_PDATAALIGN_HALFWORD;
 800215e:	2180      	movs	r1, #128	; 0x80
    hdma_adc1.Init.Direction = DMA_PERIPH_TO_MEMORY;
 8002160:	e9c4 2300 	strd	r2, r3, [r4]
    hdma_adc1.Init.PeriphDataAlignment = DMA_PDATAALIGN_HALFWORD;
 8002164:	f44f 7280 	mov.w	r2, #256	; 0x100
 8002168:	e9c4 1203 	strd	r1, r2, [r4, #12]
    hdma_adc1.Init.MemDataAlignment = DMA_MDATAALIGN_HALFWORD;
 800216c:	f44f 6280 	mov.w	r2, #1024	; 0x400
    hdma_adc1.Init.Mode = DMA_NORMAL;
    hdma_adc1.Init.Priority = DMA_PRIORITY_LOW;
    if (HAL_DMA_Init(&hdma_adc1) != HAL_OK)
 8002170:	4620      	mov	r0, r4
    hdma_adc1.Init.Mode = DMA_NORMAL;
 8002172:	e9c4 2305 	strd	r2, r3, [r4, #20]
    hdma_adc1.Init.PeriphInc = DMA_PINC_DISABLE;
 8002176:	60a3      	str	r3, [r4, #8]
    hdma_adc1.Init.Priority = DMA_PRIORITY_LOW;
 8002178:	61e3      	str	r3, [r4, #28]
    if (HAL_DMA_Init(&hdma_adc1) != HAL_OK)
 800217a:	f001 ff07 	bl	8003f8c <HAL_DMA_Init>
 800217e:	b108      	cbz	r0, 8002184 <HAL_ADC_MspInit+0x9c>
    {
      Error_Handler();
 8002180:	f7ff f9a6 	bl	80014d0 <Error_Handler>
    }

    __HAL_LINKDMA(hadc,DMA_Handle,hdma_adc1);
 8002184:	622c      	str	r4, [r5, #32]
 8002186:	6265      	str	r5, [r4, #36]	; 0x24
  /* USER CODE BEGIN ADC1_MspInit 1 */

  /* USER CODE END ADC1_MspInit 1 */
  }

}
 8002188:	b009      	add	sp, #36	; 0x24
 800218a:	bd30      	pop	{r4, r5, pc}
 800218c:	40012400 	.word	0x40012400
 8002190:	40010800 	.word	0x40010800
 8002194:	40010c00 	.word	0x40010c00
 8002198:	20000588 	.word	0x20000588
 800219c:	40020008 	.word	0x40020008

080021a0 <HAL_RTC_MspInit>:
* This function configures the hardware resources used in this example
* @param hrtc: RTC handle pointer
* @retval None
*/
void HAL_RTC_MspInit(RTC_HandleTypeDef* hrtc)
{
 80021a0:	b507      	push	{r0, r1, r2, lr}
  if(hrtc->Instance==RTC)
 80021a2:	4b0b      	ldr	r3, [pc, #44]	; (80021d0 <HAL_RTC_MspInit+0x30>)
 80021a4:	6802      	ldr	r2, [r0, #0]
 80021a6:	429a      	cmp	r2, r3
 80021a8:	d10f      	bne.n	80021ca <HAL_RTC_MspInit+0x2a>
  {
  /* USER CODE BEGIN RTC_MspInit 0 */

  /* USER CODE END RTC_MspInit 0 */
    HAL_PWR_EnableBkUpAccess();
 80021aa:	f002 f8d1 	bl	8004350 <HAL_PWR_EnableBkUpAccess>
    /* Enable BKP CLK enable for backup registers */
    __HAL_RCC_BKP_CLK_ENABLE();
 80021ae:	4b09      	ldr	r3, [pc, #36]	; (80021d4 <HAL_RTC_MspInit+0x34>)
 80021b0:	69da      	ldr	r2, [r3, #28]
 80021b2:	f042 6200 	orr.w	r2, r2, #134217728	; 0x8000000
 80021b6:	61da      	str	r2, [r3, #28]
    /* Peripheral clock enable */
    __HAL_RCC_RTC_ENABLE();
 80021b8:	2201      	movs	r2, #1
    __HAL_RCC_BKP_CLK_ENABLE();
 80021ba:	69db      	ldr	r3, [r3, #28]
 80021bc:	f003 6300 	and.w	r3, r3, #134217728	; 0x8000000
 80021c0:	9301      	str	r3, [sp, #4]
 80021c2:	9b01      	ldr	r3, [sp, #4]
    __HAL_RCC_RTC_ENABLE();
 80021c4:	4b04      	ldr	r3, [pc, #16]	; (80021d8 <HAL_RTC_MspInit+0x38>)
 80021c6:	f8c3 243c 	str.w	r2, [r3, #1084]	; 0x43c
  /* USER CODE BEGIN RTC_MspInit 1 */

  /* USER CODE END RTC_MspInit 1 */
  }

}
 80021ca:	b003      	add	sp, #12
 80021cc:	f85d fb04 	ldr.w	pc, [sp], #4
 80021d0:	40002800 	.word	0x40002800
 80021d4:	40021000 	.word	0x40021000
 80021d8:	42420000 	.word	0x42420000

080021dc <HAL_SPI_MspInit>:
* This function configures the hardware resources used in this example
* @param hspi: SPI handle pointer
* @retval None
*/
void HAL_SPI_MspInit(SPI_HandleTypeDef* hspi)
{
 80021dc:	b510      	push	{r4, lr}
 80021de:	4604      	mov	r4, r0
 80021e0:	b086      	sub	sp, #24
  GPIO_InitTypeDef GPIO_InitStruct = {0};
 80021e2:	2210      	movs	r2, #16
 80021e4:	2100      	movs	r1, #0
 80021e6:	a802      	add	r0, sp, #8
 80021e8:	f003 fb4c 	bl	8005884 <memset>
  if(hspi->Instance==SPI2)
 80021ec:	6822      	ldr	r2, [r4, #0]
 80021ee:	4b12      	ldr	r3, [pc, #72]	; (8002238 <HAL_SPI_MspInit+0x5c>)
 80021f0:	429a      	cmp	r2, r3
 80021f2:	d11e      	bne.n	8002232 <HAL_SPI_MspInit+0x56>
  {
  /* USER CODE BEGIN SPI2_MspInit 0 */

  /* USER CODE END SPI2_MspInit 0 */
    /* Peripheral clock enable */
    __HAL_RCC_SPI2_CLK_ENABLE();
 80021f4:	f503 33ec 	add.w	r3, r3, #120832	; 0x1d800
 80021f8:	69da      	ldr	r2, [r3, #28]
    PB15     ------> SPI2_MOSI
    */
    GPIO_InitStruct.Pin = DISP_SPI_CS_Pin|DISP_SPI_SCK_Pin|DISP_SPI_MOSI_Pin;
    GPIO_InitStruct.Mode = GPIO_MODE_AF_PP;
    GPIO_InitStruct.Speed = GPIO_SPEED_FREQ_HIGH;
    HAL_GPIO_Init(GPIOB, &GPIO_InitStruct);
 80021fa:	4810      	ldr	r0, [pc, #64]	; (800223c <HAL_SPI_MspInit+0x60>)
    __HAL_RCC_SPI2_CLK_ENABLE();
 80021fc:	f442 4280 	orr.w	r2, r2, #16384	; 0x4000
 8002200:	61da      	str	r2, [r3, #28]
 8002202:	69da      	ldr	r2, [r3, #28]
    HAL_GPIO_Init(GPIOB, &GPIO_InitStruct);
 8002204:	a902      	add	r1, sp, #8
    __HAL_RCC_SPI2_CLK_ENABLE();
 8002206:	f402 4280 	and.w	r2, r2, #16384	; 0x4000
 800220a:	9200      	str	r2, [sp, #0]
 800220c:	9a00      	ldr	r2, [sp, #0]
    __HAL_RCC_GPIOB_CLK_ENABLE();
 800220e:	699a      	ldr	r2, [r3, #24]
 8002210:	f042 0208 	orr.w	r2, r2, #8
 8002214:	619a      	str	r2, [r3, #24]
 8002216:	699b      	ldr	r3, [r3, #24]
    GPIO_InitStruct.Mode = GPIO_MODE_AF_PP;
 8002218:	f44f 4230 	mov.w	r2, #45056	; 0xb000
    __HAL_RCC_GPIOB_CLK_ENABLE();
 800221c:	f003 0308 	and.w	r3, r3, #8
 8002220:	9301      	str	r3, [sp, #4]
 8002222:	9b01      	ldr	r3, [sp, #4]
    GPIO_InitStruct.Mode = GPIO_MODE_AF_PP;
 8002224:	2302      	movs	r3, #2
 8002226:	e9cd 2302 	strd	r2, r3, [sp, #8]
    GPIO_InitStruct.Speed = GPIO_SPEED_FREQ_HIGH;
 800222a:	2303      	movs	r3, #3
 800222c:	9305      	str	r3, [sp, #20]
    HAL_GPIO_Init(GPIOB, &GPIO_InitStruct);
 800222e:	f001 ffa9 	bl	8004184 <HAL_GPIO_Init>
  /* USER CODE BEGIN SPI2_MspInit 1 */

  /* USER CODE END SPI2_MspInit 1 */
  }

}
 8002232:	b006      	add	sp, #24
 8002234:	bd10      	pop	{r4, pc}
 8002236:	bf00      	nop
 8002238:	40003800 	.word	0x40003800
 800223c:	40010c00 	.word	0x40010c00

08002240 <HAL_TIM_Base_MspInit>:
* @param htim_base: TIM_Base handle pointer
* @retval None
*/
void HAL_TIM_Base_MspInit(TIM_HandleTypeDef* htim_base)
{
  if(htim_base->Instance==TIM1)
 8002240:	6802      	ldr	r2, [r0, #0]
 8002242:	4b08      	ldr	r3, [pc, #32]	; (8002264 <HAL_TIM_Base_MspInit+0x24>)
{
 8002244:	b082      	sub	sp, #8
  if(htim_base->Instance==TIM1)
 8002246:	429a      	cmp	r2, r3
 8002248:	d10a      	bne.n	8002260 <HAL_TIM_Base_MspInit+0x20>
  {
  /* USER CODE BEGIN TIM1_MspInit 0 */

  /* USER CODE END TIM1_MspInit 0 */
    /* Peripheral clock enable */
    __HAL_RCC_TIM1_CLK_ENABLE();
 800224a:	f503 4364 	add.w	r3, r3, #58368	; 0xe400
 800224e:	699a      	ldr	r2, [r3, #24]
 8002250:	f442 6200 	orr.w	r2, r2, #2048	; 0x800
 8002254:	619a      	str	r2, [r3, #24]
 8002256:	699b      	ldr	r3, [r3, #24]
 8002258:	f403 6300 	and.w	r3, r3, #2048	; 0x800
 800225c:	9301      	str	r3, [sp, #4]
 800225e:	9b01      	ldr	r3, [sp, #4]
  /* USER CODE BEGIN TIM1_MspInit 1 */

  /* USER CODE END TIM1_MspInit 1 */
  }

}
 8002260:	b002      	add	sp, #8
 8002262:	4770      	bx	lr
 8002264:	40012c00 	.word	0x40012c00

08002268 <HAL_TIM_MspPostInit>:

void HAL_TIM_MspPostInit(TIM_HandleTypeDef* htim)
{
 8002268:	b510      	push	{r4, lr}
 800226a:	4604      	mov	r4, r0
 800226c:	b086      	sub	sp, #24
  GPIO_InitTypeDef GPIO_InitStruct = {0};
 800226e:	2210      	movs	r2, #16
 8002270:	2100      	movs	r1, #0
 8002272:	a802      	add	r0, sp, #8
 8002274:	f003 fb06 	bl	8005884 <memset>
  if(htim->Instance==TIM1)
 8002278:	6822      	ldr	r2, [r4, #0]
 800227a:	4b0d      	ldr	r3, [pc, #52]	; (80022b0 <HAL_TIM_MspPostInit+0x48>)
 800227c:	429a      	cmp	r2, r3
 800227e:	d114      	bne.n	80022aa <HAL_TIM_MspPostInit+0x42>
  {
  /* USER CODE BEGIN TIM1_MspPostInit 0 */

  /* USER CODE END TIM1_MspPostInit 0 */

    __HAL_RCC_GPIOA_CLK_ENABLE();
 8002280:	f503 4364 	add.w	r3, r3, #58368	; 0xe400
 8002284:	699a      	ldr	r2, [r3, #24]
    PA8     ------> TIM1_CH1
    */
    GPIO_InitStruct.Pin = GPIO_PIN_8;
    GPIO_InitStruct.Mode = GPIO_MODE_AF_PP;
    GPIO_InitStruct.Speed = GPIO_SPEED_FREQ_LOW;
    HAL_GPIO_Init(GPIOA, &GPIO_InitStruct);
 8002286:	480b      	ldr	r0, [pc, #44]	; (80022b4 <HAL_TIM_MspPostInit+0x4c>)
    __HAL_RCC_GPIOA_CLK_ENABLE();
 8002288:	f042 0204 	orr.w	r2, r2, #4
 800228c:	619a      	str	r2, [r3, #24]
 800228e:	699b      	ldr	r3, [r3, #24]
    GPIO_InitStruct.Mode = GPIO_MODE_AF_PP;
 8002290:	f44f 7280 	mov.w	r2, #256	; 0x100
    __HAL_RCC_GPIOA_CLK_ENABLE();
 8002294:	f003 0304 	and.w	r3, r3, #4
 8002298:	9301      	str	r3, [sp, #4]
 800229a:	9b01      	ldr	r3, [sp, #4]
    GPIO_InitStruct.Mode = GPIO_MODE_AF_PP;
 800229c:	2302      	movs	r3, #2
    HAL_GPIO_Init(GPIOA, &GPIO_InitStruct);
 800229e:	a902      	add	r1, sp, #8
    GPIO_InitStruct.Mode = GPIO_MODE_AF_PP;
 80022a0:	e9cd 2302 	strd	r2, r3, [sp, #8]
    GPIO_InitStruct.Speed = GPIO_SPEED_FREQ_LOW;
 80022a4:	9305      	str	r3, [sp, #20]
    HAL_GPIO_Init(GPIOA, &GPIO_InitStruct);
 80022a6:	f001 ff6d 	bl	8004184 <HAL_GPIO_Init>
  /* USER CODE BEGIN TIM1_MspPostInit 1 */

  /* USER CODE END TIM1_MspPostInit 1 */
  }

}
 80022aa:	b006      	add	sp, #24
 80022ac:	bd10      	pop	{r4, pc}
 80022ae:	bf00      	nop
 80022b0:	40012c00 	.word	0x40012c00
 80022b4:	40010800 	.word	0x40010800

080022b8 <NMI_Handler>:
{
  /* USER CODE BEGIN NonMaskableInt_IRQn 0 */

  /* USER CODE END NonMaskableInt_IRQn 0 */
  /* USER CODE BEGIN NonMaskableInt_IRQn 1 */
  while (1)
 80022b8:	e7fe      	b.n	80022b8 <NMI_Handler>

080022ba <HardFault_Handler>:
  {
    /* USER CODE BEGIN W1_HardFault_IRQn 0 */
  	return;
    /* USER CODE END W1_HardFault_IRQn 0 */
  }
}
 80022ba:	4770      	bx	lr

080022bc <MemManage_Handler>:
void MemManage_Handler(void)
{
  /* USER CODE BEGIN MemoryManagement_IRQn 0 */

  /* USER CODE END MemoryManagement_IRQn 0 */
  while (1)
 80022bc:	e7fe      	b.n	80022bc <MemManage_Handler>

080022be <BusFault_Handler>:
void BusFault_Handler(void)
{
  /* USER CODE BEGIN BusFault_IRQn 0 */

  /* USER CODE END BusFault_IRQn 0 */
  while (1)
 80022be:	e7fe      	b.n	80022be <BusFault_Handler>

080022c0 <UsageFault_Handler>:
void UsageFault_Handler(void)
{
  /* USER CODE BEGIN UsageFault_IRQn 0 */

  /* USER CODE END UsageFault_IRQn 0 */
  while (1)
 80022c0:	e7fe      	b.n	80022c0 <UsageFault_Handler>

080022c2 <SVC_Handler>:
 80022c2:	4770      	bx	lr

080022c4 <DebugMon_Handler>:
 80022c4:	4770      	bx	lr

080022c6 <PendSV_Handler>:
 80022c6:	4770      	bx	lr

080022c8 <SysTick_Handler>:
void SysTick_Handler(void)
{
  /* USER CODE BEGIN SysTick_IRQn 0 */

  /* USER CODE END SysTick_IRQn 0 */
  HAL_IncTick();
 80022c8:	f7ff b8b6 	b.w	8001438 <HAL_IncTick>

080022cc <DMA1_Channel1_IRQHandler>:
void DMA1_Channel1_IRQHandler(void)
{
  /* USER CODE BEGIN DMA1_Channel1_IRQn 0 */

  /* USER CODE END DMA1_Channel1_IRQn 0 */
  HAL_DMA_IRQHandler(&hdma_adc1);
 80022cc:	4801      	ldr	r0, [pc, #4]	; (80022d4 <DMA1_Channel1_IRQHandler+0x8>)
 80022ce:	f001 bec7 	b.w	8004060 <HAL_DMA_IRQHandler>
 80022d2:	bf00      	nop
 80022d4:	20000588 	.word	0x20000588

080022d8 <_getpid>:
}

int _getpid(void)
{
	return 1;
}
 80022d8:	2001      	movs	r0, #1
 80022da:	4770      	bx	lr

080022dc <_kill>:

int _kill(int pid, int sig)
{
 80022dc:	b508      	push	{r3, lr}
	errno = EINVAL;
 80022de:	f003 faa7 	bl	8005830 <__errno>
 80022e2:	2316      	movs	r3, #22
 80022e4:	6003      	str	r3, [r0, #0]
	return -1;
}
 80022e6:	f04f 30ff 	mov.w	r0, #4294967295
 80022ea:	bd08      	pop	{r3, pc}

080022ec <_exit>:

void _exit (int status)
{
 80022ec:	b508      	push	{r3, lr}
	errno = EINVAL;
 80022ee:	f003 fa9f 	bl	8005830 <__errno>
 80022f2:	2316      	movs	r3, #22
 80022f4:	6003      	str	r3, [r0, #0]
	_kill(status, -1);
	while (1) {}		/* Make sure we hang here */
 80022f6:	e7fe      	b.n	80022f6 <_exit+0xa>

080022f8 <_read>:
}

__attribute__((weak)) int _read(int file, char *ptr, int len)
{
 80022f8:	b570      	push	{r4, r5, r6, lr}
 80022fa:	460d      	mov	r5, r1
 80022fc:	4614      	mov	r4, r2
	int DataIdx;

	for (DataIdx = 0; DataIdx < len; DataIdx++)
 80022fe:	460e      	mov	r6, r1
 8002300:	1b73      	subs	r3, r6, r5
 8002302:	429c      	cmp	r4, r3
 8002304:	dc01      	bgt.n	800230a <_read+0x12>
	{
		*ptr++ = __io_getchar();
	}

return len;
}
 8002306:	4620      	mov	r0, r4
 8002308:	bd70      	pop	{r4, r5, r6, pc}
		*ptr++ = __io_getchar();
 800230a:	f3af 8000 	nop.w
 800230e:	f806 0b01 	strb.w	r0, [r6], #1
	for (DataIdx = 0; DataIdx < len; DataIdx++)
 8002312:	e7f5      	b.n	8002300 <_read+0x8>

08002314 <_close>:
}

int _close(int file)
{
	return -1;
}
 8002314:	f04f 30ff 	mov.w	r0, #4294967295
 8002318:	4770      	bx	lr

0800231a <_fstat>:


int _fstat(int file, struct stat *st)
{
	st->st_mode = S_IFCHR;
 800231a:	f44f 5300 	mov.w	r3, #8192	; 0x2000
	return 0;
}
 800231e:	2000      	movs	r0, #0
	st->st_mode = S_IFCHR;
 8002320:	604b      	str	r3, [r1, #4]
}
 8002322:	4770      	bx	lr

08002324 <_isatty>:

int _isatty(int file)
{
	return 1;
}
 8002324:	2001      	movs	r0, #1
 8002326:	4770      	bx	lr

08002328 <_lseek>:

int _lseek(int file, int ptr, int dir)
{
	return 0;
}
 8002328:	2000      	movs	r0, #0
 800232a:	4770      	bx	lr

0800232c <_sbrk>:
  const uint32_t stack_limit = (uint32_t)&_estack - (uint32_t)&_Min_Stack_Size;
  const uint8_t *max_heap = (uint8_t *)stack_limit;
  uint8_t *prev_heap_end;

  /* Initialize heap end at first call */
  if (NULL == __sbrk_heap_end)
 800232c:	4a0b      	ldr	r2, [pc, #44]	; (800235c <_sbrk+0x30>)
{
 800232e:	4603      	mov	r3, r0
  if (NULL == __sbrk_heap_end)
 8002330:	6811      	ldr	r1, [r2, #0]
{
 8002332:	b510      	push	{r4, lr}
  if (NULL == __sbrk_heap_end)
 8002334:	b909      	cbnz	r1, 800233a <_sbrk+0xe>
  {
    __sbrk_heap_end = &_end;
 8002336:	490a      	ldr	r1, [pc, #40]	; (8002360 <_sbrk+0x34>)
 8002338:	6011      	str	r1, [r2, #0]
  }

  /* Protect heap from growing into the reserved MSP stack */
  if (__sbrk_heap_end + incr > max_heap)
 800233a:	6810      	ldr	r0, [r2, #0]
 800233c:	4909      	ldr	r1, [pc, #36]	; (8002364 <_sbrk+0x38>)
 800233e:	4c0a      	ldr	r4, [pc, #40]	; (8002368 <_sbrk+0x3c>)
 8002340:	4403      	add	r3, r0
 8002342:	1b09      	subs	r1, r1, r4
 8002344:	428b      	cmp	r3, r1
 8002346:	d906      	bls.n	8002356 <_sbrk+0x2a>
  {
    errno = ENOMEM;
 8002348:	f003 fa72 	bl	8005830 <__errno>
 800234c:	230c      	movs	r3, #12
 800234e:	6003      	str	r3, [r0, #0]
    return (void *)-1;
 8002350:	f04f 30ff 	mov.w	r0, #4294967295

  prev_heap_end = __sbrk_heap_end;
  __sbrk_heap_end += incr;

  return (void *)prev_heap_end;
}
 8002354:	bd10      	pop	{r4, pc}
  __sbrk_heap_end += incr;
 8002356:	6013      	str	r3, [r2, #0]
  return (void *)prev_heap_end;
 8002358:	e7fc      	b.n	8002354 <_sbrk+0x28>
 800235a:	bf00      	nop
 800235c:	20000868 	.word	0x20000868
 8002360:	200009f8 	.word	0x200009f8
 8002364:	20005000 	.word	0x20005000
 8002368:	00000400 	.word	0x00000400

0800236c <SystemInit>:

  /* Configure the Vector Table location -------------------------------------*/
#if defined(USER_VECT_TAB_ADDRESS)
  SCB->VTOR = VECT_TAB_BASE_ADDRESS | VECT_TAB_OFFSET; /* Vector Table Relocation in Internal SRAM. */
#endif /* USER_VECT_TAB_ADDRESS */
}
 800236c:	4770      	bx	lr
	...

08002370 <energyregen>:
    }
  )
}

void energyregen(void) {
  if ((Gamer.energy < Gamer.energymax) && (Gamer.health > 0)) Gamer.energy++;
 8002370:	4b06      	ldr	r3, [pc, #24]	; (800238c <energyregen+0x1c>)
 8002372:	f993 2001 	ldrsb.w	r2, [r3, #1]
 8002376:	f993 1002 	ldrsb.w	r1, [r3, #2]
 800237a:	4291      	cmp	r1, r2
 800237c:	dd05      	ble.n	800238a <energyregen+0x1a>
 800237e:	f993 1000 	ldrsb.w	r1, [r3]
 8002382:	2900      	cmp	r1, #0
 8002384:	bfc4      	itt	gt
 8002386:	3201      	addgt	r2, #1
 8002388:	705a      	strbgt	r2, [r3, #1]
}
 800238a:	4770      	bx	lr
 800238c:	2000098c 	.word	0x2000098c

08002390 <movbullet>:
      Bullet[i].cl += 2;
      if (Bullet[i].cl > 126 || Bullet[i].cl <= 0) {
        Bullet[i].state = 0;
        Bullet[i].cl = 0;
      }
      if(GameFlags.WinTheGame) Bullet[i].state = 0; 
 8002390:	2100      	movs	r1, #0
void movbullet(void) {
 8002392:	b530      	push	{r4, r5, lr}
      if(GameFlags.WinTheGame) Bullet[i].state = 0; 
 8002394:	460c      	mov	r4, r1
 8002396:	4b0c      	ldr	r3, [pc, #48]	; (80023c8 <movbullet+0x38>)
 8002398:	7818      	ldrb	r0, [r3, #0]
 800239a:	4b0c      	ldr	r3, [pc, #48]	; (80023cc <movbullet+0x3c>)
 800239c:	f000 0010 	and.w	r0, r0, #16
    if (Bullet[i].state) {
 80023a0:	781a      	ldrb	r2, [r3, #0]
 80023a2:	b152      	cbz	r2, 80023ba <movbullet+0x2a>
      Bullet[i].cl += 2;
 80023a4:	789a      	ldrb	r2, [r3, #2]
 80023a6:	1c95      	adds	r5, r2, #2
      if (Bullet[i].cl > 126 || Bullet[i].cl <= 0) {
 80023a8:	3201      	adds	r2, #1
 80023aa:	b2d2      	uxtb	r2, r2
 80023ac:	2a7d      	cmp	r2, #125	; 0x7d
      Bullet[i].cl += 2;
 80023ae:	709d      	strb	r5, [r3, #2]
        Bullet[i].state = 0;
 80023b0:	bf84      	itt	hi
 80023b2:	701c      	strbhi	r4, [r3, #0]
        Bullet[i].cl = 0;
 80023b4:	709c      	strbhi	r4, [r3, #2]
      if(GameFlags.WinTheGame) Bullet[i].state = 0; 
 80023b6:	b100      	cbz	r0, 80023ba <movbullet+0x2a>
 80023b8:	701c      	strb	r4, [r3, #0]
  for (uint8 i = 0; i < BULLET_MAX; i++) {
 80023ba:	3101      	adds	r1, #1
 80023bc:	2919      	cmp	r1, #25
 80023be:	f103 0303 	add.w	r3, r3, #3
 80023c2:	d1ed      	bne.n	80023a0 <movbullet+0x10>
    }
  }
}
 80023c4:	bd30      	pop	{r4, r5, pc}
 80023c6:	bf00      	nop
 80023c8:	20000988 	.word	0x20000988
 80023cc:	200008bc 	.word	0x200008bc

080023d0 <statehandler_gamesave>:
  if(gameevent == EVENT_SELPOS_3) coursorpos = COURS_POS_1; // coursor position when returning to the pause menu in "SAVE"
}

void statehandler_gamesave(void)
{
  gameevent = EVENT_NONE;
 80023d0:	2200      	movs	r2, #0
 80023d2:	4b01      	ldr	r3, [pc, #4]	; (80023d8 <statehandler_gamesave+0x8>)
 80023d4:	701a      	strb	r2, [r3, #0]
}
 80023d6:	4770      	bx	lr
 80023d8:	200009db 	.word	0x200009db

080023dc <magaz_buybomb>:

//------------------magazin buygoods functions----------------------
void magaz_buybomb(void)
{
  if(Gamer.money >= BOMB_MONEY_COST && Gamer.bombs < 99){
 80023dc:	4b07      	ldr	r3, [pc, #28]	; (80023fc <magaz_buybomb+0x20>)
 80023de:	6899      	ldr	r1, [r3, #8]
 80023e0:	2904      	cmp	r1, #4
 80023e2:	d906      	bls.n	80023f2 <magaz_buybomb+0x16>
 80023e4:	791a      	ldrb	r2, [r3, #4]
 80023e6:	2a62      	cmp	r2, #98	; 0x62
    Gamer.money -= BOMB_MONEY_COST;
 80023e8:	bf9f      	itttt	ls
 80023ea:	3905      	subls	r1, #5
    Gamer.bombs++;
 80023ec:	3201      	addls	r2, #1
    Gamer.money -= BOMB_MONEY_COST;
 80023ee:	6099      	strls	r1, [r3, #8]
    Gamer.bombs++;
 80023f0:	711a      	strbls	r2, [r3, #4]
  }
  gameevent = EVENT_NONE;
 80023f2:	2200      	movs	r2, #0
 80023f4:	4b02      	ldr	r3, [pc, #8]	; (8002400 <magaz_buybomb+0x24>)
 80023f6:	701a      	strb	r2, [r3, #0]
}
 80023f8:	4770      	bx	lr
 80023fa:	bf00      	nop
 80023fc:	2000098c 	.word	0x2000098c
 8002400:	200009db 	.word	0x200009db

08002404 <magaz_buygasmask>:
void magaz_buygasmask(void)
{
  if(Gamer.money >= GASMASK_MONEY_COST && Gamer.gasmask_health <= 0){
 8002404:	4b07      	ldr	r3, [pc, #28]	; (8002424 <magaz_buygasmask+0x20>)
 8002406:	689a      	ldr	r2, [r3, #8]
 8002408:	2a0e      	cmp	r2, #14
 800240a:	d907      	bls.n	800241c <magaz_buygasmask+0x18>
 800240c:	f993 1003 	ldrsb.w	r1, [r3, #3]
 8002410:	2900      	cmp	r1, #0
    Gamer.money -= GASMASK_MONEY_COST;
 8002412:	bfdf      	itttt	le
 8002414:	3a0f      	suble	r2, #15
 8002416:	609a      	strle	r2, [r3, #8]
    Gamer.gasmask_health = 12;
 8002418:	220c      	movle	r2, #12
 800241a:	70da      	strble	r2, [r3, #3]
  }
  gameevent = EVENT_NONE;
 800241c:	2200      	movs	r2, #0
 800241e:	4b02      	ldr	r3, [pc, #8]	; (8002428 <magaz_buygasmask+0x24>)
 8002420:	701a      	strb	r2, [r3, #0]
}
 8002422:	4770      	bx	lr
 8002424:	2000098c 	.word	0x2000098c
 8002428:	200009db 	.word	0x200009db

0800242c <magaz_buyenergy>:
void magaz_buyenergy(void)
{
  if(Gamer.money >= BATTERY_MONEY_COST && Gamer.energymax < GAMER_ENERGY_MAX){
 800242c:	4a0b      	ldr	r2, [pc, #44]	; (800245c <magaz_buyenergy+0x30>)
 800242e:	6891      	ldr	r1, [r2, #8]
 8002430:	2931      	cmp	r1, #49	; 0x31
 8002432:	d90f      	bls.n	8002454 <magaz_buyenergy+0x28>
 8002434:	f992 3002 	ldrsb.w	r3, [r2, #2]
 8002438:	2b17      	cmp	r3, #23
 800243a:	dc0b      	bgt.n	8002454 <magaz_buyenergy+0x28>
    Gamer.money -= BATTERY_MONEY_COST;
    Gamer.energymax += BATTERY_ENERGY_BUST;
 800243c:	3304      	adds	r3, #4
 800243e:	b25b      	sxtb	r3, r3
    Gamer.energy = Gamer.energymax;
    if(Gamer.energymax > GAMER_ENERGY_MAX) Gamer.energymax = GAMER_ENERGY_MAX;
 8002440:	2b18      	cmp	r3, #24
    Gamer.energymax += BATTERY_ENERGY_BUST;
 8002442:	7093      	strb	r3, [r2, #2]
    Gamer.energy = Gamer.energymax;
 8002444:	7053      	strb	r3, [r2, #1]
    if(Gamer.energymax > GAMER_ENERGY_MAX) Gamer.energymax = GAMER_ENERGY_MAX;
 8002446:	bfc8      	it	gt
 8002448:	2318      	movgt	r3, #24
    Gamer.money -= BATTERY_MONEY_COST;
 800244a:	f1a1 0132 	sub.w	r1, r1, #50	; 0x32
 800244e:	6091      	str	r1, [r2, #8]
    if(Gamer.energymax > GAMER_ENERGY_MAX) Gamer.energymax = GAMER_ENERGY_MAX;
 8002450:	bfc8      	it	gt
 8002452:	7093      	strbgt	r3, [r2, #2]
  }
  gameevent = EVENT_NONE;
 8002454:	2200      	movs	r2, #0
 8002456:	4b02      	ldr	r3, [pc, #8]	; (8002460 <magaz_buyenergy+0x34>)
 8002458:	701a      	strb	r2, [r3, #0]
}
 800245a:	4770      	bx	lr
 800245c:	2000098c 	.word	0x2000098c
 8002460:	200009db 	.word	0x200009db

08002464 <magaz_buyhealth>:
void magaz_buyhealth(void)
{
  if(Gamer.money >= HEALTH_MONEY_COST && Gamer.health < GAMER_HEALTH_MAX){
 8002464:	4a09      	ldr	r2, [pc, #36]	; (800248c <magaz_buyhealth+0x28>)
 8002466:	6891      	ldr	r1, [r2, #8]
 8002468:	2904      	cmp	r1, #4
 800246a:	d90b      	bls.n	8002484 <magaz_buyhealth+0x20>
 800246c:	f992 3000 	ldrsb.w	r3, [r2]
 8002470:	2b17      	cmp	r3, #23
 8002472:	dc07      	bgt.n	8002484 <magaz_buyhealth+0x20>
    Gamer.money -= HEALTH_MONEY_COST;
    Gamer.health += HEALTH_REGEN; 
 8002474:	3304      	adds	r3, #4
 8002476:	b25b      	sxtb	r3, r3
    if(Gamer.health > GAMER_HEALTH_MAX) Gamer.health = GAMER_HEALTH_MAX;
 8002478:	2b18      	cmp	r3, #24
 800247a:	bfc8      	it	gt
 800247c:	2318      	movgt	r3, #24
    Gamer.money -= HEALTH_MONEY_COST;
 800247e:	3905      	subs	r1, #5
 8002480:	6091      	str	r1, [r2, #8]
    if(Gamer.health > GAMER_HEALTH_MAX) Gamer.health = GAMER_HEALTH_MAX;
 8002482:	7013      	strb	r3, [r2, #0]
  }
  gameevent = EVENT_NONE;
 8002484:	2200      	movs	r2, #0
 8002486:	4b02      	ldr	r3, [pc, #8]	; (8002490 <magaz_buyhealth+0x2c>)
 8002488:	701a      	strb	r2, [r3, #0]
}
 800248a:	4770      	bx	lr
 800248c:	2000098c 	.word	0x2000098c
 8002490:	200009db 	.word	0x200009db

08002494 <gamestatesprocess>:
  screenupdate();
}

void gamestatesprocess(void)
{
  gamestate_transition_table[gamestate][gameevent]();
 8002494:	210a      	movs	r1, #10
 8002496:	4b05      	ldr	r3, [pc, #20]	; (80024ac <gamestatesprocess+0x18>)
 8002498:	781a      	ldrb	r2, [r3, #0]
 800249a:	4b05      	ldr	r3, [pc, #20]	; (80024b0 <gamestatesprocess+0x1c>)
 800249c:	781b      	ldrb	r3, [r3, #0]
 800249e:	fb01 3302 	mla	r3, r1, r2, r3
 80024a2:	4a04      	ldr	r2, [pc, #16]	; (80024b4 <gamestatesprocess+0x20>)
 80024a4:	f852 3023 	ldr.w	r3, [r2, r3, lsl #2]
 80024a8:	4718      	bx	r3
 80024aa:	bf00      	nop
 80024ac:	200009dc 	.word	0x200009dc
 80024b0:	200009db 	.word	0x200009db
 80024b4:	08007cb0 	.word	0x08007cb0

080024b8 <createevilstar>:
  for(int i = 0; i < EVILSTAR_MAX; i++) {
 80024b8:	2300      	movs	r3, #0
void createevilstar(void) {
 80024ba:	b510      	push	{r4, lr}
    if (!EvilStar[i].state) {
 80024bc:	4c0a      	ldr	r4, [pc, #40]	; (80024e8 <createevilstar+0x30>)
 80024be:	f814 1023 	ldrb.w	r1, [r4, r3, lsl #2]
 80024c2:	b961      	cbnz	r1, 80024de <createevilstar+0x26>
      EvilStar[i].state = 1;
 80024c4:	2101      	movs	r1, #1
 80024c6:	f804 1023 	strb.w	r1, [r4, r3, lsl #2]
      EvilStar[i].cl = 127;
 80024ca:	eb04 0483 	add.w	r4, r4, r3, lsl #2
 80024ce:	237f      	movs	r3, #127	; 0x7f
      EvilStar[i].ln = (int8)getrand(40) + 8;
 80024d0:	2028      	movs	r0, #40	; 0x28
      EvilStar[i].cl = 127;
 80024d2:	70a3      	strb	r3, [r4, #2]
      EvilStar[i].ln = (int8)getrand(40) + 8;
 80024d4:	f7fd fe40 	bl	8000158 <getrand>
 80024d8:	3008      	adds	r0, #8
 80024da:	7060      	strb	r0, [r4, #1]
}
 80024dc:	bd10      	pop	{r4, pc}
  for(int i = 0; i < EVILSTAR_MAX; i++) {
 80024de:	3301      	adds	r3, #1
 80024e0:	2b0f      	cmp	r3, #15
 80024e2:	d1ec      	bne.n	80024be <createevilstar+0x6>
 80024e4:	e7fa      	b.n	80024dc <createevilstar+0x24>
 80024e6:	bf00      	nop
 80024e8:	20000943 	.word	0x20000943

080024ec <stateinit_gameexit>:
  CFlags.MenuFl = 1;
 80024ec:	4a04      	ldr	r2, [pc, #16]	; (8002500 <stateinit_gameexit+0x14>)
 80024ee:	7813      	ldrb	r3, [r2, #0]
 80024f0:	f023 0303 	bic.w	r3, r3, #3
 80024f4:	f043 0301 	orr.w	r3, r3, #1
 80024f8:	7013      	strb	r3, [r2, #0]
  SchedRemoveAllEvents();
 80024fa:	f7ff bd3d 	b.w	8001f78 <SchedRemoveAllEvents>
 80024fe:	bf00      	nop
 8002500:	20000000 	.word	0x20000000

08002504 <system_events_period50ms>:
  check_btn_jstk();
 8002504:	f7fe b91c 	b.w	8000740 <check_btn_jstk>

08002508 <createbullet>:
  IF_BTN_B2_PRESS(
 8002508:	4a15      	ldr	r2, [pc, #84]	; (8002560 <createbullet+0x58>)
void createbullet(void) {
 800250a:	b430      	push	{r4, r5}
  IF_BTN_B2_PRESS(
 800250c:	6913      	ldr	r3, [r2, #16]
 800250e:	f013 2fff 	tst.w	r3, #4278255360	; 0xff00ff00
 8002512:	d101      	bne.n	8002518 <createbullet+0x10>
 8002514:	7d13      	ldrb	r3, [r2, #20]
 8002516:	b30b      	cbz	r3, 800255c <createbullet+0x54>
 8002518:	2300      	movs	r3, #0
 800251a:	7453      	strb	r3, [r2, #17]
 800251c:	4a11      	ldr	r2, [pc, #68]	; (8002564 <createbullet+0x5c>)
 800251e:	f992 1000 	ldrsb.w	r1, [r2]
 8002522:	4299      	cmp	r1, r3
 8002524:	dd1a      	ble.n	800255c <createbullet+0x54>
 8002526:	f992 1001 	ldrsb.w	r1, [r2, #1]
 800252a:	2901      	cmp	r1, #1
 800252c:	dd16      	ble.n	800255c <createbullet+0x54>
 800252e:	480e      	ldr	r0, [pc, #56]	; (8002568 <createbullet+0x60>)
 8002530:	eb03 0443 	add.w	r4, r3, r3, lsl #1
 8002534:	5c25      	ldrb	r5, [r4, r0]
 8002536:	b975      	cbnz	r5, 8002556 <createbullet+0x4e>
 8002538:	2301      	movs	r3, #1
 800253a:	3902      	subs	r1, #2
 800253c:	5503      	strb	r3, [r0, r4]
 800253e:	7b13      	ldrb	r3, [r2, #12]
 8002540:	7051      	strb	r1, [r2, #1]
 8002542:	1901      	adds	r1, r0, r4
 8002544:	704b      	strb	r3, [r1, #1]
 8002546:	7b53      	ldrb	r3, [r2, #13]
 8002548:	f44f 70c8 	mov.w	r0, #400	; 0x190
 800254c:	3318      	adds	r3, #24
 800254e:	708b      	strb	r3, [r1, #2]
}
 8002550:	bc30      	pop	{r4, r5}
  IF_BTN_B2_PRESS(
 8002552:	f7fd bf77 	b.w	8000444 <Sounds>
 8002556:	3301      	adds	r3, #1
 8002558:	2b19      	cmp	r3, #25
 800255a:	d1e9      	bne.n	8002530 <createbullet+0x28>
}
 800255c:	bc30      	pop	{r4, r5}
 800255e:	4770      	bx	lr
 8002560:	200000e8 	.word	0x200000e8
 8002564:	2000098c 	.word	0x2000098c
 8002568:	200008bc 	.word	0x200008bc

0800256c <createbomb>:
  IF_BTN_B1_PRESS(
 800256c:	4a15      	ldr	r2, [pc, #84]	; (80025c4 <createbomb+0x58>)
void createbomb(void) {
 800256e:	b410      	push	{r4}
  IF_BTN_B1_PRESS(
 8002570:	6913      	ldr	r3, [r2, #16]
 8002572:	f013 2fff 	tst.w	r3, #4278255360	; 0xff00ff00
 8002576:	d101      	bne.n	800257c <createbomb+0x10>
 8002578:	7d13      	ldrb	r3, [r2, #20]
 800257a:	b303      	cbz	r3, 80025be <createbomb+0x52>
 800257c:	2300      	movs	r3, #0
 800257e:	4912      	ldr	r1, [pc, #72]	; (80025c8 <createbomb+0x5c>)
 8002580:	7453      	strb	r3, [r2, #17]
 8002582:	f991 2000 	ldrsb.w	r2, [r1]
 8002586:	429a      	cmp	r2, r3
 8002588:	dd19      	ble.n	80025be <createbomb+0x52>
 800258a:	7908      	ldrb	r0, [r1, #4]
 800258c:	b1b8      	cbz	r0, 80025be <createbomb+0x52>
 800258e:	4a0f      	ldr	r2, [pc, #60]	; (80025cc <createbomb+0x60>)
 8002590:	f812 4033 	ldrb.w	r4, [r2, r3, lsl #3]
 8002594:	b984      	cbnz	r4, 80025b8 <createbomb+0x4c>
 8002596:	3801      	subs	r0, #1
 8002598:	7108      	strb	r0, [r1, #4]
 800259a:	2001      	movs	r0, #1
 800259c:	f802 0033 	strb.w	r0, [r2, r3, lsl #3]
 80025a0:	eb02 03c3 	add.w	r3, r2, r3, lsl #3
 80025a4:	7b0a      	ldrb	r2, [r1, #12]
 80025a6:	f44f 707a 	mov.w	r0, #1000	; 0x3e8
 80025aa:	705a      	strb	r2, [r3, #1]
 80025ac:	7b4a      	ldrb	r2, [r1, #13]
 80025ae:	3218      	adds	r2, #24
 80025b0:	709a      	strb	r2, [r3, #2]
}
 80025b2:	bc10      	pop	{r4}
  IF_BTN_B1_PRESS(
 80025b4:	f7fd bf46 	b.w	8000444 <Sounds>
 80025b8:	3301      	adds	r3, #1
 80025ba:	2b0a      	cmp	r3, #10
 80025bc:	d1e8      	bne.n	8002590 <createbomb+0x24>
}
 80025be:	bc10      	pop	{r4}
 80025c0:	4770      	bx	lr
 80025c2:	bf00      	nop
 80025c4:	200000d0 	.word	0x200000d0
 80025c8:	2000098c 	.word	0x2000098c
 80025cc:	2000086c 	.word	0x2000086c

080025d0 <gameprogress>:
{
 80025d0:	b538      	push	{r3, r4, r5, lr}
  if(Gamer.health > 0)
 80025d2:	4b30      	ldr	r3, [pc, #192]	; (8002694 <gameprogress+0xc4>)
 80025d4:	f993 3000 	ldrsb.w	r3, [r3]
 80025d8:	2b00      	cmp	r3, #0
 80025da:	dd45      	ble.n	8002668 <gameprogress+0x98>
    if(counter == GAME_PROGRESS_PERIOD_CALLS)
 80025dc:	4c2e      	ldr	r4, [pc, #184]	; (8002698 <gameprogress+0xc8>)
 80025de:	4d2f      	ldr	r5, [pc, #188]	; (800269c <gameprogress+0xcc>)
 80025e0:	7823      	ldrb	r3, [r4, #0]
 80025e2:	2b14      	cmp	r3, #20
 80025e4:	d104      	bne.n	80025f0 <gameprogress+0x20>
      Game.level_progress++;
 80025e6:	786b      	ldrb	r3, [r5, #1]
 80025e8:	3301      	adds	r3, #1
 80025ea:	706b      	strb	r3, [r5, #1]
      counter = 0;
 80025ec:	2300      	movs	r3, #0
 80025ee:	7023      	strb	r3, [r4, #0]
    if((Game.level_progress % 45 == 0) && counter == 0 && Game.level_progress){
 80025f0:	212d      	movs	r1, #45	; 0x2d
 80025f2:	786a      	ldrb	r2, [r5, #1]
 80025f4:	fbb2 f3f1 	udiv	r3, r2, r1
 80025f8:	fb01 2313 	mls	r3, r1, r3, r2
 80025fc:	7821      	ldrb	r1, [r4, #0]
 80025fe:	430b      	orrs	r3, r1
 8002600:	b2db      	uxtb	r3, r3
 8002602:	b95b      	cbnz	r3, 800261c <gameprogress+0x4c>
 8002604:	b152      	cbz	r2, 800261c <gameprogress+0x4c>
      MinMagaz.state = 1;
 8002606:	2201      	movs	r2, #1
 8002608:	4b25      	ldr	r3, [pc, #148]	; (80026a0 <gameprogress+0xd0>)
      SchedPauseEvent(createevilstar);
 800260a:	4826      	ldr	r0, [pc, #152]	; (80026a4 <gameprogress+0xd4>)
      MinMagaz.state = 1;
 800260c:	701a      	strb	r2, [r3, #0]
      MinMagaz.cl = 127;
 800260e:	227f      	movs	r2, #127	; 0x7f
 8002610:	709a      	strb	r2, [r3, #2]
      SchedPauseEvent(createevilstar);
 8002612:	f7ff fd07 	bl	8002024 <SchedPauseEvent>
      SchedPauseEvent(gameprogress);
 8002616:	4824      	ldr	r0, [pc, #144]	; (80026a8 <gameprogress+0xd8>)
 8002618:	f7ff fd04 	bl	8002024 <SchedPauseEvent>
    if(Game.level_progress >= 50 && Game.level_progress < 100){
 800261c:	786b      	ldrb	r3, [r5, #1]
 800261e:	f1a3 0232 	sub.w	r2, r3, #50	; 0x32
 8002622:	2a31      	cmp	r2, #49	; 0x31
 8002624:	d812      	bhi.n	800264c <gameprogress+0x7c>
      PRD_EVILSTAR_CREATE = 1200;
 8002626:	f44f 6196 	mov.w	r1, #1200	; 0x4b0
 800262a:	4a20      	ldr	r2, [pc, #128]	; (80026ac <gameprogress+0xdc>)
 800262c:	6011      	str	r1, [r2, #0]
      PRD_ENEMY_MOVE = 22;}
 800262e:	2116      	movs	r1, #22
 8002630:	4a1f      	ldr	r2, [pc, #124]	; (80026b0 <gameprogress+0xe0>)
 8002632:	7011      	strb	r1, [r2, #0]
    if(Game.level_progress >= 200 && Game.level_progress < 255){
 8002634:	f103 0238 	add.w	r2, r3, #56	; 0x38
 8002638:	b2d2      	uxtb	r2, r2
 800263a:	2a36      	cmp	r2, #54	; 0x36
 800263c:	d821      	bhi.n	8002682 <gameprogress+0xb2>
      PRD_EVILSTAR_CREATE = 600;
 800263e:	f44f 7216 	mov.w	r2, #600	; 0x258
 8002642:	4b1a      	ldr	r3, [pc, #104]	; (80026ac <gameprogress+0xdc>)
 8002644:	601a      	str	r2, [r3, #0]
      PRD_ENEMY_MOVE = 16;
 8002646:	2210      	movs	r2, #16
 8002648:	4b19      	ldr	r3, [pc, #100]	; (80026b0 <gameprogress+0xe0>)
 800264a:	e009      	b.n	8002660 <gameprogress+0x90>
    if(Game.level_progress >= 100 && Game.level_progress < 150){
 800264c:	f1a3 0264 	sub.w	r2, r3, #100	; 0x64
 8002650:	2a31      	cmp	r2, #49	; 0x31
 8002652:	d80a      	bhi.n	800266a <gameprogress+0x9a>
      PRD_EVILSTAR_CREATE = 1000;
 8002654:	f44f 727a 	mov.w	r2, #1000	; 0x3e8
 8002658:	4b14      	ldr	r3, [pc, #80]	; (80026ac <gameprogress+0xdc>)
 800265a:	601a      	str	r2, [r3, #0]
      PRD_ENEMY_MOVE = 20;}
 800265c:	2214      	movs	r2, #20
 800265e:	4b14      	ldr	r3, [pc, #80]	; (80026b0 <gameprogress+0xe0>)
      PRD_ENEMY_MOVE = 18;}
 8002660:	701a      	strb	r2, [r3, #0]
    counter++;
 8002662:	7823      	ldrb	r3, [r4, #0]
 8002664:	3301      	adds	r3, #1
 8002666:	7023      	strb	r3, [r4, #0]
}
 8002668:	bd38      	pop	{r3, r4, r5, pc}
    if(Game.level_progress >= 150 && Game.level_progress < 200){
 800266a:	f103 026a 	add.w	r2, r3, #106	; 0x6a
 800266e:	b2d2      	uxtb	r2, r2
 8002670:	2a31      	cmp	r2, #49	; 0x31
 8002672:	d8df      	bhi.n	8002634 <gameprogress+0x64>
      PRD_EVILSTAR_CREATE = 800;
 8002674:	f44f 7248 	mov.w	r2, #800	; 0x320
 8002678:	4b0c      	ldr	r3, [pc, #48]	; (80026ac <gameprogress+0xdc>)
 800267a:	601a      	str	r2, [r3, #0]
      PRD_ENEMY_MOVE = 18;}
 800267c:	2212      	movs	r2, #18
 800267e:	4b0c      	ldr	r3, [pc, #48]	; (80026b0 <gameprogress+0xe0>)
 8002680:	e7ee      	b.n	8002660 <gameprogress+0x90>
    if(Game.level_progress == 255){
 8002682:	2bff      	cmp	r3, #255	; 0xff
      GameFlags.WinTheGame = 1;
 8002684:	bf01      	itttt	eq
 8002686:	4a0b      	ldreq	r2, [pc, #44]	; (80026b4 <gameprogress+0xe4>)
 8002688:	7813      	ldrbeq	r3, [r2, #0]
 800268a:	f043 0310 	orreq.w	r3, r3, #16
 800268e:	7013      	strbeq	r3, [r2, #0]
 8002690:	e7e7      	b.n	8002662 <gameprogress+0x92>
 8002692:	bf00      	nop
 8002694:	2000098c 	.word	0x2000098c
 8002698:	200009d9 	.word	0x200009d9
 800269c:	20000980 	.word	0x20000980
 80026a0:	2000000c 	.word	0x2000000c
 80026a4:	080024b9 	.word	0x080024b9
 80026a8:	080025d1 	.word	0x080025d1
 80026ac:	20000014 	.word	0x20000014
 80026b0:	2000000f 	.word	0x2000000f
 80026b4:	20000988 	.word	0x20000988

080026b8 <createcoin>:
  for(int i = 0; i < COIN_MAX; i++) {
 80026b8:	2200      	movs	r2, #0
    if (!Coin[i].state) {
 80026ba:	4b0a      	ldr	r3, [pc, #40]	; (80026e4 <createcoin+0x2c>)
 80026bc:	f813 1022 	ldrb.w	r1, [r3, r2, lsl #2]
 80026c0:	b959      	cbnz	r1, 80026da <createcoin+0x22>
      Coin[i].state = 1;
 80026c2:	2101      	movs	r1, #1
 80026c4:	f803 1022 	strb.w	r1, [r3, r2, lsl #2]
      Coin[i].cl = Evil_Star->cl;
 80026c8:	eb03 0382 	add.w	r3, r3, r2, lsl #2
 80026cc:	7882      	ldrb	r2, [r0, #2]
 80026ce:	709a      	strb	r2, [r3, #2]
      Coin[i].ln = Evil_Star->ln;
 80026d0:	7842      	ldrb	r2, [r0, #1]
 80026d2:	705a      	strb	r2, [r3, #1]
      Coin[i].animation_count = COIN_ANIMATION_PERIOD;
 80026d4:	220a      	movs	r2, #10
 80026d6:	70da      	strb	r2, [r3, #3]
      return;
 80026d8:	4770      	bx	lr
  for(int i = 0; i < COIN_MAX; i++) {
 80026da:	3201      	adds	r2, #1
 80026dc:	2a0f      	cmp	r2, #15
 80026de:	d1ed      	bne.n	80026bc <createcoin+0x4>
}
 80026e0:	4770      	bx	lr
 80026e2:	bf00      	nop
 80026e4:	20000907 	.word	0x20000907

080026e8 <movgamer>:
  if(Gamer.health > 0)
 80026e8:	4b40      	ldr	r3, [pc, #256]	; (80027ec <movgamer+0x104>)
 80026ea:	f993 2000 	ldrsb.w	r2, [r3]
 80026ee:	2a00      	cmp	r2, #0
 80026f0:	dd52      	ble.n	8002798 <movgamer+0xb0>
    if (joystick.oy > 140 && joystick.oy <= 210){Gamer.ln -= 1; if(Gamer.ln < 8) Gamer.ln = 8;}
 80026f2:	483f      	ldr	r0, [pc, #252]	; (80027f0 <movgamer+0x108>)
 80026f4:	7882      	ldrb	r2, [r0, #2]
 80026f6:	f102 0173 	add.w	r1, r2, #115	; 0x73
 80026fa:	b2c9      	uxtb	r1, r1
 80026fc:	2945      	cmp	r1, #69	; 0x45
 80026fe:	d80f      	bhi.n	8002720 <movgamer+0x38>
 8002700:	7b19      	ldrb	r1, [r3, #12]
 8002702:	3901      	subs	r1, #1
 8002704:	b249      	sxtb	r1, r1
 8002706:	2907      	cmp	r1, #7
 8002708:	dc00      	bgt.n	800270c <movgamer+0x24>
    if (joystick.oy > 210 && joystick.oy <= 250){Gamer.ln -= 2;if(Gamer.ln < 8) Gamer.ln = 8;}
 800270a:	2108      	movs	r1, #8
    if (joystick.oy > 140 && joystick.oy <= 210){Gamer.ln -= 1; if(Gamer.ln < 8) Gamer.ln = 8;}
 800270c:	7319      	strb	r1, [r3, #12]
    if (joystick.oy < 50 && joystick.oy >= 10){Gamer.ln += 2; if(Gamer.ln > 48)Gamer.ln = 48;}
 800270e:	f1a2 010a 	sub.w	r1, r2, #10
 8002712:	2927      	cmp	r1, #39	; 0x27
 8002714:	d92e      	bls.n	8002774 <movgamer+0x8c>
    if (joystick.oy < 10){Gamer.ln += 5; if(Gamer.ln > 48)Gamer.ln = 48;}
 8002716:	2a09      	cmp	r2, #9
 8002718:	d80d      	bhi.n	8002736 <movgamer+0x4e>
 800271a:	7b1a      	ldrb	r2, [r3, #12]
 800271c:	3205      	adds	r2, #5
 800271e:	e02b      	b.n	8002778 <movgamer+0x90>
    if (joystick.oy > 210 && joystick.oy <= 250){Gamer.ln -= 2;if(Gamer.ln < 8) Gamer.ln = 8;}
 8002720:	f102 012d 	add.w	r1, r2, #45	; 0x2d
 8002724:	b2c9      	uxtb	r1, r1
 8002726:	2927      	cmp	r1, #39	; 0x27
 8002728:	d81f      	bhi.n	800276a <movgamer+0x82>
 800272a:	7b19      	ldrb	r1, [r3, #12]
 800272c:	3902      	subs	r1, #2
 800272e:	b249      	sxtb	r1, r1
 8002730:	2907      	cmp	r1, #7
 8002732:	7319      	strb	r1, [r3, #12]
 8002734:	dde9      	ble.n	800270a <movgamer+0x22>
    if (joystick.ox > 140 && joystick.ox <= 210){Gamer.cl += 1; if(Gamer.cl > 94)Gamer.cl = 94;}
 8002736:	7842      	ldrb	r2, [r0, #1]
 8002738:	f102 0173 	add.w	r1, r2, #115	; 0x73
 800273c:	b2c9      	uxtb	r1, r1
 800273e:	2945      	cmp	r1, #69	; 0x45
 8002740:	d81f      	bhi.n	8002782 <movgamer+0x9a>
 8002742:	7b59      	ldrb	r1, [r3, #13]
 8002744:	3101      	adds	r1, #1
 8002746:	b249      	sxtb	r1, r1
 8002748:	295e      	cmp	r1, #94	; 0x5e
 800274a:	dd00      	ble.n	800274e <movgamer+0x66>
    if (joystick.ox > 210 && joystick.ox <= 250){Gamer.cl += 2; if(Gamer.cl > 94)Gamer.cl = 94;}
 800274c:	215e      	movs	r1, #94	; 0x5e
    if (joystick.ox > 140 && joystick.ox <= 210){Gamer.cl += 1; if(Gamer.cl > 94)Gamer.cl = 94;}
 800274e:	7359      	strb	r1, [r3, #13]
    if (joystick.ox < 50 && joystick.ox >= 10){Gamer.cl -= 2; if(Gamer.cl < -8) Gamer.cl = -8;}
 8002750:	f1a2 010a 	sub.w	r1, r2, #10
 8002754:	2927      	cmp	r1, #39	; 0x27
 8002756:	d929      	bls.n	80027ac <movgamer+0xc4>
    if (joystick.ox < 10){Gamer.cl -= 5; if(Gamer.cl < -8)Gamer.cl = -8;}
 8002758:	2a09      	cmp	r2, #9
 800275a:	d81d      	bhi.n	8002798 <movgamer+0xb0>
 800275c:	7b5a      	ldrb	r2, [r3, #13]
 800275e:	3a05      	subs	r2, #5
 8002760:	b252      	sxtb	r2, r2
 8002762:	735a      	strb	r2, [r3, #13]
 8002764:	3208      	adds	r2, #8
 8002766:	db32      	blt.n	80027ce <movgamer+0xe6>
 8002768:	4770      	bx	lr
    if (joystick.oy > 250){Gamer.ln -= 5; if(Gamer.ln < 8)Gamer.ln = 8;}
 800276a:	2afa      	cmp	r2, #250	; 0xfa
 800276c:	d932      	bls.n	80027d4 <movgamer+0xec>
 800276e:	7b19      	ldrb	r1, [r3, #12]
 8002770:	3905      	subs	r1, #5
 8002772:	e7dc      	b.n	800272e <movgamer+0x46>
    if (joystick.oy < 50 && joystick.oy >= 10){Gamer.ln += 2; if(Gamer.ln > 48)Gamer.ln = 48;}
 8002774:	7b1a      	ldrb	r2, [r3, #12]
 8002776:	3202      	adds	r2, #2
 8002778:	b252      	sxtb	r2, r2
 800277a:	2a30      	cmp	r2, #48	; 0x30
 800277c:	731a      	strb	r2, [r3, #12]
 800277e:	ddda      	ble.n	8002736 <movgamer+0x4e>
 8002780:	e031      	b.n	80027e6 <movgamer+0xfe>
    if (joystick.ox > 210 && joystick.ox <= 250){Gamer.cl += 2; if(Gamer.cl > 94)Gamer.cl = 94;}
 8002782:	f102 012d 	add.w	r1, r2, #45	; 0x2d
 8002786:	b2c9      	uxtb	r1, r1
 8002788:	2927      	cmp	r1, #39	; 0x27
 800278a:	d806      	bhi.n	800279a <movgamer+0xb2>
 800278c:	7b59      	ldrb	r1, [r3, #13]
 800278e:	3102      	adds	r1, #2
 8002790:	b249      	sxtb	r1, r1
 8002792:	295e      	cmp	r1, #94	; 0x5e
 8002794:	7359      	strb	r1, [r3, #13]
 8002796:	dcd9      	bgt.n	800274c <movgamer+0x64>
}
 8002798:	4770      	bx	lr
    if (joystick.ox > 250){Gamer.cl += 5; if(Gamer.cl > 94)Gamer.cl = 94;}
 800279a:	2afa      	cmp	r2, #250	; 0xfa
 800279c:	d90d      	bls.n	80027ba <movgamer+0xd2>
 800279e:	7b59      	ldrb	r1, [r3, #13]
 80027a0:	3105      	adds	r1, #5
 80027a2:	b249      	sxtb	r1, r1
 80027a4:	295e      	cmp	r1, #94	; 0x5e
 80027a6:	7359      	strb	r1, [r3, #13]
 80027a8:	dcd0      	bgt.n	800274c <movgamer+0x64>
 80027aa:	4770      	bx	lr
    if (joystick.ox < 50 && joystick.ox >= 10){Gamer.cl -= 2; if(Gamer.cl < -8) Gamer.cl = -8;}
 80027ac:	7b5a      	ldrb	r2, [r3, #13]
 80027ae:	3a02      	subs	r2, #2
 80027b0:	b252      	sxtb	r2, r2
 80027b2:	735a      	strb	r2, [r3, #13]
 80027b4:	3208      	adds	r2, #8
 80027b6:	daef      	bge.n	8002798 <movgamer+0xb0>
 80027b8:	e009      	b.n	80027ce <movgamer+0xe6>
    if (joystick.ox < 120 && joystick.ox >= 50){Gamer.cl -= 1; if(Gamer.cl < -8)Gamer.cl = -8;}
 80027ba:	f1a2 0132 	sub.w	r1, r2, #50	; 0x32
 80027be:	2945      	cmp	r1, #69	; 0x45
 80027c0:	d8c6      	bhi.n	8002750 <movgamer+0x68>
 80027c2:	7b5a      	ldrb	r2, [r3, #13]
 80027c4:	3a01      	subs	r2, #1
 80027c6:	b252      	sxtb	r2, r2
 80027c8:	f112 0f08 	cmn.w	r2, #8
 80027cc:	da00      	bge.n	80027d0 <movgamer+0xe8>
    if (joystick.ox < 50 && joystick.ox >= 10){Gamer.cl -= 2; if(Gamer.cl < -8) Gamer.cl = -8;}
 80027ce:	22f8      	movs	r2, #248	; 0xf8
    if (joystick.ox < 120 && joystick.ox >= 50){Gamer.cl -= 1; if(Gamer.cl < -8)Gamer.cl = -8;}
 80027d0:	735a      	strb	r2, [r3, #13]
    if (joystick.ox < 50 && joystick.ox >= 10){Gamer.cl -= 2; if(Gamer.cl < -8) Gamer.cl = -8;}
 80027d2:	4770      	bx	lr
    if (joystick.oy < 120 && joystick.oy >= 50){Gamer.ln += 1; if(Gamer.ln > 48)Gamer.ln = 48;}
 80027d4:	f1a2 0132 	sub.w	r1, r2, #50	; 0x32
 80027d8:	2945      	cmp	r1, #69	; 0x45
 80027da:	d898      	bhi.n	800270e <movgamer+0x26>
 80027dc:	7b1a      	ldrb	r2, [r3, #12]
 80027de:	3201      	adds	r2, #1
 80027e0:	b252      	sxtb	r2, r2
 80027e2:	2a30      	cmp	r2, #48	; 0x30
 80027e4:	dd00      	ble.n	80027e8 <movgamer+0x100>
    if (joystick.oy < 50 && joystick.oy >= 10){Gamer.ln += 2; if(Gamer.ln > 48)Gamer.ln = 48;}
 80027e6:	2230      	movs	r2, #48	; 0x30
    if (joystick.oy < 120 && joystick.oy >= 50){Gamer.ln += 1; if(Gamer.ln > 48)Gamer.ln = 48;}
 80027e8:	731a      	strb	r2, [r3, #12]
    if (joystick.oy < 50 && joystick.oy >= 10){Gamer.ln += 2; if(Gamer.ln > 48)Gamer.ln = 48;}
 80027ea:	e7a4      	b.n	8002736 <movgamer+0x4e>
 80027ec:	2000098c 	.word	0x2000098c
 80027f0:	20000133 	.word	0x20000133

080027f4 <movevilstar>:
      if(GameFlags.WinTheGame) EvilStar[i].state = 2; 
 80027f4:	2100      	movs	r1, #0
void movevilstar(void) {
 80027f6:	b530      	push	{r4, r5, lr}
      if(GameFlags.WinTheGame) EvilStar[i].state = 2; 
 80027f8:	2402      	movs	r4, #2
      if ((EvilStar[i].cl < -29)) EvilStar[i].state = 0;
 80027fa:	460d      	mov	r5, r1
      if(GameFlags.WinTheGame) EvilStar[i].state = 2; 
 80027fc:	4b0b      	ldr	r3, [pc, #44]	; (800282c <movevilstar+0x38>)
 80027fe:	7818      	ldrb	r0, [r3, #0]
 8002800:	4b0b      	ldr	r3, [pc, #44]	; (8002830 <movevilstar+0x3c>)
 8002802:	f000 0010 	and.w	r0, r0, #16
    if (EvilStar[i].state == 1) {
 8002806:	781a      	ldrb	r2, [r3, #0]
 8002808:	2a01      	cmp	r2, #1
 800280a:	d108      	bne.n	800281e <movevilstar+0x2a>
      EvilStar[i].cl--;
 800280c:	789a      	ldrb	r2, [r3, #2]
 800280e:	3a01      	subs	r2, #1
 8002810:	b252      	sxtb	r2, r2
 8002812:	709a      	strb	r2, [r3, #2]
      if ((EvilStar[i].cl < -29)) EvilStar[i].state = 0;
 8002814:	321d      	adds	r2, #29
 8002816:	bfb8      	it	lt
 8002818:	701d      	strblt	r5, [r3, #0]
      if(GameFlags.WinTheGame) EvilStar[i].state = 2; 
 800281a:	b100      	cbz	r0, 800281e <movevilstar+0x2a>
 800281c:	701c      	strb	r4, [r3, #0]
  for (uint8 i = 0; i < EVILSTAR_MAX; i++) {
 800281e:	3101      	adds	r1, #1
 8002820:	290f      	cmp	r1, #15
 8002822:	f103 0304 	add.w	r3, r3, #4
 8002826:	d1ee      	bne.n	8002806 <movevilstar+0x12>
}
 8002828:	bd30      	pop	{r4, r5, pc}
 800282a:	bf00      	nop
 800282c:	20000988 	.word	0x20000988
 8002830:	20000943 	.word	0x20000943

08002834 <movbomb>:
void movbomb(void) {
 8002834:	b570      	push	{r4, r5, r6, lr}
  for(int i = 0; i < BOMB_MAX; i++) {
 8002836:	2500      	movs	r5, #0
        Bomb[i].state = 2;
 8002838:	2602      	movs	r6, #2
 800283a:	4c0d      	ldr	r4, [pc, #52]	; (8002870 <movbomb+0x3c>)
    if (Bomb[i].state == 1){
 800283c:	7823      	ldrb	r3, [r4, #0]
 800283e:	2b01      	cmp	r3, #1
 8002840:	d10f      	bne.n	8002862 <movbomb+0x2e>
      Bomb[i].cl += BOMB_MOVE_SPEED;
 8002842:	78a3      	ldrb	r3, [r4, #2]
 8002844:	1dda      	adds	r2, r3, #7
 8002846:	b252      	sxtb	r2, r2
      if (Bomb[i].cl > 105) {
 8002848:	2a69      	cmp	r2, #105	; 0x69
      Bomb[i].cl += BOMB_MOVE_SPEED;
 800284a:	70a2      	strb	r2, [r4, #2]
      if (Bomb[i].cl > 105) {
 800284c:	dd09      	ble.n	8002862 <movbomb+0x2e>
        Bomb[i].cl -= 16;
 800284e:	3b09      	subs	r3, #9
 8002850:	70a3      	strb	r3, [r4, #2]
        Bomb[i].ln -= 16;
 8002852:	7863      	ldrb	r3, [r4, #1]
        Sounds(1200);
 8002854:	f44f 6096 	mov.w	r0, #1200	; 0x4b0
        Bomb[i].ln -= 16;
 8002858:	3b10      	subs	r3, #16
        Bomb[i].state = 2;
 800285a:	7026      	strb	r6, [r4, #0]
        Bomb[i].ln -= 16;
 800285c:	7063      	strb	r3, [r4, #1]
        Sounds(1200);
 800285e:	f7fd fdf1 	bl	8000444 <Sounds>
  for(int i = 0; i < BOMB_MAX; i++) {
 8002862:	3501      	adds	r5, #1
 8002864:	2d0a      	cmp	r5, #10
 8002866:	f104 0408 	add.w	r4, r4, #8
 800286a:	d1e7      	bne.n	800283c <movbomb+0x8>
}
 800286c:	bd70      	pop	{r4, r5, r6, pc}
 800286e:	bf00      	nop
 8002870:	2000086c 	.word	0x2000086c

08002874 <movcoin>:
void movcoin(void) {
 8002874:	2100      	movs	r1, #0
      if (Coin[i].cl < -9) Coin[i].state = 0;
 8002876:	4608      	mov	r0, r1
 8002878:	4b08      	ldr	r3, [pc, #32]	; (800289c <movcoin+0x28>)
    if (Coin[i].state == 1) {
 800287a:	781a      	ldrb	r2, [r3, #0]
 800287c:	2a01      	cmp	r2, #1
 800287e:	d106      	bne.n	800288e <movcoin+0x1a>
      Coin[i].cl -= 1;
 8002880:	789a      	ldrb	r2, [r3, #2]
 8002882:	3a01      	subs	r2, #1
 8002884:	b252      	sxtb	r2, r2
 8002886:	709a      	strb	r2, [r3, #2]
      if (Coin[i].cl < -9) Coin[i].state = 0;
 8002888:	3209      	adds	r2, #9
 800288a:	bfb8      	it	lt
 800288c:	7018      	strblt	r0, [r3, #0]
  for (uint8 i = 0; i < COIN_MAX; i++) {
 800288e:	3101      	adds	r1, #1
 8002890:	290f      	cmp	r1, #15
 8002892:	f103 0304 	add.w	r3, r3, #4
 8002896:	d1f0      	bne.n	800287a <movcoin+0x6>
}
 8002898:	4770      	bx	lr
 800289a:	bf00      	nop
 800289c:	20000907 	.word	0x20000907

080028a0 <move_enemy_objects>:
void move_enemy_objects(void) {
 80028a0:	b508      	push	{r3, lr}
  movevilstar();
 80028a2:	f7ff ffa7 	bl	80027f4 <movevilstar>
}
 80028a6:	e8bd 4008 	ldmia.w	sp!, {r3, lr}
  movcoin();
 80028aa:	f7ff bfe3 	b.w	8002874 <movcoin>
	...

080028b0 <movminmagaz>:
void movminmagaz(uint8 period){
 80028b0:	b508      	push	{r3, lr}
  if(MinMagaz.state){
 80028b2:	4a0e      	ldr	r2, [pc, #56]	; (80028ec <movminmagaz+0x3c>)
 80028b4:	7813      	ldrb	r3, [r2, #0]
 80028b6:	b133      	cbz	r3, 80028c6 <movminmagaz+0x16>
    if(++prd == period)
 80028b8:	490d      	ldr	r1, [pc, #52]	; (80028f0 <movminmagaz+0x40>)
 80028ba:	780b      	ldrb	r3, [r1, #0]
 80028bc:	3301      	adds	r3, #1
 80028be:	b2db      	uxtb	r3, r3
 80028c0:	4283      	cmp	r3, r0
 80028c2:	d001      	beq.n	80028c8 <movminmagaz+0x18>
 80028c4:	700b      	strb	r3, [r1, #0]
}
 80028c6:	bd08      	pop	{r3, pc}
      prd = 0;
 80028c8:	2000      	movs	r0, #0
      MinMagaz.cl -= 6;
 80028ca:	7893      	ldrb	r3, [r2, #2]
      prd = 0;
 80028cc:	7008      	strb	r0, [r1, #0]
      MinMagaz.cl -= 6;
 80028ce:	3b06      	subs	r3, #6
 80028d0:	b25b      	sxtb	r3, r3
      if(MinMagaz.cl < 4) {
 80028d2:	2b03      	cmp	r3, #3
      MinMagaz.cl -= 6;
 80028d4:	7093      	strb	r3, [r2, #2]
      if(MinMagaz.cl < 4) {
 80028d6:	dcf6      	bgt.n	80028c6 <movminmagaz+0x16>
        MinMagaz.state = 0;
 80028d8:	7010      	strb	r0, [r2, #0]
        SchedResumeEvent(createevilstar);
 80028da:	4806      	ldr	r0, [pc, #24]	; (80028f4 <movminmagaz+0x44>)
 80028dc:	f7ff fbb8 	bl	8002050 <SchedResumeEvent>
}
 80028e0:	e8bd 4008 	ldmia.w	sp!, {r3, lr}
        SchedResumeEvent(gameprogress);
 80028e4:	4804      	ldr	r0, [pc, #16]	; (80028f8 <movminmagaz+0x48>)
 80028e6:	f7ff bbb3 	b.w	8002050 <SchedResumeEvent>
 80028ea:	bf00      	nop
 80028ec:	2000000c 	.word	0x2000000c
 80028f0:	200009df 	.word	0x200009df
 80028f4:	080024b9 	.word	0x080024b9
 80028f8:	080025d1 	.word	0x080025d1

080028fc <bullet_evilstar_collision>:
void bullet_evilstar_collision(void) {
 80028fc:	e92d 43f8 	stmdb	sp!, {r3, r4, r5, r6, r7, r8, r9, lr}
 8002900:	2619      	movs	r6, #25
        EvilStar[i].state = 2;
 8002902:	f04f 0802 	mov.w	r8, #2
        Bullet[j].state = 0;
 8002906:	f04f 0900 	mov.w	r9, #0
 800290a:	4d16      	ldr	r5, [pc, #88]	; (8002964 <bullet_evilstar_collision+0x68>)
void bullet_evilstar_collision(void) {
 800290c:	2700      	movs	r7, #0
 800290e:	4c16      	ldr	r4, [pc, #88]	; (8002968 <bullet_evilstar_collision+0x6c>)
      if ((EvilStar[i].cl <= Bullet[j].cl) && (EvilStar[i].ln < (Bullet[j].ln + 6)) &&
 8002910:	f994 2002 	ldrsb.w	r2, [r4, #2]
 8002914:	f995 3002 	ldrsb.w	r3, [r5, #2]
 8002918:	429a      	cmp	r2, r3
 800291a:	dc16      	bgt.n	800294a <bullet_evilstar_collision+0x4e>
 800291c:	f995 2001 	ldrsb.w	r2, [r5, #1]
 8002920:	f994 3001 	ldrsb.w	r3, [r4, #1]
 8002924:	1d51      	adds	r1, r2, #5
 8002926:	4299      	cmp	r1, r3
 8002928:	db0f      	blt.n	800294a <bullet_evilstar_collision+0x4e>
              ((EvilStar[i].ln + 10) > Bullet[j].ln) && EvilStar[i].state == 1 &&
 800292a:	3309      	adds	r3, #9
      if ((EvilStar[i].cl <= Bullet[j].cl) && (EvilStar[i].ln < (Bullet[j].ln + 6)) &&
 800292c:	429a      	cmp	r2, r3
 800292e:	dc0c      	bgt.n	800294a <bullet_evilstar_collision+0x4e>
              ((EvilStar[i].ln + 10) > Bullet[j].ln) && EvilStar[i].state == 1 &&
 8002930:	7823      	ldrb	r3, [r4, #0]
 8002932:	2b01      	cmp	r3, #1
 8002934:	d109      	bne.n	800294a <bullet_evilstar_collision+0x4e>
 8002936:	782b      	ldrb	r3, [r5, #0]
 8002938:	b13b      	cbz	r3, 800294a <bullet_evilstar_collision+0x4e>
        Sounds(500);
 800293a:	f44f 70fa 	mov.w	r0, #500	; 0x1f4
        EvilStar[i].state = 2;
 800293e:	f884 8000 	strb.w	r8, [r4]
        Bullet[j].state = 0;
 8002942:	f885 9000 	strb.w	r9, [r5]
        Sounds(500);
 8002946:	f7fd fd7d 	bl	8000444 <Sounds>
    for (uint8 i = 0; i < EVILSTAR_MAX; i++) {
 800294a:	3701      	adds	r7, #1
 800294c:	2f0f      	cmp	r7, #15
 800294e:	f104 0404 	add.w	r4, r4, #4
 8002952:	d1dd      	bne.n	8002910 <bullet_evilstar_collision+0x14>
  for (uint8 j = 0; j < BULLET_MAX; j++) {
 8002954:	3e01      	subs	r6, #1
 8002956:	f016 06ff 	ands.w	r6, r6, #255	; 0xff
 800295a:	f105 0503 	add.w	r5, r5, #3
 800295e:	d1d5      	bne.n	800290c <bullet_evilstar_collision+0x10>
}
 8002960:	e8bd 83f8 	ldmia.w	sp!, {r3, r4, r5, r6, r7, r8, r9, pc}
 8002964:	200008bc 	.word	0x200008bc
 8002968:	20000943 	.word	0x20000943

0800296c <bomb_evilstar_collision>:
void bomb_evilstar_collision(void) {
 800296c:	e92d 41f0 	stmdb	sp!, {r4, r5, r6, r7, r8, lr}
  for(int j = 0; j < BOMB_MAX; j++) {
 8002970:	2700      	movs	r7, #0
          Bomb[j].state = 2;
 8002972:	2602      	movs	r6, #2
 8002974:	4c30      	ldr	r4, [pc, #192]	; (8002a38 <bomb_evilstar_collision+0xcc>)
    if(Bomb[j].state == 1){
 8002976:	7823      	ldrb	r3, [r4, #0]
 8002978:	2b01      	cmp	r3, #1
 800297a:	d12a      	bne.n	80029d2 <bomb_evilstar_collision+0x66>
 800297c:	f04f 0800 	mov.w	r8, #0
 8002980:	4d2e      	ldr	r5, [pc, #184]	; (8002a3c <bomb_evilstar_collision+0xd0>)
        if(((EvilStar[i].cl + 27) >= Bomb[j].cl) && (EvilStar[i].cl <= (Bomb[j].cl + 7)) && (EvilStar[i].ln <= (Bomb[j].ln + 7)) &&
 8002982:	f995 3002 	ldrsb.w	r3, [r5, #2]
 8002986:	f994 2002 	ldrsb.w	r2, [r4, #2]
 800298a:	f103 011b 	add.w	r1, r3, #27
 800298e:	4291      	cmp	r1, r2
 8002990:	db18      	blt.n	80029c4 <bomb_evilstar_collision+0x58>
 8002992:	1dd1      	adds	r1, r2, #7
 8002994:	428b      	cmp	r3, r1
 8002996:	dc15      	bgt.n	80029c4 <bomb_evilstar_collision+0x58>
 8002998:	f994 3001 	ldrsb.w	r3, [r4, #1]
 800299c:	f995 1001 	ldrsb.w	r1, [r5, #1]
 80029a0:	1dd8      	adds	r0, r3, #7
 80029a2:	4281      	cmp	r1, r0
 80029a4:	dc0e      	bgt.n	80029c4 <bomb_evilstar_collision+0x58>
              ((EvilStar[i].ln + 15) > Bomb[j].ln) && EvilStar[i].state == 1){
 80029a6:	310e      	adds	r1, #14
        if(((EvilStar[i].cl + 27) >= Bomb[j].cl) && (EvilStar[i].cl <= (Bomb[j].cl + 7)) && (EvilStar[i].ln <= (Bomb[j].ln + 7)) &&
 80029a8:	428b      	cmp	r3, r1
 80029aa:	dc0b      	bgt.n	80029c4 <bomb_evilstar_collision+0x58>
              ((EvilStar[i].ln + 15) > Bomb[j].ln) && EvilStar[i].state == 1){
 80029ac:	7829      	ldrb	r1, [r5, #0]
 80029ae:	2901      	cmp	r1, #1
 80029b0:	d108      	bne.n	80029c4 <bomb_evilstar_collision+0x58>
          Bomb[j].cl -= 16;
 80029b2:	3a10      	subs	r2, #16
          Bomb[j].ln -= 16;
 80029b4:	3b10      	subs	r3, #16
          Sounds(1200);
 80029b6:	f44f 6096 	mov.w	r0, #1200	; 0x4b0
          Bomb[j].state = 2;
 80029ba:	7026      	strb	r6, [r4, #0]
          Bomb[j].cl -= 16;
 80029bc:	70a2      	strb	r2, [r4, #2]
          Bomb[j].ln -= 16;
 80029be:	7063      	strb	r3, [r4, #1]
          Sounds(1200);
 80029c0:	f7fd fd40 	bl	8000444 <Sounds>
      for (uint8 i = 0; i < EVILSTAR_MAX; i++) {
 80029c4:	f108 0801 	add.w	r8, r8, #1
 80029c8:	f1b8 0f0f 	cmp.w	r8, #15
 80029cc:	f105 0504 	add.w	r5, r5, #4
 80029d0:	d1d7      	bne.n	8002982 <bomb_evilstar_collision+0x16>
    if(Bomb[j].state > 1){
 80029d2:	7823      	ldrb	r3, [r4, #0]
 80029d4:	2b01      	cmp	r3, #1
 80029d6:	d927      	bls.n	8002a28 <bomb_evilstar_collision+0xbc>
 80029d8:	f04f 0800 	mov.w	r8, #0
 80029dc:	4d17      	ldr	r5, [pc, #92]	; (8002a3c <bomb_evilstar_collision+0xd0>)
        if (((EvilStar[i].cl + 27) >= Bomb[j].cl) && (EvilStar[i].cl <= (Bomb[j].cl + 50)) && (EvilStar[i].ln <= (Bomb[j].ln + 39)) &&
 80029de:	f995 2002 	ldrsb.w	r2, [r5, #2]
 80029e2:	f994 3002 	ldrsb.w	r3, [r4, #2]
 80029e6:	f102 011b 	add.w	r1, r2, #27
 80029ea:	4299      	cmp	r1, r3
 80029ec:	db15      	blt.n	8002a1a <bomb_evilstar_collision+0xae>
 80029ee:	3332      	adds	r3, #50	; 0x32
 80029f0:	429a      	cmp	r2, r3
 80029f2:	dc12      	bgt.n	8002a1a <bomb_evilstar_collision+0xae>
 80029f4:	f994 2001 	ldrsb.w	r2, [r4, #1]
 80029f8:	f995 3001 	ldrsb.w	r3, [r5, #1]
 80029fc:	f102 0127 	add.w	r1, r2, #39	; 0x27
 8002a00:	428b      	cmp	r3, r1
 8002a02:	dc0a      	bgt.n	8002a1a <bomb_evilstar_collision+0xae>
                ((EvilStar[i].ln + 15) > Bomb[j].ln) && EvilStar[i].state == 1) {
 8002a04:	330e      	adds	r3, #14
        if (((EvilStar[i].cl + 27) >= Bomb[j].cl) && (EvilStar[i].cl <= (Bomb[j].cl + 50)) && (EvilStar[i].ln <= (Bomb[j].ln + 39)) &&
 8002a06:	429a      	cmp	r2, r3
 8002a08:	dc07      	bgt.n	8002a1a <bomb_evilstar_collision+0xae>
                ((EvilStar[i].ln + 15) > Bomb[j].ln) && EvilStar[i].state == 1) {
 8002a0a:	782b      	ldrb	r3, [r5, #0]
 8002a0c:	2b01      	cmp	r3, #1
 8002a0e:	d104      	bne.n	8002a1a <bomb_evilstar_collision+0xae>
          Sounds(500);
 8002a10:	f44f 70fa 	mov.w	r0, #500	; 0x1f4
          EvilStar[i].state = 2;
 8002a14:	702e      	strb	r6, [r5, #0]
          Sounds(500);
 8002a16:	f7fd fd15 	bl	8000444 <Sounds>
      for (uint8 i = 0; i < EVILSTAR_MAX; i++) {
 8002a1a:	f108 0801 	add.w	r8, r8, #1
 8002a1e:	f1b8 0f0f 	cmp.w	r8, #15
 8002a22:	f105 0504 	add.w	r5, r5, #4
 8002a26:	d1da      	bne.n	80029de <bomb_evilstar_collision+0x72>
  for(int j = 0; j < BOMB_MAX; j++) {
 8002a28:	3701      	adds	r7, #1
 8002a2a:	2f0a      	cmp	r7, #10
 8002a2c:	f104 0408 	add.w	r4, r4, #8
 8002a30:	d1a1      	bne.n	8002976 <bomb_evilstar_collision+0xa>
}
 8002a32:	e8bd 81f0 	ldmia.w	sp!, {r4, r5, r6, r7, r8, pc}
 8002a36:	bf00      	nop
 8002a38:	2000086c 	.word	0x2000086c
 8002a3c:	20000943 	.word	0x20000943

08002a40 <gamer_evilstar_collision>:
void gamer_evilstar_collision(void) {
 8002a40:	b5f8      	push	{r3, r4, r5, r6, r7, lr}
 8002a42:	2600      	movs	r6, #0
      EvilStar[i].state = 2;
 8002a44:	2702      	movs	r7, #2
 8002a46:	4d1b      	ldr	r5, [pc, #108]	; (8002ab4 <gamer_evilstar_collision+0x74>)
    if ((EvilStar[i].cl <= (Gamer.cl + 29)) && ((EvilStar[i].cl + 25) >= Gamer.cl) &&
 8002a48:	4c1b      	ldr	r4, [pc, #108]	; (8002ab8 <gamer_evilstar_collision+0x78>)
 8002a4a:	f994 200d 	ldrsb.w	r2, [r4, #13]
 8002a4e:	f995 3002 	ldrsb.w	r3, [r5, #2]
 8002a52:	f102 011d 	add.w	r1, r2, #29
 8002a56:	428b      	cmp	r3, r1
 8002a58:	dc25      	bgt.n	8002aa6 <gamer_evilstar_collision+0x66>
 8002a5a:	3319      	adds	r3, #25
 8002a5c:	429a      	cmp	r2, r3
 8002a5e:	dc22      	bgt.n	8002aa6 <gamer_evilstar_collision+0x66>
            ((EvilStar[i].ln + 15) > Gamer.ln) && (EvilStar[i].ln < (Gamer.ln + 15)) &&
 8002a60:	f995 2001 	ldrsb.w	r2, [r5, #1]
 8002a64:	f994 300c 	ldrsb.w	r3, [r4, #12]
 8002a68:	f102 010e 	add.w	r1, r2, #14
    if ((EvilStar[i].cl <= (Gamer.cl + 29)) && ((EvilStar[i].cl + 25) >= Gamer.cl) &&
 8002a6c:	4299      	cmp	r1, r3
 8002a6e:	db1a      	blt.n	8002aa6 <gamer_evilstar_collision+0x66>
            ((EvilStar[i].ln + 15) > Gamer.ln) && (EvilStar[i].ln < (Gamer.ln + 15)) &&
 8002a70:	330e      	adds	r3, #14
 8002a72:	429a      	cmp	r2, r3
 8002a74:	dc17      	bgt.n	8002aa6 <gamer_evilstar_collision+0x66>
 8002a76:	782b      	ldrb	r3, [r5, #0]
 8002a78:	2b01      	cmp	r3, #1
 8002a7a:	d114      	bne.n	8002aa6 <gamer_evilstar_collision+0x66>
            (EvilStar[i].state == 1) && (Gamer.health > 0)) {
 8002a7c:	f994 3000 	ldrsb.w	r3, [r4]
 8002a80:	2b00      	cmp	r3, #0
 8002a82:	dd10      	ble.n	8002aa6 <gamer_evilstar_collision+0x66>
      if(Gamer.gasmask_health > 0){
 8002a84:	f994 2003 	ldrsb.w	r2, [r4, #3]
        Gamer.health -= 2;
 8002a88:	b2db      	uxtb	r3, r3
      if(Gamer.gasmask_health > 0){
 8002a8a:	2a00      	cmp	r2, #0
        Gamer.health -= 2;
 8002a8c:	bfc6      	itte	gt
 8002a8e:	3b02      	subgt	r3, #2
        Gamer.gasmask_health -= 2;
 8002a90:	3a02      	subgt	r2, #2
        Gamer.health -= 4;
 8002a92:	3b04      	suble	r3, #4
      Sounds(600);
 8002a94:	f44f 7016 	mov.w	r0, #600	; 0x258
      EvilStar[i].state = 2;
 8002a98:	702f      	strb	r7, [r5, #0]
        Gamer.health -= 2;
 8002a9a:	bfc6      	itte	gt
 8002a9c:	7023      	strbgt	r3, [r4, #0]
        Gamer.gasmask_health -= 2;
 8002a9e:	70e2      	strbgt	r2, [r4, #3]
        Gamer.health -= 4;
 8002aa0:	7023      	strble	r3, [r4, #0]
      Sounds(600);
 8002aa2:	f7fd fccf 	bl	8000444 <Sounds>
  for (uint8 i = 0; i < EVILSTAR_MAX; i++) {
 8002aa6:	3601      	adds	r6, #1
 8002aa8:	2e0f      	cmp	r6, #15
 8002aaa:	f105 0504 	add.w	r5, r5, #4
 8002aae:	d1cc      	bne.n	8002a4a <gamer_evilstar_collision+0xa>
}
 8002ab0:	bdf8      	pop	{r3, r4, r5, r6, r7, pc}
 8002ab2:	bf00      	nop
 8002ab4:	20000943 	.word	0x20000943
 8002ab8:	2000098c 	.word	0x2000098c

08002abc <gamer_coin_collision>:
void gamer_coin_collision(void) {
 8002abc:	b5f8      	push	{r3, r4, r5, r6, r7, lr}
 8002abe:	2600      	movs	r6, #0
      Coin[i].state = 0;
 8002ac0:	4637      	mov	r7, r6
 8002ac2:	4c16      	ldr	r4, [pc, #88]	; (8002b1c <gamer_coin_collision+0x60>)
    if ((Coin[i].cl <= (Gamer.cl + 29)) && ((Coin[i].cl + 8) >= Gamer.cl) &&
 8002ac4:	4d16      	ldr	r5, [pc, #88]	; (8002b20 <gamer_coin_collision+0x64>)
 8002ac6:	f995 200d 	ldrsb.w	r2, [r5, #13]
 8002aca:	f994 3002 	ldrsb.w	r3, [r4, #2]
 8002ace:	f102 011d 	add.w	r1, r2, #29
 8002ad2:	428b      	cmp	r3, r1
 8002ad4:	dc1b      	bgt.n	8002b0e <gamer_coin_collision+0x52>
 8002ad6:	3308      	adds	r3, #8
 8002ad8:	429a      	cmp	r2, r3
 8002ada:	dc18      	bgt.n	8002b0e <gamer_coin_collision+0x52>
            ((Coin[i].ln + 8) > Gamer.ln) && (Coin[i].ln < (Gamer.ln + 15)) &&
 8002adc:	f994 2001 	ldrsb.w	r2, [r4, #1]
 8002ae0:	f995 300c 	ldrsb.w	r3, [r5, #12]
 8002ae4:	1dd1      	adds	r1, r2, #7
    if ((Coin[i].cl <= (Gamer.cl + 29)) && ((Coin[i].cl + 8) >= Gamer.cl) &&
 8002ae6:	4299      	cmp	r1, r3
 8002ae8:	db11      	blt.n	8002b0e <gamer_coin_collision+0x52>
            ((Coin[i].ln + 8) > Gamer.ln) && (Coin[i].ln < (Gamer.ln + 15)) &&
 8002aea:	330e      	adds	r3, #14
 8002aec:	429a      	cmp	r2, r3
 8002aee:	dc0e      	bgt.n	8002b0e <gamer_coin_collision+0x52>
 8002af0:	7823      	ldrb	r3, [r4, #0]
 8002af2:	2b01      	cmp	r3, #1
 8002af4:	d10b      	bne.n	8002b0e <gamer_coin_collision+0x52>
            (Coin[i].state == 1) && (Gamer.health > 0)) {
 8002af6:	f995 3000 	ldrsb.w	r3, [r5]
 8002afa:	2b00      	cmp	r3, #0
 8002afc:	dd07      	ble.n	8002b0e <gamer_coin_collision+0x52>
      Gamer.money += 1;
 8002afe:	68ab      	ldr	r3, [r5, #8]
      Sounds(300);
 8002b00:	f44f 7096 	mov.w	r0, #300	; 0x12c
      Gamer.money += 1;
 8002b04:	3301      	adds	r3, #1
      Coin[i].state = 0;
 8002b06:	7027      	strb	r7, [r4, #0]
      Gamer.money += 1;
 8002b08:	60ab      	str	r3, [r5, #8]
      Sounds(300);
 8002b0a:	f7fd fc9b 	bl	8000444 <Sounds>
  for (uint8 i = 0; i < COIN_MAX; i++) {
 8002b0e:	3601      	adds	r6, #1
 8002b10:	2e0f      	cmp	r6, #15
 8002b12:	f104 0404 	add.w	r4, r4, #4
 8002b16:	d1d6      	bne.n	8002ac6 <gamer_coin_collision+0xa>
}
 8002b18:	bdf8      	pop	{r3, r4, r5, r6, r7, pc}
 8002b1a:	bf00      	nop
 8002b1c:	20000907 	.word	0x20000907
 8002b20:	2000098c 	.word	0x2000098c

08002b24 <gamer_minmagaz_collision>:
void gamer_minmagaz_collision(void) {
 8002b24:	b510      	push	{r4, lr}
  if(MinMagaz.state){
 8002b26:	4b12      	ldr	r3, [pc, #72]	; (8002b70 <gamer_minmagaz_collision+0x4c>)
 8002b28:	781a      	ldrb	r2, [r3, #0]
 8002b2a:	b1fa      	cbz	r2, 8002b6c <gamer_minmagaz_collision+0x48>
    if ((MinMagaz.cl <= (Gamer.cl + 29)) && ((MinMagaz.cl + 30) >= Gamer.cl) &&
 8002b2c:	4911      	ldr	r1, [pc, #68]	; (8002b74 <gamer_minmagaz_collision+0x50>)
 8002b2e:	f993 2002 	ldrsb.w	r2, [r3, #2]
 8002b32:	f991 000d 	ldrsb.w	r0, [r1, #13]
 8002b36:	f100 041d 	add.w	r4, r0, #29
 8002b3a:	42a2      	cmp	r2, r4
 8002b3c:	dc16      	bgt.n	8002b6c <gamer_minmagaz_collision+0x48>
 8002b3e:	321e      	adds	r2, #30
 8002b40:	4290      	cmp	r0, r2
 8002b42:	dc13      	bgt.n	8002b6c <gamer_minmagaz_collision+0x48>
            ((MinMagaz.ln + 28) > Gamer.ln) && (MinMagaz.ln < (Gamer.ln + 15)) &&
 8002b44:	f993 0001 	ldrsb.w	r0, [r3, #1]
 8002b48:	f991 200c 	ldrsb.w	r2, [r1, #12]
 8002b4c:	f100 041b 	add.w	r4, r0, #27
    if ((MinMagaz.cl <= (Gamer.cl + 29)) && ((MinMagaz.cl + 30) >= Gamer.cl) &&
 8002b50:	4294      	cmp	r4, r2
 8002b52:	db0b      	blt.n	8002b6c <gamer_minmagaz_collision+0x48>
            ((MinMagaz.ln + 28) > Gamer.ln) && (MinMagaz.ln < (Gamer.ln + 15)) &&
 8002b54:	320e      	adds	r2, #14
 8002b56:	4290      	cmp	r0, r2
 8002b58:	dc08      	bgt.n	8002b6c <gamer_minmagaz_collision+0x48>
 8002b5a:	f991 2000 	ldrsb.w	r2, [r1]
 8002b5e:	2a00      	cmp	r2, #0
 8002b60:	dd04      	ble.n	8002b6c <gamer_minmagaz_collision+0x48>
      MinMagaz.state = 0;
 8002b62:	2200      	movs	r2, #0
 8002b64:	701a      	strb	r2, [r3, #0]
      gameevent = EVENT_ENTERMAGAZ;
 8002b66:	2207      	movs	r2, #7
 8002b68:	4b03      	ldr	r3, [pc, #12]	; (8002b78 <gamer_minmagaz_collision+0x54>)
 8002b6a:	701a      	strb	r2, [r3, #0]
}
 8002b6c:	bd10      	pop	{r4, pc}
 8002b6e:	bf00      	nop
 8002b70:	2000000c 	.word	0x2000000c
 8002b74:	2000098c 	.word	0x2000098c
 8002b78:	200009db 	.word	0x200009db

08002b7c <drawevilstar>:
void drawevilstar(void) {
 8002b7c:	e92d 41f0 	stmdb	sp!, {r4, r5, r6, r7, r8, lr}
 8002b80:	2500      	movs	r5, #0
        EvilStar[i].distr_ttl_count = 0;
 8002b82:	462e      	mov	r6, r5
 8002b84:	4c14      	ldr	r4, [pc, #80]	; (8002bd8 <drawevilstar+0x5c>)
      LCD_printsprite(EvilStar[i].ln, EvilStar[i].cl, &evilstar_sprite);
 8002b86:	4f15      	ldr	r7, [pc, #84]	; (8002bdc <drawevilstar+0x60>)
      LCD_printsprite(EvilStar[i].ln, EvilStar[i].cl, &distr_evilstar_sprite);
 8002b88:	f8df 8054 	ldr.w	r8, [pc, #84]	; 8002be0 <drawevilstar+0x64>
    if (EvilStar[i].state == 1) {
 8002b8c:	7823      	ldrb	r3, [r4, #0]
 8002b8e:	2b01      	cmp	r3, #1
 8002b90:	d106      	bne.n	8002ba0 <drawevilstar+0x24>
      LCD_printsprite(EvilStar[i].ln, EvilStar[i].cl, &evilstar_sprite);
 8002b92:	463a      	mov	r2, r7
 8002b94:	f994 1002 	ldrsb.w	r1, [r4, #2]
 8002b98:	f994 0001 	ldrsb.w	r0, [r4, #1]
 8002b9c:	f7fe f8a0 	bl	8000ce0 <LCD_printsprite>
    if (EvilStar[i].state == 2) {
 8002ba0:	7823      	ldrb	r3, [r4, #0]
 8002ba2:	2b02      	cmp	r3, #2
 8002ba4:	d10b      	bne.n	8002bbe <drawevilstar+0x42>
      LCD_printsprite(EvilStar[i].ln, EvilStar[i].cl, &distr_evilstar_sprite);
 8002ba6:	4642      	mov	r2, r8
 8002ba8:	f994 1002 	ldrsb.w	r1, [r4, #2]
 8002bac:	f994 0001 	ldrsb.w	r0, [r4, #1]
 8002bb0:	f7fe f896 	bl	8000ce0 <LCD_printsprite>
      if (EvilStar[i].distr_ttl_count++ >= EVILSTAR_DEATHANIMATION_PERIOD) {
 8002bb4:	78e3      	ldrb	r3, [r4, #3]
 8002bb6:	2b01      	cmp	r3, #1
 8002bb8:	d808      	bhi.n	8002bcc <drawevilstar+0x50>
 8002bba:	3301      	adds	r3, #1
 8002bbc:	70e3      	strb	r3, [r4, #3]
  for (uint8 i = 0; i < EVILSTAR_MAX; i++) {
 8002bbe:	3501      	adds	r5, #1
 8002bc0:	2d0f      	cmp	r5, #15
 8002bc2:	f104 0404 	add.w	r4, r4, #4
 8002bc6:	d1e1      	bne.n	8002b8c <drawevilstar+0x10>
}
 8002bc8:	e8bd 81f0 	ldmia.w	sp!, {r4, r5, r6, r7, r8, pc}
        createcoin(&EvilStar[i]);
 8002bcc:	4620      	mov	r0, r4
        EvilStar[i].distr_ttl_count = 0;
 8002bce:	70e6      	strb	r6, [r4, #3]
        EvilStar[i].state = 0;
 8002bd0:	7026      	strb	r6, [r4, #0]
        createcoin(&EvilStar[i]);
 8002bd2:	f7ff fd71 	bl	80026b8 <createcoin>
 8002bd6:	e7f2      	b.n	8002bbe <drawevilstar+0x42>
 8002bd8:	20000943 	.word	0x20000943
 8002bdc:	08007b64 	.word	0x08007b64
 8002be0:	08007b20 	.word	0x08007b20

08002be4 <drawcoin>:
void drawcoin(void) {
 8002be4:	b5f8      	push	{r3, r4, r5, r6, r7, lr}
 8002be6:	2500      	movs	r5, #0
      if (Coin[i].animation_count == 0) Coin[i].animation_count = COIN_ANIMATION_PERIOD;
 8002be8:	260a      	movs	r6, #10
 8002bea:	4c14      	ldr	r4, [pc, #80]	; (8002c3c <drawcoin+0x58>)
      if (Coin[i].animation_count >= (COIN_ANIMATION_PERIOD / 2)) LCD_printsprite(Coin[i].ln + 1, Coin[i].cl, &coin_sprite);
 8002bec:	4f14      	ldr	r7, [pc, #80]	; (8002c40 <drawcoin+0x5c>)
    if (Coin[i].state == 1) {
 8002bee:	7823      	ldrb	r3, [r4, #0]
 8002bf0:	2b01      	cmp	r3, #1
 8002bf2:	d110      	bne.n	8002c16 <drawcoin+0x32>
      Coin[i].animation_count--;
 8002bf4:	78e3      	ldrb	r3, [r4, #3]
 8002bf6:	3b01      	subs	r3, #1
 8002bf8:	b2db      	uxtb	r3, r3
      if (Coin[i].animation_count >= (COIN_ANIMATION_PERIOD / 2)) LCD_printsprite(Coin[i].ln + 1, Coin[i].cl, &coin_sprite);
 8002bfa:	2b04      	cmp	r3, #4
      Coin[i].animation_count--;
 8002bfc:	70e3      	strb	r3, [r4, #3]
      if (Coin[i].animation_count >= (COIN_ANIMATION_PERIOD / 2)) LCD_printsprite(Coin[i].ln + 1, Coin[i].cl, &coin_sprite);
 8002bfe:	d810      	bhi.n	8002c22 <drawcoin+0x3e>
      if (Coin[i].animation_count < (COIN_ANIMATION_PERIOD / 2)) LCD_printsprite(Coin[i].ln - 1, Coin[i].cl, &coin_sprite);
 8002c00:	7860      	ldrb	r0, [r4, #1]
 8002c02:	463a      	mov	r2, r7
 8002c04:	3801      	subs	r0, #1
 8002c06:	f994 1002 	ldrsb.w	r1, [r4, #2]
 8002c0a:	b240      	sxtb	r0, r0
 8002c0c:	f7fe f868 	bl	8000ce0 <LCD_printsprite>
      if (Coin[i].animation_count == 0) Coin[i].animation_count = COIN_ANIMATION_PERIOD;
 8002c10:	78e3      	ldrb	r3, [r4, #3]
 8002c12:	b903      	cbnz	r3, 8002c16 <drawcoin+0x32>
 8002c14:	70e6      	strb	r6, [r4, #3]
  for (uint8 i = 0; i < COIN_MAX; i++) {
 8002c16:	3501      	adds	r5, #1
 8002c18:	2d0f      	cmp	r5, #15
 8002c1a:	f104 0404 	add.w	r4, r4, #4
 8002c1e:	d1e6      	bne.n	8002bee <drawcoin+0xa>
}
 8002c20:	bdf8      	pop	{r3, r4, r5, r6, r7, pc}
      if (Coin[i].animation_count >= (COIN_ANIMATION_PERIOD / 2)) LCD_printsprite(Coin[i].ln + 1, Coin[i].cl, &coin_sprite);
 8002c22:	7860      	ldrb	r0, [r4, #1]
 8002c24:	463a      	mov	r2, r7
 8002c26:	3001      	adds	r0, #1
 8002c28:	f994 1002 	ldrsb.w	r1, [r4, #2]
 8002c2c:	b240      	sxtb	r0, r0
 8002c2e:	f7fe f857 	bl	8000ce0 <LCD_printsprite>
      if (Coin[i].animation_count < (COIN_ANIMATION_PERIOD / 2)) LCD_printsprite(Coin[i].ln - 1, Coin[i].cl, &coin_sprite);
 8002c32:	78e3      	ldrb	r3, [r4, #3]
 8002c34:	2b04      	cmp	r3, #4
 8002c36:	d8eb      	bhi.n	8002c10 <drawcoin+0x2c>
 8002c38:	e7e2      	b.n	8002c00 <drawcoin+0x1c>
 8002c3a:	bf00      	nop
 8002c3c:	20000907 	.word	0x20000907
 8002c40:	08007adc 	.word	0x08007adc

08002c44 <drawminmagaz>:
    if (MinMagaz.state) {
 8002c44:	4b05      	ldr	r3, [pc, #20]	; (8002c5c <drawminmagaz+0x18>)
 8002c46:	781a      	ldrb	r2, [r3, #0]
 8002c48:	b132      	cbz	r2, 8002c58 <drawminmagaz+0x14>
      LCD_printsprite(MinMagaz.ln, MinMagaz.cl, &minimag_sprite);
 8002c4a:	4a05      	ldr	r2, [pc, #20]	; (8002c60 <drawminmagaz+0x1c>)
 8002c4c:	f993 1002 	ldrsb.w	r1, [r3, #2]
 8002c50:	f993 0001 	ldrsb.w	r0, [r3, #1]
 8002c54:	f7fe b844 	b.w	8000ce0 <LCD_printsprite>
}
 8002c58:	4770      	bx	lr
 8002c5a:	bf00      	nop
 8002c5c:	2000000c 	.word	0x2000000c
 8002c60:	080085cc 	.word	0x080085cc

08002c64 <drawgamer>:
  if ((Gamer.health > 0)) {
 8002c64:	4b08      	ldr	r3, [pc, #32]	; (8002c88 <drawgamer+0x24>)
 8002c66:	f993 2000 	ldrsb.w	r2, [r3]
 8002c6a:	2a00      	cmp	r2, #0
 8002c6c:	dd0b      	ble.n	8002c86 <drawgamer+0x22>
    if (Gamer.gasmask_health > 0) LCD_printsprite(Gamer.ln, Gamer.cl, &gamer_gas_sprite);
 8002c6e:	f993 000c 	ldrsb.w	r0, [r3, #12]
 8002c72:	f993 100d 	ldrsb.w	r1, [r3, #13]
 8002c76:	f993 3003 	ldrsb.w	r3, [r3, #3]
 8002c7a:	2b00      	cmp	r3, #0
 8002c7c:	bfcc      	ite	gt
 8002c7e:	4a03      	ldrgt	r2, [pc, #12]	; (8002c8c <drawgamer+0x28>)
    else LCD_printsprite(Gamer.ln, Gamer.cl, &gamer_sprite);
 8002c80:	4a03      	ldrle	r2, [pc, #12]	; (8002c90 <drawgamer+0x2c>)
 8002c82:	f7fe b82d 	b.w	8000ce0 <LCD_printsprite>
}
 8002c86:	4770      	bx	lr
 8002c88:	2000098c 	.word	0x2000098c
 8002c8c:	08007c54 	.word	0x08007c54
 8002c90:	08007ca4 	.word	0x08007ca4

08002c94 <drawbullet>:
void drawbullet(void) {
 8002c94:	b570      	push	{r4, r5, r6, lr}
 8002c96:	2500      	movs	r5, #0
 8002c98:	4c08      	ldr	r4, [pc, #32]	; (8002cbc <drawbullet+0x28>)
      LCD_printsprite(Bullet[i].ln, Bullet[i].cl, &bullet_sprite);
 8002c9a:	4e09      	ldr	r6, [pc, #36]	; (8002cc0 <drawbullet+0x2c>)
    if (Bullet[i].state) {
 8002c9c:	7823      	ldrb	r3, [r4, #0]
 8002c9e:	b133      	cbz	r3, 8002cae <drawbullet+0x1a>
      LCD_printsprite(Bullet[i].ln, Bullet[i].cl, &bullet_sprite);
 8002ca0:	4632      	mov	r2, r6
 8002ca2:	f994 1002 	ldrsb.w	r1, [r4, #2]
 8002ca6:	f994 0001 	ldrsb.w	r0, [r4, #1]
 8002caa:	f7fe f819 	bl	8000ce0 <LCD_printsprite>
  for (uint8 i = 0; i < BULLET_MAX; i++) {
 8002cae:	3501      	adds	r5, #1
 8002cb0:	2d19      	cmp	r5, #25
 8002cb2:	f104 0403 	add.w	r4, r4, #3
 8002cb6:	d1f1      	bne.n	8002c9c <drawbullet+0x8>
}
 8002cb8:	bd70      	pop	{r4, r5, r6, pc}
 8002cba:	bf00      	nop
 8002cbc:	200008bc 	.word	0x200008bc
 8002cc0:	08007ac8 	.word	0x08007ac8

08002cc4 <drawbomb>:
void drawbomb(uint16 period) {
 8002cc4:	e92d 4ff8 	stmdb	sp!, {r3, r4, r5, r6, r7, r8, r9, sl, fp, lr}
 8002cc8:	4604      	mov	r4, r0
  for(int i = 0; i < BOMB_MAX; i++) {
 8002cca:	2600      	movs	r6, #0
      if (Bomb[i].animation_count < (period / 4)) LCD_printsprite(Bomb[i].ln, Bomb[i].cl, &bomb_sprite[3]);
 8002ccc:	4f37      	ldr	r7, [pc, #220]	; (8002dac <drawbomb+0xe8>)
      if (Bomb[i].animation_count >= (3 * period / 4)) LCD_printsprite(Bomb[i].ln, Bomb[i].cl, &bomb_sprite[0]);
 8002cce:	eb00 0540 	add.w	r5, r0, r0, lsl #1
 8002cd2:	f8df a0dc 	ldr.w	sl, [pc, #220]	; 8002db0 <drawbomb+0xec>
 8002cd6:	08ad      	lsrs	r5, r5, #2
         (Bomb[i].animation_count >= (2 * period / 4))) LCD_printsprite(Bomb[i].ln, Bomb[i].cl, &bomb_sprite[1]);
 8002cd8:	f3c0 085d 	ubfx	r8, r0, #1, #30
         (Bomb[i].animation_count >= (period / 4))) LCD_printsprite(Bomb[i].ln, Bomb[i].cl, &bomb_sprite[2]);
 8002cdc:	ea4f 0990 	mov.w	r9, r0, lsr #2
         (Bomb[i].animation_count >= (2 * period / 4))) LCD_printsprite(Bomb[i].ln, Bomb[i].cl, &bomb_sprite[1]);
 8002ce0:	f1a7 0b18 	sub.w	fp, r7, #24
    if(Bomb[i].state == 1){
 8002ce4:	f89a 2000 	ldrb.w	r2, [sl]
 8002ce8:	2a01      	cmp	r2, #1
 8002cea:	d139      	bne.n	8002d60 <drawbomb+0x9c>
      if (Bomb[i].animation_count >= (3 * period / 4)) LCD_printsprite(Bomb[i].ln, Bomb[i].cl, &bomb_sprite[0]);
 8002cec:	f8da 2004 	ldr.w	r2, [sl, #4]
 8002cf0:	42aa      	cmp	r2, r5
 8002cf2:	d306      	bcc.n	8002d02 <drawbomb+0x3e>
 8002cf4:	4a2f      	ldr	r2, [pc, #188]	; (8002db4 <drawbomb+0xf0>)
 8002cf6:	f99a 1002 	ldrsb.w	r1, [sl, #2]
 8002cfa:	f99a 0001 	ldrsb.w	r0, [sl, #1]
 8002cfe:	f7fd ffef 	bl	8000ce0 <LCD_printsprite>
      if ((Bomb[i].animation_count < (3 * period / 4)) &&
 8002d02:	f8da 2004 	ldr.w	r2, [sl, #4]
 8002d06:	4295      	cmp	r5, r2
 8002d08:	d908      	bls.n	8002d1c <drawbomb+0x58>
 8002d0a:	4542      	cmp	r2, r8
 8002d0c:	d306      	bcc.n	8002d1c <drawbomb+0x58>
         (Bomb[i].animation_count >= (2 * period / 4))) LCD_printsprite(Bomb[i].ln, Bomb[i].cl, &bomb_sprite[1]);
 8002d0e:	465a      	mov	r2, fp
 8002d10:	f99a 1002 	ldrsb.w	r1, [sl, #2]
 8002d14:	f99a 0001 	ldrsb.w	r0, [sl, #1]
 8002d18:	f7fd ffe2 	bl	8000ce0 <LCD_printsprite>
      if ((Bomb[i].animation_count < (2 * period / 4)) &&
 8002d1c:	f8da 2004 	ldr.w	r2, [sl, #4]
 8002d20:	4590      	cmp	r8, r2
 8002d22:	d908      	bls.n	8002d36 <drawbomb+0x72>
 8002d24:	454a      	cmp	r2, r9
 8002d26:	d30a      	bcc.n	8002d3e <drawbomb+0x7a>
         (Bomb[i].animation_count >= (period / 4))) LCD_printsprite(Bomb[i].ln, Bomb[i].cl, &bomb_sprite[2]);
 8002d28:	4a23      	ldr	r2, [pc, #140]	; (8002db8 <drawbomb+0xf4>)
 8002d2a:	f99a 1002 	ldrsb.w	r1, [sl, #2]
 8002d2e:	f99a 0001 	ldrsb.w	r0, [sl, #1]
 8002d32:	f7fd ffd5 	bl	8000ce0 <LCD_printsprite>
      if (Bomb[i].animation_count < (period / 4)) LCD_printsprite(Bomb[i].ln, Bomb[i].cl, &bomb_sprite[3]);
 8002d36:	f8da 2004 	ldr.w	r2, [sl, #4]
 8002d3a:	4591      	cmp	r9, r2
 8002d3c:	d906      	bls.n	8002d4c <drawbomb+0x88>
 8002d3e:	463a      	mov	r2, r7
 8002d40:	f99a 1002 	ldrsb.w	r1, [sl, #2]
 8002d44:	f99a 0001 	ldrsb.w	r0, [sl, #1]
 8002d48:	f7fd ffca 	bl	8000ce0 <LCD_printsprite>
      if (Bomb[i].animation_count == 0) Bomb[i].animation_count = period;
 8002d4c:	f8da 2004 	ldr.w	r2, [sl, #4]
 8002d50:	b90a      	cbnz	r2, 8002d56 <drawbomb+0x92>
 8002d52:	f8ca 4004 	str.w	r4, [sl, #4]
      Bomb[i].animation_count--;
 8002d56:	f8da 2004 	ldr.w	r2, [sl, #4]
 8002d5a:	3a01      	subs	r2, #1
 8002d5c:	f8ca 2004 	str.w	r2, [sl, #4]
    if(Bomb[i].state > 1){
 8002d60:	f89a 2000 	ldrb.w	r2, [sl]
 8002d64:	2a01      	cmp	r2, #1
 8002d66:	d915      	bls.n	8002d94 <drawbomb+0xd0>
      switch(Bomb[i].state){
 8002d68:	2a03      	cmp	r2, #3
 8002d6a:	d01a      	beq.n	8002da2 <drawbomb+0xde>
 8002d6c:	2a04      	cmp	r2, #4
 8002d6e:	d01a      	beq.n	8002da6 <drawbomb+0xe2>
 8002d70:	2a02      	cmp	r2, #2
 8002d72:	d106      	bne.n	8002d82 <drawbomb+0xbe>
          LCD_printsprite(Bomb[i].ln, Bomb[i].cl, &bombshards_sprite[0]);
 8002d74:	4a11      	ldr	r2, [pc, #68]	; (8002dbc <drawbomb+0xf8>)
          LCD_printsprite(Bomb[i].ln, Bomb[i].cl, &bombshards_sprite[2]);
 8002d76:	f99a 1002 	ldrsb.w	r1, [sl, #2]
 8002d7a:	f99a 0001 	ldrsb.w	r0, [sl, #1]
 8002d7e:	f7fd ffaf 	bl	8000ce0 <LCD_printsprite>
      Bomb[i].state++;
 8002d82:	f89a 2000 	ldrb.w	r2, [sl]
 8002d86:	3201      	adds	r2, #1
 8002d88:	b2d2      	uxtb	r2, r2
      if(Bomb[i].state > 4) Bomb[i].state = 0;
 8002d8a:	2a04      	cmp	r2, #4
 8002d8c:	bf88      	it	hi
 8002d8e:	2200      	movhi	r2, #0
 8002d90:	f88a 2000 	strb.w	r2, [sl]
  for(int i = 0; i < BOMB_MAX; i++) {
 8002d94:	3601      	adds	r6, #1
 8002d96:	2e0a      	cmp	r6, #10
 8002d98:	f10a 0a08 	add.w	sl, sl, #8
 8002d9c:	d1a2      	bne.n	8002ce4 <drawbomb+0x20>
}
 8002d9e:	e8bd 8ff8 	ldmia.w	sp!, {r3, r4, r5, r6, r7, r8, r9, sl, fp, pc}
          LCD_printsprite(Bomb[i].ln, Bomb[i].cl, &bombshards_sprite[1]);
 8002da2:	4a07      	ldr	r2, [pc, #28]	; (8002dc0 <drawbomb+0xfc>)
 8002da4:	e7e7      	b.n	8002d76 <drawbomb+0xb2>
          LCD_printsprite(Bomb[i].ln, Bomb[i].cl, &bombshards_sprite[2]);
 8002da6:	4a07      	ldr	r2, [pc, #28]	; (8002dc4 <drawbomb+0x100>)
 8002da8:	e7e5      	b.n	8002d76 <drawbomb+0xb2>
 8002daa:	bf00      	nop
 8002dac:	08007a98 	.word	0x08007a98
 8002db0:	2000086c 	.word	0x2000086c
 8002db4:	08007a74 	.word	0x08007a74
 8002db8:	08007a8c 	.word	0x08007a8c
 8002dbc:	08007aa4 	.word	0x08007aa4
 8002dc0:	08007ab0 	.word	0x08007ab0
 8002dc4:	08007abc 	.word	0x08007abc

08002dc8 <drawinfo>:
  LCD_printgamestatbar(&Gamer);
 8002dc8:	4801      	ldr	r0, [pc, #4]	; (8002dd0 <drawinfo+0x8>)
 8002dca:	f7fe b927 	b.w	800101c <LCD_printgamestatbar>
 8002dce:	bf00      	nop
 8002dd0:	2000098c 	.word	0x2000098c

08002dd4 <createsmallstar>:
{
 8002dd4:	b5f8      	push	{r3, r4, r5, r6, r7, lr}
  if(k == 0) k = create_period;
 8002dd6:	4c10      	ldr	r4, [pc, #64]	; (8002e18 <createsmallstar+0x44>)
 8002dd8:	7823      	ldrb	r3, [r4, #0]
 8002dda:	b99b      	cbnz	r3, 8002e04 <createsmallstar+0x30>
 8002ddc:	7020      	strb	r0, [r4, #0]
{
 8002dde:	2300      	movs	r3, #0
      if(SmallStar[i].state == 0){
 8002de0:	4d0e      	ldr	r5, [pc, #56]	; (8002e1c <createsmallstar+0x48>)
 8002de2:	eb03 0643 	add.w	r6, r3, r3, lsl #1
 8002de6:	5d72      	ldrb	r2, [r6, r5]
 8002de8:	b992      	cbnz	r2, 8002e10 <createsmallstar+0x3c>
        SmallStar[i].state = getrand(1) + 1;
 8002dea:	2001      	movs	r0, #1
 8002dec:	f7fd f9b4 	bl	8000158 <getrand>
 8002df0:	3001      	adds	r0, #1
 8002df2:	55a8      	strb	r0, [r5, r6]
        SmallStar[i].ln = (int8)getrand(60);
 8002df4:	203c      	movs	r0, #60	; 0x3c
 8002df6:	f7fd f9af 	bl	8000158 <getrand>
        SmallStar[i].cl = 127;
 8002dfa:	237f      	movs	r3, #127	; 0x7f
        SmallStar[i].state = getrand(1) + 1;
 8002dfc:	19af      	adds	r7, r5, r6
        SmallStar[i].ln = (int8)getrand(60);
 8002dfe:	7078      	strb	r0, [r7, #1]
        SmallStar[i].cl = 127;
 8002e00:	70bb      	strb	r3, [r7, #2]
        break;
 8002e02:	e001      	b.n	8002e08 <createsmallstar+0x34>
  if(k == create_period)
 8002e04:	4283      	cmp	r3, r0
 8002e06:	d0ea      	beq.n	8002dde <createsmallstar+0xa>
  k--;
 8002e08:	7823      	ldrb	r3, [r4, #0]
 8002e0a:	3b01      	subs	r3, #1
 8002e0c:	7023      	strb	r3, [r4, #0]
}
 8002e0e:	bdf8      	pop	{r3, r4, r5, r6, r7, pc}
    for(int i = 0; i < SMALLSTAR_MAX; i++)
 8002e10:	3301      	adds	r3, #1
 8002e12:	2b14      	cmp	r3, #20
 8002e14:	d1e5      	bne.n	8002de2 <createsmallstar+0xe>
 8002e16:	e7f7      	b.n	8002e08 <createsmallstar+0x34>
 8002e18:	200009dd 	.word	0x200009dd
 8002e1c:	2000099c 	.word	0x2000099c

08002e20 <movesmallstar>:
{
 8002e20:	b530      	push	{r4, r5, lr}
  if(l == 0) l = move_period;
 8002e22:	490d      	ldr	r1, [pc, #52]	; (8002e58 <movesmallstar+0x38>)
 8002e24:	780b      	ldrb	r3, [r1, #0]
 8002e26:	b903      	cbnz	r3, 8002e2a <movesmallstar+0xa>
 8002e28:	7008      	strb	r0, [r1, #0]
  if(l == move_period) {
 8002e2a:	780c      	ldrb	r4, [r1, #0]
 8002e2c:	4284      	cmp	r4, r0
 8002e2e:	d110      	bne.n	8002e52 <movesmallstar+0x32>
 8002e30:	2000      	movs	r0, #0
      if(SmallStar[i].cl < -2) SmallStar[i].state = 0;
 8002e32:	4605      	mov	r5, r0
 8002e34:	4b09      	ldr	r3, [pc, #36]	; (8002e5c <movesmallstar+0x3c>)
      if(SmallStar[i].state != 0) {
 8002e36:	781a      	ldrb	r2, [r3, #0]
 8002e38:	b132      	cbz	r2, 8002e48 <movesmallstar+0x28>
      SmallStar[i].cl -= 1;
 8002e3a:	789a      	ldrb	r2, [r3, #2]
 8002e3c:	3a01      	subs	r2, #1
 8002e3e:	b252      	sxtb	r2, r2
 8002e40:	709a      	strb	r2, [r3, #2]
      if(SmallStar[i].cl < -2) SmallStar[i].state = 0;
 8002e42:	3202      	adds	r2, #2
 8002e44:	bfb8      	it	lt
 8002e46:	701d      	strblt	r5, [r3, #0]
    for(uint8 i = 0; i < SMALLSTAR_MAX; i++)
 8002e48:	3001      	adds	r0, #1
 8002e4a:	2814      	cmp	r0, #20
 8002e4c:	f103 0303 	add.w	r3, r3, #3
 8002e50:	d1f1      	bne.n	8002e36 <movesmallstar+0x16>
  l--;
 8002e52:	3c01      	subs	r4, #1
 8002e54:	700c      	strb	r4, [r1, #0]
}
 8002e56:	bd30      	pop	{r4, r5, pc}
 8002e58:	200009de 	.word	0x200009de
 8002e5c:	2000099c 	.word	0x2000099c

08002e60 <system_events_period25ms>:
{
 8002e60:	b508      	push	{r3, lr}
  movesmallstar(SMALLSTAR_MOVE_PERIOD_CALLS);
 8002e62:	2002      	movs	r0, #2
 8002e64:	f7ff ffdc 	bl	8002e20 <movesmallstar>
}
 8002e68:	e8bd 4008 	ldmia.w	sp!, {r3, lr}
  movminmagaz(MINMAGAZ_MOVE_PERIOD_CALLS);
 8002e6c:	200a      	movs	r0, #10
 8002e6e:	f7ff bd1f 	b.w	80028b0 <movminmagaz>
	...

08002e74 <drawsmallstar>:
{
 8002e74:	b5f8      	push	{r3, r4, r5, r6, r7, lr}
 8002e76:	2500      	movs	r5, #0
      LCD_printsprite(SmallStar[i].ln, SmallStar[i].cl, &smallstar_sprite[SmallStar[i].state - 1]);
 8002e78:	270c      	movs	r7, #12
 8002e7a:	4c09      	ldr	r4, [pc, #36]	; (8002ea0 <drawsmallstar+0x2c>)
 8002e7c:	4e09      	ldr	r6, [pc, #36]	; (8002ea4 <drawsmallstar+0x30>)
    if(SmallStar[i].state) {
 8002e7e:	7822      	ldrb	r2, [r4, #0]
 8002e80:	b142      	cbz	r2, 8002e94 <drawsmallstar+0x20>
      LCD_printsprite(SmallStar[i].ln, SmallStar[i].cl, &smallstar_sprite[SmallStar[i].state - 1]);
 8002e82:	3a01      	subs	r2, #1
 8002e84:	fb07 6202 	mla	r2, r7, r2, r6
 8002e88:	f994 1002 	ldrsb.w	r1, [r4, #2]
 8002e8c:	f994 0001 	ldrsb.w	r0, [r4, #1]
 8002e90:	f7fd ff26 	bl	8000ce0 <LCD_printsprite>
  for(uint8 i = 0; i < SMALLSTAR_MAX; i++)
 8002e94:	3501      	adds	r5, #1
 8002e96:	2d14      	cmp	r5, #20
 8002e98:	f104 0403 	add.w	r4, r4, #3
 8002e9c:	d1ef      	bne.n	8002e7e <drawsmallstar+0xa>
}
 8002e9e:	bdf8      	pop	{r3, r4, r5, r6, r7, pc}
 8002ea0:	2000099c 	.word	0x2000099c
 8002ea4:	08008608 	.word	0x08008608

08002ea8 <system_events_period100ms>:
{
 8002ea8:	b508      	push	{r3, lr}
  batcheck();
 8002eaa:	f7fd fa5f 	bl	800036c <batcheck>
  createsmallstar(SMALLSTAR_CREATE_PERIOD_CALLS);
 8002eae:	2005      	movs	r0, #5
 8002eb0:	f7ff ff90 	bl	8002dd4 <createsmallstar>
  drawsmallstar();  
 8002eb4:	f7ff ffde 	bl	8002e74 <drawsmallstar>
  check_btn_jstk();
 8002eb8:	f7fd fc42 	bl	8000740 <check_btn_jstk>
}
 8002ebc:	e8bd 4008 	ldmia.w	sp!, {r3, lr}
  LCD_bufupload_buferase();
 8002ec0:	f7fd bd42 	b.w	8000948 <LCD_bufupload_buferase>

08002ec4 <SchedGamerunEventsAdd>:
{
 8002ec4:	b508      	push	{r3, lr}
  SchedAddEvent(createevilstar, PRD_EVILSTAR_CREATE);
 8002ec6:	4b0e      	ldr	r3, [pc, #56]	; (8002f00 <SchedGamerunEventsAdd+0x3c>)
 8002ec8:	480e      	ldr	r0, [pc, #56]	; (8002f04 <SchedGamerunEventsAdd+0x40>)
 8002eca:	6819      	ldr	r1, [r3, #0]
 8002ecc:	f7ff f840 	bl	8001f50 <SchedAddEvent>
  SchedAddEvent(createbullet, BULLET_GENERATE_PERIOD_MS);
 8002ed0:	216e      	movs	r1, #110	; 0x6e
 8002ed2:	480d      	ldr	r0, [pc, #52]	; (8002f08 <SchedGamerunEventsAdd+0x44>)
 8002ed4:	f7ff f83c 	bl	8001f50 <SchedAddEvent>
  SchedAddEvent(createbomb, BOMB_GENERATE_PERIOD_MS);
 8002ed8:	f44f 7196 	mov.w	r1, #300	; 0x12c
 8002edc:	480b      	ldr	r0, [pc, #44]	; (8002f0c <SchedGamerunEventsAdd+0x48>)
 8002ede:	f7ff f837 	bl	8001f50 <SchedAddEvent>
  SchedAddEvent(movbullet, BULLET_MOVE_PERIOD_MS);
 8002ee2:	210d      	movs	r1, #13
 8002ee4:	480a      	ldr	r0, [pc, #40]	; (8002f10 <SchedGamerunEventsAdd+0x4c>)
 8002ee6:	f7ff f833 	bl	8001f50 <SchedAddEvent>
  SchedAddEvent(move_enemy_objects, PRD_ENEMY_MOVE);
 8002eea:	4b0a      	ldr	r3, [pc, #40]	; (8002f14 <SchedGamerunEventsAdd+0x50>)
 8002eec:	480a      	ldr	r0, [pc, #40]	; (8002f18 <SchedGamerunEventsAdd+0x54>)
 8002eee:	7819      	ldrb	r1, [r3, #0]
 8002ef0:	f7ff f82e 	bl	8001f50 <SchedAddEvent>
}
 8002ef4:	e8bd 4008 	ldmia.w	sp!, {r3, lr}
  SchedAddEvent(gameprogress, 75);
 8002ef8:	214b      	movs	r1, #75	; 0x4b
 8002efa:	4808      	ldr	r0, [pc, #32]	; (8002f1c <SchedGamerunEventsAdd+0x58>)
 8002efc:	f7ff b828 	b.w	8001f50 <SchedAddEvent>
 8002f00:	20000014 	.word	0x20000014
 8002f04:	080024b9 	.word	0x080024b9
 8002f08:	08002509 	.word	0x08002509
 8002f0c:	0800256d 	.word	0x0800256d
 8002f10:	08002391 	.word	0x08002391
 8002f14:	2000000f 	.word	0x2000000f
 8002f18:	080028a1 	.word	0x080028a1
 8002f1c:	080025d1 	.word	0x080025d1

08002f20 <statehandler_gameinitnew>:
{
 8002f20:	b5f8      	push	{r3, r4, r5, r6, r7, lr}
  gamestate = STATE_STARTGAME;
 8002f22:	2706      	movs	r7, #6
  gameevent = EVENT_NONE;
 8002f24:	2400      	movs	r4, #0
  gamestate = STATE_STARTGAME;
 8002f26:	4b1e      	ldr	r3, [pc, #120]	; (8002fa0 <statehandler_gameinitnew+0x80>)
  if(GAME_STORY_STRING_NUM < 4)
 8002f28:	4d1e      	ldr	r5, [pc, #120]	; (8002fa4 <statehandler_gameinitnew+0x84>)
  gamestate = STATE_STARTGAME;
 8002f2a:	701f      	strb	r7, [r3, #0]
  if(GAME_STORY_STRING_NUM < 4)
 8002f2c:	782b      	ldrb	r3, [r5, #0]
  gameevent = EVENT_NONE;
 8002f2e:	4e1e      	ldr	r6, [pc, #120]	; (8002fa8 <statehandler_gameinitnew+0x88>)
  if(GAME_STORY_STRING_NUM < 4)
 8002f30:	2b03      	cmp	r3, #3
  gameevent = EVENT_NONE;
 8002f32:	7034      	strb	r4, [r6, #0]
  if(GAME_STORY_STRING_NUM < 4)
 8002f34:	d820      	bhi.n	8002f78 <statehandler_gameinitnew+0x58>
    LCD_printstr8x5(gamestory_string[GAME_STORY_STRING_NUM], 0, 0);
 8002f36:	2696      	movs	r6, #150	; 0x96
 8002f38:	481c      	ldr	r0, [pc, #112]	; (8002fac <statehandler_gameinitnew+0x8c>)
 8002f3a:	4622      	mov	r2, r4
 8002f3c:	fb06 0003 	mla	r0, r6, r3, r0
 8002f40:	4621      	mov	r1, r4
 8002f42:	f7fd fca1 	bl	8000888 <LCD_printstr8x5>
    LCD_printstr8x5((uint8*)"далее...", 7, 78);
 8002f46:	224e      	movs	r2, #78	; 0x4e
 8002f48:	2107      	movs	r1, #7
 8002f4a:	4819      	ldr	r0, [pc, #100]	; (8002fb0 <statehandler_gameinitnew+0x90>)
 8002f4c:	f7fd fc9c 	bl	8000888 <LCD_printstr8x5>
    if(B1.BtnON || B2.BtnON || B3.BtnON || B4.BtnON)
 8002f50:	4e18      	ldr	r6, [pc, #96]	; (8002fb4 <statehandler_gameinitnew+0x94>)
 8002f52:	4819      	ldr	r0, [pc, #100]	; (8002fb8 <statehandler_gameinitnew+0x98>)
 8002f54:	7c73      	ldrb	r3, [r6, #17]
 8002f56:	7c42      	ldrb	r2, [r0, #17]
 8002f58:	4918      	ldr	r1, [pc, #96]	; (8002fbc <statehandler_gameinitnew+0x9c>)
 8002f5a:	4313      	orrs	r3, r2
 8002f5c:	7c4a      	ldrb	r2, [r1, #17]
 8002f5e:	4313      	orrs	r3, r2
 8002f60:	4a17      	ldr	r2, [pc, #92]	; (8002fc0 <statehandler_gameinitnew+0xa0>)
 8002f62:	7c57      	ldrb	r7, [r2, #17]
 8002f64:	433b      	orrs	r3, r7
 8002f66:	d006      	beq.n	8002f76 <statehandler_gameinitnew+0x56>
      GAME_STORY_STRING_NUM++;
 8002f68:	782b      	ldrb	r3, [r5, #0]
      B1.BtnON = 0;
 8002f6a:	7474      	strb	r4, [r6, #17]
      GAME_STORY_STRING_NUM++;
 8002f6c:	3301      	adds	r3, #1
      B2.BtnON = 0;
 8002f6e:	7444      	strb	r4, [r0, #17]
      B3.BtnON = 0;
 8002f70:	744c      	strb	r4, [r1, #17]
      B4.BtnON = 0;
 8002f72:	7454      	strb	r4, [r2, #17]
      GAME_STORY_STRING_NUM++;
 8002f74:	702b      	strb	r3, [r5, #0]
}
 8002f76:	bdf8      	pop	{r3, r4, r5, r6, r7, pc}
    Gamer.health = 24;
 8002f78:	4b12      	ldr	r3, [pc, #72]	; (8002fc4 <statehandler_gameinitnew+0xa4>)
 8002f7a:	4a13      	ldr	r2, [pc, #76]	; (8002fc8 <statehandler_gameinitnew+0xa8>)
 8002f7c:	601a      	str	r2, [r3, #0]
    Gamer.bombs = 255;
 8002f7e:	22ff      	movs	r2, #255	; 0xff
 8002f80:	711a      	strb	r2, [r3, #4]
    Gamer.money = 50;
 8002f82:	2232      	movs	r2, #50	; 0x32
 8002f84:	609a      	str	r2, [r3, #8]
    Gamer.ln = 16;
 8002f86:	2210      	movs	r2, #16
 8002f88:	819a      	strh	r2, [r3, #12]
    Game.level_progress = 200;
 8002f8a:	22c8      	movs	r2, #200	; 0xc8
 8002f8c:	4b0f      	ldr	r3, [pc, #60]	; (8002fcc <statehandler_gameinitnew+0xac>)
 8002f8e:	705a      	strb	r2, [r3, #1]
    GameFlags.gameflagsreg = 0b00001101;
 8002f90:	220d      	movs	r2, #13
 8002f92:	4b0f      	ldr	r3, [pc, #60]	; (8002fd0 <statehandler_gameinitnew+0xb0>)
 8002f94:	701a      	strb	r2, [r3, #0]
    SchedGamerunEventsAdd();
 8002f96:	f7ff ff95 	bl	8002ec4 <SchedGamerunEventsAdd>
    gameevent = EVENT_EXIT; 
 8002f9a:	7037      	strb	r7, [r6, #0]
}
 8002f9c:	e7eb      	b.n	8002f76 <statehandler_gameinitnew+0x56>
 8002f9e:	bf00      	nop
 8002fa0:	200009dc 	.word	0x200009dc
 8002fa4:	2000097f 	.word	0x2000097f
 8002fa8:	200009db 	.word	0x200009db
 8002fac:	08007e18 	.word	0x08007e18
 8002fb0:	0800752f 	.word	0x0800752f
 8002fb4:	200000d0 	.word	0x200000d0
 8002fb8:	200000e8 	.word	0x200000e8
 8002fbc:	20000100 	.word	0x20000100
 8002fc0:	20000118 	.word	0x20000118
 8002fc4:	2000098c 	.word	0x2000098c
 8002fc8:	00040418 	.word	0x00040418
 8002fcc:	20000980 	.word	0x20000980
 8002fd0:	20000988 	.word	0x20000988

08002fd4 <statehandler_gameload>:
  statehandler_gameinitnew();
 8002fd4:	f7ff bfa4 	b.w	8002f20 <statehandler_gameinitnew>

08002fd8 <SchedGamerunEventsPause>:
{
 8002fd8:	b508      	push	{r3, lr}
  SchedPauseEvent(createevilstar);
 8002fda:	480a      	ldr	r0, [pc, #40]	; (8003004 <SchedGamerunEventsPause+0x2c>)
 8002fdc:	f7ff f822 	bl	8002024 <SchedPauseEvent>
  SchedPauseEvent(createbullet);
 8002fe0:	4809      	ldr	r0, [pc, #36]	; (8003008 <SchedGamerunEventsPause+0x30>)
 8002fe2:	f7ff f81f 	bl	8002024 <SchedPauseEvent>
  SchedPauseEvent(createbomb);
 8002fe6:	4809      	ldr	r0, [pc, #36]	; (800300c <SchedGamerunEventsPause+0x34>)
 8002fe8:	f7ff f81c 	bl	8002024 <SchedPauseEvent>
  SchedPauseEvent(movbullet);
 8002fec:	4808      	ldr	r0, [pc, #32]	; (8003010 <SchedGamerunEventsPause+0x38>)
 8002fee:	f7ff f819 	bl	8002024 <SchedPauseEvent>
  SchedPauseEvent(move_enemy_objects);
 8002ff2:	4808      	ldr	r0, [pc, #32]	; (8003014 <SchedGamerunEventsPause+0x3c>)
 8002ff4:	f7ff f816 	bl	8002024 <SchedPauseEvent>
}
 8002ff8:	e8bd 4008 	ldmia.w	sp!, {r3, lr}
  SchedPauseEvent(gameprogress);
 8002ffc:	4806      	ldr	r0, [pc, #24]	; (8003018 <SchedGamerunEventsPause+0x40>)
 8002ffe:	f7ff b811 	b.w	8002024 <SchedPauseEvent>
 8003002:	bf00      	nop
 8003004:	080024b9 	.word	0x080024b9
 8003008:	08002509 	.word	0x08002509
 800300c:	0800256d 	.word	0x0800256d
 8003010:	08002391 	.word	0x08002391
 8003014:	080028a1 	.word	0x080028a1
 8003018:	080025d1 	.word	0x080025d1

0800301c <SchedGamerunEventsResume>:
{
 800301c:	b508      	push	{r3, lr}
  SchedResumeEvent(createevilstar);
 800301e:	480a      	ldr	r0, [pc, #40]	; (8003048 <SchedGamerunEventsResume+0x2c>)
 8003020:	f7ff f816 	bl	8002050 <SchedResumeEvent>
  SchedResumeEvent(createbullet);
 8003024:	4809      	ldr	r0, [pc, #36]	; (800304c <SchedGamerunEventsResume+0x30>)
 8003026:	f7ff f813 	bl	8002050 <SchedResumeEvent>
  SchedResumeEvent(createbomb);
 800302a:	4809      	ldr	r0, [pc, #36]	; (8003050 <SchedGamerunEventsResume+0x34>)
 800302c:	f7ff f810 	bl	8002050 <SchedResumeEvent>
  SchedResumeEvent(movbullet);
 8003030:	4808      	ldr	r0, [pc, #32]	; (8003054 <SchedGamerunEventsResume+0x38>)
 8003032:	f7ff f80d 	bl	8002050 <SchedResumeEvent>
  SchedResumeEvent(move_enemy_objects);
 8003036:	4808      	ldr	r0, [pc, #32]	; (8003058 <SchedGamerunEventsResume+0x3c>)
 8003038:	f7ff f80a 	bl	8002050 <SchedResumeEvent>
}
 800303c:	e8bd 4008 	ldmia.w	sp!, {r3, lr}
  SchedResumeEvent(gameprogress);
 8003040:	4806      	ldr	r0, [pc, #24]	; (800305c <SchedGamerunEventsResume+0x40>)
 8003042:	f7ff b805 	b.w	8002050 <SchedResumeEvent>
 8003046:	bf00      	nop
 8003048:	080024b9 	.word	0x080024b9
 800304c:	08002509 	.word	0x08002509
 8003050:	0800256d 	.word	0x0800256d
 8003054:	08002391 	.word	0x08002391
 8003058:	080028a1 	.word	0x080028a1
 800305c:	080025d1 	.word	0x080025d1

08003060 <statehandler_gamerun>:
{
 8003060:	b570      	push	{r4, r5, r6, lr}
  if(gamestate == STATE_PAUSEMENU) SchedGamerunEventsResume();
 8003062:	4c56      	ldr	r4, [pc, #344]	; (80031bc <statehandler_gamerun+0x15c>)
 8003064:	7823      	ldrb	r3, [r4, #0]
 8003066:	2b03      	cmp	r3, #3
 8003068:	d101      	bne.n	800306e <statehandler_gamerun+0xe>
 800306a:	f7ff ffd7 	bl	800301c <SchedGamerunEventsResume>
  gamestate = STATE_RUNGAME;
 800306e:	2307      	movs	r3, #7
 8003070:	7023      	strb	r3, [r4, #0]
  if(GameFlags.WinTheGame){
 8003072:	4b53      	ldr	r3, [pc, #332]	; (80031c0 <statehandler_gamerun+0x160>)
 8003074:	781b      	ldrb	r3, [r3, #0]
 8003076:	f013 0310 	ands.w	r3, r3, #16
 800307a:	d056      	beq.n	800312a <statehandler_gamerun+0xca>
    SchedGamerunEventsPause();
 800307c:	f7ff ffac 	bl	8002fd8 <SchedGamerunEventsPause>
    LCD_printstr8x5((uint8*)"ПОБЕДА!!!", 2, 35);
 8003080:	2223      	movs	r2, #35	; 0x23
 8003082:	2102      	movs	r1, #2
 8003084:	484f      	ldr	r0, [pc, #316]	; (80031c4 <statehandler_gamerun+0x164>)
 8003086:	f7fd fbff 	bl	8000888 <LCD_printstr8x5>
    IF_ANY_BTN_PRESS(
 800308a:	4b4f      	ldr	r3, [pc, #316]	; (80031c8 <statehandler_gamerun+0x168>)
 800308c:	4a4f      	ldr	r2, [pc, #316]	; (80031cc <statehandler_gamerun+0x16c>)
 800308e:	7c5b      	ldrb	r3, [r3, #17]
 8003090:	7c52      	ldrb	r2, [r2, #17]
 8003092:	4313      	orrs	r3, r2
 8003094:	4a4e      	ldr	r2, [pc, #312]	; (80031d0 <statehandler_gamerun+0x170>)
 8003096:	7c52      	ldrb	r2, [r2, #17]
 8003098:	4313      	orrs	r3, r2
 800309a:	4a4e      	ldr	r2, [pc, #312]	; (80031d4 <statehandler_gamerun+0x174>)
 800309c:	7c52      	ldrb	r2, [r2, #17]
 800309e:	4313      	orrs	r3, r2
 80030a0:	d00e      	beq.n	80030c0 <statehandler_gamerun+0x60>
 80030a2:	2300      	movs	r3, #0
 80030a4:	4a48      	ldr	r2, [pc, #288]	; (80031c8 <statehandler_gamerun+0x168>)
 80030a6:	7453      	strb	r3, [r2, #17]
 80030a8:	4a48      	ldr	r2, [pc, #288]	; (80031cc <statehandler_gamerun+0x16c>)
 80030aa:	7453      	strb	r3, [r2, #17]
 80030ac:	4a48      	ldr	r2, [pc, #288]	; (80031d0 <statehandler_gamerun+0x170>)
 80030ae:	7453      	strb	r3, [r2, #17]
 80030b0:	4a48      	ldr	r2, [pc, #288]	; (80031d4 <statehandler_gamerun+0x174>)
 80030b2:	7453      	strb	r3, [r2, #17]
 80030b4:	2214      	movs	r2, #20
 80030b6:	4b48      	ldr	r3, [pc, #288]	; (80031d8 <statehandler_gamerun+0x178>)
 80030b8:	701a      	strb	r2, [r3, #0]
 80030ba:	2206      	movs	r2, #6
 80030bc:	4b47      	ldr	r3, [pc, #284]	; (80031dc <statehandler_gamerun+0x17c>)
 80030be:	701a      	strb	r2, [r3, #0]
  if(PRD_EVILSTAR_CREATE != PRD_EVILSTAR_CREATE_PREV) {
 80030c0:	4d47      	ldr	r5, [pc, #284]	; (80031e0 <statehandler_gamerun+0x180>)
 80030c2:	4c48      	ldr	r4, [pc, #288]	; (80031e4 <statehandler_gamerun+0x184>)
 80030c4:	6829      	ldr	r1, [r5, #0]
 80030c6:	6823      	ldr	r3, [r4, #0]
 80030c8:	4299      	cmp	r1, r3
 80030ca:	d004      	beq.n	80030d6 <statehandler_gamerun+0x76>
    SchedEventSetPeriod(createevilstar, PRD_EVILSTAR_CREATE);
 80030cc:	4846      	ldr	r0, [pc, #280]	; (80031e8 <statehandler_gamerun+0x188>)
 80030ce:	f7fe ffd5 	bl	800207c <SchedEventSetPeriod>
    PRD_EVILSTAR_CREATE_PREV = PRD_EVILSTAR_CREATE;
 80030d2:	682b      	ldr	r3, [r5, #0]
 80030d4:	6023      	str	r3, [r4, #0]
  }if(PRD_ENEMY_MOVE != PRD_ENEMY_MOVE_PREV) {  
 80030d6:	4d45      	ldr	r5, [pc, #276]	; (80031ec <statehandler_gamerun+0x18c>)
 80030d8:	4c45      	ldr	r4, [pc, #276]	; (80031f0 <statehandler_gamerun+0x190>)
 80030da:	7829      	ldrb	r1, [r5, #0]
 80030dc:	7823      	ldrb	r3, [r4, #0]
 80030de:	428b      	cmp	r3, r1
 80030e0:	d004      	beq.n	80030ec <statehandler_gamerun+0x8c>
    SchedEventSetPeriod(move_enemy_objects, PRD_ENEMY_MOVE);
 80030e2:	4844      	ldr	r0, [pc, #272]	; (80031f4 <statehandler_gamerun+0x194>)
 80030e4:	f7fe ffca 	bl	800207c <SchedEventSetPeriod>
    PRD_ENEMY_MOVE_PREV = PRD_ENEMY_MOVE;
 80030e8:	782b      	ldrb	r3, [r5, #0]
 80030ea:	7023      	strb	r3, [r4, #0]
  movgamer();
 80030ec:	f7ff fafc 	bl	80026e8 <movgamer>
  movbomb();
 80030f0:	f7ff fba0 	bl	8002834 <movbomb>
  bullet_evilstar_collision();
 80030f4:	f7ff fc02 	bl	80028fc <bullet_evilstar_collision>
  gamer_evilstar_collision();
 80030f8:	f7ff fca2 	bl	8002a40 <gamer_evilstar_collision>
  gamer_coin_collision();
 80030fc:	f7ff fcde 	bl	8002abc <gamer_coin_collision>
  gamer_minmagaz_collision();
 8003100:	f7ff fd10 	bl	8002b24 <gamer_minmagaz_collision>
  bomb_evilstar_collision();
 8003104:	f7ff fc32 	bl	800296c <bomb_evilstar_collision>
  drawevilstar();
 8003108:	f7ff fd38 	bl	8002b7c <drawevilstar>
  drawcoin();
 800310c:	f7ff fd6a 	bl	8002be4 <drawcoin>
  drawminmagaz();
 8003110:	f7ff fd98 	bl	8002c44 <drawminmagaz>
  drawbullet();
 8003114:	f7ff fdbe 	bl	8002c94 <drawbullet>
  drawbomb(BOMB_ANIMATION_PERIOD_CALLS);
 8003118:	2004      	movs	r0, #4
 800311a:	f7ff fdd3 	bl	8002cc4 <drawbomb>
  drawgamer();
 800311e:	f7ff fda1 	bl	8002c64 <drawgamer>
}
 8003122:	e8bd 4070 	ldmia.w	sp!, {r4, r5, r6, lr}
  drawinfo();
 8003126:	f7ff be4f 	b.w	8002dc8 <drawinfo>
    if(Gamer.health > 0)
 800312a:	4d33      	ldr	r5, [pc, #204]	; (80031f8 <statehandler_gamerun+0x198>)
 800312c:	f995 2000 	ldrsb.w	r2, [r5]
 8003130:	2a00      	cmp	r2, #0
 8003132:	dd09      	ble.n	8003148 <statehandler_gamerun+0xe8>
      if(B4.BtnON) {
 8003134:	4827      	ldr	r0, [pc, #156]	; (80031d4 <statehandler_gamerun+0x174>)
 8003136:	4a29      	ldr	r2, [pc, #164]	; (80031dc <statehandler_gamerun+0x17c>)
 8003138:	7c41      	ldrb	r1, [r0, #17]
 800313a:	b119      	cbz	r1, 8003144 <statehandler_gamerun+0xe4>
        B4.BtnON = 0;
 800313c:	7443      	strb	r3, [r0, #17]
        gameevent = EVENT_PAUSE;
 800313e:	2305      	movs	r3, #5
 8003140:	7013      	strb	r3, [r2, #0]
 8003142:	e7bd      	b.n	80030c0 <statehandler_gamerun+0x60>
      else gameevent = EVENT_NONE;
 8003144:	7011      	strb	r1, [r2, #0]
 8003146:	e7bb      	b.n	80030c0 <statehandler_gamerun+0x60>
      if(deadgamerdrawcounter >= (3 * (GAMERDEATH_ANIMATION_PERIOD / 4))){
 8003148:	4c23      	ldr	r4, [pc, #140]	; (80031d8 <statehandler_gamerun+0x178>)
 800314a:	7823      	ldrb	r3, [r4, #0]
 800314c:	2b0e      	cmp	r3, #14
 800314e:	d909      	bls.n	8003164 <statehandler_gamerun+0x104>
        LCD_printsprite(Gamer.ln, Gamer.cl, &gamer_dead_0_sprite);
 8003150:	4a2a      	ldr	r2, [pc, #168]	; (80031fc <statehandler_gamerun+0x19c>)
 8003152:	f995 100d 	ldrsb.w	r1, [r5, #13]
 8003156:	f995 000c 	ldrsb.w	r0, [r5, #12]
 800315a:	f7fd fdc1 	bl	8000ce0 <LCD_printsprite>
         deadgamerdrawcounter--;
 800315e:	7823      	ldrb	r3, [r4, #0]
 8003160:	3b01      	subs	r3, #1
 8003162:	7023      	strb	r3, [r4, #0]
      if(deadgamerdrawcounter < (3 * (GAMERDEATH_ANIMATION_PERIOD / 4) + (GAMERDEATH_ANIMATION_PERIOD % 4)) && deadgamerdrawcounter > 0) {
 8003164:	7823      	ldrb	r3, [r4, #0]
 8003166:	3b01      	subs	r3, #1
 8003168:	2b0d      	cmp	r3, #13
 800316a:	d81a      	bhi.n	80031a2 <statehandler_gamerun+0x142>
        LCD_printsprite(Gamer.ln, Gamer.cl, &gamer_dead_1_sprite);
 800316c:	f995 100d 	ldrsb.w	r1, [r5, #13]
 8003170:	f995 000c 	ldrsb.w	r0, [r5, #12]
 8003174:	4a22      	ldr	r2, [pc, #136]	; (8003200 <statehandler_gamerun+0x1a0>)
 8003176:	f7fd fdb3 	bl	8000ce0 <LCD_printsprite>
        deadgamerdrawcounter--;
 800317a:	7823      	ldrb	r3, [r4, #0]
        IF_ANY_BTN_PRESS()
 800317c:	4d12      	ldr	r5, [pc, #72]	; (80031c8 <statehandler_gamerun+0x168>)
 800317e:	4813      	ldr	r0, [pc, #76]	; (80031cc <statehandler_gamerun+0x16c>)
        deadgamerdrawcounter--;
 8003180:	3b01      	subs	r3, #1
        IF_ANY_BTN_PRESS()
 8003182:	7c42      	ldrb	r2, [r0, #17]
 8003184:	4912      	ldr	r1, [pc, #72]	; (80031d0 <statehandler_gamerun+0x170>)
        deadgamerdrawcounter--;
 8003186:	7023      	strb	r3, [r4, #0]
        IF_ANY_BTN_PRESS()
 8003188:	7c6b      	ldrb	r3, [r5, #17]
 800318a:	4313      	orrs	r3, r2
 800318c:	7c4a      	ldrb	r2, [r1, #17]
 800318e:	4313      	orrs	r3, r2
 8003190:	4a10      	ldr	r2, [pc, #64]	; (80031d4 <statehandler_gamerun+0x174>)
 8003192:	7c56      	ldrb	r6, [r2, #17]
 8003194:	4333      	orrs	r3, r6
 8003196:	d004      	beq.n	80031a2 <statehandler_gamerun+0x142>
 8003198:	2300      	movs	r3, #0
 800319a:	746b      	strb	r3, [r5, #17]
 800319c:	7443      	strb	r3, [r0, #17]
 800319e:	744b      	strb	r3, [r1, #17]
 80031a0:	7453      	strb	r3, [r2, #17]
      if(deadgamerdrawcounter == 0)
 80031a2:	7823      	ldrb	r3, [r4, #0]
 80031a4:	2b00      	cmp	r3, #0
 80031a6:	d18b      	bne.n	80030c0 <statehandler_gamerun+0x60>
        LCD_printstr8x5((uint8*)"ЗВЕЗДАНУЛСЯ", 3, 30);
 80031a8:	221e      	movs	r2, #30
 80031aa:	2103      	movs	r1, #3
 80031ac:	4815      	ldr	r0, [pc, #84]	; (8003204 <statehandler_gamerun+0x1a4>)
 80031ae:	f7fd fb6b 	bl	8000888 <LCD_printstr8x5>
        LCD_printstr8x5((uint8*)"НАСМЕРТЬ!", 4, 36);
 80031b2:	2224      	movs	r2, #36	; 0x24
 80031b4:	2104      	movs	r1, #4
 80031b6:	4814      	ldr	r0, [pc, #80]	; (8003208 <statehandler_gamerun+0x1a8>)
 80031b8:	e765      	b.n	8003086 <statehandler_gamerun+0x26>
 80031ba:	bf00      	nop
 80031bc:	200009dc 	.word	0x200009dc
 80031c0:	20000988 	.word	0x20000988
 80031c4:	08007538 	.word	0x08007538
 80031c8:	200000d0 	.word	0x200000d0
 80031cc:	200000e8 	.word	0x200000e8
 80031d0:	20000100 	.word	0x20000100
 80031d4:	20000118 	.word	0x20000118
 80031d8:	20000020 	.word	0x20000020
 80031dc:	200009db 	.word	0x200009db
 80031e0:	20000014 	.word	0x20000014
 80031e4:	20000018 	.word	0x20000018
 80031e8:	080024b9 	.word	0x080024b9
 80031ec:	2000000f 	.word	0x2000000f
 80031f0:	20000010 	.word	0x20000010
 80031f4:	080028a1 	.word	0x080028a1
 80031f8:	2000098c 	.word	0x2000098c
 80031fc:	08007bf8 	.word	0x08007bf8
 8003200:	08007c48 	.word	0x08007c48
 8003204:	08007542 	.word	0x08007542
 8003208:	0800754e 	.word	0x0800754e

0800320c <stateinit_exitmagazin>:
{
 800320c:	b508      	push	{r3, lr}
  if(++counter < 15) LCD_printsprite((int8)(8 + counter * 4), 64, &magazin_sprite);
 800320e:	4a0f      	ldr	r2, [pc, #60]	; (800324c <stateinit_exitmagazin+0x40>)
 8003210:	7810      	ldrb	r0, [r2, #0]
 8003212:	1c43      	adds	r3, r0, #1
 8003214:	b2db      	uxtb	r3, r3
 8003216:	2b0e      	cmp	r3, #14
 8003218:	7013      	strb	r3, [r2, #0]
 800321a:	d80c      	bhi.n	8003236 <stateinit_exitmagazin+0x2a>
 800321c:	3003      	adds	r0, #3
 800321e:	0080      	lsls	r0, r0, #2
 8003220:	2140      	movs	r1, #64	; 0x40
 8003222:	4a0b      	ldr	r2, [pc, #44]	; (8003250 <stateinit_exitmagazin+0x44>)
 8003224:	b240      	sxtb	r0, r0
 8003226:	f7fd fd5b 	bl	8000ce0 <LCD_printsprite>
  drawgamer();
 800322a:	f7ff fd1b 	bl	8002c64 <drawgamer>
}
 800322e:	e8bd 4008 	ldmia.w	sp!, {r3, lr}
  drawinfo();
 8003232:	f7ff bdc9 	b.w	8002dc8 <drawinfo>
    counter = 0;
 8003236:	2300      	movs	r3, #0
    gamestate = STATE_RUNGAME;
 8003238:	2107      	movs	r1, #7
    counter = 0;
 800323a:	7013      	strb	r3, [r2, #0]
    gamestate = STATE_RUNGAME;
 800323c:	4a05      	ldr	r2, [pc, #20]	; (8003254 <stateinit_exitmagazin+0x48>)
 800323e:	7011      	strb	r1, [r2, #0]
    gameevent = EVENT_NONE;
 8003240:	4a05      	ldr	r2, [pc, #20]	; (8003258 <stateinit_exitmagazin+0x4c>)
 8003242:	7013      	strb	r3, [r2, #0]
    SchedGamerunEventsResume();
 8003244:	f7ff feea 	bl	800301c <SchedGamerunEventsResume>
 8003248:	e7ef      	b.n	800322a <stateinit_exitmagazin+0x1e>
 800324a:	bf00      	nop
 800324c:	200009d8 	.word	0x200009d8
 8003250:	08008520 	.word	0x08008520
 8003254:	200009dc 	.word	0x200009dc
 8003258:	200009db 	.word	0x200009db

0800325c <SchedGamerunEventsRemove>:
{
 800325c:	b508      	push	{r3, lr}
  SchedRemoveEvent(createevilstar);
 800325e:	480a      	ldr	r0, [pc, #40]	; (8003288 <SchedGamerunEventsRemove+0x2c>)
 8003260:	f7fe febe 	bl	8001fe0 <SchedRemoveEvent>
  SchedRemoveEvent(createbullet);
 8003264:	4809      	ldr	r0, [pc, #36]	; (800328c <SchedGamerunEventsRemove+0x30>)
 8003266:	f7fe febb 	bl	8001fe0 <SchedRemoveEvent>
  SchedRemoveEvent(createbomb);
 800326a:	4809      	ldr	r0, [pc, #36]	; (8003290 <SchedGamerunEventsRemove+0x34>)
 800326c:	f7fe feb8 	bl	8001fe0 <SchedRemoveEvent>
  SchedRemoveEvent(movbullet);
 8003270:	4808      	ldr	r0, [pc, #32]	; (8003294 <SchedGamerunEventsRemove+0x38>)
 8003272:	f7fe feb5 	bl	8001fe0 <SchedRemoveEvent>
  SchedRemoveEvent(move_enemy_objects);
 8003276:	4808      	ldr	r0, [pc, #32]	; (8003298 <SchedGamerunEventsRemove+0x3c>)
 8003278:	f7fe feb2 	bl	8001fe0 <SchedRemoveEvent>
}
 800327c:	e8bd 4008 	ldmia.w	sp!, {r3, lr}
  SchedRemoveEvent(gameprogress);
 8003280:	4806      	ldr	r0, [pc, #24]	; (800329c <SchedGamerunEventsRemove+0x40>)
 8003282:	f7fe bead 	b.w	8001fe0 <SchedRemoveEvent>
 8003286:	bf00      	nop
 8003288:	080024b9 	.word	0x080024b9
 800328c:	08002509 	.word	0x08002509
 8003290:	0800256d 	.word	0x0800256d
 8003294:	08002391 	.word	0x08002391
 8003298:	080028a1 	.word	0x080028a1
 800329c:	080025d1 	.word	0x080025d1

080032a0 <stateinit_gamestop>:
{
 80032a0:	b508      	push	{r3, lr}
  SchedGamerunEventsRemove();
 80032a2:	f7ff ffdb 	bl	800325c <SchedGamerunEventsRemove>
 80032a6:	2300      	movs	r3, #0
  for(uint8 i = 0; i < EVILSTAR_MAX; i++) EvilStar[i].state = 0;
 80032a8:	4619      	mov	r1, r3
 80032aa:	4a11      	ldr	r2, [pc, #68]	; (80032f0 <stateinit_gamestop+0x50>)
 80032ac:	f802 1023 	strb.w	r1, [r2, r3, lsl #2]
 80032b0:	3301      	adds	r3, #1
 80032b2:	2b0f      	cmp	r3, #15
 80032b4:	d1fa      	bne.n	80032ac <stateinit_gamestop+0xc>
 80032b6:	2300      	movs	r3, #0
  for(uint8 i = 0; i < COIN_MAX; i++) Coin[i].state = 0;
 80032b8:	4619      	mov	r1, r3
 80032ba:	4a0e      	ldr	r2, [pc, #56]	; (80032f4 <stateinit_gamestop+0x54>)
 80032bc:	f802 1023 	strb.w	r1, [r2, r3, lsl #2]
 80032c0:	3301      	adds	r3, #1
 80032c2:	2b0f      	cmp	r3, #15
 80032c4:	d1fa      	bne.n	80032bc <stateinit_gamestop+0x1c>
 80032c6:	2200      	movs	r2, #0
  for(uint8 i = 0; i < BULLET_MAX; i++) Bullet[i].state = 0;
 80032c8:	4613      	mov	r3, r2
 80032ca:	490b      	ldr	r1, [pc, #44]	; (80032f8 <stateinit_gamestop+0x58>)
 80032cc:	eb02 0042 	add.w	r0, r2, r2, lsl #1
 80032d0:	3201      	adds	r2, #1
 80032d2:	2a19      	cmp	r2, #25
 80032d4:	5443      	strb	r3, [r0, r1]
 80032d6:	d1f9      	bne.n	80032cc <stateinit_gamestop+0x2c>
  GAME_STORY_STRING_NUM = 0;
 80032d8:	4a08      	ldr	r2, [pc, #32]	; (80032fc <stateinit_gamestop+0x5c>)
 80032da:	7013      	strb	r3, [r2, #0]
  Game.level_progress = 0;
 80032dc:	4a08      	ldr	r2, [pc, #32]	; (8003300 <stateinit_gamestop+0x60>)
 80032de:	7053      	strb	r3, [r2, #1]
  gamestate = STATE_MAINMENU;
 80032e0:	4a08      	ldr	r2, [pc, #32]	; (8003304 <stateinit_gamestop+0x64>)
 80032e2:	7013      	strb	r3, [r2, #0]
  gameevent = EVENT_NONE;
 80032e4:	4a08      	ldr	r2, [pc, #32]	; (8003308 <stateinit_gamestop+0x68>)
 80032e6:	7013      	strb	r3, [r2, #0]
  coursorpos = COURS_POS_1;
 80032e8:	4a08      	ldr	r2, [pc, #32]	; (800330c <stateinit_gamestop+0x6c>)
 80032ea:	7013      	strb	r3, [r2, #0]
}
 80032ec:	bd08      	pop	{r3, pc}
 80032ee:	bf00      	nop
 80032f0:	20000943 	.word	0x20000943
 80032f4:	20000907 	.word	0x20000907
 80032f8:	200008bc 	.word	0x200008bc
 80032fc:	2000097f 	.word	0x2000097f
 8003300:	20000980 	.word	0x20000980
 8003304:	200009dc 	.word	0x200009dc
 8003308:	200009db 	.word	0x200009db
 800330c:	200009da 	.word	0x200009da

08003310 <menu_getevent>:
{
 8003310:	b530      	push	{r4, r5, lr}
  IF_ANY_BTN_PRESS(
 8003312:	4d14      	ldr	r5, [pc, #80]	; (8003364 <menu_getevent+0x54>)
 8003314:	4c14      	ldr	r4, [pc, #80]	; (8003368 <menu_getevent+0x58>)
 8003316:	7c6b      	ldrb	r3, [r5, #17]
 8003318:	7c62      	ldrb	r2, [r4, #17]
 800331a:	4814      	ldr	r0, [pc, #80]	; (800336c <menu_getevent+0x5c>)
 800331c:	4313      	orrs	r3, r2
 800331e:	7c42      	ldrb	r2, [r0, #17]
 8003320:	4313      	orrs	r3, r2
 8003322:	4a13      	ldr	r2, [pc, #76]	; (8003370 <menu_getevent+0x60>)
 8003324:	7c51      	ldrb	r1, [r2, #17]
 8003326:	430b      	orrs	r3, r1
 8003328:	4912      	ldr	r1, [pc, #72]	; (8003374 <menu_getevent+0x64>)
 800332a:	d015      	beq.n	8003358 <menu_getevent+0x48>
 800332c:	2300      	movs	r3, #0
 800332e:	7453      	strb	r3, [r2, #17]
 8003330:	746b      	strb	r3, [r5, #17]
 8003332:	7463      	strb	r3, [r4, #17]
 8003334:	7443      	strb	r3, [r0, #17]
 8003336:	4b10      	ldr	r3, [pc, #64]	; (8003378 <menu_getevent+0x68>)
 8003338:	781a      	ldrb	r2, [r3, #0]
 800333a:	2a04      	cmp	r2, #4
 800333c:	d805      	bhi.n	800334a <menu_getevent+0x3a>
 800333e:	2a01      	cmp	r2, #1
 8003340:	4b0e      	ldr	r3, [pc, #56]	; (800337c <menu_getevent+0x6c>)
 8003342:	d807      	bhi.n	8003354 <menu_getevent+0x44>
 8003344:	b922      	cbnz	r2, 8003350 <menu_getevent+0x40>
 8003346:	2201      	movs	r2, #1
 8003348:	701a      	strb	r2, [r3, #0]
  if(somethinghappen) somethinghappen = 0;
 800334a:	2300      	movs	r3, #0
 800334c:	700b      	strb	r3, [r1, #0]
}
 800334e:	bd30      	pop	{r4, r5, pc}
  IF_ANY_BTN_PRESS(
 8003350:	2202      	movs	r2, #2
 8003352:	e7f9      	b.n	8003348 <menu_getevent+0x38>
 8003354:	2203      	movs	r2, #3
 8003356:	e7f7      	b.n	8003348 <menu_getevent+0x38>
  if(somethinghappen) somethinghappen = 0;
 8003358:	780b      	ldrb	r3, [r1, #0]
 800335a:	2b00      	cmp	r3, #0
 800335c:	d1f5      	bne.n	800334a <menu_getevent+0x3a>
  else gameevent = EVENT_NONE;
 800335e:	4a07      	ldr	r2, [pc, #28]	; (800337c <menu_getevent+0x6c>)
 8003360:	7013      	strb	r3, [r2, #0]
}
 8003362:	e7f4      	b.n	800334e <menu_getevent+0x3e>
 8003364:	200000d0 	.word	0x200000d0
 8003368:	200000e8 	.word	0x200000e8
 800336c:	20000100 	.word	0x20000100
 8003370:	20000118 	.word	0x20000118
 8003374:	200009e1 	.word	0x200009e1
 8003378:	200009da 	.word	0x200009da
 800337c:	200009db 	.word	0x200009db

08003380 <magaz_getevent>:
{
 8003380:	b530      	push	{r4, r5, lr}
  IF_ANY_BTN_PRESS(
 8003382:	4d19      	ldr	r5, [pc, #100]	; (80033e8 <magaz_getevent+0x68>)
 8003384:	4c19      	ldr	r4, [pc, #100]	; (80033ec <magaz_getevent+0x6c>)
 8003386:	7c6b      	ldrb	r3, [r5, #17]
 8003388:	7c62      	ldrb	r2, [r4, #17]
 800338a:	4819      	ldr	r0, [pc, #100]	; (80033f0 <magaz_getevent+0x70>)
 800338c:	4313      	orrs	r3, r2
 800338e:	4919      	ldr	r1, [pc, #100]	; (80033f4 <magaz_getevent+0x74>)
 8003390:	7c42      	ldrb	r2, [r0, #17]
 8003392:	4313      	orrs	r3, r2
 8003394:	7c4a      	ldrb	r2, [r1, #17]
 8003396:	4313      	orrs	r3, r2
 8003398:	4a17      	ldr	r2, [pc, #92]	; (80033f8 <magaz_getevent+0x78>)
 800339a:	d01f      	beq.n	80033dc <magaz_getevent+0x5c>
 800339c:	2300      	movs	r3, #0
 800339e:	746b      	strb	r3, [r5, #17]
 80033a0:	7463      	strb	r3, [r4, #17]
 80033a2:	7443      	strb	r3, [r0, #17]
 80033a4:	744b      	strb	r3, [r1, #17]
 80033a6:	4b15      	ldr	r3, [pc, #84]	; (80033fc <magaz_getevent+0x7c>)
 80033a8:	781b      	ldrb	r3, [r3, #0]
 80033aa:	2b04      	cmp	r3, #4
 80033ac:	d807      	bhi.n	80033be <magaz_getevent+0x3e>
 80033ae:	e8df f003 	tbb	[pc, r3]
 80033b2:	0903      	.short	0x0903
 80033b4:	0f0c      	.short	0x0f0c
 80033b6:	12          	.byte	0x12
 80033b7:	00          	.byte	0x00
 80033b8:	2106      	movs	r1, #6
 80033ba:	4b11      	ldr	r3, [pc, #68]	; (8003400 <magaz_getevent+0x80>)
 80033bc:	7019      	strb	r1, [r3, #0]
  if(somethinghappen) somethinghappen = 0;
 80033be:	2300      	movs	r3, #0
  else gameevent = EVENT_NONE;
 80033c0:	7013      	strb	r3, [r2, #0]
}
 80033c2:	bd30      	pop	{r4, r5, pc}
  IF_ANY_BTN_PRESS(
 80033c4:	2101      	movs	r1, #1
 80033c6:	4b0e      	ldr	r3, [pc, #56]	; (8003400 <magaz_getevent+0x80>)
 80033c8:	e7f8      	b.n	80033bc <magaz_getevent+0x3c>
 80033ca:	2102      	movs	r1, #2
 80033cc:	4b0c      	ldr	r3, [pc, #48]	; (8003400 <magaz_getevent+0x80>)
 80033ce:	e7f5      	b.n	80033bc <magaz_getevent+0x3c>
 80033d0:	2103      	movs	r1, #3
 80033d2:	4b0b      	ldr	r3, [pc, #44]	; (8003400 <magaz_getevent+0x80>)
 80033d4:	e7f2      	b.n	80033bc <magaz_getevent+0x3c>
 80033d6:	2104      	movs	r1, #4
 80033d8:	4b09      	ldr	r3, [pc, #36]	; (8003400 <magaz_getevent+0x80>)
 80033da:	e7ef      	b.n	80033bc <magaz_getevent+0x3c>
  if(somethinghappen) somethinghappen = 0;
 80033dc:	7813      	ldrb	r3, [r2, #0]
 80033de:	2b00      	cmp	r3, #0
 80033e0:	d1ed      	bne.n	80033be <magaz_getevent+0x3e>
  else gameevent = EVENT_NONE;
 80033e2:	4a07      	ldr	r2, [pc, #28]	; (8003400 <magaz_getevent+0x80>)
 80033e4:	e7ec      	b.n	80033c0 <magaz_getevent+0x40>
 80033e6:	bf00      	nop
 80033e8:	200000d0 	.word	0x200000d0
 80033ec:	200000e8 	.word	0x200000e8
 80033f0:	20000100 	.word	0x20000100
 80033f4:	20000118 	.word	0x20000118
 80033f8:	200009e0 	.word	0x200009e0
 80033fc:	200009da 	.word	0x200009da
 8003400:	200009db 	.word	0x200009db

08003404 <coursormovdisp>:
{
 8003404:	b510      	push	{r4, lr}
  if(gamestate != STATE_MAGAZIN)
 8003406:	4c55      	ldr	r4, [pc, #340]	; (800355c <coursormovdisp+0x158>)
    if (joystick.down) {
 8003408:	4855      	ldr	r0, [pc, #340]	; (8003560 <coursormovdisp+0x15c>)
  if(gamestate != STATE_MAGAZIN)
 800340a:	7824      	ldrb	r4, [r4, #0]
      coursorpos++; 
 800340c:	4b55      	ldr	r3, [pc, #340]	; (8003564 <coursormovdisp+0x160>)
  if(gamestate != STATE_MAGAZIN)
 800340e:	2c08      	cmp	r4, #8
    if (joystick.down) {
 8003410:	7802      	ldrb	r2, [r0, #0]
      coursorpos++; 
 8003412:	7819      	ldrb	r1, [r3, #0]
  if(gamestate != STATE_MAGAZIN)
 8003414:	d022      	beq.n	800345c <coursormovdisp+0x58>
    if (joystick.down) {
 8003416:	0794      	lsls	r4, r2, #30
 8003418:	d509      	bpl.n	800342e <coursormovdisp+0x2a>
      coursorpos++; 
 800341a:	3101      	adds	r1, #1
 800341c:	b2c9      	uxtb	r1, r1
      joystick.down = 0;
 800341e:	f36f 0241 	bfc	r2, #1, #1
      if(coursorpos >= COURS_POS_3) coursorpos = COURS_POS_3;
 8003422:	2901      	cmp	r1, #1
      joystick.down = 0;
 8003424:	7002      	strb	r2, [r0, #0]
      if(coursorpos >= COURS_POS_3) coursorpos = COURS_POS_3;
 8003426:	bf8a      	itet	hi
 8003428:	2202      	movhi	r2, #2
      coursorpos++; 
 800342a:	7019      	strbls	r1, [r3, #0]
      if(coursorpos >= COURS_POS_3) coursorpos = COURS_POS_3;
 800342c:	701a      	strbhi	r2, [r3, #0]
    if (joystick.up){
 800342e:	7802      	ldrb	r2, [r0, #0]
 8003430:	07d1      	lsls	r1, r2, #31
 8003432:	d506      	bpl.n	8003442 <coursormovdisp+0x3e>
      if(coursorpos != COURS_POS_1) coursorpos--; 
 8003434:	7819      	ldrb	r1, [r3, #0]
      joystick.up = 0;
 8003436:	f36f 0200 	bfc	r2, #0, #1
 800343a:	7002      	strb	r2, [r0, #0]
      if(coursorpos != COURS_POS_1) coursorpos--; 
 800343c:	b141      	cbz	r1, 8003450 <coursormovdisp+0x4c>
 800343e:	3901      	subs	r1, #1
 8003440:	7019      	strb	r1, [r3, #0]
    switch(coursorpos)
 8003442:	781b      	ldrb	r3, [r3, #0]
 8003444:	2b04      	cmp	r3, #4
 8003446:	f200 8088 	bhi.w	800355a <coursormovdisp+0x156>
 800344a:	2b01      	cmp	r3, #1
 800344c:	d826      	bhi.n	800349c <coursormovdisp+0x98>
 800344e:	bb13      	cbnz	r3, 8003496 <coursormovdisp+0x92>
        LCD_printmenucoursor(2, 4);
 8003450:	2104      	movs	r1, #4
 8003452:	2002      	movs	r0, #2
}
 8003454:	e8bd 4010 	ldmia.w	sp!, {r4, lr}
        LCD_printmenucoursor(4, 4);
 8003458:	f7fd bb8a 	b.w	8000b70 <LCD_printmenucoursor>
    if (joystick.right) {
 800345c:	0714      	lsls	r4, r2, #28
 800345e:	d508      	bpl.n	8003472 <coursormovdisp+0x6e>
      if(coursorpos >= COURS_POS_5) coursorpos = COURS_POS_5;
 8003460:	2903      	cmp	r1, #3
      joystick.right = 0;
 8003462:	f36f 02c3 	bfc	r2, #3, #1
 8003466:	7002      	strb	r2, [r0, #0]
      if(coursorpos >= COURS_POS_5) coursorpos = COURS_POS_5;
 8003468:	bf8b      	itete	hi
 800346a:	2204      	movhi	r2, #4
      else coursorpos++; 
 800346c:	3101      	addls	r1, #1
      if(coursorpos >= COURS_POS_5) coursorpos = COURS_POS_5;
 800346e:	701a      	strbhi	r2, [r3, #0]
      else coursorpos++; 
 8003470:	7019      	strbls	r1, [r3, #0]
    if (joystick.left){
 8003472:	7802      	ldrb	r2, [r0, #0]
 8003474:	0751      	lsls	r1, r2, #29
 8003476:	d506      	bpl.n	8003486 <coursormovdisp+0x82>
      if(coursorpos != COURS_POS_1) coursorpos--; 
 8003478:	7819      	ldrb	r1, [r3, #0]
      joystick.left = 0;
 800347a:	f36f 0282 	bfc	r2, #2, #1
 800347e:	7002      	strb	r2, [r0, #0]
      if(coursorpos != COURS_POS_1) coursorpos--; 
 8003480:	b179      	cbz	r1, 80034a2 <coursormovdisp+0x9e>
 8003482:	3901      	subs	r1, #1
 8003484:	7019      	strb	r1, [r3, #0]
    switch(coursorpos)
 8003486:	781b      	ldrb	r3, [r3, #0]
 8003488:	2b04      	cmp	r3, #4
 800348a:	d866      	bhi.n	800355a <coursormovdisp+0x156>
 800348c:	e8df f003 	tbb	[pc, r3]
 8003490:	43321f09 	.word	0x43321f09
 8003494:	54          	.byte	0x54
 8003495:	00          	.byte	0x00
        LCD_printmenucoursor(4, 4);
 8003496:	2104      	movs	r1, #4
 8003498:	4608      	mov	r0, r1
 800349a:	e7db      	b.n	8003454 <coursormovdisp+0x50>
        LCD_printmenucoursor(6, 4);
 800349c:	2104      	movs	r1, #4
 800349e:	2006      	movs	r0, #6
 80034a0:	e7d8      	b.n	8003454 <coursormovdisp+0x50>
        LCD_printhorline(26, 63, 36);
 80034a2:	2224      	movs	r2, #36	; 0x24
 80034a4:	213f      	movs	r1, #63	; 0x3f
 80034a6:	201a      	movs	r0, #26
 80034a8:	f7fd fbf0 	bl	8000c8c <LCD_printhorline>
        LCD_printhorline(26, 54, 36);
 80034ac:	2224      	movs	r2, #36	; 0x24
 80034ae:	2136      	movs	r1, #54	; 0x36
 80034b0:	201a      	movs	r0, #26
 80034b2:	f7fd fbeb 	bl	8000c8c <LCD_printhorline>
        LCD_printvertline(9, 54, 36);
 80034b6:	2224      	movs	r2, #36	; 0x24
 80034b8:	2136      	movs	r1, #54	; 0x36
 80034ba:	2009      	movs	r0, #9
 80034bc:	f7fd fb8c 	bl	8000bd8 <LCD_printvertline>
        LCD_printvertline(9, 54, 62);
 80034c0:	223e      	movs	r2, #62	; 0x3e
 80034c2:	2136      	movs	r1, #54	; 0x36
 80034c4:	2009      	movs	r0, #9
}
 80034c6:	e8bd 4010 	ldmia.w	sp!, {r4, lr}
        LCD_printvertline(3, 58, 125);
 80034ca:	f7fd bb85 	b.w	8000bd8 <LCD_printvertline>
        LCD_printhorline(12, 61, 66);
 80034ce:	2242      	movs	r2, #66	; 0x42
 80034d0:	213d      	movs	r1, #61	; 0x3d
 80034d2:	200c      	movs	r0, #12
 80034d4:	f7fd fbda 	bl	8000c8c <LCD_printhorline>
        LCD_printhorline(12, 62, 66);
 80034d8:	2242      	movs	r2, #66	; 0x42
 80034da:	213e      	movs	r1, #62	; 0x3e
 80034dc:	200c      	movs	r0, #12
 80034de:	f7fd fbd5 	bl	8000c8c <LCD_printhorline>
        LCD_printvertline(3, 58, 66);
 80034e2:	2242      	movs	r2, #66	; 0x42
 80034e4:	213a      	movs	r1, #58	; 0x3a
 80034e6:	2003      	movs	r0, #3
 80034e8:	f7fd fb76 	bl	8000bd8 <LCD_printvertline>
        LCD_printvertline(3, 58, 78);
 80034ec:	224e      	movs	r2, #78	; 0x4e
        LCD_printvertline(3, 58, 125);
 80034ee:	213a      	movs	r1, #58	; 0x3a
 80034f0:	2003      	movs	r0, #3
 80034f2:	e7e8      	b.n	80034c6 <coursormovdisp+0xc2>
        LCD_printhorline(18, 61, 78);
 80034f4:	224e      	movs	r2, #78	; 0x4e
 80034f6:	213d      	movs	r1, #61	; 0x3d
 80034f8:	2012      	movs	r0, #18
 80034fa:	f7fd fbc7 	bl	8000c8c <LCD_printhorline>
        LCD_printhorline(18, 62, 78);
 80034fe:	224e      	movs	r2, #78	; 0x4e
 8003500:	213e      	movs	r1, #62	; 0x3e
 8003502:	2012      	movs	r0, #18
 8003504:	f7fd fbc2 	bl	8000c8c <LCD_printhorline>
        LCD_printvertline(3, 58, 78);
 8003508:	224e      	movs	r2, #78	; 0x4e
 800350a:	213a      	movs	r1, #58	; 0x3a
 800350c:	2003      	movs	r0, #3
 800350e:	f7fd fb63 	bl	8000bd8 <LCD_printvertline>
        LCD_printvertline(3, 58, 96);
 8003512:	2260      	movs	r2, #96	; 0x60
 8003514:	e7eb      	b.n	80034ee <coursormovdisp+0xea>
        LCD_printhorline(14, 61, 97);
 8003516:	2261      	movs	r2, #97	; 0x61
 8003518:	213d      	movs	r1, #61	; 0x3d
 800351a:	200e      	movs	r0, #14
 800351c:	f7fd fbb6 	bl	8000c8c <LCD_printhorline>
        LCD_printhorline(14, 62, 97);
 8003520:	2261      	movs	r2, #97	; 0x61
 8003522:	213e      	movs	r1, #62	; 0x3e
 8003524:	200e      	movs	r0, #14
 8003526:	f7fd fbb1 	bl	8000c8c <LCD_printhorline>
        LCD_printvertline(3, 58, 97);
 800352a:	2261      	movs	r2, #97	; 0x61
 800352c:	213a      	movs	r1, #58	; 0x3a
 800352e:	2003      	movs	r0, #3
 8003530:	f7fd fb52 	bl	8000bd8 <LCD_printvertline>
        LCD_printvertline(3, 58, 111);
 8003534:	226f      	movs	r2, #111	; 0x6f
 8003536:	e7da      	b.n	80034ee <coursormovdisp+0xea>
        LCD_printhorline(14, 61, 111);
 8003538:	226f      	movs	r2, #111	; 0x6f
 800353a:	213d      	movs	r1, #61	; 0x3d
 800353c:	200e      	movs	r0, #14
 800353e:	f7fd fba5 	bl	8000c8c <LCD_printhorline>
        LCD_printhorline(14, 62, 111);
 8003542:	226f      	movs	r2, #111	; 0x6f
 8003544:	213e      	movs	r1, #62	; 0x3e
 8003546:	200e      	movs	r0, #14
 8003548:	f7fd fba0 	bl	8000c8c <LCD_printhorline>
        LCD_printvertline(3, 58, 111);
 800354c:	226f      	movs	r2, #111	; 0x6f
 800354e:	213a      	movs	r1, #58	; 0x3a
 8003550:	2003      	movs	r0, #3
 8003552:	f7fd fb41 	bl	8000bd8 <LCD_printvertline>
        LCD_printvertline(3, 58, 125);
 8003556:	227d      	movs	r2, #125	; 0x7d
 8003558:	e7c9      	b.n	80034ee <coursormovdisp+0xea>
}
 800355a:	bd10      	pop	{r4, pc}
 800355c:	200009dc 	.word	0x200009dc
 8003560:	20000133 	.word	0x20000133
 8003564:	200009da 	.word	0x200009da

08003568 <statehandler_menumain>:
{
 8003568:	b510      	push	{r4, lr}
  gamestate = STATE_MAINMENU;
 800356a:	2400      	movs	r4, #0
 800356c:	4b10      	ldr	r3, [pc, #64]	; (80035b0 <statehandler_menumain+0x48>)
 800356e:	701c      	strb	r4, [r3, #0]
  menu_getevent();
 8003570:	f7ff fece 	bl	8003310 <menu_getevent>
  LCD_printstr8x5((uint8*)"ГАЛАКТИЧЕСКИЙ ЗВЕЗДЕЦ", 0, 0);
 8003574:	4622      	mov	r2, r4
 8003576:	4621      	mov	r1, r4
 8003578:	480e      	ldr	r0, [pc, #56]	; (80035b4 <statehandler_menumain+0x4c>)
 800357a:	f7fd f985 	bl	8000888 <LCD_printstr8x5>
  LCD_printstr8x5((uint8*)"НОВАЯ ИГРА", 2, 19);
 800357e:	2213      	movs	r2, #19
 8003580:	2102      	movs	r1, #2
 8003582:	480d      	ldr	r0, [pc, #52]	; (80035b8 <statehandler_menumain+0x50>)
 8003584:	f7fd f980 	bl	8000888 <LCD_printstr8x5>
  LCD_printstr8x5((uint8*)"ЗАГРУЗИТЬ ИГРУ", 4, 19);
 8003588:	2213      	movs	r2, #19
 800358a:	2104      	movs	r1, #4
 800358c:	480b      	ldr	r0, [pc, #44]	; (80035bc <statehandler_menumain+0x54>)
 800358e:	f7fd f97b 	bl	8000888 <LCD_printstr8x5>
  LCD_printstr8x5((uint8*)"ВЫЙТИ", 6, 19);
 8003592:	2213      	movs	r2, #19
 8003594:	2106      	movs	r1, #6
 8003596:	480a      	ldr	r0, [pc, #40]	; (80035c0 <statehandler_menumain+0x58>)
 8003598:	f7fd f976 	bl	8000888 <LCD_printstr8x5>
  coursormovdisp();
 800359c:	f7ff ff32 	bl	8003404 <coursormovdisp>
  if(gameevent == EVENT_SELPOS_2) coursorpos = COURS_POS_1; // coursor position when entering the load menu in "SLOT1"
 80035a0:	4b08      	ldr	r3, [pc, #32]	; (80035c4 <statehandler_menumain+0x5c>)
 80035a2:	781b      	ldrb	r3, [r3, #0]
 80035a4:	2b02      	cmp	r3, #2
 80035a6:	bf04      	itt	eq
 80035a8:	4b07      	ldreq	r3, [pc, #28]	; (80035c8 <statehandler_menumain+0x60>)
 80035aa:	701c      	strbeq	r4, [r3, #0]
}
 80035ac:	bd10      	pop	{r4, pc}
 80035ae:	bf00      	nop
 80035b0:	200009dc 	.word	0x200009dc
 80035b4:	08007558 	.word	0x08007558
 80035b8:	0800756e 	.word	0x0800756e
 80035bc:	08007579 	.word	0x08007579
 80035c0:	08007588 	.word	0x08007588
 80035c4:	200009db 	.word	0x200009db
 80035c8:	200009da 	.word	0x200009da

080035cc <statehandler_menuload>:
{ 
 80035cc:	b510      	push	{r4, lr}
  gamestate = STATE_LOADMENU;
 80035ce:	2401      	movs	r4, #1
 80035d0:	4b10      	ldr	r3, [pc, #64]	; (8003614 <statehandler_menuload+0x48>)
 80035d2:	701c      	strb	r4, [r3, #0]
  menu_getevent();
 80035d4:	f7ff fe9c 	bl	8003310 <menu_getevent>
  LCD_printstr8x5((uint8*)"ЗАГРУЗКА ИГРЫ", 0, 5);
 80035d8:	2205      	movs	r2, #5
 80035da:	2100      	movs	r1, #0
 80035dc:	480e      	ldr	r0, [pc, #56]	; (8003618 <statehandler_menuload+0x4c>)
 80035de:	f7fd f953 	bl	8000888 <LCD_printstr8x5>
  LCD_printstr8x5(gameslot1, 2, 19);
 80035e2:	2213      	movs	r2, #19
 80035e4:	2102      	movs	r1, #2
 80035e6:	480d      	ldr	r0, [pc, #52]	; (800361c <statehandler_menuload+0x50>)
 80035e8:	f7fd f94e 	bl	8000888 <LCD_printstr8x5>
  LCD_printstr8x5(gameslot2, 4, 19);
 80035ec:	2213      	movs	r2, #19
 80035ee:	2104      	movs	r1, #4
 80035f0:	480b      	ldr	r0, [pc, #44]	; (8003620 <statehandler_menuload+0x54>)
 80035f2:	f7fd f949 	bl	8000888 <LCD_printstr8x5>
  LCD_printstr8x5((uint8*)"НАЗАД", 6, 19);
 80035f6:	2213      	movs	r2, #19
 80035f8:	2106      	movs	r1, #6
 80035fa:	480a      	ldr	r0, [pc, #40]	; (8003624 <statehandler_menuload+0x58>)
 80035fc:	f7fd f944 	bl	8000888 <LCD_printstr8x5>
  coursormovdisp();
 8003600:	f7ff ff00 	bl	8003404 <coursormovdisp>
  if(gameevent == EVENT_SELPOS_3) coursorpos = COURS_POS_2; // coursor position when returning to the main menu in "LOAD"
 8003604:	4b08      	ldr	r3, [pc, #32]	; (8003628 <statehandler_menuload+0x5c>)
 8003606:	781b      	ldrb	r3, [r3, #0]
 8003608:	2b03      	cmp	r3, #3
 800360a:	bf04      	itt	eq
 800360c:	4b07      	ldreq	r3, [pc, #28]	; (800362c <statehandler_menuload+0x60>)
 800360e:	701c      	strbeq	r4, [r3, #0]
}
 8003610:	bd10      	pop	{r4, pc}
 8003612:	bf00      	nop
 8003614:	200009dc 	.word	0x200009dc
 8003618:	0800758e 	.word	0x0800758e
 800361c:	20000021 	.word	0x20000021
 8003620:	20000035 	.word	0x20000035
 8003624:	0800759c 	.word	0x0800759c
 8003628:	200009db 	.word	0x200009db
 800362c:	200009da 	.word	0x200009da

08003630 <statehandler_menupause>:
{
 8003630:	b510      	push	{r4, lr}
  if(gamestate == STATE_RUNGAME) SchedGamerunEventsPause();
 8003632:	4c11      	ldr	r4, [pc, #68]	; (8003678 <statehandler_menupause+0x48>)
 8003634:	7823      	ldrb	r3, [r4, #0]
 8003636:	2b07      	cmp	r3, #7
 8003638:	d101      	bne.n	800363e <statehandler_menupause+0xe>
 800363a:	f7ff fccd 	bl	8002fd8 <SchedGamerunEventsPause>
  gamestate = STATE_PAUSEMENU;
 800363e:	2303      	movs	r3, #3
 8003640:	7023      	strb	r3, [r4, #0]
  menu_getevent();
 8003642:	f7ff fe65 	bl	8003310 <menu_getevent>
  LCD_printstr8x5((uint8*)"ПАУЗА", 0, 5);
 8003646:	2205      	movs	r2, #5
 8003648:	2100      	movs	r1, #0
 800364a:	480c      	ldr	r0, [pc, #48]	; (800367c <statehandler_menupause+0x4c>)
 800364c:	f7fd f91c 	bl	8000888 <LCD_printstr8x5>
  LCD_printstr8x5((uint8*)"СОХРАНИТЬ", 2, 19);
 8003650:	2213      	movs	r2, #19
 8003652:	2102      	movs	r1, #2
 8003654:	480a      	ldr	r0, [pc, #40]	; (8003680 <statehandler_menupause+0x50>)
 8003656:	f7fd f917 	bl	8000888 <LCD_printstr8x5>
  LCD_printstr8x5((uint8*)"ВЕРНУТЬСЯ К ИГРЕ", 4, 19);
 800365a:	2213      	movs	r2, #19
 800365c:	2104      	movs	r1, #4
 800365e:	4809      	ldr	r0, [pc, #36]	; (8003684 <statehandler_menupause+0x54>)
 8003660:	f7fd f912 	bl	8000888 <LCD_printstr8x5>
  LCD_printstr8x5((uint8*)"ВЫЙТИ", 6, 19);
 8003664:	2213      	movs	r2, #19
 8003666:	2106      	movs	r1, #6
 8003668:	4807      	ldr	r0, [pc, #28]	; (8003688 <statehandler_menupause+0x58>)
 800366a:	f7fd f90d 	bl	8000888 <LCD_printstr8x5>
}
 800366e:	e8bd 4010 	ldmia.w	sp!, {r4, lr}
  coursormovdisp();
 8003672:	f7ff bec7 	b.w	8003404 <coursormovdisp>
 8003676:	bf00      	nop
 8003678:	200009dc 	.word	0x200009dc
 800367c:	080075a2 	.word	0x080075a2
 8003680:	080075a8 	.word	0x080075a8
 8003684:	080075b2 	.word	0x080075b2
 8003688:	08007588 	.word	0x08007588

0800368c <statehandler_menusave>:
{
 800368c:	b510      	push	{r4, lr}
  gamestate = STATE_SAVEMENU;
 800368e:	2404      	movs	r4, #4
 8003690:	4b10      	ldr	r3, [pc, #64]	; (80036d4 <statehandler_menusave+0x48>)
 8003692:	701c      	strb	r4, [r3, #0]
  menu_getevent();
 8003694:	f7ff fe3c 	bl	8003310 <menu_getevent>
  LCD_printstr8x5((uint8*)"СОХРАНЕНИЕ ИГРЫ", 0, 5);
 8003698:	2205      	movs	r2, #5
 800369a:	2100      	movs	r1, #0
 800369c:	480e      	ldr	r0, [pc, #56]	; (80036d8 <statehandler_menusave+0x4c>)
 800369e:	f7fd f8f3 	bl	8000888 <LCD_printstr8x5>
  LCD_printstr8x5(gameslot1, 2, 19);
 80036a2:	2213      	movs	r2, #19
 80036a4:	2102      	movs	r1, #2
 80036a6:	480d      	ldr	r0, [pc, #52]	; (80036dc <statehandler_menusave+0x50>)
 80036a8:	f7fd f8ee 	bl	8000888 <LCD_printstr8x5>
  LCD_printstr8x5(gameslot2, 4, 19);
 80036ac:	2213      	movs	r2, #19
 80036ae:	4621      	mov	r1, r4
 80036b0:	480b      	ldr	r0, [pc, #44]	; (80036e0 <statehandler_menusave+0x54>)
 80036b2:	f7fd f8e9 	bl	8000888 <LCD_printstr8x5>
  LCD_printstr8x5((uint8*)"НАЗАД", 6, 19);
 80036b6:	2213      	movs	r2, #19
 80036b8:	2106      	movs	r1, #6
 80036ba:	480a      	ldr	r0, [pc, #40]	; (80036e4 <statehandler_menusave+0x58>)
 80036bc:	f7fd f8e4 	bl	8000888 <LCD_printstr8x5>
  coursormovdisp();
 80036c0:	f7ff fea0 	bl	8003404 <coursormovdisp>
  if(gameevent == EVENT_SELPOS_3) coursorpos = COURS_POS_1; // coursor position when returning to the pause menu in "SAVE"
 80036c4:	4b08      	ldr	r3, [pc, #32]	; (80036e8 <statehandler_menusave+0x5c>)
 80036c6:	781b      	ldrb	r3, [r3, #0]
 80036c8:	2b03      	cmp	r3, #3
 80036ca:	bf02      	ittt	eq
 80036cc:	2200      	moveq	r2, #0
 80036ce:	4b07      	ldreq	r3, [pc, #28]	; (80036ec <statehandler_menusave+0x60>)
 80036d0:	701a      	strbeq	r2, [r3, #0]
}
 80036d2:	bd10      	pop	{r4, pc}
 80036d4:	200009dc 	.word	0x200009dc
 80036d8:	080075c3 	.word	0x080075c3
 80036dc:	20000021 	.word	0x20000021
 80036e0:	20000035 	.word	0x20000035
 80036e4:	0800759c 	.word	0x0800759c
 80036e8:	200009db 	.word	0x200009db
 80036ec:	200009da 	.word	0x200009da

080036f0 <statehandler_magazin>:
{
 80036f0:	e92d 4ff7 	stmdb	sp!, {r0, r1, r2, r4, r5, r6, r7, r8, r9, sl, fp, lr}
  if(gamestate == STATE_RUNGAME) SchedGamerunEventsPause();
 80036f4:	4c70      	ldr	r4, [pc, #448]	; (80038b8 <statehandler_magazin+0x1c8>)
 80036f6:	7823      	ldrb	r3, [r4, #0]
 80036f8:	2b07      	cmp	r3, #7
 80036fa:	d101      	bne.n	8003700 <statehandler_magazin+0x10>
 80036fc:	f7ff fc6c 	bl	8002fd8 <SchedGamerunEventsPause>
  gamestate = STATE_MAGAZIN; 
 8003700:	2008      	movs	r0, #8
  if(gameevent == EVENT_ENTERMAGAZ) // entering magazin animation
 8003702:	f8df a1b8 	ldr.w	sl, [pc, #440]	; 80038bc <statehandler_magazin+0x1cc>
  gamestate = STATE_MAGAZIN; 
 8003706:	7020      	strb	r0, [r4, #0]
  if(gameevent == EVENT_ENTERMAGAZ) // entering magazin animation
 8003708:	f89a b000 	ldrb.w	fp, [sl]
 800370c:	f1bb 0f07 	cmp.w	fp, #7
 8003710:	f040 8084 	bne.w	800381c <statehandler_magazin+0x12c>
    if(GameFlags.FirstMagazEnter) {
 8003714:	f8df 91a8 	ldr.w	r9, [pc, #424]	; 80038c0 <statehandler_magazin+0x1d0>
 8003718:	f8df 81a8 	ldr.w	r8, [pc, #424]	; 80038c4 <statehandler_magazin+0x1d4>
 800371c:	f899 4000 	ldrb.w	r4, [r9]
 8003720:	4f69      	ldr	r7, [pc, #420]	; (80038c8 <statehandler_magazin+0x1d8>)
 8003722:	f014 0404 	ands.w	r4, r4, #4
 8003726:	4e69      	ldr	r6, [pc, #420]	; (80038cc <statehandler_magazin+0x1dc>)
 8003728:	4d69      	ldr	r5, [pc, #420]	; (80038d0 <statehandler_magazin+0x1e0>)
 800372a:	d051      	beq.n	80037d0 <statehandler_magazin+0xe0>
      if(k == 0){
 800372c:	f8df a1a4 	ldr.w	sl, [pc, #420]	; 80038d4 <statehandler_magazin+0x1e4>
 8003730:	f89a 4000 	ldrb.w	r4, [sl]
 8003734:	2c00      	cmp	r4, #0
 8003736:	d138      	bne.n	80037aa <statehandler_magazin+0xba>
        LCD_printstr8x5(gamestory_string[4], 1, 0);
 8003738:	4622      	mov	r2, r4
 800373a:	2101      	movs	r1, #1
 800373c:	4866      	ldr	r0, [pc, #408]	; (80038d8 <statehandler_magazin+0x1e8>)
 800373e:	f7fd f8a3 	bl	8000888 <LCD_printstr8x5>
        LCD_printstr8x5((uint8*)"далее...", 7, 78);
 8003742:	224e      	movs	r2, #78	; 0x4e
 8003744:	4659      	mov	r1, fp
 8003746:	4865      	ldr	r0, [pc, #404]	; (80038dc <statehandler_magazin+0x1ec>)
 8003748:	f7fd f89e 	bl	8000888 <LCD_printstr8x5>
        IF_ANY_BTN_PRESS(
 800374c:	7c7a      	ldrb	r2, [r7, #17]
 800374e:	f898 3011 	ldrb.w	r3, [r8, #17]
 8003752:	4313      	orrs	r3, r2
 8003754:	7c72      	ldrb	r2, [r6, #17]
 8003756:	4313      	orrs	r3, r2
 8003758:	7c6a      	ldrb	r2, [r5, #17]
 800375a:	4313      	orrs	r3, r2
 800375c:	d00d      	beq.n	800377a <statehandler_magazin+0x8a>
 800375e:	f899 3000 	ldrb.w	r3, [r9]
 8003762:	f888 4011 	strb.w	r4, [r8, #17]
 8003766:	f364 0382 	bfi	r3, r4, #2, #1
 800376a:	f889 3000 	strb.w	r3, [r9]
 800376e:	230a      	movs	r3, #10
 8003770:	747c      	strb	r4, [r7, #17]
 8003772:	7474      	strb	r4, [r6, #17]
 8003774:	746c      	strb	r4, [r5, #17]
 8003776:	f88a 3000 	strb.w	r3, [sl]
  if(Gamer.cl > 8) Gamer.cl -= 4; else Gamer.cl = 0;
 800377a:	4a59      	ldr	r2, [pc, #356]	; (80038e0 <statehandler_magazin+0x1f0>)
 800377c:	f992 300d 	ldrsb.w	r3, [r2, #13]
 8003780:	2b08      	cmp	r3, #8
 8003782:	bfd2      	itee	le
 8003784:	2300      	movle	r3, #0
 8003786:	3b04      	subgt	r3, #4
 8003788:	b25b      	sxtbgt	r3, r3
 800378a:	7353      	strb	r3, [r2, #13]
  if(Gamer.ln < 40) Gamer.ln += 4; else Gamer.ln = 47;
 800378c:	f992 300c 	ldrsb.w	r3, [r2, #12]
 8003790:	2b27      	cmp	r3, #39	; 0x27
 8003792:	bfce      	itee	gt
 8003794:	232f      	movgt	r3, #47	; 0x2f
 8003796:	3304      	addle	r3, #4
 8003798:	b25b      	sxtble	r3, r3
 800379a:	7313      	strb	r3, [r2, #12]
  drawgamer();
 800379c:	f7ff fa62 	bl	8002c64 <drawgamer>
}
 80037a0:	b003      	add	sp, #12
 80037a2:	e8bd 4ff0 	ldmia.w	sp!, {r4, r5, r6, r7, r8, r9, sl, fp, lr}
  drawinfo();
 80037a6:	f7ff bb0f 	b.w	8002dc8 <drawinfo>
        IF_ANY_BTN_PRESS()
 80037aa:	7c7a      	ldrb	r2, [r7, #17]
 80037ac:	f898 3011 	ldrb.w	r3, [r8, #17]
 80037b0:	4313      	orrs	r3, r2
 80037b2:	7c72      	ldrb	r2, [r6, #17]
 80037b4:	4313      	orrs	r3, r2
 80037b6:	7c6a      	ldrb	r2, [r5, #17]
 80037b8:	4313      	orrs	r3, r2
 80037ba:	d005      	beq.n	80037c8 <statehandler_magazin+0xd8>
 80037bc:	2300      	movs	r3, #0
 80037be:	f888 3011 	strb.w	r3, [r8, #17]
 80037c2:	747b      	strb	r3, [r7, #17]
 80037c4:	7473      	strb	r3, [r6, #17]
 80037c6:	746b      	strb	r3, [r5, #17]
        k--;
 80037c8:	3c01      	subs	r4, #1
 80037ca:	f88a 4000 	strb.w	r4, [sl]
 80037ce:	e7d4      	b.n	800377a <statehandler_magazin+0x8a>
      LCD_printsprite(8, (64 + (int8)j * 4), &magazin_sprite);
 80037d0:	f8df 9110 	ldr.w	r9, [pc, #272]	; 80038e4 <statehandler_magazin+0x1f4>
 80037d4:	4a44      	ldr	r2, [pc, #272]	; (80038e8 <statehandler_magazin+0x1f8>)
 80037d6:	f999 1000 	ldrsb.w	r1, [r9]
 80037da:	3110      	adds	r1, #16
 80037dc:	0089      	lsls	r1, r1, #2
 80037de:	b249      	sxtb	r1, r1
 80037e0:	f7fd fa7e 	bl	8000ce0 <LCD_printsprite>
      IF_ANY_BTN_PRESS()
 80037e4:	7c79      	ldrb	r1, [r7, #17]
 80037e6:	f898 2011 	ldrb.w	r2, [r8, #17]
      j--;
 80037ea:	f899 3000 	ldrb.w	r3, [r9]
      IF_ANY_BTN_PRESS()
 80037ee:	430a      	orrs	r2, r1
 80037f0:	7c71      	ldrb	r1, [r6, #17]
      j--;
 80037f2:	3b01      	subs	r3, #1
      IF_ANY_BTN_PRESS()
 80037f4:	430a      	orrs	r2, r1
 80037f6:	7c69      	ldrb	r1, [r5, #17]
      j--;
 80037f8:	b2db      	uxtb	r3, r3
      IF_ANY_BTN_PRESS()
 80037fa:	430a      	orrs	r2, r1
      j--;
 80037fc:	f889 3000 	strb.w	r3, [r9]
      IF_ANY_BTN_PRESS()
 8003800:	bf1f      	itttt	ne
 8003802:	f888 4011 	strbne.w	r4, [r8, #17]
 8003806:	747c      	strbne	r4, [r7, #17]
 8003808:	7474      	strbne	r4, [r6, #17]
 800380a:	746c      	strbne	r4, [r5, #17]
      if(j == 0) {
 800380c:	2b00      	cmp	r3, #0
 800380e:	d1b4      	bne.n	800377a <statehandler_magazin+0x8a>
        gameevent = EVENT_NONE;
 8003810:	f88a 3000 	strb.w	r3, [sl]
        j = MAGAZIN_INTROANIMATION_PERIOD;
 8003814:	2310      	movs	r3, #16
 8003816:	f889 3000 	strb.w	r3, [r9]
 800381a:	e7ae      	b.n	800377a <statehandler_magazin+0x8a>
    coursormovdisp();
 800381c:	f7ff fdf2 	bl	8003404 <coursormovdisp>
    magaz_getevent();
 8003820:	f7ff fdae 	bl	8003380 <magaz_getevent>
    LCD_printsprite(8, 64, &magazin_sprite);
 8003824:	2140      	movs	r1, #64	; 0x40
 8003826:	2008      	movs	r0, #8
 8003828:	4a2f      	ldr	r2, [pc, #188]	; (80038e8 <statehandler_magazin+0x1f8>)
 800382a:	f7fd fa59 	bl	8000ce0 <LCD_printsprite>
    LCD_printstr8x5((uint8*)"ЦЕНА:", 3, 94);
 800382e:	225e      	movs	r2, #94	; 0x5e
 8003830:	2103      	movs	r1, #3
 8003832:	482e      	ldr	r0, [pc, #184]	; (80038ec <statehandler_magazin+0x1fc>)
 8003834:	f7fd f828 	bl	8000888 <LCD_printstr8x5>
    LCD_printstr8x5((uint8*)"магазин", 1, 80);
 8003838:	2250      	movs	r2, #80	; 0x50
 800383a:	2101      	movs	r1, #1
 800383c:	482c      	ldr	r0, [pc, #176]	; (80038f0 <statehandler_magazin+0x200>)
 800383e:	f7fd f823 	bl	8000888 <LCD_printstr8x5>
    LCD_printstr8x5((uint8*)"ВЫХ.", 7, 38);
 8003842:	2226      	movs	r2, #38	; 0x26
 8003844:	2107      	movs	r1, #7
 8003846:	482b      	ldr	r0, [pc, #172]	; (80038f4 <statehandler_magazin+0x204>)
 8003848:	f7fd f81e 	bl	8000888 <LCD_printstr8x5>
    switch(coursorpos)
 800384c:	4b2a      	ldr	r3, [pc, #168]	; (80038f8 <statehandler_magazin+0x208>)
 800384e:	781b      	ldrb	r3, [r3, #0]
 8003850:	2b04      	cmp	r3, #4
 8003852:	d892      	bhi.n	800377a <statehandler_magazin+0x8a>
 8003854:	e8df f003 	tbb	[pc, r3]
 8003858:	23150903 	.word	0x23150903
 800385c:	2b          	.byte	0x2b
 800385d:	00          	.byte	0x00
        LCD_printstr8x5((uint8*)"До\nсвидания!", 2, 0);
 800385e:	2200      	movs	r2, #0
 8003860:	2102      	movs	r1, #2
 8003862:	4826      	ldr	r0, [pc, #152]	; (80038fc <statehandler_magazin+0x20c>)
        LCD_printstr8x5((uint8*)price, 4, 100);
 8003864:	f7fd f810 	bl	8000888 <LCD_printstr8x5>
        break;
 8003868:	e787      	b.n	800377a <statehandler_magazin+0x8a>
        LCD_printstr8x5((uint8*)"БОМБА!!!\nБОЛЬШОЙ\nБАДАБУМ!", 2, 0);
 800386a:	2200      	movs	r2, #0
 800386c:	2102      	movs	r1, #2
 800386e:	4824      	ldr	r0, [pc, #144]	; (8003900 <statehandler_magazin+0x210>)
        LCD_printstr8x5((uint8*)"Аптечка!", 2, 0);
 8003870:	f7fd f80a 	bl	8000888 <LCD_printstr8x5>
        u16_to_str(price, HEALTH_MONEY_COST, 1);
 8003874:	2201      	movs	r2, #1
 8003876:	2105      	movs	r1, #5
 8003878:	4668      	mov	r0, sp
 800387a:	f7fc fc7e 	bl	800017a <u16_to_str>
        LCD_printstr8x5((uint8*)price, 4, 100);
 800387e:	2264      	movs	r2, #100	; 0x64
 8003880:	e00a      	b.n	8003898 <statehandler_magazin+0x1a8>
        LCD_printstr8x5((uint8*)"<Бронешлем.\nСнижает\nурон.", 2, 0);
 8003882:	2200      	movs	r2, #0
 8003884:	2102      	movs	r1, #2
 8003886:	481f      	ldr	r0, [pc, #124]	; (8003904 <statehandler_magazin+0x214>)
 8003888:	f7fc fffe 	bl	8000888 <LCD_printstr8x5>
        u16_to_str(price, GASMASK_MONEY_COST, 2);
 800388c:	2202      	movs	r2, #2
 800388e:	210f      	movs	r1, #15
        u16_to_str(price, BATTERY_MONEY_COST, 2);
 8003890:	4668      	mov	r0, sp
 8003892:	f7fc fc72 	bl	800017a <u16_to_str>
        LCD_printstr8x5((uint8*)price, 4, 94);
 8003896:	225e      	movs	r2, #94	; 0x5e
        LCD_printstr8x5((uint8*)price, 4, 100);
 8003898:	2104      	movs	r1, #4
 800389a:	4668      	mov	r0, sp
 800389c:	e7e2      	b.n	8003864 <statehandler_magazin+0x174>
        LCD_printstr8x5((uint8*)"Батарейка!", 2, 0);
 800389e:	2200      	movs	r2, #0
 80038a0:	2102      	movs	r1, #2
 80038a2:	4819      	ldr	r0, [pc, #100]	; (8003908 <statehandler_magazin+0x218>)
 80038a4:	f7fc fff0 	bl	8000888 <LCD_printstr8x5>
        u16_to_str(price, BATTERY_MONEY_COST, 2);
 80038a8:	2202      	movs	r2, #2
 80038aa:	2132      	movs	r1, #50	; 0x32
 80038ac:	e7f0      	b.n	8003890 <statehandler_magazin+0x1a0>
        LCD_printstr8x5((uint8*)"Аптечка!", 2, 0);
 80038ae:	2200      	movs	r2, #0
 80038b0:	2102      	movs	r1, #2
 80038b2:	4816      	ldr	r0, [pc, #88]	; (800390c <statehandler_magazin+0x21c>)
 80038b4:	e7dc      	b.n	8003870 <statehandler_magazin+0x180>
 80038b6:	bf00      	nop
 80038b8:	200009dc 	.word	0x200009dc
 80038bc:	200009db 	.word	0x200009db
 80038c0:	20000988 	.word	0x20000988
 80038c4:	200000d0 	.word	0x200000d0
 80038c8:	200000e8 	.word	0x200000e8
 80038cc:	20000100 	.word	0x20000100
 80038d0:	20000118 	.word	0x20000118
 80038d4:	2000004a 	.word	0x2000004a
 80038d8:	08008070 	.word	0x08008070
 80038dc:	0800752f 	.word	0x0800752f
 80038e0:	2000098c 	.word	0x2000098c
 80038e4:	20000049 	.word	0x20000049
 80038e8:	08008520 	.word	0x08008520
 80038ec:	080075d3 	.word	0x080075d3
 80038f0:	080075d9 	.word	0x080075d9
 80038f4:	080075e1 	.word	0x080075e1
 80038f8:	200009da 	.word	0x200009da
 80038fc:	080075e6 	.word	0x080075e6
 8003900:	080075f3 	.word	0x080075f3
 8003904:	0800760d 	.word	0x0800760d
 8003908:	08007627 	.word	0x08007627
 800390c:	08007632 	.word	0x08007632

08003910 <ufobattle>:
/*******************************************************************************
 *                              MAIN ENTRY - GAME CYCLE                     
 *******************************************************************************
 */
void ufobattle(void)
{
 8003910:	b510      	push	{r4, lr}
  randinit();
 8003912:	f7fc fc1b 	bl	800014c <randinit>
  SchedAddEvent(system_events_period25ms, 25);
 8003916:	2119      	movs	r1, #25
 8003918:	4811      	ldr	r0, [pc, #68]	; (8003960 <ufobattle+0x50>)
 800391a:	f7fe fb19 	bl	8001f50 <SchedAddEvent>
  SchedAddEvent(system_events_period50ms, 50);
 800391e:	2132      	movs	r1, #50	; 0x32
 8003920:	4810      	ldr	r0, [pc, #64]	; (8003964 <ufobattle+0x54>)
 8003922:	f7fe fb15 	bl	8001f50 <SchedAddEvent>
  SchedAddEvent(system_events_period100ms, 100);
 8003926:	2164      	movs	r1, #100	; 0x64
 8003928:	480f      	ldr	r0, [pc, #60]	; (8003968 <ufobattle+0x58>)
 800392a:	f7fe fb11 	bl	8001f50 <SchedAddEvent>
  SchedAddEvent(gamestatesprocess, 75);
 800392e:	214b      	movs	r1, #75	; 0x4b
 8003930:	480e      	ldr	r0, [pc, #56]	; (800396c <ufobattle+0x5c>)
 8003932:	f7fe fb0d 	bl	8001f50 <SchedAddEvent>
  SchedAddEvent(energyregen, PRD_GAMER_ENERGYREGEN);
 8003936:	4b0e      	ldr	r3, [pc, #56]	; (8003970 <ufobattle+0x60>)
 8003938:	480e      	ldr	r0, [pc, #56]	; (8003974 <ufobattle+0x64>)
 800393a:	6819      	ldr	r1, [r3, #0]
 800393c:	f7fe fb08 	bl	8001f50 <SchedAddEvent>
  gamestate = STATE_MAINMENU;
 8003940:	2300      	movs	r3, #0
 8003942:	4a0d      	ldr	r2, [pc, #52]	; (8003978 <ufobattle+0x68>)
  gameevent = EVENT_NONE;
  coursorpos = COURS_POS_1;
  
  while (CFlags.RunGameFl)
 8003944:	4c0d      	ldr	r4, [pc, #52]	; (800397c <ufobattle+0x6c>)
  gamestate = STATE_MAINMENU;
 8003946:	7013      	strb	r3, [r2, #0]
  gameevent = EVENT_NONE;
 8003948:	4a0d      	ldr	r2, [pc, #52]	; (8003980 <ufobattle+0x70>)
 800394a:	7013      	strb	r3, [r2, #0]
  coursorpos = COURS_POS_1;
 800394c:	4a0d      	ldr	r2, [pc, #52]	; (8003984 <ufobattle+0x74>)
 800394e:	7013      	strb	r3, [r2, #0]
  while (CFlags.RunGameFl)
 8003950:	7823      	ldrb	r3, [r4, #0]
 8003952:	079b      	lsls	r3, r3, #30
 8003954:	d400      	bmi.n	8003958 <ufobattle+0x48>
  {
    SchedEventProcess();
  }
}
 8003956:	bd10      	pop	{r4, pc}
    SchedEventProcess();
 8003958:	f7fe fb14 	bl	8001f84 <SchedEventProcess>
 800395c:	e7f8      	b.n	8003950 <ufobattle+0x40>
 800395e:	bf00      	nop
 8003960:	08002e61 	.word	0x08002e61
 8003964:	08002505 	.word	0x08002505
 8003968:	08002ea9 	.word	0x08002ea9
 800396c:	08002495 	.word	0x08002495
 8003970:	2000001c 	.word	0x2000001c
 8003974:	08002371 	.word	0x08002371
 8003978:	200009dc 	.word	0x200009dc
 800397c:	20000000 	.word	0x20000000
 8003980:	200009db 	.word	0x200009db
 8003984:	200009da 	.word	0x200009da

08003988 <Reset_Handler>:
  .weak Reset_Handler
  .type Reset_Handler, %function
Reset_Handler:

/* Copy the data segment initializers from flash to SRAM */
  ldr r0, =_sdata
 8003988:	480c      	ldr	r0, [pc, #48]	; (80039bc <LoopFillZerobss+0x12>)
  ldr r1, =_edata
 800398a:	490d      	ldr	r1, [pc, #52]	; (80039c0 <LoopFillZerobss+0x16>)
  ldr r2, =_sidata
 800398c:	4a0d      	ldr	r2, [pc, #52]	; (80039c4 <LoopFillZerobss+0x1a>)
  movs r3, #0
 800398e:	2300      	movs	r3, #0
  b LoopCopyDataInit
 8003990:	e002      	b.n	8003998 <LoopCopyDataInit>

08003992 <CopyDataInit>:

CopyDataInit:
  ldr r4, [r2, r3]
 8003992:	58d4      	ldr	r4, [r2, r3]
  str r4, [r0, r3]
 8003994:	50c4      	str	r4, [r0, r3]
  adds r3, r3, #4
 8003996:	3304      	adds	r3, #4

08003998 <LoopCopyDataInit>:

LoopCopyDataInit:
  adds r4, r0, r3
 8003998:	18c4      	adds	r4, r0, r3
  cmp r4, r1
 800399a:	428c      	cmp	r4, r1
  bcc CopyDataInit
 800399c:	d3f9      	bcc.n	8003992 <CopyDataInit>
  
/* Zero fill the bss segment. */
  ldr r2, =_sbss
 800399e:	4a0a      	ldr	r2, [pc, #40]	; (80039c8 <LoopFillZerobss+0x1e>)
  ldr r4, =_ebss
 80039a0:	4c0a      	ldr	r4, [pc, #40]	; (80039cc <LoopFillZerobss+0x22>)
  movs r3, #0
 80039a2:	2300      	movs	r3, #0
  b LoopFillZerobss
 80039a4:	e001      	b.n	80039aa <LoopFillZerobss>

080039a6 <FillZerobss>:

FillZerobss:
  str  r3, [r2]
 80039a6:	6013      	str	r3, [r2, #0]
  adds r2, r2, #4
 80039a8:	3204      	adds	r2, #4

080039aa <LoopFillZerobss>:

LoopFillZerobss:
  cmp r2, r4
 80039aa:	42a2      	cmp	r2, r4
  bcc FillZerobss
 80039ac:	d3fb      	bcc.n	80039a6 <FillZerobss>

/* Call the clock system intitialization function.*/
    bl  SystemInit
 80039ae:	f7fe fcdd 	bl	800236c <SystemInit>
/* Call static constructors */
    bl __libc_init_array
 80039b2:	f001 ff43 	bl	800583c <__libc_init_array>
/* Call the application's entry point.*/
  bl main
 80039b6:	f7fd fbe3 	bl	8001180 <main>
  bx lr
 80039ba:	4770      	bx	lr
  ldr r0, =_sdata
 80039bc:	20000000 	.word	0x20000000
  ldr r1, =_edata
 80039c0:	200000b4 	.word	0x200000b4
  ldr r2, =_sidata
 80039c4:	080087b4 	.word	0x080087b4
  ldr r2, =_sbss
 80039c8:	200000b4 	.word	0x200000b4
  ldr r4, =_ebss
 80039cc:	200009f8 	.word	0x200009f8

080039d0 <ADC1_2_IRQHandler>:
 * @retval : None
*/
    .section .text.Default_Handler,"ax",%progbits
Default_Handler:
Infinite_Loop:
  b Infinite_Loop
 80039d0:	e7fe      	b.n	80039d0 <ADC1_2_IRQHandler>
	...

080039d4 <HAL_InitTick>:
  *       implementation  in user file.
  * @param TickPriority Tick interrupt priority.
  * @retval HAL status
  */
__weak HAL_StatusTypeDef HAL_InitTick(uint32_t TickPriority)
{
 80039d4:	b538      	push	{r3, r4, r5, lr}
  /* Configure the SysTick to have interrupt in 1ms time basis*/
  if (HAL_SYSTICK_Config(SystemCoreClock / (1000U / uwTickFreq)) > 0U)
 80039d6:	4b0e      	ldr	r3, [pc, #56]	; (8003a10 <HAL_InitTick+0x3c>)
{
 80039d8:	4605      	mov	r5, r0
  if (HAL_SYSTICK_Config(SystemCoreClock / (1000U / uwTickFreq)) > 0U)
 80039da:	7818      	ldrb	r0, [r3, #0]
 80039dc:	f44f 737a 	mov.w	r3, #1000	; 0x3e8
 80039e0:	fbb3 f3f0 	udiv	r3, r3, r0
 80039e4:	4a0b      	ldr	r2, [pc, #44]	; (8003a14 <HAL_InitTick+0x40>)
 80039e6:	6810      	ldr	r0, [r2, #0]
 80039e8:	fbb0 f0f3 	udiv	r0, r0, r3
 80039ec:	f000 faba 	bl	8003f64 <HAL_SYSTICK_Config>
 80039f0:	4604      	mov	r4, r0
 80039f2:	b958      	cbnz	r0, 8003a0c <HAL_InitTick+0x38>
  {
    return HAL_ERROR;
  }

  /* Configure the SysTick IRQ priority */
  if (TickPriority < (1UL << __NVIC_PRIO_BITS))
 80039f4:	2d0f      	cmp	r5, #15
 80039f6:	d809      	bhi.n	8003a0c <HAL_InitTick+0x38>
  {
    HAL_NVIC_SetPriority(SysTick_IRQn, TickPriority, 0U);
 80039f8:	4602      	mov	r2, r0
 80039fa:	4629      	mov	r1, r5
 80039fc:	f04f 30ff 	mov.w	r0, #4294967295
 8003a00:	f000 fa70 	bl	8003ee4 <HAL_NVIC_SetPriority>
    uwTickPrio = TickPriority;
 8003a04:	4620      	mov	r0, r4
 8003a06:	4b04      	ldr	r3, [pc, #16]	; (8003a18 <HAL_InitTick+0x44>)
 8003a08:	601d      	str	r5, [r3, #0]
    return HAL_ERROR;
  }

  /* Return function status */
  return HAL_OK;
}
 8003a0a:	bd38      	pop	{r3, r4, r5, pc}
    return HAL_ERROR;
 8003a0c:	2001      	movs	r0, #1
 8003a0e:	e7fc      	b.n	8003a0a <HAL_InitTick+0x36>
 8003a10:	2000004b 	.word	0x2000004b
 8003a14:	20000008 	.word	0x20000008
 8003a18:	2000004c 	.word	0x2000004c

08003a1c <HAL_Init>:
  __HAL_FLASH_PREFETCH_BUFFER_ENABLE();
 8003a1c:	4a07      	ldr	r2, [pc, #28]	; (8003a3c <HAL_Init+0x20>)
{
 8003a1e:	b508      	push	{r3, lr}
  __HAL_FLASH_PREFETCH_BUFFER_ENABLE();
 8003a20:	6813      	ldr	r3, [r2, #0]
  HAL_NVIC_SetPriorityGrouping(NVIC_PRIORITYGROUP_4);
 8003a22:	2003      	movs	r0, #3
  __HAL_FLASH_PREFETCH_BUFFER_ENABLE();
 8003a24:	f043 0310 	orr.w	r3, r3, #16
 8003a28:	6013      	str	r3, [r2, #0]
  HAL_NVIC_SetPriorityGrouping(NVIC_PRIORITYGROUP_4);
 8003a2a:	f000 fa49 	bl	8003ec0 <HAL_NVIC_SetPriorityGrouping>
  HAL_InitTick(TICK_INT_PRIORITY);
 8003a2e:	200f      	movs	r0, #15
 8003a30:	f7ff ffd0 	bl	80039d4 <HAL_InitTick>
  HAL_MspInit();
 8003a34:	f7fe fb36 	bl	80020a4 <HAL_MspInit>
}
 8003a38:	2000      	movs	r0, #0
 8003a3a:	bd08      	pop	{r3, pc}
 8003a3c:	40022000 	.word	0x40022000

08003a40 <HAL_GetTick>:
  *       implementations in user file.
  * @retval tick value
  */
__weak uint32_t HAL_GetTick(void)
{
  return uwTick;
 8003a40:	4b01      	ldr	r3, [pc, #4]	; (8003a48 <HAL_GetTick+0x8>)
 8003a42:	6818      	ldr	r0, [r3, #0]
}
 8003a44:	4770      	bx	lr
 8003a46:	bf00      	nop
 8003a48:	200009e4 	.word	0x200009e4

08003a4c <HAL_Delay>:
  *       implementations in user file.
  * @param Delay specifies the delay time length, in milliseconds.
  * @retval None
  */
__weak void HAL_Delay(uint32_t Delay)
{
 8003a4c:	b538      	push	{r3, r4, r5, lr}
 8003a4e:	4604      	mov	r4, r0
  uint32_t tickstart = HAL_GetTick();
 8003a50:	f7ff fff6 	bl	8003a40 <HAL_GetTick>
 8003a54:	4605      	mov	r5, r0
  uint32_t wait = Delay;

  /* Add a freq to guarantee minimum wait */
  if (wait < HAL_MAX_DELAY)
 8003a56:	1c63      	adds	r3, r4, #1
  {
    wait += (uint32_t)(uwTickFreq);
 8003a58:	bf1e      	ittt	ne
 8003a5a:	4b04      	ldrne	r3, [pc, #16]	; (8003a6c <HAL_Delay+0x20>)
 8003a5c:	781b      	ldrbne	r3, [r3, #0]
 8003a5e:	18e4      	addne	r4, r4, r3
  }

  while ((HAL_GetTick() - tickstart) < wait)
 8003a60:	f7ff ffee 	bl	8003a40 <HAL_GetTick>
 8003a64:	1b43      	subs	r3, r0, r5
 8003a66:	42a3      	cmp	r3, r4
 8003a68:	d3fa      	bcc.n	8003a60 <HAL_Delay+0x14>
  {
  }
}
 8003a6a:	bd38      	pop	{r3, r4, r5, pc}
 8003a6c:	2000004b 	.word	0x2000004b

08003a70 <ADC_DMAConvCplt>:
  * @retval None
  */
void ADC_DMAConvCplt(DMA_HandleTypeDef *hdma)
{
  /* Retrieve ADC handle corresponding to current DMA handle */
  ADC_HandleTypeDef* hadc = ( ADC_HandleTypeDef* )((DMA_HandleTypeDef* )hdma)->Parent;
 8003a70:	6a43      	ldr	r3, [r0, #36]	; 0x24
{
 8003a72:	b510      	push	{r4, lr}
 
  /* Update state machine on conversion status if not in error state */
  if (HAL_IS_BIT_CLR(hadc->State, HAL_ADC_STATE_ERROR_INTERNAL | HAL_ADC_STATE_ERROR_DMA))
 8003a74:	6a9a      	ldr	r2, [r3, #40]	; 0x28
 8003a76:	f012 0f50 	tst.w	r2, #80	; 0x50
 8003a7a:	d11b      	bne.n	8003ab4 <ADC_DMAConvCplt+0x44>
  {
    /* Update ADC state machine */
    SET_BIT(hadc->State, HAL_ADC_STATE_REG_EOC);
 8003a7c:	6a9a      	ldr	r2, [r3, #40]	; 0x28
 8003a7e:	f442 7200 	orr.w	r2, r2, #512	; 0x200
 8003a82:	629a      	str	r2, [r3, #40]	; 0x28
    /* Determine whether any further conversion upcoming on group regular     */
    /* by external trigger, continuous mode or scan sequence on going.        */
    /* Note: On STM32F1 devices, in case of sequencer enabled                 */
    /*       (several ranks selected), end of conversion flag is raised       */
    /*       at the end of the sequence.                                      */
    if(ADC_IS_SOFTWARE_START_REGULAR(hadc)        && 
 8003a84:	681a      	ldr	r2, [r3, #0]
 8003a86:	6892      	ldr	r2, [r2, #8]
 8003a88:	f402 2260 	and.w	r2, r2, #917504	; 0xe0000
 8003a8c:	f5b2 2f60 	cmp.w	r2, #917504	; 0xe0000
 8003a90:	d10c      	bne.n	8003aac <ADC_DMAConvCplt+0x3c>
 8003a92:	7b1a      	ldrb	r2, [r3, #12]
 8003a94:	b952      	cbnz	r2, 8003aac <ADC_DMAConvCplt+0x3c>
       (hadc->Init.ContinuousConvMode == DISABLE)   )
    {
      /* Set ADC state */
      CLEAR_BIT(hadc->State, HAL_ADC_STATE_REG_BUSY);   
 8003a96:	6a9a      	ldr	r2, [r3, #40]	; 0x28
 8003a98:	f422 7280 	bic.w	r2, r2, #256	; 0x100
 8003a9c:	629a      	str	r2, [r3, #40]	; 0x28
      
      if (HAL_IS_BIT_CLR(hadc->State, HAL_ADC_STATE_INJ_BUSY))
 8003a9e:	6a9a      	ldr	r2, [r3, #40]	; 0x28
 8003aa0:	04d2      	lsls	r2, r2, #19
      {
        SET_BIT(hadc->State, HAL_ADC_STATE_READY);
 8003aa2:	bf5e      	ittt	pl
 8003aa4:	6a9a      	ldrpl	r2, [r3, #40]	; 0x28
 8003aa6:	f042 0201 	orrpl.w	r2, r2, #1
 8003aaa:	629a      	strpl	r2, [r3, #40]	; 0x28
    
    /* Conversion complete callback */
#if (USE_HAL_ADC_REGISTER_CALLBACKS == 1)
    hadc->ConvCpltCallback(hadc);
#else
    HAL_ADC_ConvCpltCallback(hadc);
 8003aac:	4618      	mov	r0, r3
 8003aae:	f7fd fcf1 	bl	8001494 <HAL_ADC_ConvCpltCallback>
  else
  {
    /* Call DMA error callback */
    hadc->DMA_Handle->XferErrorCallback(hdma);
  }
}
 8003ab2:	bd10      	pop	{r4, pc}
    hadc->DMA_Handle->XferErrorCallback(hdma);
 8003ab4:	6a1b      	ldr	r3, [r3, #32]
}
 8003ab6:	e8bd 4010 	ldmia.w	sp!, {r4, lr}
    hadc->DMA_Handle->XferErrorCallback(hdma);
 8003aba:	6b1b      	ldr	r3, [r3, #48]	; 0x30
 8003abc:	4718      	bx	r3

08003abe <HAL_ADC_ConvHalfCpltCallback>:
 8003abe:	4770      	bx	lr

08003ac0 <ADC_DMAHalfConvCplt>:
  * @brief  DMA half transfer complete callback. 
  * @param  hdma: pointer to DMA handle.
  * @retval None
  */
void ADC_DMAHalfConvCplt(DMA_HandleTypeDef *hdma)   
{
 8003ac0:	b508      	push	{r3, lr}
  
  /* Half conversion callback */
#if (USE_HAL_ADC_REGISTER_CALLBACKS == 1)
    hadc->ConvHalfCpltCallback(hadc);
#else
  HAL_ADC_ConvHalfCpltCallback(hadc);
 8003ac2:	6a40      	ldr	r0, [r0, #36]	; 0x24
 8003ac4:	f7ff fffb 	bl	8003abe <HAL_ADC_ConvHalfCpltCallback>
#endif /* USE_HAL_ADC_REGISTER_CALLBACKS */
}
 8003ac8:	bd08      	pop	{r3, pc}

08003aca <HAL_ADC_ErrorCallback>:
 8003aca:	4770      	bx	lr

08003acc <ADC_DMAError>:
  * @retval None
  */
void ADC_DMAError(DMA_HandleTypeDef *hdma)   
{
  /* Retrieve ADC handle corresponding to current DMA handle */
  ADC_HandleTypeDef* hadc = ( ADC_HandleTypeDef* )((DMA_HandleTypeDef* )hdma)->Parent;
 8003acc:	6a40      	ldr	r0, [r0, #36]	; 0x24
{
 8003ace:	b508      	push	{r3, lr}
  
  /* Set ADC state */
  SET_BIT(hadc->State, HAL_ADC_STATE_ERROR_DMA);
 8003ad0:	6a83      	ldr	r3, [r0, #40]	; 0x28
 8003ad2:	f043 0340 	orr.w	r3, r3, #64	; 0x40
 8003ad6:	6283      	str	r3, [r0, #40]	; 0x28
  
  /* Set ADC error code to DMA error */
  SET_BIT(hadc->ErrorCode, HAL_ADC_ERROR_DMA);
 8003ad8:	6ac3      	ldr	r3, [r0, #44]	; 0x2c
 8003ada:	f043 0304 	orr.w	r3, r3, #4
 8003ade:	62c3      	str	r3, [r0, #44]	; 0x2c
  
  /* Error callback */
#if (USE_HAL_ADC_REGISTER_CALLBACKS == 1)
  hadc->ErrorCallback(hadc);
#else
  HAL_ADC_ErrorCallback(hadc);
 8003ae0:	f7ff fff3 	bl	8003aca <HAL_ADC_ErrorCallback>
#endif /* USE_HAL_ADC_REGISTER_CALLBACKS */
}
 8003ae4:	bd08      	pop	{r3, pc}
	...

08003ae8 <HAL_ADC_ConfigChannel>:
  __IO uint32_t wait_loop_index = 0U;
 8003ae8:	2300      	movs	r3, #0
{ 
 8003aea:	b573      	push	{r0, r1, r4, r5, r6, lr}
  __IO uint32_t wait_loop_index = 0U;
 8003aec:	9301      	str	r3, [sp, #4]
  __HAL_LOCK(hadc);
 8003aee:	f890 3024 	ldrb.w	r3, [r0, #36]	; 0x24
{ 
 8003af2:	4604      	mov	r4, r0
  __HAL_LOCK(hadc);
 8003af4:	2b01      	cmp	r3, #1
 8003af6:	d06c      	beq.n	8003bd2 <HAL_ADC_ConfigChannel+0xea>
 8003af8:	2301      	movs	r3, #1
 8003afa:	f880 3024 	strb.w	r3, [r0, #36]	; 0x24
  if (sConfig->Rank < 7U)
 8003afe:	684d      	ldr	r5, [r1, #4]
    MODIFY_REG(hadc->Instance->SQR3                        ,
 8003b00:	6802      	ldr	r2, [r0, #0]
  if (sConfig->Rank < 7U)
 8003b02:	2d06      	cmp	r5, #6
    MODIFY_REG(hadc->Instance->SQR3                        ,
 8003b04:	6808      	ldr	r0, [r1, #0]
 8003b06:	eb05 0385 	add.w	r3, r5, r5, lsl #2
  if (sConfig->Rank < 7U)
 8003b0a:	d822      	bhi.n	8003b52 <HAL_ADC_ConfigChannel+0x6a>
    MODIFY_REG(hadc->Instance->SQR3                        ,
 8003b0c:	261f      	movs	r6, #31
 8003b0e:	6b55      	ldr	r5, [r2, #52]	; 0x34
 8003b10:	3b05      	subs	r3, #5
 8003b12:	409e      	lsls	r6, r3
 8003b14:	ea25 0506 	bic.w	r5, r5, r6
 8003b18:	fa00 f303 	lsl.w	r3, r0, r3
 8003b1c:	432b      	orrs	r3, r5
 8003b1e:	6353      	str	r3, [r2, #52]	; 0x34
  if (sConfig->Channel >= ADC_CHANNEL_10)
 8003b20:	2809      	cmp	r0, #9
    MODIFY_REG(hadc->Instance->SMPR1                             ,
 8003b22:	688b      	ldr	r3, [r1, #8]
 8003b24:	eb00 0540 	add.w	r5, r0, r0, lsl #1
 8003b28:	f04f 0107 	mov.w	r1, #7
  if (sConfig->Channel >= ADC_CHANNEL_10)
 8003b2c:	d929      	bls.n	8003b82 <HAL_ADC_ConfigChannel+0x9a>
    MODIFY_REG(hadc->Instance->SMPR1                             ,
 8003b2e:	68d6      	ldr	r6, [r2, #12]
 8003b30:	3d1e      	subs	r5, #30
 8003b32:	40a9      	lsls	r1, r5
 8003b34:	ea26 0101 	bic.w	r1, r6, r1
 8003b38:	40ab      	lsls	r3, r5
 8003b3a:	430b      	orrs	r3, r1
 8003b3c:	60d3      	str	r3, [r2, #12]
  if ((sConfig->Channel == ADC_CHANNEL_TEMPSENSOR) ||
 8003b3e:	f1a0 0310 	sub.w	r3, r0, #16
 8003b42:	2b01      	cmp	r3, #1
 8003b44:	d925      	bls.n	8003b92 <HAL_ADC_ConfigChannel+0xaa>
  HAL_StatusTypeDef tmp_hal_status = HAL_OK;
 8003b46:	2000      	movs	r0, #0
  __HAL_UNLOCK(hadc);
 8003b48:	2300      	movs	r3, #0
 8003b4a:	f884 3024 	strb.w	r3, [r4, #36]	; 0x24
}
 8003b4e:	b002      	add	sp, #8
 8003b50:	bd70      	pop	{r4, r5, r6, pc}
  else if (sConfig->Rank < 13U)
 8003b52:	2d0c      	cmp	r5, #12
 8003b54:	f04f 051f 	mov.w	r5, #31
 8003b58:	d809      	bhi.n	8003b6e <HAL_ADC_ConfigChannel+0x86>
    MODIFY_REG(hadc->Instance->SQR2                        ,
 8003b5a:	6b16      	ldr	r6, [r2, #48]	; 0x30
 8003b5c:	3b23      	subs	r3, #35	; 0x23
 8003b5e:	409d      	lsls	r5, r3
 8003b60:	ea26 0505 	bic.w	r5, r6, r5
 8003b64:	fa00 f303 	lsl.w	r3, r0, r3
 8003b68:	432b      	orrs	r3, r5
 8003b6a:	6313      	str	r3, [r2, #48]	; 0x30
 8003b6c:	e7d8      	b.n	8003b20 <HAL_ADC_ConfigChannel+0x38>
    MODIFY_REG(hadc->Instance->SQR1                        ,
 8003b6e:	6ad6      	ldr	r6, [r2, #44]	; 0x2c
 8003b70:	3b41      	subs	r3, #65	; 0x41
 8003b72:	409d      	lsls	r5, r3
 8003b74:	ea26 0505 	bic.w	r5, r6, r5
 8003b78:	fa00 f303 	lsl.w	r3, r0, r3
 8003b7c:	432b      	orrs	r3, r5
 8003b7e:	62d3      	str	r3, [r2, #44]	; 0x2c
 8003b80:	e7ce      	b.n	8003b20 <HAL_ADC_ConfigChannel+0x38>
    MODIFY_REG(hadc->Instance->SMPR2                             ,
 8003b82:	6910      	ldr	r0, [r2, #16]
 8003b84:	40a9      	lsls	r1, r5
 8003b86:	ea20 0101 	bic.w	r1, r0, r1
 8003b8a:	40ab      	lsls	r3, r5
 8003b8c:	430b      	orrs	r3, r1
 8003b8e:	6113      	str	r3, [r2, #16]
 8003b90:	e7d9      	b.n	8003b46 <HAL_ADC_ConfigChannel+0x5e>
    if (hadc->Instance == ADC1)
 8003b92:	4b11      	ldr	r3, [pc, #68]	; (8003bd8 <HAL_ADC_ConfigChannel+0xf0>)
 8003b94:	429a      	cmp	r2, r3
 8003b96:	d116      	bne.n	8003bc6 <HAL_ADC_ConfigChannel+0xde>
      if (READ_BIT(hadc->Instance->CR2, ADC_CR2_TSVREFE) == RESET)
 8003b98:	6893      	ldr	r3, [r2, #8]
 8003b9a:	021b      	lsls	r3, r3, #8
 8003b9c:	d4d3      	bmi.n	8003b46 <HAL_ADC_ConfigChannel+0x5e>
        SET_BIT(hadc->Instance->CR2, ADC_CR2_TSVREFE);
 8003b9e:	6893      	ldr	r3, [r2, #8]
        if (sConfig->Channel == ADC_CHANNEL_TEMPSENSOR)
 8003ba0:	2810      	cmp	r0, #16
        SET_BIT(hadc->Instance->CR2, ADC_CR2_TSVREFE);
 8003ba2:	f443 0300 	orr.w	r3, r3, #8388608	; 0x800000
 8003ba6:	6093      	str	r3, [r2, #8]
        if (sConfig->Channel == ADC_CHANNEL_TEMPSENSOR)
 8003ba8:	d1cd      	bne.n	8003b46 <HAL_ADC_ConfigChannel+0x5e>
          wait_loop_index = (ADC_TEMPSENSOR_DELAY_US * (SystemCoreClock / 1000000U));
 8003baa:	4b0c      	ldr	r3, [pc, #48]	; (8003bdc <HAL_ADC_ConfigChannel+0xf4>)
 8003bac:	4a0c      	ldr	r2, [pc, #48]	; (8003be0 <HAL_ADC_ConfigChannel+0xf8>)
 8003bae:	681b      	ldr	r3, [r3, #0]
 8003bb0:	fbb3 f3f2 	udiv	r3, r3, r2
 8003bb4:	220a      	movs	r2, #10
 8003bb6:	4353      	muls	r3, r2
            wait_loop_index--;
 8003bb8:	9301      	str	r3, [sp, #4]
          while(wait_loop_index != 0U)
 8003bba:	9b01      	ldr	r3, [sp, #4]
 8003bbc:	2b00      	cmp	r3, #0
 8003bbe:	d0c2      	beq.n	8003b46 <HAL_ADC_ConfigChannel+0x5e>
            wait_loop_index--;
 8003bc0:	9b01      	ldr	r3, [sp, #4]
 8003bc2:	3b01      	subs	r3, #1
 8003bc4:	e7f8      	b.n	8003bb8 <HAL_ADC_ConfigChannel+0xd0>
      SET_BIT(hadc->State, HAL_ADC_STATE_ERROR_CONFIG);
 8003bc6:	6aa3      	ldr	r3, [r4, #40]	; 0x28
      tmp_hal_status = HAL_ERROR;
 8003bc8:	2001      	movs	r0, #1
      SET_BIT(hadc->State, HAL_ADC_STATE_ERROR_CONFIG);
 8003bca:	f043 0320 	orr.w	r3, r3, #32
 8003bce:	62a3      	str	r3, [r4, #40]	; 0x28
      tmp_hal_status = HAL_ERROR;
 8003bd0:	e7ba      	b.n	8003b48 <HAL_ADC_ConfigChannel+0x60>
  __HAL_LOCK(hadc);
 8003bd2:	2002      	movs	r0, #2
 8003bd4:	e7bb      	b.n	8003b4e <HAL_ADC_ConfigChannel+0x66>
 8003bd6:	bf00      	nop
 8003bd8:	40012400 	.word	0x40012400
 8003bdc:	20000008 	.word	0x20000008
 8003be0:	000f4240 	.word	0x000f4240

08003be4 <ADC_Enable>:
  __IO uint32_t wait_loop_index = 0U;
 8003be4:	2300      	movs	r3, #0
{
 8003be6:	b537      	push	{r0, r1, r2, r4, r5, lr}
  __IO uint32_t wait_loop_index = 0U;
 8003be8:	9301      	str	r3, [sp, #4]
  if (ADC_IS_ENABLE(hadc) == RESET)
 8003bea:	6803      	ldr	r3, [r0, #0]
{
 8003bec:	4604      	mov	r4, r0
  if (ADC_IS_ENABLE(hadc) == RESET)
 8003bee:	689a      	ldr	r2, [r3, #8]
 8003bf0:	07d2      	lsls	r2, r2, #31
 8003bf2:	d502      	bpl.n	8003bfa <ADC_Enable+0x16>
  return HAL_OK;
 8003bf4:	2000      	movs	r0, #0
}
 8003bf6:	b003      	add	sp, #12
 8003bf8:	bd30      	pop	{r4, r5, pc}
    __HAL_ADC_ENABLE(hadc);
 8003bfa:	689a      	ldr	r2, [r3, #8]
 8003bfc:	f042 0201 	orr.w	r2, r2, #1
 8003c00:	609a      	str	r2, [r3, #8]
    wait_loop_index = (ADC_STAB_DELAY_US * (SystemCoreClock / 1000000U));
 8003c02:	4b14      	ldr	r3, [pc, #80]	; (8003c54 <ADC_Enable+0x70>)
 8003c04:	4a14      	ldr	r2, [pc, #80]	; (8003c58 <ADC_Enable+0x74>)
 8003c06:	681b      	ldr	r3, [r3, #0]
 8003c08:	fbb3 f3f2 	udiv	r3, r3, r2
      wait_loop_index--;
 8003c0c:	9301      	str	r3, [sp, #4]
    while(wait_loop_index != 0U)
 8003c0e:	9b01      	ldr	r3, [sp, #4]
 8003c10:	b9e3      	cbnz	r3, 8003c4c <ADC_Enable+0x68>
    tickstart = HAL_GetTick();
 8003c12:	f7ff ff15 	bl	8003a40 <HAL_GetTick>
 8003c16:	4605      	mov	r5, r0
    while(ADC_IS_ENABLE(hadc) == RESET)
 8003c18:	6823      	ldr	r3, [r4, #0]
 8003c1a:	689b      	ldr	r3, [r3, #8]
 8003c1c:	07db      	lsls	r3, r3, #31
 8003c1e:	d4e9      	bmi.n	8003bf4 <ADC_Enable+0x10>
      if((HAL_GetTick() - tickstart) > ADC_ENABLE_TIMEOUT)
 8003c20:	f7ff ff0e 	bl	8003a40 <HAL_GetTick>
 8003c24:	1b40      	subs	r0, r0, r5
 8003c26:	2802      	cmp	r0, #2
 8003c28:	d9f6      	bls.n	8003c18 <ADC_Enable+0x34>
        if(ADC_IS_ENABLE(hadc) == RESET)
 8003c2a:	6823      	ldr	r3, [r4, #0]
 8003c2c:	689b      	ldr	r3, [r3, #8]
 8003c2e:	f013 0301 	ands.w	r3, r3, #1
 8003c32:	d1f1      	bne.n	8003c18 <ADC_Enable+0x34>
          SET_BIT(hadc->State, HAL_ADC_STATE_ERROR_INTERNAL);
 8003c34:	6aa2      	ldr	r2, [r4, #40]	; 0x28
          return HAL_ERROR;
 8003c36:	2001      	movs	r0, #1
          SET_BIT(hadc->State, HAL_ADC_STATE_ERROR_INTERNAL);
 8003c38:	f042 0210 	orr.w	r2, r2, #16
 8003c3c:	62a2      	str	r2, [r4, #40]	; 0x28
          SET_BIT(hadc->ErrorCode, HAL_ADC_ERROR_INTERNAL);
 8003c3e:	6ae2      	ldr	r2, [r4, #44]	; 0x2c
          __HAL_UNLOCK(hadc);
 8003c40:	f884 3024 	strb.w	r3, [r4, #36]	; 0x24
          SET_BIT(hadc->ErrorCode, HAL_ADC_ERROR_INTERNAL);
 8003c44:	f042 0201 	orr.w	r2, r2, #1
 8003c48:	62e2      	str	r2, [r4, #44]	; 0x2c
          return HAL_ERROR;
 8003c4a:	e7d4      	b.n	8003bf6 <ADC_Enable+0x12>
      wait_loop_index--;
 8003c4c:	9b01      	ldr	r3, [sp, #4]
 8003c4e:	3b01      	subs	r3, #1
 8003c50:	e7dc      	b.n	8003c0c <ADC_Enable+0x28>
 8003c52:	bf00      	nop
 8003c54:	20000008 	.word	0x20000008
 8003c58:	000f4240 	.word	0x000f4240

08003c5c <HAL_ADC_Start_DMA>:
{
 8003c5c:	e92d 41f0 	stmdb	sp!, {r4, r5, r6, r7, r8, lr}
  if(ADC_MULTIMODE_IS_ENABLE(hadc) == RESET)
 8003c60:	4b40      	ldr	r3, [pc, #256]	; (8003d64 <HAL_ADC_Start_DMA+0x108>)
{
 8003c62:	4690      	mov	r8, r2
  if(ADC_MULTIMODE_IS_ENABLE(hadc) == RESET)
 8003c64:	6802      	ldr	r2, [r0, #0]
{
 8003c66:	4604      	mov	r4, r0
  if(ADC_MULTIMODE_IS_ENABLE(hadc) == RESET)
 8003c68:	429a      	cmp	r2, r3
{
 8003c6a:	460f      	mov	r7, r1
  if(ADC_MULTIMODE_IS_ENABLE(hadc) == RESET)
 8003c6c:	d002      	beq.n	8003c74 <HAL_ADC_Start_DMA+0x18>
 8003c6e:	493e      	ldr	r1, [pc, #248]	; (8003d68 <HAL_ADC_Start_DMA+0x10c>)
 8003c70:	428a      	cmp	r2, r1
 8003c72:	d103      	bne.n	8003c7c <HAL_ADC_Start_DMA+0x20>
 8003c74:	685b      	ldr	r3, [r3, #4]
 8003c76:	f413 2f70 	tst.w	r3, #983040	; 0xf0000
 8003c7a:	d16e      	bne.n	8003d5a <HAL_ADC_Start_DMA+0xfe>
    __HAL_LOCK(hadc);
 8003c7c:	f894 3024 	ldrb.w	r3, [r4, #36]	; 0x24
 8003c80:	2b01      	cmp	r3, #1
 8003c82:	d06c      	beq.n	8003d5e <HAL_ADC_Start_DMA+0x102>
 8003c84:	2301      	movs	r3, #1
    tmp_hal_status = ADC_Enable(hadc);
 8003c86:	4620      	mov	r0, r4
    __HAL_LOCK(hadc);
 8003c88:	f884 3024 	strb.w	r3, [r4, #36]	; 0x24
    tmp_hal_status = ADC_Enable(hadc);
 8003c8c:	f7ff ffaa 	bl	8003be4 <ADC_Enable>
    if (tmp_hal_status == HAL_OK)
 8003c90:	4606      	mov	r6, r0
 8003c92:	2800      	cmp	r0, #0
 8003c94:	d15d      	bne.n	8003d52 <HAL_ADC_Start_DMA+0xf6>
      ADC_STATE_CLR_SET(hadc->State,
 8003c96:	6aa5      	ldr	r5, [r4, #40]	; 0x28
    if (ADC_NONMULTIMODE_OR_MULTIMODEMASTER(hadc))
 8003c98:	6821      	ldr	r1, [r4, #0]
 8003c9a:	4b33      	ldr	r3, [pc, #204]	; (8003d68 <HAL_ADC_Start_DMA+0x10c>)
      ADC_STATE_CLR_SET(hadc->State,
 8003c9c:	f425 6570 	bic.w	r5, r5, #3840	; 0xf00
 8003ca0:	f025 0501 	bic.w	r5, r5, #1
 8003ca4:	f445 7580 	orr.w	r5, r5, #256	; 0x100
    if (ADC_NONMULTIMODE_OR_MULTIMODEMASTER(hadc))
 8003ca8:	4299      	cmp	r1, r3
      ADC_STATE_CLR_SET(hadc->State,
 8003caa:	62a5      	str	r5, [r4, #40]	; 0x28
    if (ADC_NONMULTIMODE_OR_MULTIMODEMASTER(hadc))
 8003cac:	d104      	bne.n	8003cb8 <HAL_ADC_Start_DMA+0x5c>
 8003cae:	4a2d      	ldr	r2, [pc, #180]	; (8003d64 <HAL_ADC_Start_DMA+0x108>)
 8003cb0:	6853      	ldr	r3, [r2, #4]
 8003cb2:	f413 2f70 	tst.w	r3, #983040	; 0xf0000
 8003cb6:	d13e      	bne.n	8003d36 <HAL_ADC_Start_DMA+0xda>
      CLEAR_BIT(hadc->State, HAL_ADC_STATE_MULTIMODE_SLAVE);
 8003cb8:	6aa3      	ldr	r3, [r4, #40]	; 0x28
 8003cba:	f423 1380 	bic.w	r3, r3, #1048576	; 0x100000
 8003cbe:	62a3      	str	r3, [r4, #40]	; 0x28
      if (READ_BIT(hadc->Instance->CR1, ADC_CR1_JAUTO) != RESET)
 8003cc0:	684b      	ldr	r3, [r1, #4]
 8003cc2:	055a      	lsls	r2, r3, #21
 8003cc4:	d505      	bpl.n	8003cd2 <HAL_ADC_Start_DMA+0x76>
        ADC_STATE_CLR_SET(hadc->State, HAL_ADC_STATE_INJ_EOC, HAL_ADC_STATE_INJ_BUSY);  
 8003cc6:	6aa3      	ldr	r3, [r4, #40]	; 0x28
 8003cc8:	f423 5340 	bic.w	r3, r3, #12288	; 0x3000
 8003ccc:	f443 5380 	orr.w	r3, r3, #4096	; 0x1000
 8003cd0:	62a3      	str	r3, [r4, #40]	; 0x28
      if (HAL_IS_BIT_SET(hadc->State, HAL_ADC_STATE_INJ_BUSY))
 8003cd2:	6aa3      	ldr	r3, [r4, #40]	; 0x28
      hadc->DMA_Handle->XferCpltCallback = ADC_DMAConvCplt;
 8003cd4:	6a20      	ldr	r0, [r4, #32]
      if (HAL_IS_BIT_SET(hadc->State, HAL_ADC_STATE_INJ_BUSY))
 8003cd6:	f413 5380 	ands.w	r3, r3, #4096	; 0x1000
        CLEAR_BIT(hadc->ErrorCode, (HAL_ADC_ERROR_OVR | HAL_ADC_ERROR_DMA));         
 8003cda:	bf18      	it	ne
 8003cdc:	6ae3      	ldrne	r3, [r4, #44]	; 0x2c
      HAL_DMA_Start_IT(hadc->DMA_Handle, (uint32_t)&hadc->Instance->DR, (uint32_t)pData, Length);
 8003cde:	463a      	mov	r2, r7
        CLEAR_BIT(hadc->ErrorCode, (HAL_ADC_ERROR_OVR | HAL_ADC_ERROR_DMA));         
 8003ce0:	bf18      	it	ne
 8003ce2:	f023 0306 	bicne.w	r3, r3, #6
        ADC_CLEAR_ERRORCODE(hadc);
 8003ce6:	62e3      	str	r3, [r4, #44]	; 0x2c
      __HAL_UNLOCK(hadc);
 8003ce8:	2300      	movs	r3, #0
 8003cea:	f884 3024 	strb.w	r3, [r4, #36]	; 0x24
      hadc->DMA_Handle->XferCpltCallback = ADC_DMAConvCplt;
 8003cee:	4b1f      	ldr	r3, [pc, #124]	; (8003d6c <HAL_ADC_Start_DMA+0x110>)
      HAL_DMA_Start_IT(hadc->DMA_Handle, (uint32_t)&hadc->Instance->DR, (uint32_t)pData, Length);
 8003cf0:	314c      	adds	r1, #76	; 0x4c
      hadc->DMA_Handle->XferCpltCallback = ADC_DMAConvCplt;
 8003cf2:	6283      	str	r3, [r0, #40]	; 0x28
      hadc->DMA_Handle->XferHalfCpltCallback = ADC_DMAHalfConvCplt;
 8003cf4:	4b1e      	ldr	r3, [pc, #120]	; (8003d70 <HAL_ADC_Start_DMA+0x114>)
 8003cf6:	62c3      	str	r3, [r0, #44]	; 0x2c
      hadc->DMA_Handle->XferErrorCallback = ADC_DMAError;
 8003cf8:	4b1e      	ldr	r3, [pc, #120]	; (8003d74 <HAL_ADC_Start_DMA+0x118>)
 8003cfa:	6303      	str	r3, [r0, #48]	; 0x30
      __HAL_ADC_CLEAR_FLAG(hadc, ADC_FLAG_EOC);
 8003cfc:	f06f 0302 	mvn.w	r3, #2
 8003d00:	f841 3c4c 	str.w	r3, [r1, #-76]
      SET_BIT(hadc->Instance->CR2, ADC_CR2_DMA);
 8003d04:	f851 3c44 	ldr.w	r3, [r1, #-68]
 8003d08:	f443 7380 	orr.w	r3, r3, #256	; 0x100
 8003d0c:	f841 3c44 	str.w	r3, [r1, #-68]
      HAL_DMA_Start_IT(hadc->DMA_Handle, (uint32_t)&hadc->Instance->DR, (uint32_t)pData, Length);
 8003d10:	4643      	mov	r3, r8
 8003d12:	f000 f969 	bl	8003fe8 <HAL_DMA_Start_IT>
      if (ADC_IS_SOFTWARE_START_REGULAR(hadc))
 8003d16:	6823      	ldr	r3, [r4, #0]
 8003d18:	689a      	ldr	r2, [r3, #8]
 8003d1a:	f402 2260 	and.w	r2, r2, #917504	; 0xe0000
 8003d1e:	f5b2 2f60 	cmp.w	r2, #917504	; 0xe0000
        SET_BIT(hadc->Instance->CR2, (ADC_CR2_SWSTART | ADC_CR2_EXTTRIG));
 8003d22:	689a      	ldr	r2, [r3, #8]
 8003d24:	bf0c      	ite	eq
 8003d26:	f442 02a0 	orreq.w	r2, r2, #5242880	; 0x500000
        SET_BIT(hadc->Instance->CR2, ADC_CR2_EXTTRIG);
 8003d2a:	f442 1280 	orrne.w	r2, r2, #1048576	; 0x100000
 8003d2e:	609a      	str	r2, [r3, #8]
}
 8003d30:	4630      	mov	r0, r6
 8003d32:	e8bd 81f0 	ldmia.w	sp!, {r4, r5, r6, r7, r8, pc}
      SET_BIT(hadc->State, HAL_ADC_STATE_MULTIMODE_SLAVE);
 8003d36:	6aa3      	ldr	r3, [r4, #40]	; 0x28
 8003d38:	f443 1380 	orr.w	r3, r3, #1048576	; 0x100000
 8003d3c:	62a3      	str	r3, [r4, #40]	; 0x28
      if (ADC_MULTIMODE_AUTO_INJECTED(hadc))
 8003d3e:	6853      	ldr	r3, [r2, #4]
 8003d40:	055b      	lsls	r3, r3, #21
        ADC_STATE_CLR_SET(hadc->State, HAL_ADC_STATE_INJ_EOC, HAL_ADC_STATE_INJ_BUSY);
 8003d42:	bf41      	itttt	mi
 8003d44:	6aa0      	ldrmi	r0, [r4, #40]	; 0x28
 8003d46:	f420 5040 	bicmi.w	r0, r0, #12288	; 0x3000
 8003d4a:	f440 5080 	orrmi.w	r0, r0, #4096	; 0x1000
 8003d4e:	62a0      	strmi	r0, [r4, #40]	; 0x28
 8003d50:	e7bf      	b.n	8003cd2 <HAL_ADC_Start_DMA+0x76>
      __HAL_UNLOCK(hadc);
 8003d52:	2300      	movs	r3, #0
 8003d54:	f884 3024 	strb.w	r3, [r4, #36]	; 0x24
 8003d58:	e7ea      	b.n	8003d30 <HAL_ADC_Start_DMA+0xd4>
    tmp_hal_status = HAL_ERROR;
 8003d5a:	2601      	movs	r6, #1
 8003d5c:	e7e8      	b.n	8003d30 <HAL_ADC_Start_DMA+0xd4>
    __HAL_LOCK(hadc);
 8003d5e:	2602      	movs	r6, #2
 8003d60:	e7e6      	b.n	8003d30 <HAL_ADC_Start_DMA+0xd4>
 8003d62:	bf00      	nop
 8003d64:	40012400 	.word	0x40012400
 8003d68:	40012800 	.word	0x40012800
 8003d6c:	08003a71 	.word	0x08003a71
 8003d70:	08003ac1 	.word	0x08003ac1
 8003d74:	08003acd 	.word	0x08003acd

08003d78 <ADC_ConversionStop_Disable>:
{
 8003d78:	b538      	push	{r3, r4, r5, lr}
  if (ADC_IS_ENABLE(hadc) != RESET)
 8003d7a:	6803      	ldr	r3, [r0, #0]
{
 8003d7c:	4604      	mov	r4, r0
  if (ADC_IS_ENABLE(hadc) != RESET)
 8003d7e:	689a      	ldr	r2, [r3, #8]
 8003d80:	07d1      	lsls	r1, r2, #31
 8003d82:	d401      	bmi.n	8003d88 <ADC_ConversionStop_Disable+0x10>
  return HAL_OK;
 8003d84:	2000      	movs	r0, #0
}
 8003d86:	bd38      	pop	{r3, r4, r5, pc}
    __HAL_ADC_DISABLE(hadc);
 8003d88:	689a      	ldr	r2, [r3, #8]
 8003d8a:	f022 0201 	bic.w	r2, r2, #1
 8003d8e:	609a      	str	r2, [r3, #8]
    tickstart = HAL_GetTick();
 8003d90:	f7ff fe56 	bl	8003a40 <HAL_GetTick>
 8003d94:	4605      	mov	r5, r0
    while(ADC_IS_ENABLE(hadc) != RESET)
 8003d96:	6823      	ldr	r3, [r4, #0]
 8003d98:	689b      	ldr	r3, [r3, #8]
 8003d9a:	07db      	lsls	r3, r3, #31
 8003d9c:	d5f2      	bpl.n	8003d84 <ADC_ConversionStop_Disable+0xc>
      if((HAL_GetTick() - tickstart) > ADC_DISABLE_TIMEOUT)
 8003d9e:	f7ff fe4f 	bl	8003a40 <HAL_GetTick>
 8003da2:	1b40      	subs	r0, r0, r5
 8003da4:	2802      	cmp	r0, #2
 8003da6:	d9f6      	bls.n	8003d96 <ADC_ConversionStop_Disable+0x1e>
        if(ADC_IS_ENABLE(hadc) != RESET)
 8003da8:	6823      	ldr	r3, [r4, #0]
 8003daa:	689b      	ldr	r3, [r3, #8]
 8003dac:	07da      	lsls	r2, r3, #31
 8003dae:	d5f2      	bpl.n	8003d96 <ADC_ConversionStop_Disable+0x1e>
          SET_BIT(hadc->State, HAL_ADC_STATE_ERROR_INTERNAL);
 8003db0:	6aa3      	ldr	r3, [r4, #40]	; 0x28
          return HAL_ERROR;
 8003db2:	2001      	movs	r0, #1
          SET_BIT(hadc->State, HAL_ADC_STATE_ERROR_INTERNAL);
 8003db4:	f043 0310 	orr.w	r3, r3, #16
 8003db8:	62a3      	str	r3, [r4, #40]	; 0x28
          SET_BIT(hadc->ErrorCode, HAL_ADC_ERROR_INTERNAL);
 8003dba:	6ae3      	ldr	r3, [r4, #44]	; 0x2c
 8003dbc:	f043 0301 	orr.w	r3, r3, #1
 8003dc0:	62e3      	str	r3, [r4, #44]	; 0x2c
          return HAL_ERROR;
 8003dc2:	e7e0      	b.n	8003d86 <ADC_ConversionStop_Disable+0xe>

08003dc4 <HAL_ADC_Init>:
{
 8003dc4:	b5f8      	push	{r3, r4, r5, r6, r7, lr}
  if(hadc == NULL)
 8003dc6:	4604      	mov	r4, r0
 8003dc8:	2800      	cmp	r0, #0
 8003dca:	d06e      	beq.n	8003eaa <HAL_ADC_Init+0xe6>
  if (hadc->State == HAL_ADC_STATE_RESET)
 8003dcc:	6a83      	ldr	r3, [r0, #40]	; 0x28
 8003dce:	b923      	cbnz	r3, 8003dda <HAL_ADC_Init+0x16>
    ADC_CLEAR_ERRORCODE(hadc);
 8003dd0:	62c3      	str	r3, [r0, #44]	; 0x2c
    hadc->Lock = HAL_UNLOCKED;
 8003dd2:	f880 3024 	strb.w	r3, [r0, #36]	; 0x24
    HAL_ADC_MspInit(hadc);
 8003dd6:	f7fe f987 	bl	80020e8 <HAL_ADC_MspInit>
  tmp_hal_status = ADC_ConversionStop_Disable(hadc);
 8003dda:	4620      	mov	r0, r4
 8003ddc:	f7ff ffcc 	bl	8003d78 <ADC_ConversionStop_Disable>
  if (HAL_IS_BIT_CLR(hadc->State, HAL_ADC_STATE_ERROR_INTERNAL) &&
 8003de0:	6aa3      	ldr	r3, [r4, #40]	; 0x28
 8003de2:	f013 0310 	ands.w	r3, r3, #16
 8003de6:	d162      	bne.n	8003eae <HAL_ADC_Init+0xea>
 8003de8:	2800      	cmp	r0, #0
 8003dea:	d160      	bne.n	8003eae <HAL_ADC_Init+0xea>
    ADC_STATE_CLR_SET(hadc->State,
 8003dec:	6aa2      	ldr	r2, [r4, #40]	; 0x28
    tmp_cr2 |= (hadc->Init.DataAlign                                          |
 8003dee:	69e5      	ldr	r5, [r4, #28]
 8003df0:	6861      	ldr	r1, [r4, #4]
    ADC_STATE_CLR_SET(hadc->State,
 8003df2:	f422 5288 	bic.w	r2, r2, #4352	; 0x1100
 8003df6:	f022 0202 	bic.w	r2, r2, #2
 8003dfa:	f042 0202 	orr.w	r2, r2, #2
    tmp_cr2 |= (hadc->Init.DataAlign                                          |
 8003dfe:	4329      	orrs	r1, r5
    tmp_cr1 |= (ADC_CR1_SCAN_SET(hadc->Init.ScanConvMode));
 8003e00:	68a5      	ldr	r5, [r4, #8]
    ADC_STATE_CLR_SET(hadc->State,
 8003e02:	62a2      	str	r2, [r4, #40]	; 0x28
                ADC_CR2_CONTINUOUS((uint32_t)hadc->Init.ContinuousConvMode)   );
 8003e04:	7b22      	ldrb	r2, [r4, #12]
    tmp_cr1 |= (ADC_CR1_SCAN_SET(hadc->Init.ScanConvMode));
 8003e06:	f5b5 7f80 	cmp.w	r5, #256	; 0x100
                ADC_CFGR_EXTSEL(hadc, hadc->Init.ExternalTrigConv)            |
 8003e0a:	ea41 0142 	orr.w	r1, r1, r2, lsl #1
    tmp_cr1 |= (ADC_CR1_SCAN_SET(hadc->Init.ScanConvMode));
 8003e0e:	d037      	beq.n	8003e80 <HAL_ADC_Init+0xbc>
 8003e10:	2d01      	cmp	r5, #1
 8003e12:	bf14      	ite	ne
 8003e14:	2700      	movne	r7, #0
 8003e16:	f44f 7780 	moveq.w	r7, #256	; 0x100
    if (hadc->Init.DiscontinuousConvMode == ENABLE)
 8003e1a:	7d26      	ldrb	r6, [r4, #20]
 8003e1c:	2e01      	cmp	r6, #1
 8003e1e:	d106      	bne.n	8003e2e <HAL_ADC_Init+0x6a>
      if (hadc->Init.ContinuousConvMode == DISABLE)
 8003e20:	bb82      	cbnz	r2, 8003e84 <HAL_ADC_Init+0xc0>
        SET_BIT(tmp_cr1, ADC_CR1_DISCEN                                            |
 8003e22:	69a2      	ldr	r2, [r4, #24]
 8003e24:	3a01      	subs	r2, #1
 8003e26:	ea47 3642 	orr.w	r6, r7, r2, lsl #13
 8003e2a:	f446 6700 	orr.w	r7, r6, #2048	; 0x800
      MODIFY_REG(hadc->Instance->CR1,
 8003e2e:	6822      	ldr	r2, [r4, #0]
    if (ADC_CR1_SCAN_SET(hadc->Init.ScanConvMode) == ADC_SCAN_ENABLE)
 8003e30:	f5b5 7f80 	cmp.w	r5, #256	; 0x100
      MODIFY_REG(hadc->Instance->CR1,
 8003e34:	6856      	ldr	r6, [r2, #4]
 8003e36:	f426 4669 	bic.w	r6, r6, #59648	; 0xe900
 8003e3a:	ea46 0607 	orr.w	r6, r6, r7
 8003e3e:	6056      	str	r6, [r2, #4]
      MODIFY_REG(hadc->Instance->CR2,
 8003e40:	6897      	ldr	r7, [r2, #8]
 8003e42:	4e1d      	ldr	r6, [pc, #116]	; (8003eb8 <HAL_ADC_Init+0xf4>)
 8003e44:	ea06 0607 	and.w	r6, r6, r7
 8003e48:	ea46 0601 	orr.w	r6, r6, r1
 8003e4c:	6096      	str	r6, [r2, #8]
    if (ADC_CR1_SCAN_SET(hadc->Init.ScanConvMode) == ADC_SCAN_ENABLE)
 8003e4e:	d001      	beq.n	8003e54 <HAL_ADC_Init+0x90>
 8003e50:	2d01      	cmp	r5, #1
 8003e52:	d102      	bne.n	8003e5a <HAL_ADC_Init+0x96>
      tmp_sqr1 = ADC_SQR1_L_SHIFT(hadc->Init.NbrOfConversion);
 8003e54:	6923      	ldr	r3, [r4, #16]
 8003e56:	3b01      	subs	r3, #1
 8003e58:	051b      	lsls	r3, r3, #20
    MODIFY_REG(hadc->Instance->SQR1,
 8003e5a:	6ad5      	ldr	r5, [r2, #44]	; 0x2c
 8003e5c:	f425 0570 	bic.w	r5, r5, #15728640	; 0xf00000
 8003e60:	432b      	orrs	r3, r5
 8003e62:	62d3      	str	r3, [r2, #44]	; 0x2c
    if (READ_BIT(hadc->Instance->CR2, ~(ADC_CR2_ADON | ADC_CR2_DMA |
 8003e64:	6892      	ldr	r2, [r2, #8]
 8003e66:	4b15      	ldr	r3, [pc, #84]	; (8003ebc <HAL_ADC_Init+0xf8>)
 8003e68:	4013      	ands	r3, r2
 8003e6a:	4299      	cmp	r1, r3
 8003e6c:	d113      	bne.n	8003e96 <HAL_ADC_Init+0xd2>
      ADC_CLEAR_ERRORCODE(hadc);
 8003e6e:	2300      	movs	r3, #0
 8003e70:	62e3      	str	r3, [r4, #44]	; 0x2c
      ADC_STATE_CLR_SET(hadc->State,
 8003e72:	6aa3      	ldr	r3, [r4, #40]	; 0x28
 8003e74:	f023 0303 	bic.w	r3, r3, #3
 8003e78:	f043 0301 	orr.w	r3, r3, #1
 8003e7c:	62a3      	str	r3, [r4, #40]	; 0x28
}
 8003e7e:	bdf8      	pop	{r3, r4, r5, r6, r7, pc}
    tmp_cr1 |= (ADC_CR1_SCAN_SET(hadc->Init.ScanConvMode));
 8003e80:	462f      	mov	r7, r5
 8003e82:	e7ca      	b.n	8003e1a <HAL_ADC_Init+0x56>
        SET_BIT(hadc->State, HAL_ADC_STATE_ERROR_CONFIG);
 8003e84:	6aa2      	ldr	r2, [r4, #40]	; 0x28
 8003e86:	f042 0220 	orr.w	r2, r2, #32
 8003e8a:	62a2      	str	r2, [r4, #40]	; 0x28
        SET_BIT(hadc->ErrorCode, HAL_ADC_ERROR_INTERNAL);
 8003e8c:	6ae2      	ldr	r2, [r4, #44]	; 0x2c
 8003e8e:	f042 0201 	orr.w	r2, r2, #1
 8003e92:	62e2      	str	r2, [r4, #44]	; 0x2c
 8003e94:	e7cb      	b.n	8003e2e <HAL_ADC_Init+0x6a>
      ADC_STATE_CLR_SET(hadc->State,
 8003e96:	6aa3      	ldr	r3, [r4, #40]	; 0x28
 8003e98:	f023 0312 	bic.w	r3, r3, #18
 8003e9c:	f043 0310 	orr.w	r3, r3, #16
 8003ea0:	62a3      	str	r3, [r4, #40]	; 0x28
      SET_BIT(hadc->ErrorCode, HAL_ADC_ERROR_INTERNAL);
 8003ea2:	6ae3      	ldr	r3, [r4, #44]	; 0x2c
 8003ea4:	f043 0301 	orr.w	r3, r3, #1
 8003ea8:	62e3      	str	r3, [r4, #44]	; 0x2c
    return HAL_ERROR;
 8003eaa:	2001      	movs	r0, #1
 8003eac:	e7e7      	b.n	8003e7e <HAL_ADC_Init+0xba>
    SET_BIT(hadc->State, HAL_ADC_STATE_ERROR_INTERNAL);
 8003eae:	6aa3      	ldr	r3, [r4, #40]	; 0x28
 8003eb0:	f043 0310 	orr.w	r3, r3, #16
 8003eb4:	62a3      	str	r3, [r4, #40]	; 0x28
    tmp_hal_status = HAL_ERROR;
 8003eb6:	e7f8      	b.n	8003eaa <HAL_ADC_Init+0xe6>
 8003eb8:	ffe1f7fd 	.word	0xffe1f7fd
 8003ebc:	ff1f0efe 	.word	0xff1f0efe

08003ec0 <HAL_NVIC_SetPriorityGrouping>:
  reg_value  =  SCB->AIRCR;                                                   /* read old register configuration    */
 8003ec0:	4907      	ldr	r1, [pc, #28]	; (8003ee0 <HAL_NVIC_SetPriorityGrouping+0x20>)
                (PriorityGroupTmp << SCB_AIRCR_PRIGROUP_Pos) );               /* Insert write key and priority group */
 8003ec2:	0203      	lsls	r3, r0, #8
  reg_value  =  SCB->AIRCR;                                                   /* read old register configuration    */
 8003ec4:	68ca      	ldr	r2, [r1, #12]
                (PriorityGroupTmp << SCB_AIRCR_PRIGROUP_Pos) );               /* Insert write key and priority group */
 8003ec6:	f403 63e0 	and.w	r3, r3, #1792	; 0x700
  reg_value &= ~((uint32_t)(SCB_AIRCR_VECTKEY_Msk | SCB_AIRCR_PRIGROUP_Msk)); /* clear bits to change               */
 8003eca:	f422 62e0 	bic.w	r2, r2, #1792	; 0x700
 8003ece:	0412      	lsls	r2, r2, #16
 8003ed0:	0c12      	lsrs	r2, r2, #16
                ((uint32_t)0x5FAUL << SCB_AIRCR_VECTKEY_Pos) |
 8003ed2:	4313      	orrs	r3, r2
  reg_value  =  (reg_value                                   |
 8003ed4:	f043 63bf 	orr.w	r3, r3, #100139008	; 0x5f80000
 8003ed8:	f443 3300 	orr.w	r3, r3, #131072	; 0x20000
  SCB->AIRCR =  reg_value;
 8003edc:	60cb      	str	r3, [r1, #12]
  /* Check the parameters */
  assert_param(IS_NVIC_PRIORITY_GROUP(PriorityGroup));
  
  /* Set the PRIGROUP[10:8] bits according to the PriorityGroup parameter value */
  NVIC_SetPriorityGrouping(PriorityGroup);
}
 8003ede:	4770      	bx	lr
 8003ee0:	e000ed00 	.word	0xe000ed00

08003ee4 <HAL_NVIC_SetPriority>:
  return ((uint32_t)((SCB->AIRCR & SCB_AIRCR_PRIGROUP_Msk) >> SCB_AIRCR_PRIGROUP_Pos));
 8003ee4:	4b16      	ldr	r3, [pc, #88]	; (8003f40 <HAL_NVIC_SetPriority+0x5c>)
  *         This parameter can be a value between 0 and 15
  *         A lower priority value indicates a higher priority.          
  * @retval None
  */
void HAL_NVIC_SetPriority(IRQn_Type IRQn, uint32_t PreemptPriority, uint32_t SubPriority)
{ 
 8003ee6:	b530      	push	{r4, r5, lr}
 8003ee8:	68dc      	ldr	r4, [r3, #12]
 8003eea:	f3c4 2402 	ubfx	r4, r4, #8, #3
  PreemptPriorityBits = ((7UL - PriorityGroupTmp) > (uint32_t)(__NVIC_PRIO_BITS)) ? (uint32_t)(__NVIC_PRIO_BITS) : (uint32_t)(7UL - PriorityGroupTmp);
 8003eee:	f1c4 0307 	rsb	r3, r4, #7
  SubPriorityBits     = ((PriorityGroupTmp + (uint32_t)(__NVIC_PRIO_BITS)) < (uint32_t)7UL) ? (uint32_t)0UL : (uint32_t)((PriorityGroupTmp - 7UL) + (uint32_t)(__NVIC_PRIO_BITS));
 8003ef2:	1d25      	adds	r5, r4, #4
  PreemptPriorityBits = ((7UL - PriorityGroupTmp) > (uint32_t)(__NVIC_PRIO_BITS)) ? (uint32_t)(__NVIC_PRIO_BITS) : (uint32_t)(7UL - PriorityGroupTmp);
 8003ef4:	2b04      	cmp	r3, #4
 8003ef6:	bf28      	it	cs
 8003ef8:	2304      	movcs	r3, #4
  SubPriorityBits     = ((PriorityGroupTmp + (uint32_t)(__NVIC_PRIO_BITS)) < (uint32_t)7UL) ? (uint32_t)0UL : (uint32_t)((PriorityGroupTmp - 7UL) + (uint32_t)(__NVIC_PRIO_BITS));
 8003efa:	2d06      	cmp	r5, #6
           ((PreemptPriority & (uint32_t)((1UL << (PreemptPriorityBits)) - 1UL)) << SubPriorityBits) |
 8003efc:	f04f 35ff 	mov.w	r5, #4294967295
  SubPriorityBits     = ((PriorityGroupTmp + (uint32_t)(__NVIC_PRIO_BITS)) < (uint32_t)7UL) ? (uint32_t)0UL : (uint32_t)((PriorityGroupTmp - 7UL) + (uint32_t)(__NVIC_PRIO_BITS));
 8003f00:	bf98      	it	ls
 8003f02:	2400      	movls	r4, #0
           ((PreemptPriority & (uint32_t)((1UL << (PreemptPriorityBits)) - 1UL)) << SubPriorityBits) |
 8003f04:	fa05 f303 	lsl.w	r3, r5, r3
  SubPriorityBits     = ((PriorityGroupTmp + (uint32_t)(__NVIC_PRIO_BITS)) < (uint32_t)7UL) ? (uint32_t)0UL : (uint32_t)((PriorityGroupTmp - 7UL) + (uint32_t)(__NVIC_PRIO_BITS));
 8003f08:	bf88      	it	hi
 8003f0a:	3c03      	subhi	r4, #3
           ((PreemptPriority & (uint32_t)((1UL << (PreemptPriorityBits)) - 1UL)) << SubPriorityBits) |
 8003f0c:	ea21 0303 	bic.w	r3, r1, r3
 8003f10:	40a3      	lsls	r3, r4
           ((SubPriority     & (uint32_t)((1UL << (SubPriorityBits    )) - 1UL)))
 8003f12:	fa05 f404 	lsl.w	r4, r5, r4
 8003f16:	ea22 0204 	bic.w	r2, r2, r4
  if ((int32_t)(IRQn) >= 0)
 8003f1a:	2800      	cmp	r0, #0
           ((PreemptPriority & (uint32_t)((1UL << (PreemptPriorityBits)) - 1UL)) << SubPriorityBits) |
 8003f1c:	ea43 0302 	orr.w	r3, r3, r2
    NVIC->IP[((uint32_t)IRQn)]               = (uint8_t)((priority << (8U - __NVIC_PRIO_BITS)) & (uint32_t)0xFFUL);
 8003f20:	bfac      	ite	ge
 8003f22:	f100 4060 	addge.w	r0, r0, #3758096384	; 0xe0000000
    SCB->SHP[(((uint32_t)IRQn) & 0xFUL)-4UL] = (uint8_t)((priority << (8U - __NVIC_PRIO_BITS)) & (uint32_t)0xFFUL);
 8003f26:	4a07      	ldrlt	r2, [pc, #28]	; (8003f44 <HAL_NVIC_SetPriority+0x60>)
    NVIC->IP[((uint32_t)IRQn)]               = (uint8_t)((priority << (8U - __NVIC_PRIO_BITS)) & (uint32_t)0xFFUL);
 8003f28:	ea4f 1303 	mov.w	r3, r3, lsl #4
 8003f2c:	b2db      	uxtb	r3, r3
 8003f2e:	bfab      	itete	ge
 8003f30:	f500 4061 	addge.w	r0, r0, #57600	; 0xe100
    SCB->SHP[(((uint32_t)IRQn) & 0xFUL)-4UL] = (uint8_t)((priority << (8U - __NVIC_PRIO_BITS)) & (uint32_t)0xFFUL);
 8003f34:	f000 000f 	andlt.w	r0, r0, #15
    NVIC->IP[((uint32_t)IRQn)]               = (uint8_t)((priority << (8U - __NVIC_PRIO_BITS)) & (uint32_t)0xFFUL);
 8003f38:	f880 3300 	strbge.w	r3, [r0, #768]	; 0x300
    SCB->SHP[(((uint32_t)IRQn) & 0xFUL)-4UL] = (uint8_t)((priority << (8U - __NVIC_PRIO_BITS)) & (uint32_t)0xFFUL);
 8003f3c:	5413      	strblt	r3, [r2, r0]
  assert_param(IS_NVIC_PREEMPTION_PRIORITY(PreemptPriority));
  
  prioritygroup = NVIC_GetPriorityGrouping();
  
  NVIC_SetPriority(IRQn, NVIC_EncodePriority(prioritygroup, PreemptPriority, SubPriority));
}
 8003f3e:	bd30      	pop	{r4, r5, pc}
 8003f40:	e000ed00 	.word	0xe000ed00
 8003f44:	e000ed14 	.word	0xe000ed14

08003f48 <HAL_NVIC_EnableIRQ>:
  if ((int32_t)(IRQn) >= 0)
 8003f48:	2800      	cmp	r0, #0
 8003f4a:	db08      	blt.n	8003f5e <HAL_NVIC_EnableIRQ+0x16>
    NVIC->ISER[(((uint32_t)IRQn) >> 5UL)] = (uint32_t)(1UL << (((uint32_t)IRQn) & 0x1FUL));
 8003f4c:	2301      	movs	r3, #1
 8003f4e:	0942      	lsrs	r2, r0, #5
 8003f50:	f000 001f 	and.w	r0, r0, #31
 8003f54:	fa03 f000 	lsl.w	r0, r3, r0
 8003f58:	4b01      	ldr	r3, [pc, #4]	; (8003f60 <HAL_NVIC_EnableIRQ+0x18>)
 8003f5a:	f843 0022 	str.w	r0, [r3, r2, lsl #2]
  /* Check the parameters */
  assert_param(IS_NVIC_DEVICE_IRQ(IRQn));

  /* Enable interrupt */
  NVIC_EnableIRQ(IRQn);
}
 8003f5e:	4770      	bx	lr
 8003f60:	e000e100 	.word	0xe000e100

08003f64 <HAL_SYSTICK_Config>:
  if ((ticks - 1UL) > SysTick_LOAD_RELOAD_Msk)
 8003f64:	3801      	subs	r0, #1
 8003f66:	f1b0 7f80 	cmp.w	r0, #16777216	; 0x1000000
 8003f6a:	d20b      	bcs.n	8003f84 <HAL_SYSTICK_Config+0x20>
  SysTick->LOAD  = (uint32_t)(ticks - 1UL);                         /* set reload register */
 8003f6c:	f04f 23e0 	mov.w	r3, #3758153728	; 0xe000e000
    SCB->SHP[(((uint32_t)IRQn) & 0xFUL)-4UL] = (uint8_t)((priority << (8U - __NVIC_PRIO_BITS)) & (uint32_t)0xFFUL);
 8003f70:	21f0      	movs	r1, #240	; 0xf0
 8003f72:	4a05      	ldr	r2, [pc, #20]	; (8003f88 <HAL_SYSTICK_Config+0x24>)
  SysTick->LOAD  = (uint32_t)(ticks - 1UL);                         /* set reload register */
 8003f74:	6158      	str	r0, [r3, #20]
    SCB->SHP[(((uint32_t)IRQn) & 0xFUL)-4UL] = (uint8_t)((priority << (8U - __NVIC_PRIO_BITS)) & (uint32_t)0xFFUL);
 8003f76:	f882 1023 	strb.w	r1, [r2, #35]	; 0x23
  SysTick->VAL   = 0UL;                                             /* Load the SysTick Counter Value */
 8003f7a:	2000      	movs	r0, #0
  SysTick->CTRL  = SysTick_CTRL_CLKSOURCE_Msk |
 8003f7c:	2207      	movs	r2, #7
  SysTick->VAL   = 0UL;                                             /* Load the SysTick Counter Value */
 8003f7e:	6198      	str	r0, [r3, #24]
  SysTick->CTRL  = SysTick_CTRL_CLKSOURCE_Msk |
 8003f80:	611a      	str	r2, [r3, #16]
  return (0UL);                                                     /* Function successful */
 8003f82:	4770      	bx	lr
    return (1UL);                                                   /* Reload value impossible */
 8003f84:	2001      	movs	r0, #1
  *                  - 1  Function failed.
  */
uint32_t HAL_SYSTICK_Config(uint32_t TicksNumb)
{
   return SysTick_Config(TicksNumb);
}
 8003f86:	4770      	bx	lr
 8003f88:	e000ed00 	.word	0xe000ed00

08003f8c <HAL_DMA_Init>:
  * @param  hdma: Pointer to a DMA_HandleTypeDef structure that contains
  *               the configuration information for the specified DMA Channel.
  * @retval HAL status
  */
HAL_StatusTypeDef HAL_DMA_Init(DMA_HandleTypeDef *hdma)
{
 8003f8c:	b510      	push	{r4, lr}
  uint32_t tmp = 0U;

  /* Check the DMA handle allocation */
  if(hdma == NULL)
 8003f8e:	b320      	cbz	r0, 8003fda <HAL_DMA_Init+0x4e>
    hdma->ChannelIndex = (((uint32_t)hdma->Instance - (uint32_t)DMA2_Channel1) / ((uint32_t)DMA2_Channel2 - (uint32_t)DMA2_Channel1)) << 2;
    hdma->DmaBaseAddress = DMA2;
  }
#else
  /* DMA1 */
  hdma->ChannelIndex = (((uint32_t)hdma->Instance - (uint32_t)DMA1_Channel1) / ((uint32_t)DMA1_Channel2 - (uint32_t)DMA1_Channel1)) << 2;
 8003f90:	2214      	movs	r2, #20
 8003f92:	6801      	ldr	r1, [r0, #0]
 8003f94:	4b12      	ldr	r3, [pc, #72]	; (8003fe0 <HAL_DMA_Init+0x54>)
 8003f96:	440b      	add	r3, r1
 8003f98:	fbb3 f3f2 	udiv	r3, r3, r2
 8003f9c:	009b      	lsls	r3, r3, #2
 8003f9e:	6403      	str	r3, [r0, #64]	; 0x40
  hdma->DmaBaseAddress = DMA1;
 8003fa0:	4b10      	ldr	r3, [pc, #64]	; (8003fe4 <HAL_DMA_Init+0x58>)

  /* Change DMA peripheral state */
  hdma->State = HAL_DMA_STATE_BUSY;

  /* Get the CR register value */
  tmp = hdma->Instance->CCR;
 8003fa2:	680a      	ldr	r2, [r1, #0]
  hdma->DmaBaseAddress = DMA1;
 8003fa4:	63c3      	str	r3, [r0, #60]	; 0x3c
  tmp &= ((uint32_t)~(DMA_CCR_PL    | DMA_CCR_MSIZE  | DMA_CCR_PSIZE  | \
                      DMA_CCR_MINC  | DMA_CCR_PINC   | DMA_CCR_CIRC   | \
                      DMA_CCR_DIR));

  /* Prepare the DMA Channel configuration */
  tmp |=  hdma->Init.Direction        |
 8003fa6:	e9d0 3401 	ldrd	r3, r4, [r0, #4]
 8003faa:	4323      	orrs	r3, r4
          hdma->Init.PeriphInc           | hdma->Init.MemInc           |
 8003fac:	68c4      	ldr	r4, [r0, #12]
  tmp &= ((uint32_t)~(DMA_CCR_PL    | DMA_CCR_MSIZE  | DMA_CCR_PSIZE  | \
 8003fae:	f422 527f 	bic.w	r2, r2, #16320	; 0x3fc0
          hdma->Init.PeriphInc           | hdma->Init.MemInc           |
 8003fb2:	4323      	orrs	r3, r4
 8003fb4:	6904      	ldr	r4, [r0, #16]
  tmp &= ((uint32_t)~(DMA_CCR_PL    | DMA_CCR_MSIZE  | DMA_CCR_PSIZE  | \
 8003fb6:	f022 0230 	bic.w	r2, r2, #48	; 0x30
          hdma->Init.PeriphInc           | hdma->Init.MemInc           |
 8003fba:	4323      	orrs	r3, r4
          hdma->Init.PeriphDataAlignment | hdma->Init.MemDataAlignment |
 8003fbc:	6944      	ldr	r4, [r0, #20]
 8003fbe:	4323      	orrs	r3, r4
 8003fc0:	6984      	ldr	r4, [r0, #24]
 8003fc2:	4323      	orrs	r3, r4
          hdma->Init.Mode                | hdma->Init.Priority;
 8003fc4:	69c4      	ldr	r4, [r0, #28]
 8003fc6:	4323      	orrs	r3, r4
  tmp |=  hdma->Init.Direction        |
 8003fc8:	4313      	orrs	r3, r2

  /* Write to DMA Channel CR register */
  hdma->Instance->CCR = tmp;
 8003fca:	600b      	str	r3, [r1, #0]
  hdma->ErrorCode = HAL_DMA_ERROR_NONE;

  /* Initialize the DMA state*/
  hdma->State = HAL_DMA_STATE_READY;
  /* Allocate lock resource and initialize it */
  hdma->Lock = HAL_UNLOCKED;
 8003fcc:	f44f 7280 	mov.w	r2, #256	; 0x100
  hdma->ErrorCode = HAL_DMA_ERROR_NONE;
 8003fd0:	2300      	movs	r3, #0
  hdma->Lock = HAL_UNLOCKED;
 8003fd2:	8402      	strh	r2, [r0, #32]
  hdma->ErrorCode = HAL_DMA_ERROR_NONE;
 8003fd4:	6383      	str	r3, [r0, #56]	; 0x38

  return HAL_OK;
 8003fd6:	4618      	mov	r0, r3
}
 8003fd8:	bd10      	pop	{r4, pc}
    return HAL_ERROR;
 8003fda:	2001      	movs	r0, #1
 8003fdc:	e7fc      	b.n	8003fd8 <HAL_DMA_Init+0x4c>
 8003fde:	bf00      	nop
 8003fe0:	bffdfff8 	.word	0xbffdfff8
 8003fe4:	40020000 	.word	0x40020000

08003fe8 <HAL_DMA_Start_IT>:
  * @param  DstAddress: The destination memory Buffer address
  * @param  DataLength: The length of data to be transferred from source to destination
  * @retval HAL status
  */
HAL_StatusTypeDef HAL_DMA_Start_IT(DMA_HandleTypeDef *hdma, uint32_t SrcAddress, uint32_t DstAddress, uint32_t DataLength)
{
 8003fe8:	b5f0      	push	{r4, r5, r6, r7, lr}

  /* Check the parameters */
  assert_param(IS_DMA_BUFFER_SIZE(DataLength));

  /* Process locked */
  __HAL_LOCK(hdma);
 8003fea:	f890 4020 	ldrb.w	r4, [r0, #32]
 8003fee:	2c01      	cmp	r4, #1
 8003ff0:	d034      	beq.n	800405c <HAL_DMA_Start_IT+0x74>
 8003ff2:	2401      	movs	r4, #1
  
  if(HAL_DMA_STATE_READY == hdma->State)
 8003ff4:	f890 5021 	ldrb.w	r5, [r0, #33]	; 0x21
  __HAL_LOCK(hdma);
 8003ff8:	f880 4020 	strb.w	r4, [r0, #32]
  if(HAL_DMA_STATE_READY == hdma->State)
 8003ffc:	42a5      	cmp	r5, r4
 8003ffe:	f04f 0600 	mov.w	r6, #0
 8004002:	f04f 0402 	mov.w	r4, #2
 8004006:	d127      	bne.n	8004058 <HAL_DMA_Start_IT+0x70>
  {
    /* Change DMA peripheral state */
    hdma->State = HAL_DMA_STATE_BUSY;
 8004008:	f880 4021 	strb.w	r4, [r0, #33]	; 0x21
    hdma->ErrorCode = HAL_DMA_ERROR_NONE;
    
    /* Disable the peripheral */
    __HAL_DMA_DISABLE(hdma);
 800400c:	6804      	ldr	r4, [r0, #0]
    hdma->ErrorCode = HAL_DMA_ERROR_NONE;
 800400e:	6386      	str	r6, [r0, #56]	; 0x38
    __HAL_DMA_DISABLE(hdma);
 8004010:	6826      	ldr	r6, [r4, #0]
 8004012:	f026 0601 	bic.w	r6, r6, #1
 8004016:	6026      	str	r6, [r4, #0]
  * @retval HAL status
  */
static void DMA_SetConfig(DMA_HandleTypeDef *hdma, uint32_t SrcAddress, uint32_t DstAddress, uint32_t DataLength)
{
  /* Clear all flags */
  hdma->DmaBaseAddress->IFCR = (DMA_ISR_GIF1 << hdma->ChannelIndex);
 8004018:	e9d0 670f 	ldrd	r6, r7, [r0, #60]	; 0x3c
 800401c:	40bd      	lsls	r5, r7
 800401e:	6075      	str	r5, [r6, #4]

  /* Configure DMA Channel data length */
  hdma->Instance->CNDTR = DataLength;
 8004020:	6063      	str	r3, [r4, #4]

  /* Memory to Peripheral */
  if((hdma->Init.Direction) == DMA_MEMORY_TO_PERIPH)
 8004022:	6843      	ldr	r3, [r0, #4]
 8004024:	2b10      	cmp	r3, #16
    if(NULL != hdma->XferHalfCpltCallback)
 8004026:	6ac3      	ldr	r3, [r0, #44]	; 0x2c
  {
    /* Configure DMA Channel destination address */
    hdma->Instance->CPAR = DstAddress;
 8004028:	bf0b      	itete	eq
 800402a:	60a2      	streq	r2, [r4, #8]
  }
  /* Peripheral to Memory */
  else
  {
    /* Configure DMA Channel source address */
    hdma->Instance->CPAR = SrcAddress;
 800402c:	60a1      	strne	r1, [r4, #8]
    hdma->Instance->CMAR = SrcAddress;
 800402e:	60e1      	streq	r1, [r4, #12]

    /* Configure DMA Channel destination address */
    hdma->Instance->CMAR = DstAddress;
 8004030:	60e2      	strne	r2, [r4, #12]
    if(NULL != hdma->XferHalfCpltCallback)
 8004032:	b14b      	cbz	r3, 8004048 <HAL_DMA_Start_IT+0x60>
      __HAL_DMA_ENABLE_IT(hdma, (DMA_IT_TC | DMA_IT_HT | DMA_IT_TE));
 8004034:	6823      	ldr	r3, [r4, #0]
 8004036:	f043 030e 	orr.w	r3, r3, #14
  HAL_StatusTypeDef status = HAL_OK;
 800403a:	2000      	movs	r0, #0
      __HAL_DMA_ENABLE_IT(hdma, (DMA_IT_TC | DMA_IT_TE));
 800403c:	6023      	str	r3, [r4, #0]
    __HAL_DMA_ENABLE(hdma);
 800403e:	6823      	ldr	r3, [r4, #0]
 8004040:	f043 0301 	orr.w	r3, r3, #1
 8004044:	6023      	str	r3, [r4, #0]
}
 8004046:	bdf0      	pop	{r4, r5, r6, r7, pc}
      __HAL_DMA_DISABLE_IT(hdma, DMA_IT_HT);
 8004048:	6823      	ldr	r3, [r4, #0]
 800404a:	f023 0304 	bic.w	r3, r3, #4
 800404e:	6023      	str	r3, [r4, #0]
      __HAL_DMA_ENABLE_IT(hdma, (DMA_IT_TC | DMA_IT_TE));
 8004050:	6823      	ldr	r3, [r4, #0]
 8004052:	f043 030a 	orr.w	r3, r3, #10
 8004056:	e7f0      	b.n	800403a <HAL_DMA_Start_IT+0x52>
    __HAL_UNLOCK(hdma); 
 8004058:	f880 6020 	strb.w	r6, [r0, #32]
  __HAL_LOCK(hdma);
 800405c:	2002      	movs	r0, #2
 800405e:	e7f2      	b.n	8004046 <HAL_DMA_Start_IT+0x5e>

08004060 <HAL_DMA_IRQHandler>:
{
 8004060:	b470      	push	{r4, r5, r6}
  if (((flag_it & (DMA_FLAG_HT1 << hdma->ChannelIndex)) != RESET) && ((source_it & DMA_IT_HT) != RESET))
 8004062:	2504      	movs	r5, #4
  uint32_t flag_it = hdma->DmaBaseAddress->ISR;
 8004064:	6bc6      	ldr	r6, [r0, #60]	; 0x3c
  if (((flag_it & (DMA_FLAG_HT1 << hdma->ChannelIndex)) != RESET) && ((source_it & DMA_IT_HT) != RESET))
 8004066:	6c02      	ldr	r2, [r0, #64]	; 0x40
  uint32_t flag_it = hdma->DmaBaseAddress->ISR;
 8004068:	6834      	ldr	r4, [r6, #0]
  uint32_t source_it = hdma->Instance->CCR;
 800406a:	6803      	ldr	r3, [r0, #0]
  if (((flag_it & (DMA_FLAG_HT1 << hdma->ChannelIndex)) != RESET) && ((source_it & DMA_IT_HT) != RESET))
 800406c:	4095      	lsls	r5, r2
 800406e:	4225      	tst	r5, r4
  uint32_t source_it = hdma->Instance->CCR;
 8004070:	6819      	ldr	r1, [r3, #0]
  if (((flag_it & (DMA_FLAG_HT1 << hdma->ChannelIndex)) != RESET) && ((source_it & DMA_IT_HT) != RESET))
 8004072:	d032      	beq.n	80040da <HAL_DMA_IRQHandler+0x7a>
 8004074:	074d      	lsls	r5, r1, #29
 8004076:	d530      	bpl.n	80040da <HAL_DMA_IRQHandler+0x7a>
    if((hdma->Instance->CCR & DMA_CCR_CIRC) == 0U)
 8004078:	681a      	ldr	r2, [r3, #0]
 800407a:	0696      	lsls	r6, r2, #26
      __HAL_DMA_DISABLE_IT(hdma, DMA_IT_HT);
 800407c:	bf5e      	ittt	pl
 800407e:	681a      	ldrpl	r2, [r3, #0]
 8004080:	f022 0204 	bicpl.w	r2, r2, #4
 8004084:	601a      	strpl	r2, [r3, #0]
    __HAL_DMA_CLEAR_FLAG(hdma, __HAL_DMA_GET_HT_FLAG_INDEX(hdma));
 8004086:	4a3d      	ldr	r2, [pc, #244]	; (800417c <HAL_DMA_IRQHandler+0x11c>)
 8004088:	4293      	cmp	r3, r2
 800408a:	d019      	beq.n	80040c0 <HAL_DMA_IRQHandler+0x60>
 800408c:	3214      	adds	r2, #20
 800408e:	4293      	cmp	r3, r2
 8004090:	d018      	beq.n	80040c4 <HAL_DMA_IRQHandler+0x64>
 8004092:	3214      	adds	r2, #20
 8004094:	4293      	cmp	r3, r2
 8004096:	d017      	beq.n	80040c8 <HAL_DMA_IRQHandler+0x68>
 8004098:	3214      	adds	r2, #20
 800409a:	4293      	cmp	r3, r2
 800409c:	d017      	beq.n	80040ce <HAL_DMA_IRQHandler+0x6e>
 800409e:	3214      	adds	r2, #20
 80040a0:	4293      	cmp	r3, r2
 80040a2:	d017      	beq.n	80040d4 <HAL_DMA_IRQHandler+0x74>
 80040a4:	3214      	adds	r2, #20
 80040a6:	4293      	cmp	r3, r2
 80040a8:	bf0c      	ite	eq
 80040aa:	f44f 0380 	moveq.w	r3, #4194304	; 0x400000
 80040ae:	f04f 6380 	movne.w	r3, #67108864	; 0x4000000
 80040b2:	4a33      	ldr	r2, [pc, #204]	; (8004180 <HAL_DMA_IRQHandler+0x120>)
 80040b4:	6053      	str	r3, [r2, #4]
    if(hdma->XferHalfCpltCallback != NULL)
 80040b6:	6ac3      	ldr	r3, [r0, #44]	; 0x2c
    if (hdma->XferErrorCallback != NULL)
 80040b8:	2b00      	cmp	r3, #0
 80040ba:	d05c      	beq.n	8004176 <HAL_DMA_IRQHandler+0x116>
}
 80040bc:	bc70      	pop	{r4, r5, r6}
      hdma->XferErrorCallback(hdma);
 80040be:	4718      	bx	r3
    __HAL_DMA_CLEAR_FLAG(hdma, __HAL_DMA_GET_HT_FLAG_INDEX(hdma));
 80040c0:	2304      	movs	r3, #4
 80040c2:	e7f6      	b.n	80040b2 <HAL_DMA_IRQHandler+0x52>
 80040c4:	2340      	movs	r3, #64	; 0x40
 80040c6:	e7f4      	b.n	80040b2 <HAL_DMA_IRQHandler+0x52>
 80040c8:	f44f 6380 	mov.w	r3, #1024	; 0x400
 80040cc:	e7f1      	b.n	80040b2 <HAL_DMA_IRQHandler+0x52>
 80040ce:	f44f 4380 	mov.w	r3, #16384	; 0x4000
 80040d2:	e7ee      	b.n	80040b2 <HAL_DMA_IRQHandler+0x52>
 80040d4:	f44f 2380 	mov.w	r3, #262144	; 0x40000
 80040d8:	e7eb      	b.n	80040b2 <HAL_DMA_IRQHandler+0x52>
  else if (((flag_it & (DMA_FLAG_TC1 << hdma->ChannelIndex)) != RESET) && ((source_it & DMA_IT_TC) != RESET))
 80040da:	2502      	movs	r5, #2
 80040dc:	4095      	lsls	r5, r2
 80040de:	4225      	tst	r5, r4
 80040e0:	d035      	beq.n	800414e <HAL_DMA_IRQHandler+0xee>
 80040e2:	078d      	lsls	r5, r1, #30
 80040e4:	d533      	bpl.n	800414e <HAL_DMA_IRQHandler+0xee>
    if((hdma->Instance->CCR & DMA_CCR_CIRC) == 0U)
 80040e6:	681a      	ldr	r2, [r3, #0]
 80040e8:	0694      	lsls	r4, r2, #26
 80040ea:	d406      	bmi.n	80040fa <HAL_DMA_IRQHandler+0x9a>
      __HAL_DMA_DISABLE_IT(hdma, DMA_IT_TE | DMA_IT_TC);  
 80040ec:	681a      	ldr	r2, [r3, #0]
 80040ee:	f022 020a 	bic.w	r2, r2, #10
 80040f2:	601a      	str	r2, [r3, #0]
      hdma->State = HAL_DMA_STATE_READY;
 80040f4:	2201      	movs	r2, #1
 80040f6:	f880 2021 	strb.w	r2, [r0, #33]	; 0x21
      __HAL_DMA_CLEAR_FLAG(hdma, __HAL_DMA_GET_TC_FLAG_INDEX(hdma));
 80040fa:	4a20      	ldr	r2, [pc, #128]	; (800417c <HAL_DMA_IRQHandler+0x11c>)
 80040fc:	4293      	cmp	r3, r2
 80040fe:	d019      	beq.n	8004134 <HAL_DMA_IRQHandler+0xd4>
 8004100:	3214      	adds	r2, #20
 8004102:	4293      	cmp	r3, r2
 8004104:	d018      	beq.n	8004138 <HAL_DMA_IRQHandler+0xd8>
 8004106:	3214      	adds	r2, #20
 8004108:	4293      	cmp	r3, r2
 800410a:	d017      	beq.n	800413c <HAL_DMA_IRQHandler+0xdc>
 800410c:	3214      	adds	r2, #20
 800410e:	4293      	cmp	r3, r2
 8004110:	d017      	beq.n	8004142 <HAL_DMA_IRQHandler+0xe2>
 8004112:	3214      	adds	r2, #20
 8004114:	4293      	cmp	r3, r2
 8004116:	d017      	beq.n	8004148 <HAL_DMA_IRQHandler+0xe8>
 8004118:	3214      	adds	r2, #20
 800411a:	4293      	cmp	r3, r2
 800411c:	bf0c      	ite	eq
 800411e:	f44f 1300 	moveq.w	r3, #2097152	; 0x200000
 8004122:	f04f 7300 	movne.w	r3, #33554432	; 0x2000000
 8004126:	4a16      	ldr	r2, [pc, #88]	; (8004180 <HAL_DMA_IRQHandler+0x120>)
 8004128:	6053      	str	r3, [r2, #4]
    __HAL_UNLOCK(hdma);
 800412a:	2300      	movs	r3, #0
 800412c:	f880 3020 	strb.w	r3, [r0, #32]
    if(hdma->XferCpltCallback != NULL)
 8004130:	6a83      	ldr	r3, [r0, #40]	; 0x28
 8004132:	e7c1      	b.n	80040b8 <HAL_DMA_IRQHandler+0x58>
      __HAL_DMA_CLEAR_FLAG(hdma, __HAL_DMA_GET_TC_FLAG_INDEX(hdma));
 8004134:	2302      	movs	r3, #2
 8004136:	e7f6      	b.n	8004126 <HAL_DMA_IRQHandler+0xc6>
 8004138:	2320      	movs	r3, #32
 800413a:	e7f4      	b.n	8004126 <HAL_DMA_IRQHandler+0xc6>
 800413c:	f44f 7300 	mov.w	r3, #512	; 0x200
 8004140:	e7f1      	b.n	8004126 <HAL_DMA_IRQHandler+0xc6>
 8004142:	f44f 5300 	mov.w	r3, #8192	; 0x2000
 8004146:	e7ee      	b.n	8004126 <HAL_DMA_IRQHandler+0xc6>
 8004148:	f44f 3300 	mov.w	r3, #131072	; 0x20000
 800414c:	e7eb      	b.n	8004126 <HAL_DMA_IRQHandler+0xc6>
  else if (( RESET != (flag_it & (DMA_FLAG_TE1 << hdma->ChannelIndex))) && (RESET != (source_it & DMA_IT_TE)))
 800414e:	2508      	movs	r5, #8
 8004150:	4095      	lsls	r5, r2
 8004152:	4225      	tst	r5, r4
 8004154:	d00f      	beq.n	8004176 <HAL_DMA_IRQHandler+0x116>
 8004156:	0709      	lsls	r1, r1, #28
 8004158:	d50d      	bpl.n	8004176 <HAL_DMA_IRQHandler+0x116>
    __HAL_DMA_DISABLE_IT(hdma, (DMA_IT_TC | DMA_IT_HT | DMA_IT_TE));
 800415a:	6819      	ldr	r1, [r3, #0]
 800415c:	f021 010e 	bic.w	r1, r1, #14
 8004160:	6019      	str	r1, [r3, #0]
    hdma->DmaBaseAddress->IFCR = (DMA_ISR_GIF1 << hdma->ChannelIndex);
 8004162:	2301      	movs	r3, #1
 8004164:	fa03 f202 	lsl.w	r2, r3, r2
 8004168:	6072      	str	r2, [r6, #4]
    hdma->ErrorCode = HAL_DMA_ERROR_TE;
 800416a:	6383      	str	r3, [r0, #56]	; 0x38
    __HAL_UNLOCK(hdma);
 800416c:	f44f 7380 	mov.w	r3, #256	; 0x100
 8004170:	8403      	strh	r3, [r0, #32]
    if (hdma->XferErrorCallback != NULL)
 8004172:	6b03      	ldr	r3, [r0, #48]	; 0x30
 8004174:	e7a0      	b.n	80040b8 <HAL_DMA_IRQHandler+0x58>
}
 8004176:	bc70      	pop	{r4, r5, r6}
 8004178:	4770      	bx	lr
 800417a:	bf00      	nop
 800417c:	40020008 	.word	0x40020008
 8004180:	40020000 	.word	0x40020000

08004184 <HAL_GPIO_Init>:
  * @param  GPIO_Init: pointer to a GPIO_InitTypeDef structure that contains
  *         the configuration information for the specified GPIO peripheral.
  * @retval None
  */
void HAL_GPIO_Init(GPIO_TypeDef  *GPIOx, GPIO_InitTypeDef *GPIO_Init)
{
 8004184:	e92d 4ff7 	stmdb	sp!, {r0, r1, r2, r4, r5, r6, r7, r8, r9, sl, fp, lr}
  uint32_t position = 0x00u;
  uint32_t ioposition;
  uint32_t iocurrent;
  uint32_t temp;
  uint32_t config = 0x00u;
 8004188:	2200      	movs	r2, #0
  uint32_t position = 0x00u;
 800418a:	4616      	mov	r6, r2
      /*--------------------- EXTI Mode Configuration ------------------------*/
      /* Configure the External Interrupt or event for the current IO */
      if ((GPIO_Init->Mode & EXTI_MODE) == EXTI_MODE)
      {
        /* Enable AFIO Clock */
        __HAL_RCC_AFIO_CLK_ENABLE();
 800418c:	4f64      	ldr	r7, [pc, #400]	; (8004320 <HAL_GPIO_Init+0x19c>)
 800418e:	4b65      	ldr	r3, [pc, #404]	; (8004324 <HAL_GPIO_Init+0x1a0>)
      switch (GPIO_Init->Mode)
 8004190:	f8df c194 	ldr.w	ip, [pc, #404]	; 8004328 <HAL_GPIO_Init+0x1a4>
 8004194:	f8df e194 	ldr.w	lr, [pc, #404]	; 800432c <HAL_GPIO_Init+0x1a8>
  while (((GPIO_Init->Pin) >> position) != 0x00u)
 8004198:	680d      	ldr	r5, [r1, #0]
 800419a:	fa35 f406 	lsrs.w	r4, r5, r6
 800419e:	d102      	bne.n	80041a6 <HAL_GPIO_Init+0x22>
      }
    }

	position++;
  }
}
 80041a0:	b003      	add	sp, #12
 80041a2:	e8bd 8ff0 	ldmia.w	sp!, {r4, r5, r6, r7, r8, r9, sl, fp, pc}
    ioposition = (0x01uL << position);
 80041a6:	f04f 0801 	mov.w	r8, #1
 80041aa:	fa08 f806 	lsl.w	r8, r8, r6
    iocurrent = (uint32_t)(GPIO_Init->Pin) & ioposition;
 80041ae:	ea05 0408 	and.w	r4, r5, r8
    if (iocurrent == ioposition)
 80041b2:	ea38 0505 	bics.w	r5, r8, r5
 80041b6:	d17b      	bne.n	80042b0 <HAL_GPIO_Init+0x12c>
      switch (GPIO_Init->Mode)
 80041b8:	684d      	ldr	r5, [r1, #4]
 80041ba:	2d03      	cmp	r5, #3
 80041bc:	d807      	bhi.n	80041ce <HAL_GPIO_Init+0x4a>
 80041be:	3d01      	subs	r5, #1
 80041c0:	2d02      	cmp	r5, #2
 80041c2:	f200 8088 	bhi.w	80042d6 <HAL_GPIO_Init+0x152>
 80041c6:	e8df f005 	tbb	[pc, r5]
 80041ca:	9b96      	.short	0x9b96
 80041cc:	a1          	.byte	0xa1
 80041cd:	00          	.byte	0x00
 80041ce:	2d12      	cmp	r5, #18
 80041d0:	f000 8099 	beq.w	8004306 <HAL_GPIO_Init+0x182>
 80041d4:	d86e      	bhi.n	80042b4 <HAL_GPIO_Init+0x130>
 80041d6:	2d11      	cmp	r5, #17
 80041d8:	f000 808f 	beq.w	80042fa <HAL_GPIO_Init+0x176>
      configregister = (iocurrent < GPIO_PIN_8) ? &GPIOx->CRL     : &GPIOx->CRH;
 80041dc:	2cff      	cmp	r4, #255	; 0xff
 80041de:	bf98      	it	ls
 80041e0:	4682      	movls	sl, r0
      MODIFY_REG((*configregister), ((GPIO_CRL_MODE0 | GPIO_CRL_CNF0) << registeroffset), (config << registeroffset));
 80041e2:	f04f 090f 	mov.w	r9, #15
      configregister = (iocurrent < GPIO_PIN_8) ? &GPIOx->CRL     : &GPIOx->CRH;
 80041e6:	bf88      	it	hi
 80041e8:	f100 0a04 	addhi.w	sl, r0, #4
 80041ec:	ea4f 0586 	mov.w	r5, r6, lsl #2
      MODIFY_REG((*configregister), ((GPIO_CRL_MODE0 | GPIO_CRL_CNF0) << registeroffset), (config << registeroffset));
 80041f0:	f8da 8000 	ldr.w	r8, [sl]
      registeroffset = (iocurrent < GPIO_PIN_8) ? (position << 2u) : ((position - 8u) << 2u);
 80041f4:	bf88      	it	hi
 80041f6:	3d20      	subhi	r5, #32
      MODIFY_REG((*configregister), ((GPIO_CRL_MODE0 | GPIO_CRL_CNF0) << registeroffset), (config << registeroffset));
 80041f8:	fa09 fb05 	lsl.w	fp, r9, r5
 80041fc:	ea28 080b 	bic.w	r8, r8, fp
 8004200:	fa02 f505 	lsl.w	r5, r2, r5
 8004204:	ea48 0505 	orr.w	r5, r8, r5
 8004208:	f8ca 5000 	str.w	r5, [sl]
      if ((GPIO_Init->Mode & EXTI_MODE) == EXTI_MODE)
 800420c:	f8d1 a004 	ldr.w	sl, [r1, #4]
 8004210:	f01a 5f80 	tst.w	sl, #268435456	; 0x10000000
 8004214:	d04c      	beq.n	80042b0 <HAL_GPIO_Init+0x12c>
        __HAL_RCC_AFIO_CLK_ENABLE();
 8004216:	69bd      	ldr	r5, [r7, #24]
 8004218:	f026 0803 	bic.w	r8, r6, #3
 800421c:	f045 0501 	orr.w	r5, r5, #1
 8004220:	61bd      	str	r5, [r7, #24]
 8004222:	69bd      	ldr	r5, [r7, #24]
 8004224:	f108 4880 	add.w	r8, r8, #1073741824	; 0x40000000
 8004228:	f005 0501 	and.w	r5, r5, #1
 800422c:	9501      	str	r5, [sp, #4]
 800422e:	f508 3880 	add.w	r8, r8, #65536	; 0x10000
        CLEAR_BIT(temp, (0x0Fu) << (4u * (position & 0x03u)));
 8004232:	f006 0b03 	and.w	fp, r6, #3
        __HAL_RCC_AFIO_CLK_ENABLE();
 8004236:	9d01      	ldr	r5, [sp, #4]
        CLEAR_BIT(temp, (0x0Fu) << (4u * (position & 0x03u)));
 8004238:	ea4f 0b8b 	mov.w	fp, fp, lsl #2
        temp = AFIO->EXTICR[position >> 2u];
 800423c:	f8d8 5008 	ldr.w	r5, [r8, #8]
        CLEAR_BIT(temp, (0x0Fu) << (4u * (position & 0x03u)));
 8004240:	fa09 f90b 	lsl.w	r9, r9, fp
 8004244:	ea25 0909 	bic.w	r9, r5, r9
        SET_BIT(temp, (GPIO_GET_INDEX(GPIOx)) << (4u * (position & 0x03u)));
 8004248:	4d39      	ldr	r5, [pc, #228]	; (8004330 <HAL_GPIO_Init+0x1ac>)
 800424a:	42a8      	cmp	r0, r5
 800424c:	d062      	beq.n	8004314 <HAL_GPIO_Init+0x190>
 800424e:	f505 6580 	add.w	r5, r5, #1024	; 0x400
 8004252:	42a8      	cmp	r0, r5
 8004254:	d060      	beq.n	8004318 <HAL_GPIO_Init+0x194>
 8004256:	f505 6580 	add.w	r5, r5, #1024	; 0x400
 800425a:	42a8      	cmp	r0, r5
 800425c:	d05e      	beq.n	800431c <HAL_GPIO_Init+0x198>
 800425e:	f505 6580 	add.w	r5, r5, #1024	; 0x400
 8004262:	42a8      	cmp	r0, r5
 8004264:	bf0c      	ite	eq
 8004266:	2503      	moveq	r5, #3
 8004268:	2504      	movne	r5, #4
 800426a:	fa05 f50b 	lsl.w	r5, r5, fp
 800426e:	ea45 0509 	orr.w	r5, r5, r9
        AFIO->EXTICR[position >> 2u] = temp;
 8004272:	f8c8 5008 	str.w	r5, [r8, #8]
          SET_BIT(EXTI->IMR, iocurrent);
 8004276:	681d      	ldr	r5, [r3, #0]
        if ((GPIO_Init->Mode & GPIO_MODE_IT) == GPIO_MODE_IT)
 8004278:	f41a 3f80 	tst.w	sl, #65536	; 0x10000
          SET_BIT(EXTI->IMR, iocurrent);
 800427c:	bf14      	ite	ne
 800427e:	4325      	orrne	r5, r4
          CLEAR_BIT(EXTI->IMR, iocurrent);
 8004280:	43a5      	biceq	r5, r4
 8004282:	601d      	str	r5, [r3, #0]
          SET_BIT(EXTI->EMR, iocurrent);
 8004284:	685d      	ldr	r5, [r3, #4]
        if ((GPIO_Init->Mode & GPIO_MODE_EVT) == GPIO_MODE_EVT)
 8004286:	f41a 3f00 	tst.w	sl, #131072	; 0x20000
          SET_BIT(EXTI->EMR, iocurrent);
 800428a:	bf14      	ite	ne
 800428c:	4325      	orrne	r5, r4
          CLEAR_BIT(EXTI->EMR, iocurrent);
 800428e:	43a5      	biceq	r5, r4
 8004290:	605d      	str	r5, [r3, #4]
          SET_BIT(EXTI->RTSR, iocurrent);
 8004292:	689d      	ldr	r5, [r3, #8]
        if ((GPIO_Init->Mode & RISING_EDGE) == RISING_EDGE)
 8004294:	f41a 1f80 	tst.w	sl, #1048576	; 0x100000
          SET_BIT(EXTI->RTSR, iocurrent);
 8004298:	bf14      	ite	ne
 800429a:	4325      	orrne	r5, r4
          CLEAR_BIT(EXTI->RTSR, iocurrent);
 800429c:	43a5      	biceq	r5, r4
 800429e:	609d      	str	r5, [r3, #8]
          SET_BIT(EXTI->FTSR, iocurrent);
 80042a0:	68dd      	ldr	r5, [r3, #12]
        if ((GPIO_Init->Mode & FALLING_EDGE) == FALLING_EDGE)
 80042a2:	f41a 1f00 	tst.w	sl, #2097152	; 0x200000
          SET_BIT(EXTI->FTSR, iocurrent);
 80042a6:	bf14      	ite	ne
 80042a8:	432c      	orrne	r4, r5
          CLEAR_BIT(EXTI->FTSR, iocurrent);
 80042aa:	ea25 0404 	biceq.w	r4, r5, r4
 80042ae:	60dc      	str	r4, [r3, #12]
	position++;
 80042b0:	3601      	adds	r6, #1
 80042b2:	e771      	b.n	8004198 <HAL_GPIO_Init+0x14>
      switch (GPIO_Init->Mode)
 80042b4:	f8df 907c 	ldr.w	r9, [pc, #124]	; 8004334 <HAL_GPIO_Init+0x1b0>
 80042b8:	454d      	cmp	r5, r9
 80042ba:	d00c      	beq.n	80042d6 <HAL_GPIO_Init+0x152>
 80042bc:	d817      	bhi.n	80042ee <HAL_GPIO_Init+0x16a>
 80042be:	f5a9 1980 	sub.w	r9, r9, #1048576	; 0x100000
 80042c2:	454d      	cmp	r5, r9
 80042c4:	d007      	beq.n	80042d6 <HAL_GPIO_Init+0x152>
 80042c6:	f509 2970 	add.w	r9, r9, #983040	; 0xf0000
 80042ca:	454d      	cmp	r5, r9
 80042cc:	d003      	beq.n	80042d6 <HAL_GPIO_Init+0x152>
 80042ce:	f5a9 1980 	sub.w	r9, r9, #1048576	; 0x100000
 80042d2:	454d      	cmp	r5, r9
 80042d4:	d182      	bne.n	80041dc <HAL_GPIO_Init+0x58>
          if (GPIO_Init->Pull == GPIO_NOPULL)
 80042d6:	688a      	ldr	r2, [r1, #8]
 80042d8:	b1d2      	cbz	r2, 8004310 <HAL_GPIO_Init+0x18c>
          else if (GPIO_Init->Pull == GPIO_PULLUP)
 80042da:	2a01      	cmp	r2, #1
            GPIOx->BSRR = ioposition;
 80042dc:	bf08      	it	eq
 80042de:	f8c0 8010 	streq.w	r8, [r0, #16]
            config = GPIO_CR_MODE_INPUT + GPIO_CR_CNF_INPUT_PU_PD;
 80042e2:	f04f 0208 	mov.w	r2, #8
            GPIOx->BRR = ioposition;
 80042e6:	bf18      	it	ne
 80042e8:	f8c0 8014 	strne.w	r8, [r0, #20]
 80042ec:	e776      	b.n	80041dc <HAL_GPIO_Init+0x58>
      switch (GPIO_Init->Mode)
 80042ee:	4565      	cmp	r5, ip
 80042f0:	d0f1      	beq.n	80042d6 <HAL_GPIO_Init+0x152>
 80042f2:	4575      	cmp	r5, lr
 80042f4:	e7ee      	b.n	80042d4 <HAL_GPIO_Init+0x150>
          config = GPIO_Init->Speed + GPIO_CR_CNF_GP_OUTPUT_PP;
 80042f6:	68ca      	ldr	r2, [r1, #12]
          break;
 80042f8:	e770      	b.n	80041dc <HAL_GPIO_Init+0x58>
          config = GPIO_Init->Speed + GPIO_CR_CNF_GP_OUTPUT_OD;
 80042fa:	68ca      	ldr	r2, [r1, #12]
 80042fc:	3204      	adds	r2, #4
          break;
 80042fe:	e76d      	b.n	80041dc <HAL_GPIO_Init+0x58>
          config = GPIO_Init->Speed + GPIO_CR_CNF_AF_OUTPUT_PP;
 8004300:	68ca      	ldr	r2, [r1, #12]
 8004302:	3208      	adds	r2, #8
          break;
 8004304:	e76a      	b.n	80041dc <HAL_GPIO_Init+0x58>
          config = GPIO_Init->Speed + GPIO_CR_CNF_AF_OUTPUT_OD;
 8004306:	68ca      	ldr	r2, [r1, #12]
 8004308:	320c      	adds	r2, #12
          break;
 800430a:	e767      	b.n	80041dc <HAL_GPIO_Init+0x58>
      switch (GPIO_Init->Mode)
 800430c:	2200      	movs	r2, #0
 800430e:	e765      	b.n	80041dc <HAL_GPIO_Init+0x58>
            config = GPIO_CR_MODE_INPUT + GPIO_CR_CNF_INPUT_FLOATING;
 8004310:	2204      	movs	r2, #4
 8004312:	e763      	b.n	80041dc <HAL_GPIO_Init+0x58>
        SET_BIT(temp, (GPIO_GET_INDEX(GPIOx)) << (4u * (position & 0x03u)));
 8004314:	2500      	movs	r5, #0
 8004316:	e7a8      	b.n	800426a <HAL_GPIO_Init+0xe6>
 8004318:	2501      	movs	r5, #1
 800431a:	e7a6      	b.n	800426a <HAL_GPIO_Init+0xe6>
 800431c:	2502      	movs	r5, #2
 800431e:	e7a4      	b.n	800426a <HAL_GPIO_Init+0xe6>
 8004320:	40021000 	.word	0x40021000
 8004324:	40010400 	.word	0x40010400
 8004328:	10310000 	.word	0x10310000
 800432c:	10320000 	.word	0x10320000
 8004330:	40010800 	.word	0x40010800
 8004334:	10220000 	.word	0x10220000

08004338 <HAL_GPIO_ReadPin>:
  GPIO_PinState bitstatus;

  /* Check the parameters */
  assert_param(IS_GPIO_PIN(GPIO_Pin));

  if ((GPIOx->IDR & GPIO_Pin) != (uint32_t)GPIO_PIN_RESET)
 8004338:	6883      	ldr	r3, [r0, #8]
 800433a:	4219      	tst	r1, r3
  else
  {
    bitstatus = GPIO_PIN_RESET;
  }
  return bitstatus;
}
 800433c:	bf14      	ite	ne
 800433e:	2001      	movne	r0, #1
 8004340:	2000      	moveq	r0, #0
 8004342:	4770      	bx	lr

08004344 <HAL_GPIO_WritePin>:
{
  /* Check the parameters */
  assert_param(IS_GPIO_PIN(GPIO_Pin));
  assert_param(IS_GPIO_PIN_ACTION(PinState));

  if (PinState != GPIO_PIN_RESET)
 8004344:	b10a      	cbz	r2, 800434a <HAL_GPIO_WritePin+0x6>
  {
    GPIOx->BSRR = GPIO_Pin;
  }
  else
  {
    GPIOx->BSRR = (uint32_t)GPIO_Pin << 16u;
 8004346:	6101      	str	r1, [r0, #16]
  }
}
 8004348:	4770      	bx	lr
    GPIOx->BSRR = (uint32_t)GPIO_Pin << 16u;
 800434a:	0409      	lsls	r1, r1, #16
 800434c:	e7fb      	b.n	8004346 <HAL_GPIO_WritePin+0x2>
	...

08004350 <HAL_PWR_EnableBkUpAccess>:
  * @retval None
  */
void HAL_PWR_EnableBkUpAccess(void)
{
  /* Enable access to RTC and backup registers */
  *(__IO uint32_t *) CR_DBP_BB = (uint32_t)ENABLE;
 8004350:	2201      	movs	r2, #1
 8004352:	4b01      	ldr	r3, [pc, #4]	; (8004358 <HAL_PWR_EnableBkUpAccess+0x8>)
 8004354:	621a      	str	r2, [r3, #32]
}
 8004356:	4770      	bx	lr
 8004358:	420e0000 	.word	0x420e0000

0800435c <HAL_RCC_OscConfig>:
  *         supported by this macro. User should request a transition to HSE Off
  *         first and then HSE On or HSE Bypass.
  * @retval HAL status
  */
HAL_StatusTypeDef HAL_RCC_OscConfig(RCC_OscInitTypeDef  *RCC_OscInitStruct)
{
 800435c:	e92d 41f3 	stmdb	sp!, {r0, r1, r4, r5, r6, r7, r8, lr}
  uint32_t tickstart;
  uint32_t pll_config;

  /* Check Null pointer */
  if (RCC_OscInitStruct == NULL)
 8004360:	4605      	mov	r5, r0
 8004362:	b338      	cbz	r0, 80043b4 <HAL_RCC_OscConfig+0x58>

  /* Check the parameters */
  assert_param(IS_RCC_OSCILLATORTYPE(RCC_OscInitStruct->OscillatorType));

  /*------------------------------- HSE Configuration ------------------------*/
  if (((RCC_OscInitStruct->OscillatorType) & RCC_OSCILLATORTYPE_HSE) == RCC_OSCILLATORTYPE_HSE)
 8004364:	6803      	ldr	r3, [r0, #0]
 8004366:	07db      	lsls	r3, r3, #31
 8004368:	d410      	bmi.n	800438c <HAL_RCC_OscConfig+0x30>
        }
      }
    }
  }
  /*----------------------------- HSI Configuration --------------------------*/
  if (((RCC_OscInitStruct->OscillatorType) & RCC_OSCILLATORTYPE_HSI) == RCC_OSCILLATORTYPE_HSI)
 800436a:	682b      	ldr	r3, [r5, #0]
 800436c:	079f      	lsls	r7, r3, #30
 800436e:	d45e      	bmi.n	800442e <HAL_RCC_OscConfig+0xd2>
        }
      }
    }
  }
  /*------------------------------ LSI Configuration -------------------------*/
  if (((RCC_OscInitStruct->OscillatorType) & RCC_OSCILLATORTYPE_LSI) == RCC_OSCILLATORTYPE_LSI)
 8004370:	682b      	ldr	r3, [r5, #0]
 8004372:	0719      	lsls	r1, r3, #28
 8004374:	f100 8095 	bmi.w	80044a2 <HAL_RCC_OscConfig+0x146>
        }
      }
    }
  }
  /*------------------------------ LSE Configuration -------------------------*/
  if (((RCC_OscInitStruct->OscillatorType) & RCC_OSCILLATORTYPE_LSE) == RCC_OSCILLATORTYPE_LSE)
 8004378:	682b      	ldr	r3, [r5, #0]
 800437a:	075a      	lsls	r2, r3, #29
 800437c:	f100 80c1 	bmi.w	8004502 <HAL_RCC_OscConfig+0x1a6>

#endif /* RCC_CR_PLL2ON */
  /*-------------------------------- PLL Configuration -----------------------*/
  /* Check the parameters */
  assert_param(IS_RCC_PLL(RCC_OscInitStruct->PLL.PLLState));
  if ((RCC_OscInitStruct->PLL.PLLState) != RCC_PLL_NONE)
 8004380:	69e8      	ldr	r0, [r5, #28]
 8004382:	2800      	cmp	r0, #0
 8004384:	f040 812c 	bne.w	80045e0 <HAL_RCC_OscConfig+0x284>
        }
      }
    }
  }

  return HAL_OK;
 8004388:	2000      	movs	r0, #0
 800438a:	e029      	b.n	80043e0 <HAL_RCC_OscConfig+0x84>
    if ((__HAL_RCC_GET_SYSCLK_SOURCE() == RCC_SYSCLKSOURCE_STATUS_HSE)
 800438c:	4c90      	ldr	r4, [pc, #576]	; (80045d0 <HAL_RCC_OscConfig+0x274>)
 800438e:	6863      	ldr	r3, [r4, #4]
 8004390:	f003 030c 	and.w	r3, r3, #12
 8004394:	2b04      	cmp	r3, #4
 8004396:	d007      	beq.n	80043a8 <HAL_RCC_OscConfig+0x4c>
        || ((__HAL_RCC_GET_SYSCLK_SOURCE() == RCC_SYSCLKSOURCE_STATUS_PLLCLK) && (__HAL_RCC_GET_PLL_OSCSOURCE() == RCC_PLLSOURCE_HSE)))
 8004398:	6863      	ldr	r3, [r4, #4]
 800439a:	f003 030c 	and.w	r3, r3, #12
 800439e:	2b08      	cmp	r3, #8
 80043a0:	d10a      	bne.n	80043b8 <HAL_RCC_OscConfig+0x5c>
 80043a2:	6863      	ldr	r3, [r4, #4]
 80043a4:	03de      	lsls	r6, r3, #15
 80043a6:	d507      	bpl.n	80043b8 <HAL_RCC_OscConfig+0x5c>
      if ((__HAL_RCC_GET_FLAG(RCC_FLAG_HSERDY) != RESET) && (RCC_OscInitStruct->HSEState == RCC_HSE_OFF))
 80043a8:	6823      	ldr	r3, [r4, #0]
 80043aa:	039c      	lsls	r4, r3, #14
 80043ac:	d5dd      	bpl.n	800436a <HAL_RCC_OscConfig+0xe>
 80043ae:	686b      	ldr	r3, [r5, #4]
 80043b0:	2b00      	cmp	r3, #0
 80043b2:	d1da      	bne.n	800436a <HAL_RCC_OscConfig+0xe>
          return HAL_ERROR;
 80043b4:	2001      	movs	r0, #1
 80043b6:	e013      	b.n	80043e0 <HAL_RCC_OscConfig+0x84>
      __HAL_RCC_HSE_CONFIG(RCC_OscInitStruct->HSEState);
 80043b8:	686b      	ldr	r3, [r5, #4]
 80043ba:	f5b3 3f80 	cmp.w	r3, #65536	; 0x10000
 80043be:	d112      	bne.n	80043e6 <HAL_RCC_OscConfig+0x8a>
 80043c0:	6823      	ldr	r3, [r4, #0]
 80043c2:	f443 3380 	orr.w	r3, r3, #65536	; 0x10000
 80043c6:	6023      	str	r3, [r4, #0]
        tickstart = HAL_GetTick();
 80043c8:	f7ff fb3a 	bl	8003a40 <HAL_GetTick>
 80043cc:	4606      	mov	r6, r0
        while (__HAL_RCC_GET_FLAG(RCC_FLAG_HSERDY) == RESET)
 80043ce:	6823      	ldr	r3, [r4, #0]
 80043d0:	0398      	lsls	r0, r3, #14
 80043d2:	d4ca      	bmi.n	800436a <HAL_RCC_OscConfig+0xe>
          if ((HAL_GetTick() - tickstart) > HSE_TIMEOUT_VALUE)
 80043d4:	f7ff fb34 	bl	8003a40 <HAL_GetTick>
 80043d8:	1b80      	subs	r0, r0, r6
 80043da:	2864      	cmp	r0, #100	; 0x64
 80043dc:	d9f7      	bls.n	80043ce <HAL_RCC_OscConfig+0x72>
            return HAL_TIMEOUT;
 80043de:	2003      	movs	r0, #3
}
 80043e0:	b002      	add	sp, #8
 80043e2:	e8bd 81f0 	ldmia.w	sp!, {r4, r5, r6, r7, r8, pc}
      __HAL_RCC_HSE_CONFIG(RCC_OscInitStruct->HSEState);
 80043e6:	b99b      	cbnz	r3, 8004410 <HAL_RCC_OscConfig+0xb4>
 80043e8:	6823      	ldr	r3, [r4, #0]
 80043ea:	f423 3380 	bic.w	r3, r3, #65536	; 0x10000
 80043ee:	6023      	str	r3, [r4, #0]
 80043f0:	6823      	ldr	r3, [r4, #0]
 80043f2:	f423 2380 	bic.w	r3, r3, #262144	; 0x40000
 80043f6:	6023      	str	r3, [r4, #0]
        tickstart = HAL_GetTick();
 80043f8:	f7ff fb22 	bl	8003a40 <HAL_GetTick>
 80043fc:	4606      	mov	r6, r0
        while (__HAL_RCC_GET_FLAG(RCC_FLAG_HSERDY) != RESET)
 80043fe:	6823      	ldr	r3, [r4, #0]
 8004400:	0399      	lsls	r1, r3, #14
 8004402:	d5b2      	bpl.n	800436a <HAL_RCC_OscConfig+0xe>
          if ((HAL_GetTick() - tickstart) > HSE_TIMEOUT_VALUE)
 8004404:	f7ff fb1c 	bl	8003a40 <HAL_GetTick>
 8004408:	1b80      	subs	r0, r0, r6
 800440a:	2864      	cmp	r0, #100	; 0x64
 800440c:	d9f7      	bls.n	80043fe <HAL_RCC_OscConfig+0xa2>
 800440e:	e7e6      	b.n	80043de <HAL_RCC_OscConfig+0x82>
      __HAL_RCC_HSE_CONFIG(RCC_OscInitStruct->HSEState);
 8004410:	f5b3 2fa0 	cmp.w	r3, #327680	; 0x50000
 8004414:	6823      	ldr	r3, [r4, #0]
 8004416:	d103      	bne.n	8004420 <HAL_RCC_OscConfig+0xc4>
 8004418:	f443 2380 	orr.w	r3, r3, #262144	; 0x40000
 800441c:	6023      	str	r3, [r4, #0]
 800441e:	e7cf      	b.n	80043c0 <HAL_RCC_OscConfig+0x64>
 8004420:	f423 3380 	bic.w	r3, r3, #65536	; 0x10000
 8004424:	6023      	str	r3, [r4, #0]
 8004426:	6823      	ldr	r3, [r4, #0]
 8004428:	f423 2380 	bic.w	r3, r3, #262144	; 0x40000
 800442c:	e7cb      	b.n	80043c6 <HAL_RCC_OscConfig+0x6a>
    if ((__HAL_RCC_GET_SYSCLK_SOURCE() == RCC_SYSCLKSOURCE_STATUS_HSI)
 800442e:	4c68      	ldr	r4, [pc, #416]	; (80045d0 <HAL_RCC_OscConfig+0x274>)
 8004430:	6863      	ldr	r3, [r4, #4]
 8004432:	f013 0f0c 	tst.w	r3, #12
 8004436:	d007      	beq.n	8004448 <HAL_RCC_OscConfig+0xec>
        || ((__HAL_RCC_GET_SYSCLK_SOURCE() == RCC_SYSCLKSOURCE_STATUS_PLLCLK) && (__HAL_RCC_GET_PLL_OSCSOURCE() == RCC_PLLSOURCE_HSI_DIV2)))
 8004438:	6863      	ldr	r3, [r4, #4]
 800443a:	f003 030c 	and.w	r3, r3, #12
 800443e:	2b08      	cmp	r3, #8
 8004440:	d110      	bne.n	8004464 <HAL_RCC_OscConfig+0x108>
 8004442:	6863      	ldr	r3, [r4, #4]
 8004444:	03da      	lsls	r2, r3, #15
 8004446:	d40d      	bmi.n	8004464 <HAL_RCC_OscConfig+0x108>
      if ((__HAL_RCC_GET_FLAG(RCC_FLAG_HSIRDY) != RESET) && (RCC_OscInitStruct->HSIState != RCC_HSI_ON))
 8004448:	6823      	ldr	r3, [r4, #0]
 800444a:	079b      	lsls	r3, r3, #30
 800444c:	d502      	bpl.n	8004454 <HAL_RCC_OscConfig+0xf8>
 800444e:	692b      	ldr	r3, [r5, #16]
 8004450:	2b01      	cmp	r3, #1
 8004452:	d1af      	bne.n	80043b4 <HAL_RCC_OscConfig+0x58>
        __HAL_RCC_HSI_CALIBRATIONVALUE_ADJUST(RCC_OscInitStruct->HSICalibrationValue);
 8004454:	6823      	ldr	r3, [r4, #0]
 8004456:	696a      	ldr	r2, [r5, #20]
 8004458:	f023 03f8 	bic.w	r3, r3, #248	; 0xf8
 800445c:	ea43 03c2 	orr.w	r3, r3, r2, lsl #3
 8004460:	6023      	str	r3, [r4, #0]
 8004462:	e785      	b.n	8004370 <HAL_RCC_OscConfig+0x14>
      if (RCC_OscInitStruct->HSIState != RCC_HSI_OFF)
 8004464:	692a      	ldr	r2, [r5, #16]
 8004466:	4b5b      	ldr	r3, [pc, #364]	; (80045d4 <HAL_RCC_OscConfig+0x278>)
 8004468:	b16a      	cbz	r2, 8004486 <HAL_RCC_OscConfig+0x12a>
        __HAL_RCC_HSI_ENABLE();
 800446a:	2201      	movs	r2, #1
 800446c:	601a      	str	r2, [r3, #0]
        tickstart = HAL_GetTick();
 800446e:	f7ff fae7 	bl	8003a40 <HAL_GetTick>
 8004472:	4606      	mov	r6, r0
        while (__HAL_RCC_GET_FLAG(RCC_FLAG_HSIRDY) == RESET)
 8004474:	6823      	ldr	r3, [r4, #0]
 8004476:	079f      	lsls	r7, r3, #30
 8004478:	d4ec      	bmi.n	8004454 <HAL_RCC_OscConfig+0xf8>
          if ((HAL_GetTick() - tickstart) > HSI_TIMEOUT_VALUE)
 800447a:	f7ff fae1 	bl	8003a40 <HAL_GetTick>
 800447e:	1b80      	subs	r0, r0, r6
 8004480:	2802      	cmp	r0, #2
 8004482:	d9f7      	bls.n	8004474 <HAL_RCC_OscConfig+0x118>
 8004484:	e7ab      	b.n	80043de <HAL_RCC_OscConfig+0x82>
        __HAL_RCC_HSI_DISABLE();
 8004486:	601a      	str	r2, [r3, #0]
        tickstart = HAL_GetTick();
 8004488:	f7ff fada 	bl	8003a40 <HAL_GetTick>
 800448c:	4606      	mov	r6, r0
        while (__HAL_RCC_GET_FLAG(RCC_FLAG_HSIRDY) != RESET)
 800448e:	6823      	ldr	r3, [r4, #0]
 8004490:	0798      	lsls	r0, r3, #30
 8004492:	f57f af6d 	bpl.w	8004370 <HAL_RCC_OscConfig+0x14>
          if ((HAL_GetTick() - tickstart) > HSI_TIMEOUT_VALUE)
 8004496:	f7ff fad3 	bl	8003a40 <HAL_GetTick>
 800449a:	1b80      	subs	r0, r0, r6
 800449c:	2802      	cmp	r0, #2
 800449e:	d9f6      	bls.n	800448e <HAL_RCC_OscConfig+0x132>
 80044a0:	e79d      	b.n	80043de <HAL_RCC_OscConfig+0x82>
    if (RCC_OscInitStruct->LSIState != RCC_LSI_OFF)
 80044a2:	69aa      	ldr	r2, [r5, #24]
 80044a4:	4e4a      	ldr	r6, [pc, #296]	; (80045d0 <HAL_RCC_OscConfig+0x274>)
 80044a6:	4b4b      	ldr	r3, [pc, #300]	; (80045d4 <HAL_RCC_OscConfig+0x278>)
 80044a8:	b1e2      	cbz	r2, 80044e4 <HAL_RCC_OscConfig+0x188>
      __HAL_RCC_LSI_ENABLE();
 80044aa:	2201      	movs	r2, #1
 80044ac:	f8c3 2480 	str.w	r2, [r3, #1152]	; 0x480
      tickstart = HAL_GetTick();
 80044b0:	f7ff fac6 	bl	8003a40 <HAL_GetTick>
 80044b4:	4604      	mov	r4, r0
      while (__HAL_RCC_GET_FLAG(RCC_FLAG_LSIRDY) == RESET)
 80044b6:	6a73      	ldr	r3, [r6, #36]	; 0x24
 80044b8:	079b      	lsls	r3, r3, #30
 80044ba:	d50d      	bpl.n	80044d8 <HAL_RCC_OscConfig+0x17c>
  * @param  mdelay: specifies the delay time length, in milliseconds.
  * @retval None
  */
static void RCC_Delay(uint32_t mdelay)
{
  __IO uint32_t Delay = mdelay * (SystemCoreClock / 8U / 1000U);
 80044bc:	f44f 52fa 	mov.w	r2, #8000	; 0x1f40
 80044c0:	4b45      	ldr	r3, [pc, #276]	; (80045d8 <HAL_RCC_OscConfig+0x27c>)
 80044c2:	681b      	ldr	r3, [r3, #0]
 80044c4:	fbb3 f3f2 	udiv	r3, r3, r2
 80044c8:	9301      	str	r3, [sp, #4]
  do
  {
    __NOP();
 80044ca:	bf00      	nop
  }
  while (Delay --);
 80044cc:	9b01      	ldr	r3, [sp, #4]
 80044ce:	1e5a      	subs	r2, r3, #1
 80044d0:	9201      	str	r2, [sp, #4]
 80044d2:	2b00      	cmp	r3, #0
 80044d4:	d1f9      	bne.n	80044ca <HAL_RCC_OscConfig+0x16e>
 80044d6:	e74f      	b.n	8004378 <HAL_RCC_OscConfig+0x1c>
        if ((HAL_GetTick() - tickstart) > LSI_TIMEOUT_VALUE)
 80044d8:	f7ff fab2 	bl	8003a40 <HAL_GetTick>
 80044dc:	1b00      	subs	r0, r0, r4
 80044de:	2802      	cmp	r0, #2
 80044e0:	d9e9      	bls.n	80044b6 <HAL_RCC_OscConfig+0x15a>
 80044e2:	e77c      	b.n	80043de <HAL_RCC_OscConfig+0x82>
      __HAL_RCC_LSI_DISABLE();
 80044e4:	f8c3 2480 	str.w	r2, [r3, #1152]	; 0x480
      tickstart = HAL_GetTick();
 80044e8:	f7ff faaa 	bl	8003a40 <HAL_GetTick>
 80044ec:	4604      	mov	r4, r0
      while (__HAL_RCC_GET_FLAG(RCC_FLAG_LSIRDY) != RESET)
 80044ee:	6a73      	ldr	r3, [r6, #36]	; 0x24
 80044f0:	079f      	lsls	r7, r3, #30
 80044f2:	f57f af41 	bpl.w	8004378 <HAL_RCC_OscConfig+0x1c>
        if ((HAL_GetTick() - tickstart) > LSI_TIMEOUT_VALUE)
 80044f6:	f7ff faa3 	bl	8003a40 <HAL_GetTick>
 80044fa:	1b00      	subs	r0, r0, r4
 80044fc:	2802      	cmp	r0, #2
 80044fe:	d9f6      	bls.n	80044ee <HAL_RCC_OscConfig+0x192>
 8004500:	e76d      	b.n	80043de <HAL_RCC_OscConfig+0x82>
    if (__HAL_RCC_PWR_IS_CLK_DISABLED())
 8004502:	4c33      	ldr	r4, [pc, #204]	; (80045d0 <HAL_RCC_OscConfig+0x274>)
 8004504:	69e3      	ldr	r3, [r4, #28]
 8004506:	00d8      	lsls	r0, r3, #3
 8004508:	d424      	bmi.n	8004554 <HAL_RCC_OscConfig+0x1f8>
      pwrclkchanged = SET;
 800450a:	2701      	movs	r7, #1
      __HAL_RCC_PWR_CLK_ENABLE();
 800450c:	69e3      	ldr	r3, [r4, #28]
 800450e:	f043 5380 	orr.w	r3, r3, #268435456	; 0x10000000
 8004512:	61e3      	str	r3, [r4, #28]
 8004514:	69e3      	ldr	r3, [r4, #28]
 8004516:	f003 5380 	and.w	r3, r3, #268435456	; 0x10000000
 800451a:	9300      	str	r3, [sp, #0]
 800451c:	9b00      	ldr	r3, [sp, #0]
    if (HAL_IS_BIT_CLR(PWR->CR, PWR_CR_DBP))
 800451e:	4e2f      	ldr	r6, [pc, #188]	; (80045dc <HAL_RCC_OscConfig+0x280>)
 8004520:	6833      	ldr	r3, [r6, #0]
 8004522:	05d9      	lsls	r1, r3, #23
 8004524:	d518      	bpl.n	8004558 <HAL_RCC_OscConfig+0x1fc>
    __HAL_RCC_LSE_CONFIG(RCC_OscInitStruct->LSEState);
 8004526:	68eb      	ldr	r3, [r5, #12]
 8004528:	2b01      	cmp	r3, #1
 800452a:	d126      	bne.n	800457a <HAL_RCC_OscConfig+0x21e>
 800452c:	6a23      	ldr	r3, [r4, #32]
 800452e:	f043 0301 	orr.w	r3, r3, #1
 8004532:	6223      	str	r3, [r4, #32]
      tickstart = HAL_GetTick();
 8004534:	f7ff fa84 	bl	8003a40 <HAL_GetTick>
        if ((HAL_GetTick() - tickstart) > RCC_LSE_TIMEOUT_VALUE)
 8004538:	f241 3888 	movw	r8, #5000	; 0x1388
      tickstart = HAL_GetTick();
 800453c:	4606      	mov	r6, r0
      while (__HAL_RCC_GET_FLAG(RCC_FLAG_LSERDY) == RESET)
 800453e:	6a23      	ldr	r3, [r4, #32]
 8004540:	079b      	lsls	r3, r3, #30
 8004542:	d53f      	bpl.n	80045c4 <HAL_RCC_OscConfig+0x268>
    if (pwrclkchanged == SET)
 8004544:	2f00      	cmp	r7, #0
 8004546:	f43f af1b 	beq.w	8004380 <HAL_RCC_OscConfig+0x24>
      __HAL_RCC_PWR_CLK_DISABLE();
 800454a:	69e3      	ldr	r3, [r4, #28]
 800454c:	f023 5380 	bic.w	r3, r3, #268435456	; 0x10000000
 8004550:	61e3      	str	r3, [r4, #28]
 8004552:	e715      	b.n	8004380 <HAL_RCC_OscConfig+0x24>
    FlagStatus       pwrclkchanged = RESET;
 8004554:	2700      	movs	r7, #0
 8004556:	e7e2      	b.n	800451e <HAL_RCC_OscConfig+0x1c2>
      SET_BIT(PWR->CR, PWR_CR_DBP);
 8004558:	6833      	ldr	r3, [r6, #0]
 800455a:	f443 7380 	orr.w	r3, r3, #256	; 0x100
 800455e:	6033      	str	r3, [r6, #0]
      tickstart = HAL_GetTick();
 8004560:	f7ff fa6e 	bl	8003a40 <HAL_GetTick>
 8004564:	4680      	mov	r8, r0
      while (HAL_IS_BIT_CLR(PWR->CR, PWR_CR_DBP))
 8004566:	6833      	ldr	r3, [r6, #0]
 8004568:	05da      	lsls	r2, r3, #23
 800456a:	d4dc      	bmi.n	8004526 <HAL_RCC_OscConfig+0x1ca>
        if ((HAL_GetTick() - tickstart) > RCC_DBP_TIMEOUT_VALUE)
 800456c:	f7ff fa68 	bl	8003a40 <HAL_GetTick>
 8004570:	eba0 0008 	sub.w	r0, r0, r8
 8004574:	2864      	cmp	r0, #100	; 0x64
 8004576:	d9f6      	bls.n	8004566 <HAL_RCC_OscConfig+0x20a>
 8004578:	e731      	b.n	80043de <HAL_RCC_OscConfig+0x82>
    __HAL_RCC_LSE_CONFIG(RCC_OscInitStruct->LSEState);
 800457a:	b9ab      	cbnz	r3, 80045a8 <HAL_RCC_OscConfig+0x24c>
 800457c:	6a23      	ldr	r3, [r4, #32]
        if ((HAL_GetTick() - tickstart) > RCC_LSE_TIMEOUT_VALUE)
 800457e:	f241 3888 	movw	r8, #5000	; 0x1388
    __HAL_RCC_LSE_CONFIG(RCC_OscInitStruct->LSEState);
 8004582:	f023 0301 	bic.w	r3, r3, #1
 8004586:	6223      	str	r3, [r4, #32]
 8004588:	6a23      	ldr	r3, [r4, #32]
 800458a:	f023 0304 	bic.w	r3, r3, #4
 800458e:	6223      	str	r3, [r4, #32]
      tickstart = HAL_GetTick();
 8004590:	f7ff fa56 	bl	8003a40 <HAL_GetTick>
 8004594:	4606      	mov	r6, r0
      while (__HAL_RCC_GET_FLAG(RCC_FLAG_LSERDY) != RESET)
 8004596:	6a23      	ldr	r3, [r4, #32]
 8004598:	0798      	lsls	r0, r3, #30
 800459a:	d5d3      	bpl.n	8004544 <HAL_RCC_OscConfig+0x1e8>
        if ((HAL_GetTick() - tickstart) > RCC_LSE_TIMEOUT_VALUE)
 800459c:	f7ff fa50 	bl	8003a40 <HAL_GetTick>
 80045a0:	1b80      	subs	r0, r0, r6
 80045a2:	4540      	cmp	r0, r8
 80045a4:	d9f7      	bls.n	8004596 <HAL_RCC_OscConfig+0x23a>
 80045a6:	e71a      	b.n	80043de <HAL_RCC_OscConfig+0x82>
    __HAL_RCC_LSE_CONFIG(RCC_OscInitStruct->LSEState);
 80045a8:	2b05      	cmp	r3, #5
 80045aa:	6a23      	ldr	r3, [r4, #32]
 80045ac:	d103      	bne.n	80045b6 <HAL_RCC_OscConfig+0x25a>
 80045ae:	f043 0304 	orr.w	r3, r3, #4
 80045b2:	6223      	str	r3, [r4, #32]
 80045b4:	e7ba      	b.n	800452c <HAL_RCC_OscConfig+0x1d0>
 80045b6:	f023 0301 	bic.w	r3, r3, #1
 80045ba:	6223      	str	r3, [r4, #32]
 80045bc:	6a23      	ldr	r3, [r4, #32]
 80045be:	f023 0304 	bic.w	r3, r3, #4
 80045c2:	e7b6      	b.n	8004532 <HAL_RCC_OscConfig+0x1d6>
        if ((HAL_GetTick() - tickstart) > RCC_LSE_TIMEOUT_VALUE)
 80045c4:	f7ff fa3c 	bl	8003a40 <HAL_GetTick>
 80045c8:	1b80      	subs	r0, r0, r6
 80045ca:	4540      	cmp	r0, r8
 80045cc:	d9b7      	bls.n	800453e <HAL_RCC_OscConfig+0x1e2>
 80045ce:	e706      	b.n	80043de <HAL_RCC_OscConfig+0x82>
 80045d0:	40021000 	.word	0x40021000
 80045d4:	42420000 	.word	0x42420000
 80045d8:	20000008 	.word	0x20000008
 80045dc:	40007000 	.word	0x40007000
    if (__HAL_RCC_GET_SYSCLK_SOURCE() != RCC_SYSCLKSOURCE_STATUS_PLLCLK)
 80045e0:	4c2a      	ldr	r4, [pc, #168]	; (800468c <HAL_RCC_OscConfig+0x330>)
 80045e2:	6863      	ldr	r3, [r4, #4]
 80045e4:	f003 030c 	and.w	r3, r3, #12
 80045e8:	2b08      	cmp	r3, #8
 80045ea:	d03e      	beq.n	800466a <HAL_RCC_OscConfig+0x30e>
      if ((RCC_OscInitStruct->PLL.PLLState) == RCC_PLL_ON)
 80045ec:	2200      	movs	r2, #0
 80045ee:	4b28      	ldr	r3, [pc, #160]	; (8004690 <HAL_RCC_OscConfig+0x334>)
 80045f0:	2802      	cmp	r0, #2
        __HAL_RCC_PLL_DISABLE();
 80045f2:	661a      	str	r2, [r3, #96]	; 0x60
      if ((RCC_OscInitStruct->PLL.PLLState) == RCC_PLL_ON)
 80045f4:	d12c      	bne.n	8004650 <HAL_RCC_OscConfig+0x2f4>
        tickstart = HAL_GetTick();
 80045f6:	f7ff fa23 	bl	8003a40 <HAL_GetTick>
 80045fa:	4606      	mov	r6, r0
        while (__HAL_RCC_GET_FLAG(RCC_FLAG_PLLRDY)  != RESET)
 80045fc:	6823      	ldr	r3, [r4, #0]
 80045fe:	0199      	lsls	r1, r3, #6
 8004600:	d420      	bmi.n	8004644 <HAL_RCC_OscConfig+0x2e8>
        if (RCC_OscInitStruct->PLL.PLLSource == RCC_PLLSOURCE_HSE)
 8004602:	6a2b      	ldr	r3, [r5, #32]
 8004604:	f5b3 3f80 	cmp.w	r3, #65536	; 0x10000
 8004608:	d105      	bne.n	8004616 <HAL_RCC_OscConfig+0x2ba>
          __HAL_RCC_HSE_PREDIV_CONFIG(RCC_OscInitStruct->HSEPredivValue);
 800460a:	6862      	ldr	r2, [r4, #4]
 800460c:	68a9      	ldr	r1, [r5, #8]
 800460e:	f422 3200 	bic.w	r2, r2, #131072	; 0x20000
 8004612:	430a      	orrs	r2, r1
 8004614:	6062      	str	r2, [r4, #4]
        __HAL_RCC_PLL_CONFIG(RCC_OscInitStruct->PLL.PLLSource,
 8004616:	6a69      	ldr	r1, [r5, #36]	; 0x24
 8004618:	6862      	ldr	r2, [r4, #4]
 800461a:	430b      	orrs	r3, r1
 800461c:	f422 1274 	bic.w	r2, r2, #3997696	; 0x3d0000
 8004620:	4313      	orrs	r3, r2
        __HAL_RCC_PLL_ENABLE();
 8004622:	2201      	movs	r2, #1
        __HAL_RCC_PLL_CONFIG(RCC_OscInitStruct->PLL.PLLSource,
 8004624:	6063      	str	r3, [r4, #4]
        __HAL_RCC_PLL_ENABLE();
 8004626:	4b1a      	ldr	r3, [pc, #104]	; (8004690 <HAL_RCC_OscConfig+0x334>)
 8004628:	661a      	str	r2, [r3, #96]	; 0x60
        tickstart = HAL_GetTick();
 800462a:	f7ff fa09 	bl	8003a40 <HAL_GetTick>
 800462e:	4605      	mov	r5, r0
        while (__HAL_RCC_GET_FLAG(RCC_FLAG_PLLRDY)  == RESET)
 8004630:	6823      	ldr	r3, [r4, #0]
 8004632:	019a      	lsls	r2, r3, #6
 8004634:	f53f aea8 	bmi.w	8004388 <HAL_RCC_OscConfig+0x2c>
          if ((HAL_GetTick() - tickstart) > PLL_TIMEOUT_VALUE)
 8004638:	f7ff fa02 	bl	8003a40 <HAL_GetTick>
 800463c:	1b40      	subs	r0, r0, r5
 800463e:	2802      	cmp	r0, #2
 8004640:	d9f6      	bls.n	8004630 <HAL_RCC_OscConfig+0x2d4>
 8004642:	e6cc      	b.n	80043de <HAL_RCC_OscConfig+0x82>
          if ((HAL_GetTick() - tickstart) > PLL_TIMEOUT_VALUE)
 8004644:	f7ff f9fc 	bl	8003a40 <HAL_GetTick>
 8004648:	1b80      	subs	r0, r0, r6
 800464a:	2802      	cmp	r0, #2
 800464c:	d9d6      	bls.n	80045fc <HAL_RCC_OscConfig+0x2a0>
 800464e:	e6c6      	b.n	80043de <HAL_RCC_OscConfig+0x82>
        tickstart = HAL_GetTick();
 8004650:	f7ff f9f6 	bl	8003a40 <HAL_GetTick>
 8004654:	4605      	mov	r5, r0
        while (__HAL_RCC_GET_FLAG(RCC_FLAG_PLLRDY)  != RESET)
 8004656:	6823      	ldr	r3, [r4, #0]
 8004658:	019b      	lsls	r3, r3, #6
 800465a:	f57f ae95 	bpl.w	8004388 <HAL_RCC_OscConfig+0x2c>
          if ((HAL_GetTick() - tickstart) > PLL_TIMEOUT_VALUE)
 800465e:	f7ff f9ef 	bl	8003a40 <HAL_GetTick>
 8004662:	1b40      	subs	r0, r0, r5
 8004664:	2802      	cmp	r0, #2
 8004666:	d9f6      	bls.n	8004656 <HAL_RCC_OscConfig+0x2fa>
 8004668:	e6b9      	b.n	80043de <HAL_RCC_OscConfig+0x82>
      if ((RCC_OscInitStruct->PLL.PLLState) == RCC_PLL_OFF)
 800466a:	2801      	cmp	r0, #1
 800466c:	f43f aeb8 	beq.w	80043e0 <HAL_RCC_OscConfig+0x84>
        pll_config = RCC->CFGR;
 8004670:	6863      	ldr	r3, [r4, #4]
        if ((READ_BIT(pll_config, RCC_CFGR_PLLSRC) != RCC_OscInitStruct->PLL.PLLSource) ||
 8004672:	6a2a      	ldr	r2, [r5, #32]
 8004674:	f403 3180 	and.w	r1, r3, #65536	; 0x10000
 8004678:	4291      	cmp	r1, r2
 800467a:	f47f ae9b 	bne.w	80043b4 <HAL_RCC_OscConfig+0x58>
 800467e:	6a6a      	ldr	r2, [r5, #36]	; 0x24
            (READ_BIT(pll_config, RCC_CFGR_PLLMULL) != RCC_OscInitStruct->PLL.PLLMUL))
 8004680:	f403 1370 	and.w	r3, r3, #3932160	; 0x3c0000
        if ((READ_BIT(pll_config, RCC_CFGR_PLLSRC) != RCC_OscInitStruct->PLL.PLLSource) ||
 8004684:	4293      	cmp	r3, r2
 8004686:	f43f ae7f 	beq.w	8004388 <HAL_RCC_OscConfig+0x2c>
 800468a:	e693      	b.n	80043b4 <HAL_RCC_OscConfig+0x58>
 800468c:	40021000 	.word	0x40021000
 8004690:	42420000 	.word	0x42420000

08004694 <HAL_RCC_GetSysClockFreq>:
{
 8004694:	b530      	push	{r4, r5, lr}
  const uint8_t aPLLMULFactorTable[16] = {2, 3, 4, 5, 6, 7, 8, 9, 10, 11, 12, 13, 14, 15, 16, 16};
 8004696:	4b18      	ldr	r3, [pc, #96]	; (80046f8 <HAL_RCC_GetSysClockFreq+0x64>)
{
 8004698:	b087      	sub	sp, #28
  const uint8_t aPLLMULFactorTable[16] = {2, 3, 4, 5, 6, 7, 8, 9, 10, 11, 12, 13, 14, 15, 16, 16};
 800469a:	ac02      	add	r4, sp, #8
 800469c:	f103 0510 	add.w	r5, r3, #16
 80046a0:	4622      	mov	r2, r4
 80046a2:	6818      	ldr	r0, [r3, #0]
 80046a4:	6859      	ldr	r1, [r3, #4]
 80046a6:	3308      	adds	r3, #8
 80046a8:	c203      	stmia	r2!, {r0, r1}
 80046aa:	42ab      	cmp	r3, r5
 80046ac:	4614      	mov	r4, r2
 80046ae:	d1f7      	bne.n	80046a0 <HAL_RCC_GetSysClockFreq+0xc>
  const uint8_t aPredivFactorTable[2] = {1, 2};
 80046b0:	f240 2301 	movw	r3, #513	; 0x201
  tmpreg = RCC->CFGR;
 80046b4:	4911      	ldr	r1, [pc, #68]	; (80046fc <HAL_RCC_GetSysClockFreq+0x68>)
  const uint8_t aPredivFactorTable[2] = {1, 2};
 80046b6:	f8ad 3004 	strh.w	r3, [sp, #4]
  tmpreg = RCC->CFGR;
 80046ba:	684b      	ldr	r3, [r1, #4]
  switch (tmpreg & RCC_CFGR_SWS)
 80046bc:	f003 020c 	and.w	r2, r3, #12
 80046c0:	2a08      	cmp	r2, #8
 80046c2:	d117      	bne.n	80046f4 <HAL_RCC_GetSysClockFreq+0x60>
      pllmul = aPLLMULFactorTable[(uint32_t)(tmpreg & RCC_CFGR_PLLMULL) >> RCC_CFGR_PLLMULL_Pos];
 80046c4:	f3c3 4283 	ubfx	r2, r3, #18, #4
 80046c8:	3218      	adds	r2, #24
 80046ca:	446a      	add	r2, sp
      if ((tmpreg & RCC_CFGR_PLLSRC) != RCC_PLLSOURCE_HSI_DIV2)
 80046cc:	03db      	lsls	r3, r3, #15
      pllmul = aPLLMULFactorTable[(uint32_t)(tmpreg & RCC_CFGR_PLLMULL) >> RCC_CFGR_PLLMULL_Pos];
 80046ce:	f812 0c10 	ldrb.w	r0, [r2, #-16]
      if ((tmpreg & RCC_CFGR_PLLSRC) != RCC_PLLSOURCE_HSI_DIV2)
 80046d2:	d50c      	bpl.n	80046ee <HAL_RCC_GetSysClockFreq+0x5a>
        prediv = aPredivFactorTable[(uint32_t)(RCC->CFGR & RCC_CFGR_PLLXTPRE) >> RCC_CFGR_PLLXTPRE_Pos];
 80046d4:	684b      	ldr	r3, [r1, #4]
        pllclk = (uint32_t)((HSE_VALUE  * pllmul) / prediv);
 80046d6:	4a0a      	ldr	r2, [pc, #40]	; (8004700 <HAL_RCC_GetSysClockFreq+0x6c>)
        prediv = aPredivFactorTable[(uint32_t)(RCC->CFGR & RCC_CFGR_PLLXTPRE) >> RCC_CFGR_PLLXTPRE_Pos];
 80046d8:	f3c3 4340 	ubfx	r3, r3, #17, #1
        pllclk = (uint32_t)((HSE_VALUE  * pllmul) / prediv);
 80046dc:	4350      	muls	r0, r2
        prediv = aPredivFactorTable[(uint32_t)(RCC->CFGR & RCC_CFGR_PLLXTPRE) >> RCC_CFGR_PLLXTPRE_Pos];
 80046de:	3318      	adds	r3, #24
 80046e0:	446b      	add	r3, sp
 80046e2:	f813 3c14 	ldrb.w	r3, [r3, #-20]
        pllclk = (uint32_t)((HSE_VALUE  * pllmul) / prediv);
 80046e6:	fbb0 f0f3 	udiv	r0, r0, r3
}
 80046ea:	b007      	add	sp, #28
 80046ec:	bd30      	pop	{r4, r5, pc}
        pllclk = (uint32_t)((HSI_VALUE >> 1) * pllmul);
 80046ee:	4b05      	ldr	r3, [pc, #20]	; (8004704 <HAL_RCC_GetSysClockFreq+0x70>)
 80046f0:	4358      	muls	r0, r3
 80046f2:	e7fa      	b.n	80046ea <HAL_RCC_GetSysClockFreq+0x56>
      sysclockfreq = HSE_VALUE;
 80046f4:	4802      	ldr	r0, [pc, #8]	; (8004700 <HAL_RCC_GetSysClockFreq+0x6c>)
  return sysclockfreq;
 80046f6:	e7f8      	b.n	80046ea <HAL_RCC_GetSysClockFreq+0x56>
 80046f8:	08008650 	.word	0x08008650
 80046fc:	40021000 	.word	0x40021000
 8004700:	007a1200 	.word	0x007a1200
 8004704:	003d0900 	.word	0x003d0900

08004708 <HAL_RCC_ClockConfig>:
{
 8004708:	e92d 41f0 	stmdb	sp!, {r4, r5, r6, r7, r8, lr}
 800470c:	460d      	mov	r5, r1
  if (RCC_ClkInitStruct == NULL)
 800470e:	4604      	mov	r4, r0
 8004710:	b910      	cbnz	r0, 8004718 <HAL_RCC_ClockConfig+0x10>
    return HAL_ERROR;
 8004712:	2001      	movs	r0, #1
}
 8004714:	e8bd 81f0 	ldmia.w	sp!, {r4, r5, r6, r7, r8, pc}
  if (FLatency > __HAL_FLASH_GET_LATENCY())
 8004718:	4a44      	ldr	r2, [pc, #272]	; (800482c <HAL_RCC_ClockConfig+0x124>)
 800471a:	6813      	ldr	r3, [r2, #0]
 800471c:	f003 0307 	and.w	r3, r3, #7
 8004720:	428b      	cmp	r3, r1
 8004722:	d328      	bcc.n	8004776 <HAL_RCC_ClockConfig+0x6e>
if (((RCC_ClkInitStruct->ClockType) & RCC_CLOCKTYPE_HCLK) == RCC_CLOCKTYPE_HCLK)
 8004724:	6821      	ldr	r1, [r4, #0]
 8004726:	078e      	lsls	r6, r1, #30
 8004728:	d430      	bmi.n	800478c <HAL_RCC_ClockConfig+0x84>
  if (((RCC_ClkInitStruct->ClockType) & RCC_CLOCKTYPE_SYSCLK) == RCC_CLOCKTYPE_SYSCLK)
 800472a:	07ca      	lsls	r2, r1, #31
 800472c:	d443      	bmi.n	80047b6 <HAL_RCC_ClockConfig+0xae>
  if (FLatency < __HAL_FLASH_GET_LATENCY())
 800472e:	4a3f      	ldr	r2, [pc, #252]	; (800482c <HAL_RCC_ClockConfig+0x124>)
 8004730:	6813      	ldr	r3, [r2, #0]
 8004732:	f003 0307 	and.w	r3, r3, #7
 8004736:	42ab      	cmp	r3, r5
 8004738:	d865      	bhi.n	8004806 <HAL_RCC_ClockConfig+0xfe>
if (((RCC_ClkInitStruct->ClockType) & RCC_CLOCKTYPE_PCLK1) == RCC_CLOCKTYPE_PCLK1)
 800473a:	6822      	ldr	r2, [r4, #0]
 800473c:	4d3c      	ldr	r5, [pc, #240]	; (8004830 <HAL_RCC_ClockConfig+0x128>)
 800473e:	f012 0f04 	tst.w	r2, #4
 8004742:	d16c      	bne.n	800481e <HAL_RCC_ClockConfig+0x116>
  if (((RCC_ClkInitStruct->ClockType) & RCC_CLOCKTYPE_PCLK2) == RCC_CLOCKTYPE_PCLK2)
 8004744:	0713      	lsls	r3, r2, #28
 8004746:	d506      	bpl.n	8004756 <HAL_RCC_ClockConfig+0x4e>
    MODIFY_REG(RCC->CFGR, RCC_CFGR_PPRE2, ((RCC_ClkInitStruct->APB2CLKDivider) << 3));
 8004748:	686b      	ldr	r3, [r5, #4]
 800474a:	6922      	ldr	r2, [r4, #16]
 800474c:	f423 5360 	bic.w	r3, r3, #14336	; 0x3800
 8004750:	ea43 03c2 	orr.w	r3, r3, r2, lsl #3
 8004754:	606b      	str	r3, [r5, #4]
  SystemCoreClock = HAL_RCC_GetSysClockFreq() >> AHBPrescTable[(RCC->CFGR & RCC_CFGR_HPRE) >> RCC_CFGR_HPRE_Pos];
 8004756:	f7ff ff9d 	bl	8004694 <HAL_RCC_GetSysClockFreq>
 800475a:	686b      	ldr	r3, [r5, #4]
 800475c:	4a35      	ldr	r2, [pc, #212]	; (8004834 <HAL_RCC_ClockConfig+0x12c>)
 800475e:	f3c3 1303 	ubfx	r3, r3, #4, #4
 8004762:	5cd3      	ldrb	r3, [r2, r3]
 8004764:	40d8      	lsrs	r0, r3
 8004766:	4b34      	ldr	r3, [pc, #208]	; (8004838 <HAL_RCC_ClockConfig+0x130>)
 8004768:	6018      	str	r0, [r3, #0]
  HAL_InitTick(uwTickPrio);
 800476a:	4b34      	ldr	r3, [pc, #208]	; (800483c <HAL_RCC_ClockConfig+0x134>)
 800476c:	6818      	ldr	r0, [r3, #0]
 800476e:	f7ff f931 	bl	80039d4 <HAL_InitTick>
  return HAL_OK;
 8004772:	2000      	movs	r0, #0
 8004774:	e7ce      	b.n	8004714 <HAL_RCC_ClockConfig+0xc>
    __HAL_FLASH_SET_LATENCY(FLatency);
 8004776:	6813      	ldr	r3, [r2, #0]
 8004778:	f023 0307 	bic.w	r3, r3, #7
 800477c:	430b      	orrs	r3, r1
 800477e:	6013      	str	r3, [r2, #0]
    if (__HAL_FLASH_GET_LATENCY() != FLatency)
 8004780:	6813      	ldr	r3, [r2, #0]
 8004782:	f003 0307 	and.w	r3, r3, #7
 8004786:	428b      	cmp	r3, r1
 8004788:	d1c3      	bne.n	8004712 <HAL_RCC_ClockConfig+0xa>
 800478a:	e7cb      	b.n	8004724 <HAL_RCC_ClockConfig+0x1c>
    if (((RCC_ClkInitStruct->ClockType) & RCC_CLOCKTYPE_PCLK1) == RCC_CLOCKTYPE_PCLK1)
 800478c:	4b28      	ldr	r3, [pc, #160]	; (8004830 <HAL_RCC_ClockConfig+0x128>)
 800478e:	f011 0f04 	tst.w	r1, #4
      MODIFY_REG(RCC->CFGR, RCC_CFGR_PPRE1, RCC_HCLK_DIV16);
 8004792:	bf1e      	ittt	ne
 8004794:	685a      	ldrne	r2, [r3, #4]
 8004796:	f442 62e0 	orrne.w	r2, r2, #1792	; 0x700
 800479a:	605a      	strne	r2, [r3, #4]
    if (((RCC_ClkInitStruct->ClockType) & RCC_CLOCKTYPE_PCLK2) == RCC_CLOCKTYPE_PCLK2)
 800479c:	0708      	lsls	r0, r1, #28
      MODIFY_REG(RCC->CFGR, RCC_CFGR_PPRE2, (RCC_HCLK_DIV16 << 3));
 800479e:	bf42      	ittt	mi
 80047a0:	685a      	ldrmi	r2, [r3, #4]
 80047a2:	f442 5260 	orrmi.w	r2, r2, #14336	; 0x3800
 80047a6:	605a      	strmi	r2, [r3, #4]
    MODIFY_REG(RCC->CFGR, RCC_CFGR_HPRE, RCC_ClkInitStruct->AHBCLKDivider);
 80047a8:	685a      	ldr	r2, [r3, #4]
 80047aa:	68a0      	ldr	r0, [r4, #8]
 80047ac:	f022 02f0 	bic.w	r2, r2, #240	; 0xf0
 80047b0:	4302      	orrs	r2, r0
 80047b2:	605a      	str	r2, [r3, #4]
 80047b4:	e7b9      	b.n	800472a <HAL_RCC_ClockConfig+0x22>
    if (RCC_ClkInitStruct->SYSCLKSource == RCC_SYSCLKSOURCE_HSE)
 80047b6:	6862      	ldr	r2, [r4, #4]
 80047b8:	4e1d      	ldr	r6, [pc, #116]	; (8004830 <HAL_RCC_ClockConfig+0x128>)
 80047ba:	2a01      	cmp	r2, #1
      if (__HAL_RCC_GET_FLAG(RCC_FLAG_HSERDY) == RESET)
 80047bc:	6833      	ldr	r3, [r6, #0]
    if (RCC_ClkInitStruct->SYSCLKSource == RCC_SYSCLKSOURCE_HSE)
 80047be:	d11a      	bne.n	80047f6 <HAL_RCC_ClockConfig+0xee>
      if (__HAL_RCC_GET_FLAG(RCC_FLAG_HSERDY) == RESET)
 80047c0:	f413 3f00 	tst.w	r3, #131072	; 0x20000
      if (__HAL_RCC_GET_FLAG(RCC_FLAG_HSIRDY) == RESET)
 80047c4:	d0a5      	beq.n	8004712 <HAL_RCC_ClockConfig+0xa>
    __HAL_RCC_SYSCLK_CONFIG(RCC_ClkInitStruct->SYSCLKSource);
 80047c6:	6873      	ldr	r3, [r6, #4]
      if ((HAL_GetTick() - tickstart) > CLOCKSWITCH_TIMEOUT_VALUE)
 80047c8:	f241 3888 	movw	r8, #5000	; 0x1388
    __HAL_RCC_SYSCLK_CONFIG(RCC_ClkInitStruct->SYSCLKSource);
 80047cc:	f023 0303 	bic.w	r3, r3, #3
 80047d0:	4313      	orrs	r3, r2
 80047d2:	6073      	str	r3, [r6, #4]
    tickstart = HAL_GetTick();
 80047d4:	f7ff f934 	bl	8003a40 <HAL_GetTick>
 80047d8:	4607      	mov	r7, r0
    while (__HAL_RCC_GET_SYSCLK_SOURCE() != (RCC_ClkInitStruct->SYSCLKSource << RCC_CFGR_SWS_Pos))
 80047da:	6873      	ldr	r3, [r6, #4]
 80047dc:	6862      	ldr	r2, [r4, #4]
 80047de:	f003 030c 	and.w	r3, r3, #12
 80047e2:	ebb3 0f82 	cmp.w	r3, r2, lsl #2
 80047e6:	d0a2      	beq.n	800472e <HAL_RCC_ClockConfig+0x26>
      if ((HAL_GetTick() - tickstart) > CLOCKSWITCH_TIMEOUT_VALUE)
 80047e8:	f7ff f92a 	bl	8003a40 <HAL_GetTick>
 80047ec:	1bc0      	subs	r0, r0, r7
 80047ee:	4540      	cmp	r0, r8
 80047f0:	d9f3      	bls.n	80047da <HAL_RCC_ClockConfig+0xd2>
        return HAL_TIMEOUT;
 80047f2:	2003      	movs	r0, #3
 80047f4:	e78e      	b.n	8004714 <HAL_RCC_ClockConfig+0xc>
    else if (RCC_ClkInitStruct->SYSCLKSource == RCC_SYSCLKSOURCE_PLLCLK)
 80047f6:	2a02      	cmp	r2, #2
 80047f8:	d102      	bne.n	8004800 <HAL_RCC_ClockConfig+0xf8>
      if (__HAL_RCC_GET_FLAG(RCC_FLAG_PLLRDY) == RESET)
 80047fa:	f013 7f00 	tst.w	r3, #33554432	; 0x2000000
 80047fe:	e7e1      	b.n	80047c4 <HAL_RCC_ClockConfig+0xbc>
      if (__HAL_RCC_GET_FLAG(RCC_FLAG_HSIRDY) == RESET)
 8004800:	f013 0f02 	tst.w	r3, #2
 8004804:	e7de      	b.n	80047c4 <HAL_RCC_ClockConfig+0xbc>
    __HAL_FLASH_SET_LATENCY(FLatency);
 8004806:	6813      	ldr	r3, [r2, #0]
 8004808:	f023 0307 	bic.w	r3, r3, #7
 800480c:	432b      	orrs	r3, r5
 800480e:	6013      	str	r3, [r2, #0]
    if (__HAL_FLASH_GET_LATENCY() != FLatency)
 8004810:	6813      	ldr	r3, [r2, #0]
 8004812:	f003 0307 	and.w	r3, r3, #7
 8004816:	42ab      	cmp	r3, r5
 8004818:	f47f af7b 	bne.w	8004712 <HAL_RCC_ClockConfig+0xa>
 800481c:	e78d      	b.n	800473a <HAL_RCC_ClockConfig+0x32>
    MODIFY_REG(RCC->CFGR, RCC_CFGR_PPRE1, RCC_ClkInitStruct->APB1CLKDivider);
 800481e:	686b      	ldr	r3, [r5, #4]
 8004820:	68e1      	ldr	r1, [r4, #12]
 8004822:	f423 63e0 	bic.w	r3, r3, #1792	; 0x700
 8004826:	430b      	orrs	r3, r1
 8004828:	606b      	str	r3, [r5, #4]
 800482a:	e78b      	b.n	8004744 <HAL_RCC_ClockConfig+0x3c>
 800482c:	40022000 	.word	0x40022000
 8004830:	40021000 	.word	0x40021000
 8004834:	08007517 	.word	0x08007517
 8004838:	20000008 	.word	0x20000008
 800483c:	2000004c 	.word	0x2000004c

08004840 <HAL_RCC_GetPCLK2Freq>:
  return (HAL_RCC_GetHCLKFreq() >> APBPrescTable[(RCC->CFGR & RCC_CFGR_PPRE2) >> RCC_CFGR_PPRE2_Pos]);
 8004840:	4b04      	ldr	r3, [pc, #16]	; (8004854 <HAL_RCC_GetPCLK2Freq+0x14>)
 8004842:	4a05      	ldr	r2, [pc, #20]	; (8004858 <HAL_RCC_GetPCLK2Freq+0x18>)
 8004844:	685b      	ldr	r3, [r3, #4]
 8004846:	f3c3 23c2 	ubfx	r3, r3, #11, #3
 800484a:	5cd3      	ldrb	r3, [r2, r3]
 800484c:	4a03      	ldr	r2, [pc, #12]	; (800485c <HAL_RCC_GetPCLK2Freq+0x1c>)
 800484e:	6810      	ldr	r0, [r2, #0]
}
 8004850:	40d8      	lsrs	r0, r3
 8004852:	4770      	bx	lr
 8004854:	40021000 	.word	0x40021000
 8004858:	08007527 	.word	0x08007527
 800485c:	20000008 	.word	0x20000008

08004860 <HAL_RCCEx_PeriphCLKConfig>:

  /* Check the parameters */
  assert_param(IS_RCC_PERIPHCLOCK(PeriphClkInit->PeriphClockSelection));

  /*------------------------------- RTC/LCD Configuration ------------------------*/
  if ((((PeriphClkInit->PeriphClockSelection) & RCC_PERIPHCLK_RTC) == RCC_PERIPHCLK_RTC))
 8004860:	6803      	ldr	r3, [r0, #0]
{
 8004862:	e92d 41f3 	stmdb	sp!, {r0, r1, r4, r5, r6, r7, r8, lr}
  if ((((PeriphClkInit->PeriphClockSelection) & RCC_PERIPHCLK_RTC) == RCC_PERIPHCLK_RTC))
 8004866:	07d9      	lsls	r1, r3, #31
{
 8004868:	4605      	mov	r5, r0
  if ((((PeriphClkInit->PeriphClockSelection) & RCC_PERIPHCLK_RTC) == RCC_PERIPHCLK_RTC))
 800486a:	d520      	bpl.n	80048ae <HAL_RCCEx_PeriphCLKConfig+0x4e>
    assert_param(IS_RCC_RTCCLKSOURCE(PeriphClkInit->RTCClockSelection));

    /* As soon as function is called to change RTC clock source, activation of the
       power domain is done. */
    /* Requires to enable write access to Backup Domain of necessary */
    if (__HAL_RCC_PWR_IS_CLK_DISABLED())
 800486c:	4c36      	ldr	r4, [pc, #216]	; (8004948 <HAL_RCCEx_PeriphCLKConfig+0xe8>)
 800486e:	69e3      	ldr	r3, [r4, #28]
 8004870:	00da      	lsls	r2, r3, #3
 8004872:	d432      	bmi.n	80048da <HAL_RCCEx_PeriphCLKConfig+0x7a>
    {
      __HAL_RCC_PWR_CLK_ENABLE();
      pwrclkchanged = SET;
 8004874:	2601      	movs	r6, #1
      __HAL_RCC_PWR_CLK_ENABLE();
 8004876:	69e3      	ldr	r3, [r4, #28]
 8004878:	f043 5380 	orr.w	r3, r3, #268435456	; 0x10000000
 800487c:	61e3      	str	r3, [r4, #28]
 800487e:	69e3      	ldr	r3, [r4, #28]
 8004880:	f003 5380 	and.w	r3, r3, #268435456	; 0x10000000
 8004884:	9301      	str	r3, [sp, #4]
 8004886:	9b01      	ldr	r3, [sp, #4]
    }

    if (HAL_IS_BIT_CLR(PWR->CR, PWR_CR_DBP))
 8004888:	4f30      	ldr	r7, [pc, #192]	; (800494c <HAL_RCCEx_PeriphCLKConfig+0xec>)
 800488a:	683b      	ldr	r3, [r7, #0]
 800488c:	05db      	lsls	r3, r3, #23
 800488e:	d526      	bpl.n	80048de <HAL_RCCEx_PeriphCLKConfig+0x7e>
        }
      }
    }

    /* Reset the Backup domain only if the RTC Clock source selection is modified from reset value */
    temp_reg = (RCC->BDCR & RCC_BDCR_RTCSEL);
 8004890:	6a23      	ldr	r3, [r4, #32]
    if ((temp_reg != 0x00000000U) && (temp_reg != (PeriphClkInit->RTCClockSelection & RCC_BDCR_RTCSEL)))
 8004892:	f413 7340 	ands.w	r3, r3, #768	; 0x300
 8004896:	d136      	bne.n	8004906 <HAL_RCCEx_PeriphCLKConfig+0xa6>
            return HAL_TIMEOUT;
          }
        }
      }
    }
    __HAL_RCC_RTC_CONFIG(PeriphClkInit->RTCClockSelection);
 8004898:	6a23      	ldr	r3, [r4, #32]
 800489a:	686a      	ldr	r2, [r5, #4]
 800489c:	f423 7340 	bic.w	r3, r3, #768	; 0x300
 80048a0:	4313      	orrs	r3, r2
 80048a2:	6223      	str	r3, [r4, #32]

    /* Require to disable power clock if necessary */
    if (pwrclkchanged == SET)
 80048a4:	b11e      	cbz	r6, 80048ae <HAL_RCCEx_PeriphCLKConfig+0x4e>
    {
      __HAL_RCC_PWR_CLK_DISABLE();
 80048a6:	69e3      	ldr	r3, [r4, #28]
 80048a8:	f023 5380 	bic.w	r3, r3, #268435456	; 0x10000000
 80048ac:	61e3      	str	r3, [r4, #28]
    }
  }

  /*------------------------------ ADC clock Configuration ------------------*/
  if (((PeriphClkInit->PeriphClockSelection) & RCC_PERIPHCLK_ADC) == RCC_PERIPHCLK_ADC)
 80048ae:	6828      	ldr	r0, [r5, #0]
 80048b0:	0783      	lsls	r3, r0, #30
 80048b2:	d506      	bpl.n	80048c2 <HAL_RCCEx_PeriphCLKConfig+0x62>
  {
    /* Check the parameters */
    assert_param(IS_RCC_ADCPLLCLK_DIV(PeriphClkInit->AdcClockSelection));

    /* Configure the ADC clock source */
    __HAL_RCC_ADC_CONFIG(PeriphClkInit->AdcClockSelection);
 80048b4:	4924      	ldr	r1, [pc, #144]	; (8004948 <HAL_RCCEx_PeriphCLKConfig+0xe8>)
 80048b6:	68ab      	ldr	r3, [r5, #8]
 80048b8:	684a      	ldr	r2, [r1, #4]
 80048ba:	f422 4240 	bic.w	r2, r2, #49152	; 0xc000
 80048be:	431a      	orrs	r2, r3
 80048c0:	604a      	str	r2, [r1, #4]

#if defined(STM32F102x6) || defined(STM32F102xB) || defined(STM32F103x6)\
 || defined(STM32F103xB) || defined(STM32F103xE) || defined(STM32F103xG)\
 || defined(STM32F105xC) || defined(STM32F107xC)
  /*------------------------------ USB clock Configuration ------------------*/
  if (((PeriphClkInit->PeriphClockSelection) & RCC_PERIPHCLK_USB) == RCC_PERIPHCLK_USB)
 80048c2:	f010 0010 	ands.w	r0, r0, #16
 80048c6:	d01b      	beq.n	8004900 <HAL_RCCEx_PeriphCLKConfig+0xa0>
  {
    /* Check the parameters */
    assert_param(IS_RCC_USBPLLCLK_DIV(PeriphClkInit->UsbClockSelection));

    /* Configure the USB clock source */
    __HAL_RCC_USB_CONFIG(PeriphClkInit->UsbClockSelection);
 80048c8:	4a1f      	ldr	r2, [pc, #124]	; (8004948 <HAL_RCCEx_PeriphCLKConfig+0xe8>)
 80048ca:	68e9      	ldr	r1, [r5, #12]
 80048cc:	6853      	ldr	r3, [r2, #4]
  }
#endif /* STM32F102x6 || STM32F102xB || STM32F103x6 || STM32F103xB || STM32F103xE || STM32F103xG || STM32F105xC || STM32F107xC */

  return HAL_OK;
 80048ce:	2000      	movs	r0, #0
    __HAL_RCC_USB_CONFIG(PeriphClkInit->UsbClockSelection);
 80048d0:	f423 0380 	bic.w	r3, r3, #4194304	; 0x400000
 80048d4:	430b      	orrs	r3, r1
 80048d6:	6053      	str	r3, [r2, #4]
 80048d8:	e012      	b.n	8004900 <HAL_RCCEx_PeriphCLKConfig+0xa0>
    FlagStatus pwrclkchanged = RESET;
 80048da:	2600      	movs	r6, #0
 80048dc:	e7d4      	b.n	8004888 <HAL_RCCEx_PeriphCLKConfig+0x28>
      SET_BIT(PWR->CR, PWR_CR_DBP);
 80048de:	683b      	ldr	r3, [r7, #0]
 80048e0:	f443 7380 	orr.w	r3, r3, #256	; 0x100
 80048e4:	603b      	str	r3, [r7, #0]
      tickstart = HAL_GetTick();
 80048e6:	f7ff f8ab 	bl	8003a40 <HAL_GetTick>
 80048ea:	4680      	mov	r8, r0
      while (HAL_IS_BIT_CLR(PWR->CR, PWR_CR_DBP))
 80048ec:	683b      	ldr	r3, [r7, #0]
 80048ee:	05d8      	lsls	r0, r3, #23
 80048f0:	d4ce      	bmi.n	8004890 <HAL_RCCEx_PeriphCLKConfig+0x30>
        if ((HAL_GetTick() - tickstart) > RCC_DBP_TIMEOUT_VALUE)
 80048f2:	f7ff f8a5 	bl	8003a40 <HAL_GetTick>
 80048f6:	eba0 0008 	sub.w	r0, r0, r8
 80048fa:	2864      	cmp	r0, #100	; 0x64
 80048fc:	d9f6      	bls.n	80048ec <HAL_RCCEx_PeriphCLKConfig+0x8c>
          return HAL_TIMEOUT;
 80048fe:	2003      	movs	r0, #3
}
 8004900:	b002      	add	sp, #8
 8004902:	e8bd 81f0 	ldmia.w	sp!, {r4, r5, r6, r7, r8, pc}
    if ((temp_reg != 0x00000000U) && (temp_reg != (PeriphClkInit->RTCClockSelection & RCC_BDCR_RTCSEL)))
 8004906:	686a      	ldr	r2, [r5, #4]
 8004908:	f402 7240 	and.w	r2, r2, #768	; 0x300
 800490c:	429a      	cmp	r2, r3
 800490e:	d0c3      	beq.n	8004898 <HAL_RCCEx_PeriphCLKConfig+0x38>
      __HAL_RCC_BACKUPRESET_FORCE();
 8004910:	2001      	movs	r0, #1
 8004912:	4a0f      	ldr	r2, [pc, #60]	; (8004950 <HAL_RCCEx_PeriphCLKConfig+0xf0>)
      temp_reg = (RCC->BDCR & ~(RCC_BDCR_RTCSEL));
 8004914:	6a23      	ldr	r3, [r4, #32]
      __HAL_RCC_BACKUPRESET_FORCE();
 8004916:	f8c2 0440 	str.w	r0, [r2, #1088]	; 0x440
      __HAL_RCC_BACKUPRESET_RELEASE();
 800491a:	2000      	movs	r0, #0
      temp_reg = (RCC->BDCR & ~(RCC_BDCR_RTCSEL));
 800491c:	f423 7140 	bic.w	r1, r3, #768	; 0x300
      __HAL_RCC_BACKUPRESET_RELEASE();
 8004920:	f8c2 0440 	str.w	r0, [r2, #1088]	; 0x440
      RCC->BDCR = temp_reg;
 8004924:	6221      	str	r1, [r4, #32]
      if (HAL_IS_BIT_SET(temp_reg, RCC_BDCR_LSEON))
 8004926:	07d9      	lsls	r1, r3, #31
 8004928:	d5b6      	bpl.n	8004898 <HAL_RCCEx_PeriphCLKConfig+0x38>
        tickstart = HAL_GetTick();
 800492a:	f7ff f889 	bl	8003a40 <HAL_GetTick>
          if ((HAL_GetTick() - tickstart) > RCC_LSE_TIMEOUT_VALUE)
 800492e:	f241 3888 	movw	r8, #5000	; 0x1388
        tickstart = HAL_GetTick();
 8004932:	4607      	mov	r7, r0
        while (__HAL_RCC_GET_FLAG(RCC_FLAG_LSERDY) == RESET)
 8004934:	6a23      	ldr	r3, [r4, #32]
 8004936:	079a      	lsls	r2, r3, #30
 8004938:	d4ae      	bmi.n	8004898 <HAL_RCCEx_PeriphCLKConfig+0x38>
          if ((HAL_GetTick() - tickstart) > RCC_LSE_TIMEOUT_VALUE)
 800493a:	f7ff f881 	bl	8003a40 <HAL_GetTick>
 800493e:	1bc0      	subs	r0, r0, r7
 8004940:	4540      	cmp	r0, r8
 8004942:	d9f7      	bls.n	8004934 <HAL_RCCEx_PeriphCLKConfig+0xd4>
 8004944:	e7db      	b.n	80048fe <HAL_RCCEx_PeriphCLKConfig+0x9e>
 8004946:	bf00      	nop
 8004948:	40021000 	.word	0x40021000
 800494c:	40007000 	.word	0x40007000
 8004950:	42420000 	.word	0x42420000

08004954 <HAL_RCCEx_GetPeriphCLKFreq>:
  *            @arg @ref RCC_PERIPHCLK_USB  USB peripheral clock
  @endif
  * @retval Frequency in Hz (0: means that no available frequency for the peripheral)
  */
uint32_t HAL_RCCEx_GetPeriphCLKFreq(uint32_t PeriphClk)
{
 8004954:	4602      	mov	r2, r0
 8004956:	b570      	push	{r4, r5, r6, lr}
  uint32_t prediv1 = 0U, pllclk = 0U, pllmul = 0U;
  uint32_t pll2mul = 0U, pll3mul = 0U, prediv2 = 0U;
#endif /* STM32F105xC || STM32F107xC */
#if defined(STM32F102x6) || defined(STM32F102xB) || defined(STM32F103x6) || \
    defined(STM32F103xB) || defined(STM32F103xE) || defined(STM32F103xG)
  const uint8_t aPLLMULFactorTable[16] = {2, 3, 4, 5, 6, 7, 8, 9, 10, 11, 12, 13, 14, 15, 16, 16};
 8004958:	4b33      	ldr	r3, [pc, #204]	; (8004a28 <HAL_RCCEx_GetPeriphCLKFreq+0xd4>)
{
 800495a:	b086      	sub	sp, #24
  const uint8_t aPLLMULFactorTable[16] = {2, 3, 4, 5, 6, 7, 8, 9, 10, 11, 12, 13, 14, 15, 16, 16};
 800495c:	ad02      	add	r5, sp, #8
 800495e:	f103 0610 	add.w	r6, r3, #16
 8004962:	462c      	mov	r4, r5
 8004964:	6818      	ldr	r0, [r3, #0]
 8004966:	6859      	ldr	r1, [r3, #4]
 8004968:	3308      	adds	r3, #8
 800496a:	c403      	stmia	r4!, {r0, r1}
 800496c:	42b3      	cmp	r3, r6
 800496e:	4625      	mov	r5, r4
 8004970:	d1f7      	bne.n	8004962 <HAL_RCCEx_GetPeriphCLKFreq+0xe>
  const uint8_t aPredivFactorTable[2] = {1, 2};
 8004972:	f240 2301 	movw	r3, #513	; 0x201
  uint32_t temp_reg = 0U, frequency = 0U;

  /* Check the parameters */
  assert_param(IS_RCC_PERIPHCLOCK(PeriphClk));

  switch (PeriphClk)
 8004976:	2a02      	cmp	r2, #2
  const uint8_t aPredivFactorTable[2] = {1, 2};
 8004978:	f8ad 3004 	strh.w	r3, [sp, #4]
  switch (PeriphClk)
 800497c:	d047      	beq.n	8004a0e <HAL_RCCEx_GetPeriphCLKFreq+0xba>
 800497e:	2a10      	cmp	r2, #16
 8004980:	d003      	beq.n	800498a <HAL_RCCEx_GetPeriphCLKFreq+0x36>
 8004982:	2a01      	cmp	r2, #1
 8004984:	d024      	beq.n	80049d0 <HAL_RCCEx_GetPeriphCLKFreq+0x7c>
  uint32_t temp_reg = 0U, frequency = 0U;
 8004986:	2000      	movs	r0, #0
    default:
    {
      break;
    }
  }
  return (frequency);
 8004988:	e036      	b.n	80049f8 <HAL_RCCEx_GetPeriphCLKFreq+0xa4>
      temp_reg = RCC->CFGR;
 800498a:	4a28      	ldr	r2, [pc, #160]	; (8004a2c <HAL_RCCEx_GetPeriphCLKFreq+0xd8>)
 800498c:	6851      	ldr	r1, [r2, #4]
      if (HAL_IS_BIT_SET(RCC->CR, RCC_CR_PLLON))
 800498e:	6810      	ldr	r0, [r2, #0]
 8004990:	f010 7080 	ands.w	r0, r0, #16777216	; 0x1000000
 8004994:	d030      	beq.n	80049f8 <HAL_RCCEx_GetPeriphCLKFreq+0xa4>
        pllmul = aPLLMULFactorTable[(uint32_t)(temp_reg & RCC_CFGR_PLLMULL) >> RCC_CFGR_PLLMULL_Pos];
 8004996:	f3c1 4383 	ubfx	r3, r1, #18, #4
 800499a:	3318      	adds	r3, #24
 800499c:	446b      	add	r3, sp
        if ((temp_reg & RCC_CFGR_PLLSRC) != RCC_PLLSOURCE_HSI_DIV2)
 800499e:	03c9      	lsls	r1, r1, #15
        pllmul = aPLLMULFactorTable[(uint32_t)(temp_reg & RCC_CFGR_PLLMULL) >> RCC_CFGR_PLLMULL_Pos];
 80049a0:	f813 0c10 	ldrb.w	r0, [r3, #-16]
          prediv1 = aPredivFactorTable[(uint32_t)(RCC->CFGR & RCC_CFGR_PLLXTPRE) >> RCC_CFGR_PLLXTPRE_Pos];
 80049a4:	bf49      	itett	mi
 80049a6:	6853      	ldrmi	r3, [r2, #4]
          pllclk = (uint32_t)((HSI_VALUE >> 1) * pllmul);
 80049a8:	4b21      	ldrpl	r3, [pc, #132]	; (8004a30 <HAL_RCCEx_GetPeriphCLKFreq+0xdc>)
          prediv1 = aPredivFactorTable[(uint32_t)(RCC->CFGR & RCC_CFGR_PLLXTPRE) >> RCC_CFGR_PLLXTPRE_Pos];
 80049aa:	f3c3 4340 	ubfxmi	r3, r3, #17, #1
 80049ae:	3318      	addmi	r3, #24
 80049b0:	bf41      	itttt	mi
 80049b2:	446b      	addmi	r3, sp
 80049b4:	f813 1c14 	ldrbmi.w	r1, [r3, #-20]
            pllclk = (uint32_t)((HSE_VALUE / prediv1) * pllmul);
 80049b8:	4b1e      	ldrmi	r3, [pc, #120]	; (8004a34 <HAL_RCCEx_GetPeriphCLKFreq+0xe0>)
 80049ba:	fbb3 f3f1 	udivmi	r3, r3, r1
          pllclk = (uint32_t)((HSI_VALUE >> 1) * pllmul);
 80049be:	4358      	muls	r0, r3
        if (__HAL_RCC_GET_USB_SOURCE() == RCC_USBCLKSOURCE_PLL)
 80049c0:	6853      	ldr	r3, [r2, #4]
 80049c2:	025b      	lsls	r3, r3, #9
 80049c4:	d418      	bmi.n	80049f8 <HAL_RCCEx_GetPeriphCLKFreq+0xa4>
          frequency = (pllclk * 2) / 3;
 80049c6:	2303      	movs	r3, #3
 80049c8:	0040      	lsls	r0, r0, #1
      frequency = HAL_RCC_GetPCLK2Freq() / (((__HAL_RCC_GET_ADC_SOURCE() >> RCC_CFGR_ADCPRE_Pos) + 1) * 2);
 80049ca:	fbb0 f0f3 	udiv	r0, r0, r3
      break;
 80049ce:	e013      	b.n	80049f8 <HAL_RCCEx_GetPeriphCLKFreq+0xa4>
      if (((temp_reg & RCC_BDCR_RTCSEL) == RCC_RTCCLKSOURCE_LSE) && (HAL_IS_BIT_SET(temp_reg, RCC_BDCR_LSERDY)))
 80049d0:	f240 3102 	movw	r1, #770	; 0x302
      temp_reg = RCC->BDCR;
 80049d4:	4a15      	ldr	r2, [pc, #84]	; (8004a2c <HAL_RCCEx_GetPeriphCLKFreq+0xd8>)
 80049d6:	6a13      	ldr	r3, [r2, #32]
      if (((temp_reg & RCC_BDCR_RTCSEL) == RCC_RTCCLKSOURCE_LSE) && (HAL_IS_BIT_SET(temp_reg, RCC_BDCR_LSERDY)))
 80049d8:	4019      	ands	r1, r3
 80049da:	f5b1 7f81 	cmp.w	r1, #258	; 0x102
 80049de:	d01f      	beq.n	8004a20 <HAL_RCCEx_GetPeriphCLKFreq+0xcc>
      else if (((temp_reg & RCC_BDCR_RTCSEL) == RCC_RTCCLKSOURCE_LSI) && (HAL_IS_BIT_SET(RCC->CSR, RCC_CSR_LSIRDY)))
 80049e0:	f403 7340 	and.w	r3, r3, #768	; 0x300
 80049e4:	f5b3 7f00 	cmp.w	r3, #512	; 0x200
 80049e8:	d108      	bne.n	80049fc <HAL_RCCEx_GetPeriphCLKFreq+0xa8>
        frequency = LSI_VALUE;
 80049ea:	f649 4340 	movw	r3, #40000	; 0x9c40
      else if (((temp_reg & RCC_BDCR_RTCSEL) == RCC_RTCCLKSOURCE_LSI) && (HAL_IS_BIT_SET(RCC->CSR, RCC_CSR_LSIRDY)))
 80049ee:	6a50      	ldr	r0, [r2, #36]	; 0x24
        frequency = LSI_VALUE;
 80049f0:	f010 0002 	ands.w	r0, r0, #2
        frequency = HSE_VALUE / 128U;
 80049f4:	bf18      	it	ne
 80049f6:	4618      	movne	r0, r3
}
 80049f8:	b006      	add	sp, #24
 80049fa:	bd70      	pop	{r4, r5, r6, pc}
      else if (((temp_reg & RCC_BDCR_RTCSEL) == RCC_RTCCLKSOURCE_HSE_DIV128) && (HAL_IS_BIT_SET(RCC->CR, RCC_CR_HSERDY)))
 80049fc:	f5b3 7f40 	cmp.w	r3, #768	; 0x300
 8004a00:	d1c1      	bne.n	8004986 <HAL_RCCEx_GetPeriphCLKFreq+0x32>
 8004a02:	6810      	ldr	r0, [r2, #0]
        frequency = HSE_VALUE / 128U;
 8004a04:	f24f 4324 	movw	r3, #62500	; 0xf424
 8004a08:	f410 3000 	ands.w	r0, r0, #131072	; 0x20000
 8004a0c:	e7f2      	b.n	80049f4 <HAL_RCCEx_GetPeriphCLKFreq+0xa0>
      frequency = HAL_RCC_GetPCLK2Freq() / (((__HAL_RCC_GET_ADC_SOURCE() >> RCC_CFGR_ADCPRE_Pos) + 1) * 2);
 8004a0e:	f7ff ff17 	bl	8004840 <HAL_RCC_GetPCLK2Freq>
 8004a12:	4b06      	ldr	r3, [pc, #24]	; (8004a2c <HAL_RCCEx_GetPeriphCLKFreq+0xd8>)
 8004a14:	685b      	ldr	r3, [r3, #4]
 8004a16:	f3c3 3381 	ubfx	r3, r3, #14, #2
 8004a1a:	3301      	adds	r3, #1
 8004a1c:	005b      	lsls	r3, r3, #1
 8004a1e:	e7d4      	b.n	80049ca <HAL_RCCEx_GetPeriphCLKFreq+0x76>
        frequency = LSE_VALUE;
 8004a20:	f44f 4000 	mov.w	r0, #32768	; 0x8000
 8004a24:	e7e8      	b.n	80049f8 <HAL_RCCEx_GetPeriphCLKFreq+0xa4>
 8004a26:	bf00      	nop
 8004a28:	08008650 	.word	0x08008650
 8004a2c:	40021000 	.word	0x40021000
 8004a30:	003d0900 	.word	0x003d0900
 8004a34:	007a1200 	.word	0x007a1200

08004a38 <RTC_ReadTimeCounter>:
static uint32_t RTC_ReadTimeCounter(RTC_HandleTypeDef *hrtc)
{
  uint16_t high1 = 0U, high2 = 0U, low = 0U;
  uint32_t timecounter = 0U;

  high1 = READ_REG(hrtc->Instance->CNTH & RTC_CNTH_RTC_CNT);
 8004a38:	6803      	ldr	r3, [r0, #0]
{
 8004a3a:	b530      	push	{r4, r5, lr}
  high1 = READ_REG(hrtc->Instance->CNTH & RTC_CNTH_RTC_CNT);
 8004a3c:	699a      	ldr	r2, [r3, #24]
  low   = READ_REG(hrtc->Instance->CNTL & RTC_CNTL_RTC_CNT);
 8004a3e:	69d8      	ldr	r0, [r3, #28]
  high2 = READ_REG(hrtc->Instance->CNTH & RTC_CNTH_RTC_CNT);
 8004a40:	6999      	ldr	r1, [r3, #24]

  if (high1 != high2)
 8004a42:	b295      	uxth	r5, r2
 8004a44:	b28c      	uxth	r4, r1
 8004a46:	42a5      	cmp	r5, r4
  {
    /* In this case the counter roll over during reading of CNTL and CNTH registers,
       read again CNTL register then return the counter value */
    timecounter = (((uint32_t) high2 << 16U) | READ_REG(hrtc->Instance->CNTL & RTC_CNTL_RTC_CNT));
 8004a48:	bf17      	itett	ne
 8004a4a:	69d8      	ldrne	r0, [r3, #28]
  }
  else
  {
    /* No counter roll over during reading of CNTL and CNTH registers, counter
       value is equal to first value of CNTL and CNTH */
    timecounter = (((uint32_t) high1 << 16U) | low);
 8004a4c:	b280      	uxtheq	r0, r0
    timecounter = (((uint32_t) high2 << 16U) | READ_REG(hrtc->Instance->CNTL & RTC_CNTL_RTC_CNT));
 8004a4e:	b280      	uxthne	r0, r0
 8004a50:	ea40 4001 	orrne.w	r0, r0, r1, lsl #16
    timecounter = (((uint32_t) high1 << 16U) | low);
 8004a54:	bf08      	it	eq
 8004a56:	ea40 4002 	orreq.w	r0, r0, r2, lsl #16
  }

  return timecounter;
}
 8004a5a:	bd30      	pop	{r4, r5, pc}

08004a5c <RTC_ReadAlarmCounter>:
  */
static uint32_t RTC_ReadAlarmCounter(RTC_HandleTypeDef *hrtc)
{
  uint16_t high1 = 0U, low = 0U;

  high1 = READ_REG(hrtc->Instance->ALRH & RTC_CNTH_RTC_CNT);
 8004a5c:	6803      	ldr	r3, [r0, #0]
 8004a5e:	6a18      	ldr	r0, [r3, #32]
  low   = READ_REG(hrtc->Instance->ALRL & RTC_CNTL_RTC_CNT);
 8004a60:	6a5b      	ldr	r3, [r3, #36]	; 0x24

  return (((uint32_t) high1 << 16U) | low);
 8004a62:	b29b      	uxth	r3, r3
}
 8004a64:	ea43 4000 	orr.w	r0, r3, r0, lsl #16
 8004a68:	4770      	bx	lr

08004a6a <RTC_ByteToBcd2>:
  * @param  Value: Byte to be converted
  * @retval Converted byte
  */
static uint8_t RTC_ByteToBcd2(uint8_t Value)
{
  uint32_t bcdhigh = 0U;
 8004a6a:	2300      	movs	r3, #0

  while (Value >= 10U)
 8004a6c:	2809      	cmp	r0, #9
 8004a6e:	d803      	bhi.n	8004a78 <RTC_ByteToBcd2+0xe>
  {
    bcdhigh++;
    Value -= 10U;
  }

  return ((uint8_t)(bcdhigh << 4U) | Value);
 8004a70:	ea40 1003 	orr.w	r0, r0, r3, lsl #4
}
 8004a74:	b2c0      	uxtb	r0, r0
 8004a76:	4770      	bx	lr
    Value -= 10U;
 8004a78:	380a      	subs	r0, #10
    bcdhigh++;
 8004a7a:	3301      	adds	r3, #1
    Value -= 10U;
 8004a7c:	b2c0      	uxtb	r0, r0
 8004a7e:	e7f5      	b.n	8004a6c <RTC_ByteToBcd2+0x2>

08004a80 <RTC_Bcd2ToByte>:
  */
static uint8_t RTC_Bcd2ToByte(uint8_t Value)
{
  uint32_t tmp = 0U;
  tmp = ((uint8_t)(Value & (uint8_t)0xF0) >> (uint8_t)0x4) * 10U;
  return (tmp + (Value & (uint8_t)0x0F));
 8004a80:	220a      	movs	r2, #10
  tmp = ((uint8_t)(Value & (uint8_t)0xF0) >> (uint8_t)0x4) * 10U;
 8004a82:	0903      	lsrs	r3, r0, #4
  return (tmp + (Value & (uint8_t)0x0F));
 8004a84:	f000 000f 	and.w	r0, r0, #15
 8004a88:	fb02 0003 	mla	r0, r2, r3, r0
}
 8004a8c:	b2c0      	uxtb	r0, r0
 8004a8e:	4770      	bx	lr

08004a90 <RTC_WeekDayNum>:
  *         @arg RTC_WEEKDAY_FRIDAY
  *         @arg RTC_WEEKDAY_SATURDAY
  *         @arg RTC_WEEKDAY_SUNDAY
  */
static uint8_t RTC_WeekDayNum(uint32_t nYear, uint8_t nMonth, uint8_t nDay)
{
 8004a90:	b530      	push	{r4, r5, lr}
 8004a92:	4603      	mov	r3, r0
  uint32_t year = 0U, weekday = 0U;

  year = 2000U + nYear;
 8004a94:	f500 64fa 	add.w	r4, r0, #2000	; 0x7d0

  if (nMonth < 3U)
  {
    /*D = { [(23 x month)/9] + day + 4 + year + [(year-1)/4] - [(year-1)/100] + [(year-1)/400] } mod 7*/
    weekday = (((23U * nMonth) / 9U) + nDay + 4U + year + ((year - 1U) / 4U) - ((year - 1U) / 100U) + ((year - 1U) / 400U)) % 7U;
 8004a98:	2017      	movs	r0, #23
 8004a9a:	2509      	movs	r5, #9
 8004a9c:	4348      	muls	r0, r1
  if (nMonth < 3U)
 8004a9e:	2902      	cmp	r1, #2
    weekday = (((23U * nMonth) / 9U) + nDay + 4U + year + ((year - 1U) / 4U) - ((year - 1U) / 100U) + ((year - 1U) / 400U)) % 7U;
 8004aa0:	fbb0 f5f5 	udiv	r5, r0, r5
  if (nMonth < 3U)
 8004aa4:	d817      	bhi.n	8004ad6 <RTC_WeekDayNum+0x46>
    weekday = (((23U * nMonth) / 9U) + nDay + 4U + year + ((year - 1U) / 4U) - ((year - 1U) / 100U) + ((year - 1U) / 400U)) % 7U;
 8004aa6:	3204      	adds	r2, #4
 8004aa8:	1910      	adds	r0, r2, r4
 8004aaa:	f44f 72c8 	mov.w	r2, #400	; 0x190
 8004aae:	f203 73cf 	addw	r3, r3, #1999	; 0x7cf
 8004ab2:	fbb3 f2f2 	udiv	r2, r3, r2
 8004ab6:	4428      	add	r0, r5
 8004ab8:	eb00 0093 	add.w	r0, r0, r3, lsr #2
 8004abc:	4410      	add	r0, r2
 8004abe:	2264      	movs	r2, #100	; 0x64
 8004ac0:	fbb3 f3f2 	udiv	r3, r3, r2
 8004ac4:	1ac0      	subs	r0, r0, r3
  }
  else
  {
    /*D = { [(23 x month)/9] + day + 4 + year + [year/4] - [year/100] + [year/400] - 2 } mod 7*/
    weekday = (((23U * nMonth) / 9U) + nDay + 4U + year + (year / 4U) - (year / 100U) + (year / 400U) - 2U) % 7U;
 8004ac6:	2307      	movs	r3, #7
 8004ac8:	fbb0 f3f3 	udiv	r3, r0, r3
 8004acc:	ebc3 03c3 	rsb	r3, r3, r3, lsl #3
 8004ad0:	1ac0      	subs	r0, r0, r3
  }

  return (uint8_t)weekday;
}
 8004ad2:	b2c0      	uxtb	r0, r0
 8004ad4:	bd30      	pop	{r4, r5, pc}
    weekday = (((23U * nMonth) / 9U) + nDay + 4U + year + (year / 4U) - (year / 100U) + (year / 400U) - 2U) % 7U;
 8004ad6:	f44f 73c8 	mov.w	r3, #400	; 0x190
 8004ada:	fbb4 f3f3 	udiv	r3, r4, r3
 8004ade:	1c90      	adds	r0, r2, #2
 8004ae0:	4420      	add	r0, r4
 8004ae2:	4428      	add	r0, r5
 8004ae4:	eb00 0094 	add.w	r0, r0, r4, lsr #2
 8004ae8:	4418      	add	r0, r3
 8004aea:	2364      	movs	r3, #100	; 0x64
 8004aec:	fbb4 f4f3 	udiv	r4, r4, r3
 8004af0:	1b00      	subs	r0, r0, r4
 8004af2:	e7e8      	b.n	8004ac6 <RTC_WeekDayNum+0x36>

08004af4 <RTC_EnterInitMode>:
{
 8004af4:	b538      	push	{r3, r4, r5, lr}
 8004af6:	4604      	mov	r4, r0
  tickstart = HAL_GetTick();
 8004af8:	f7fe ffa2 	bl	8003a40 <HAL_GetTick>
 8004afc:	4605      	mov	r5, r0
  while ((hrtc->Instance->CRL & RTC_CRL_RTOFF) == (uint32_t)RESET)
 8004afe:	6823      	ldr	r3, [r4, #0]
 8004b00:	685a      	ldr	r2, [r3, #4]
 8004b02:	0692      	lsls	r2, r2, #26
 8004b04:	d505      	bpl.n	8004b12 <RTC_EnterInitMode+0x1e>
  return HAL_OK;
 8004b06:	2000      	movs	r0, #0
  __HAL_RTC_WRITEPROTECTION_DISABLE(hrtc);
 8004b08:	685a      	ldr	r2, [r3, #4]
 8004b0a:	f042 0210 	orr.w	r2, r2, #16
 8004b0e:	605a      	str	r2, [r3, #4]
}
 8004b10:	bd38      	pop	{r3, r4, r5, pc}
    if ((HAL_GetTick() - tickstart) >  RTC_TIMEOUT_VALUE)
 8004b12:	f7fe ff95 	bl	8003a40 <HAL_GetTick>
 8004b16:	1b40      	subs	r0, r0, r5
 8004b18:	f5b0 7f7a 	cmp.w	r0, #1000	; 0x3e8
 8004b1c:	d9ef      	bls.n	8004afe <RTC_EnterInitMode+0xa>
      return HAL_TIMEOUT;
 8004b1e:	2003      	movs	r0, #3
 8004b20:	e7f6      	b.n	8004b10 <RTC_EnterInitMode+0x1c>

08004b22 <RTC_ExitInitMode>:
  __HAL_RTC_WRITEPROTECTION_ENABLE(hrtc);
 8004b22:	6802      	ldr	r2, [r0, #0]
{
 8004b24:	b538      	push	{r3, r4, r5, lr}
  __HAL_RTC_WRITEPROTECTION_ENABLE(hrtc);
 8004b26:	6853      	ldr	r3, [r2, #4]
{
 8004b28:	4604      	mov	r4, r0
  __HAL_RTC_WRITEPROTECTION_ENABLE(hrtc);
 8004b2a:	f023 0310 	bic.w	r3, r3, #16
 8004b2e:	6053      	str	r3, [r2, #4]
  tickstart = HAL_GetTick();
 8004b30:	f7fe ff86 	bl	8003a40 <HAL_GetTick>
 8004b34:	4605      	mov	r5, r0
  while ((hrtc->Instance->CRL & RTC_CRL_RTOFF) == (uint32_t)RESET)
 8004b36:	6823      	ldr	r3, [r4, #0]
 8004b38:	685b      	ldr	r3, [r3, #4]
 8004b3a:	069b      	lsls	r3, r3, #26
 8004b3c:	d501      	bpl.n	8004b42 <RTC_ExitInitMode+0x20>
  return HAL_OK;
 8004b3e:	2000      	movs	r0, #0
}
 8004b40:	bd38      	pop	{r3, r4, r5, pc}
    if ((HAL_GetTick() - tickstart) >  RTC_TIMEOUT_VALUE)
 8004b42:	f7fe ff7d 	bl	8003a40 <HAL_GetTick>
 8004b46:	1b40      	subs	r0, r0, r5
 8004b48:	f5b0 7f7a 	cmp.w	r0, #1000	; 0x3e8
 8004b4c:	d9f3      	bls.n	8004b36 <RTC_ExitInitMode+0x14>
      return HAL_TIMEOUT;
 8004b4e:	2003      	movs	r0, #3
 8004b50:	e7f6      	b.n	8004b40 <RTC_ExitInitMode+0x1e>

08004b52 <RTC_WriteTimeCounter>:
{
 8004b52:	b538      	push	{r3, r4, r5, lr}
 8004b54:	4605      	mov	r5, r0
 8004b56:	460c      	mov	r4, r1
  if (RTC_EnterInitMode(hrtc) != HAL_OK)
 8004b58:	f7ff ffcc 	bl	8004af4 <RTC_EnterInitMode>
 8004b5c:	b958      	cbnz	r0, 8004b76 <RTC_WriteTimeCounter+0x24>
    WRITE_REG(hrtc->Instance->CNTH, (TimeCounter >> 16U));
 8004b5e:	682b      	ldr	r3, [r5, #0]
 8004b60:	0c22      	lsrs	r2, r4, #16
    WRITE_REG(hrtc->Instance->CNTL, (TimeCounter & RTC_CNTL_RTC_CNT));
 8004b62:	b2a4      	uxth	r4, r4
    WRITE_REG(hrtc->Instance->CNTH, (TimeCounter >> 16U));
 8004b64:	619a      	str	r2, [r3, #24]
    if (RTC_ExitInitMode(hrtc) != HAL_OK)
 8004b66:	4628      	mov	r0, r5
    WRITE_REG(hrtc->Instance->CNTL, (TimeCounter & RTC_CNTL_RTC_CNT));
 8004b68:	61dc      	str	r4, [r3, #28]
    if (RTC_ExitInitMode(hrtc) != HAL_OK)
 8004b6a:	f7ff ffda 	bl	8004b22 <RTC_ExitInitMode>
    status = HAL_ERROR;
 8004b6e:	3800      	subs	r0, #0
 8004b70:	bf18      	it	ne
 8004b72:	2001      	movne	r0, #1
}
 8004b74:	bd38      	pop	{r3, r4, r5, pc}
    status = HAL_ERROR;
 8004b76:	2001      	movs	r0, #1
 8004b78:	e7fc      	b.n	8004b74 <RTC_WriteTimeCounter+0x22>

08004b7a <RTC_WriteAlarmCounter>:
{
 8004b7a:	b538      	push	{r3, r4, r5, lr}
 8004b7c:	4605      	mov	r5, r0
 8004b7e:	460c      	mov	r4, r1
  if (RTC_EnterInitMode(hrtc) != HAL_OK)
 8004b80:	f7ff ffb8 	bl	8004af4 <RTC_EnterInitMode>
 8004b84:	b958      	cbnz	r0, 8004b9e <RTC_WriteAlarmCounter+0x24>
    WRITE_REG(hrtc->Instance->ALRH, (AlarmCounter >> 16U));
 8004b86:	682b      	ldr	r3, [r5, #0]
 8004b88:	0c22      	lsrs	r2, r4, #16
    WRITE_REG(hrtc->Instance->ALRL, (AlarmCounter & RTC_ALRL_RTC_ALR));
 8004b8a:	b2a4      	uxth	r4, r4
    WRITE_REG(hrtc->Instance->ALRH, (AlarmCounter >> 16U));
 8004b8c:	621a      	str	r2, [r3, #32]
    if (RTC_ExitInitMode(hrtc) != HAL_OK)
 8004b8e:	4628      	mov	r0, r5
    WRITE_REG(hrtc->Instance->ALRL, (AlarmCounter & RTC_ALRL_RTC_ALR));
 8004b90:	625c      	str	r4, [r3, #36]	; 0x24
    if (RTC_ExitInitMode(hrtc) != HAL_OK)
 8004b92:	f7ff ffc6 	bl	8004b22 <RTC_ExitInitMode>
    status = HAL_ERROR;
 8004b96:	3800      	subs	r0, #0
 8004b98:	bf18      	it	ne
 8004b9a:	2001      	movne	r0, #1
}
 8004b9c:	bd38      	pop	{r3, r4, r5, pc}
    status = HAL_ERROR;
 8004b9e:	2001      	movs	r0, #1
 8004ba0:	e7fc      	b.n	8004b9c <RTC_WriteAlarmCounter+0x22>

08004ba2 <HAL_RTC_SetTime>:
{
 8004ba2:	b5f8      	push	{r3, r4, r5, r6, r7, lr}
  if ((hrtc == NULL) || (sTime == NULL))
 8004ba4:	4604      	mov	r4, r0
 8004ba6:	b1e0      	cbz	r0, 8004be2 <HAL_RTC_SetTime+0x40>
 8004ba8:	b1d9      	cbz	r1, 8004be2 <HAL_RTC_SetTime+0x40>
  __HAL_LOCK(hrtc);
 8004baa:	7c03      	ldrb	r3, [r0, #16]
 8004bac:	2502      	movs	r5, #2
 8004bae:	2b01      	cmp	r3, #1
 8004bb0:	d044      	beq.n	8004c3c <HAL_RTC_SetTime+0x9a>
 8004bb2:	2301      	movs	r3, #1
  hrtc->State = HAL_RTC_STATE_BUSY;
 8004bb4:	7445      	strb	r5, [r0, #17]
  __HAL_LOCK(hrtc);
 8004bb6:	7403      	strb	r3, [r0, #16]
    counter_time = (uint32_t)(((uint32_t)sTime->Hours * 3600U) + \
 8004bb8:	7808      	ldrb	r0, [r1, #0]
                              ((uint32_t)sTime->Minutes * 60U) + \
 8004bba:	784d      	ldrb	r5, [r1, #1]
                              ((uint32_t)sTime->Seconds));
 8004bbc:	788f      	ldrb	r7, [r1, #2]
  if (Format == RTC_FORMAT_BIN)
 8004bbe:	b992      	cbnz	r2, 8004be6 <HAL_RTC_SetTime+0x44>
                              ((uint32_t)sTime->Minutes * 60U) + \
 8004bc0:	263c      	movs	r6, #60	; 0x3c
 8004bc2:	4375      	muls	r5, r6
    counter_time = (uint32_t)(((uint32_t)sTime->Hours * 3600U) + \
 8004bc4:	f44f 6661 	mov.w	r6, #3600	; 0xe10
 8004bc8:	fb06 5500 	mla	r5, r6, r0, r5
 8004bcc:	19ee      	adds	r6, r5, r7
  if (RTC_WriteTimeCounter(hrtc, counter_time) != HAL_OK)
 8004bce:	4631      	mov	r1, r6
 8004bd0:	4620      	mov	r0, r4
 8004bd2:	f7ff ffbe 	bl	8004b52 <RTC_WriteTimeCounter>
 8004bd6:	4605      	mov	r5, r0
 8004bd8:	b1b0      	cbz	r0, 8004c08 <HAL_RTC_SetTime+0x66>
    hrtc->State = HAL_RTC_STATE_ERROR;
 8004bda:	2304      	movs	r3, #4
 8004bdc:	7463      	strb	r3, [r4, #17]
    __HAL_UNLOCK(hrtc);
 8004bde:	2300      	movs	r3, #0
 8004be0:	7423      	strb	r3, [r4, #16]
    return HAL_ERROR;
 8004be2:	2501      	movs	r5, #1
 8004be4:	e02a      	b.n	8004c3c <HAL_RTC_SetTime+0x9a>
    counter_time = (((uint32_t)(RTC_Bcd2ToByte(sTime->Hours)) * 3600U) + \
 8004be6:	f7ff ff4b 	bl	8004a80 <RTC_Bcd2ToByte>
 8004bea:	4601      	mov	r1, r0
                    ((uint32_t)(RTC_Bcd2ToByte(sTime->Minutes)) * 60U) + \
 8004bec:	4628      	mov	r0, r5
 8004bee:	f7ff ff47 	bl	8004a80 <RTC_Bcd2ToByte>
 8004bf2:	263c      	movs	r6, #60	; 0x3c
 8004bf4:	4346      	muls	r6, r0
    counter_time = (((uint32_t)(RTC_Bcd2ToByte(sTime->Hours)) * 3600U) + \
 8004bf6:	f44f 6061 	mov.w	r0, #3600	; 0xe10
 8004bfa:	fb00 6601 	mla	r6, r0, r1, r6
                    ((uint32_t)(RTC_Bcd2ToByte(sTime->Seconds))));
 8004bfe:	4638      	mov	r0, r7
 8004c00:	f7ff ff3e 	bl	8004a80 <RTC_Bcd2ToByte>
    counter_time = (((uint32_t)(RTC_Bcd2ToByte(sTime->Hours)) * 3600U) + \
 8004c04:	4406      	add	r6, r0
 8004c06:	e7e2      	b.n	8004bce <HAL_RTC_SetTime+0x2c>
    CLEAR_BIT(hrtc->Instance->CRL, (RTC_FLAG_SEC | RTC_FLAG_OW));
 8004c08:	6822      	ldr	r2, [r4, #0]
    counter_alarm = RTC_ReadAlarmCounter(hrtc);
 8004c0a:	4620      	mov	r0, r4
    CLEAR_BIT(hrtc->Instance->CRL, (RTC_FLAG_SEC | RTC_FLAG_OW));
 8004c0c:	6853      	ldr	r3, [r2, #4]
 8004c0e:	f023 0305 	bic.w	r3, r3, #5
 8004c12:	6053      	str	r3, [r2, #4]
    counter_alarm = RTC_ReadAlarmCounter(hrtc);
 8004c14:	f7ff ff22 	bl	8004a5c <RTC_ReadAlarmCounter>
      if (counter_alarm < counter_time)
 8004c18:	4286      	cmp	r6, r0
 8004c1a:	d90b      	bls.n	8004c34 <HAL_RTC_SetTime+0x92>
        if (RTC_WriteAlarmCounter(hrtc, counter_alarm) != HAL_OK)
 8004c1c:	f500 31a8 	add.w	r1, r0, #86016	; 0x15000
 8004c20:	f501 71c0 	add.w	r1, r1, #384	; 0x180
 8004c24:	4620      	mov	r0, r4
 8004c26:	f7ff ffa8 	bl	8004b7a <RTC_WriteAlarmCounter>
 8004c2a:	b118      	cbz	r0, 8004c34 <HAL_RTC_SetTime+0x92>
          hrtc->State = HAL_RTC_STATE_ERROR;
 8004c2c:	2304      	movs	r3, #4
          __HAL_UNLOCK(hrtc);
 8004c2e:	7425      	strb	r5, [r4, #16]
          hrtc->State = HAL_RTC_STATE_ERROR;
 8004c30:	7463      	strb	r3, [r4, #17]
          return HAL_ERROR;
 8004c32:	e7d6      	b.n	8004be2 <HAL_RTC_SetTime+0x40>
    hrtc->State = HAL_RTC_STATE_READY;
 8004c34:	2301      	movs	r3, #1
 8004c36:	7463      	strb	r3, [r4, #17]
    __HAL_UNLOCK(hrtc);
 8004c38:	2300      	movs	r3, #0
 8004c3a:	7423      	strb	r3, [r4, #16]
}
 8004c3c:	4628      	mov	r0, r5
 8004c3e:	bdf8      	pop	{r3, r4, r5, r6, r7, pc}

08004c40 <HAL_RTC_GetTime>:
{
 8004c40:	e92d 47f0 	stmdb	sp!, {r4, r5, r6, r7, r8, r9, sl, lr}
 8004c44:	460e      	mov	r6, r1
 8004c46:	4617      	mov	r7, r2
  if ((hrtc == NULL) || (sTime == NULL))
 8004c48:	4605      	mov	r5, r0
 8004c4a:	b910      	cbnz	r0, 8004c52 <HAL_RTC_GetTime+0x12>
    return HAL_ERROR;
 8004c4c:	2001      	movs	r0, #1
}
 8004c4e:	e8bd 87f0 	ldmia.w	sp!, {r4, r5, r6, r7, r8, r9, sl, pc}
  if ((hrtc == NULL) || (sTime == NULL))
 8004c52:	2900      	cmp	r1, #0
 8004c54:	d0fa      	beq.n	8004c4c <HAL_RTC_GetTime+0xc>
  if (__HAL_RTC_OVERFLOW_GET_FLAG(hrtc, RTC_FLAG_OW))
 8004c56:	6803      	ldr	r3, [r0, #0]
 8004c58:	685b      	ldr	r3, [r3, #4]
 8004c5a:	f013 0804 	ands.w	r8, r3, #4
 8004c5e:	d1f5      	bne.n	8004c4c <HAL_RTC_GetTime+0xc>
  counter_time = RTC_ReadTimeCounter(hrtc);
 8004c60:	f7ff feea 	bl	8004a38 <RTC_ReadTimeCounter>
  hours = counter_time / 3600U;
 8004c64:	f44f 6361 	mov.w	r3, #3600	; 0xe10
 8004c68:	fbb0 f2f3 	udiv	r2, r0, r3
  counter_time = RTC_ReadTimeCounter(hrtc);
 8004c6c:	4604      	mov	r4, r0
  sTime->Minutes  = (uint8_t)((counter_time % 3600U) / 60U);
 8004c6e:	fb03 0312 	mls	r3, r3, r2, r0
 8004c72:	203c      	movs	r0, #60	; 0x3c
 8004c74:	fbb3 f1f0 	udiv	r1, r3, r0
  sTime->Seconds  = (uint8_t)((counter_time % 3600U) % 60U);
 8004c78:	fb00 3311 	mls	r3, r0, r1, r3
 8004c7c:	70b3      	strb	r3, [r6, #2]
  if (hours >= 24U)
 8004c7e:	4b4d      	ldr	r3, [pc, #308]	; (8004db4 <HAL_RTC_GetTime+0x174>)
  sTime->Minutes  = (uint8_t)((counter_time % 3600U) / 60U);
 8004c80:	7071      	strb	r1, [r6, #1]
  if (hours >= 24U)
 8004c82:	429c      	cmp	r4, r3
 8004c84:	f240 808b 	bls.w	8004d9e <HAL_RTC_GetTime+0x15e>
    days_elapsed = (hours / 24U);
 8004c88:	2318      	movs	r3, #24
 8004c8a:	fbb2 f9f3 	udiv	r9, r2, r3
    sTime->Hours = (hours % 24U);
 8004c8e:	fb03 2219 	mls	r2, r3, r9, r2
    counter_alarm = RTC_ReadAlarmCounter(hrtc);
 8004c92:	4628      	mov	r0, r5
    sTime->Hours = (hours % 24U);
 8004c94:	7032      	strb	r2, [r6, #0]
    counter_alarm = RTC_ReadAlarmCounter(hrtc);
 8004c96:	f7ff fee1 	bl	8004a5c <RTC_ReadAlarmCounter>
    if ((counter_alarm != RTC_ALARM_RESETVALUE) && (counter_alarm > counter_time))
 8004c9a:	f1b0 3fff 	cmp.w	r0, #4294967295
    counter_alarm = RTC_ReadAlarmCounter(hrtc);
 8004c9e:	4682      	mov	sl, r0
    if ((counter_alarm != RTC_ALARM_RESETVALUE) && (counter_alarm > counter_time))
 8004ca0:	d005      	beq.n	8004cae <HAL_RTC_GetTime+0x6e>
 8004ca2:	4284      	cmp	r4, r0
      counter_alarm = RTC_ALARM_RESETVALUE;
 8004ca4:	bf2c      	ite	cs
 8004ca6:	f04f 3aff 	movcs.w	sl, #4294967295
      counter_alarm -= counter_time;
 8004caa:	eba0 0a04 	subcc.w	sl, r0, r4
    counter_time -= (days_elapsed * 24U * 3600U);
 8004cae:	4942      	ldr	r1, [pc, #264]	; (8004db8 <HAL_RTC_GetTime+0x178>)
    if (RTC_WriteTimeCounter(hrtc, counter_time) != HAL_OK)
 8004cb0:	4628      	mov	r0, r5
    counter_time -= (days_elapsed * 24U * 3600U);
 8004cb2:	fb01 4419 	mls	r4, r1, r9, r4
    if (RTC_WriteTimeCounter(hrtc, counter_time) != HAL_OK)
 8004cb6:	4621      	mov	r1, r4
 8004cb8:	f7ff ff4b 	bl	8004b52 <RTC_WriteTimeCounter>
 8004cbc:	2800      	cmp	r0, #0
 8004cbe:	d1c5      	bne.n	8004c4c <HAL_RTC_GetTime+0xc>
    if (counter_alarm != RTC_ALARM_RESETVALUE)
 8004cc0:	f1ba 3fff 	cmp.w	sl, #4294967295
 8004cc4:	d027      	beq.n	8004d16 <HAL_RTC_GetTime+0xd6>
      if (RTC_WriteAlarmCounter(hrtc, counter_alarm) != HAL_OK)
 8004cc6:	eb04 010a 	add.w	r1, r4, sl
      if (RTC_WriteAlarmCounter(hrtc, counter_alarm) != HAL_OK)
 8004cca:	4628      	mov	r0, r5
 8004ccc:	f7ff ff55 	bl	8004b7a <RTC_WriteAlarmCounter>
 8004cd0:	2800      	cmp	r0, #0
 8004cd2:	d1bb      	bne.n	8004c4c <HAL_RTC_GetTime+0xc>
  year = hrtc->DateToUpdate.Year;
 8004cd4:	2264      	movs	r2, #100	; 0x64
 8004cd6:	f44f 71c8 	mov.w	r1, #400	; 0x190
    if ((month == 1U) || (month == 3U) || (month == 5U) || (month == 7U) || \
 8004cda:	f240 2cd5 	movw	ip, #725	; 0x2d5
  year = hrtc->DateToUpdate.Year;
 8004cde:	7be8      	ldrb	r0, [r5, #15]
  month = hrtc->DateToUpdate.Month;
 8004ce0:	7b6c      	ldrb	r4, [r5, #13]
  day = hrtc->DateToUpdate.Date;
 8004ce2:	7bab      	ldrb	r3, [r5, #14]
  for (loop = 0U; loop < DayElapsed; loop++)
 8004ce4:	45c1      	cmp	r9, r8
 8004ce6:	d118      	bne.n	8004d1a <HAL_RTC_GetTime+0xda>
  hrtc->DateToUpdate.Month = month;
 8004ce8:	b2e1      	uxtb	r1, r4
  hrtc->DateToUpdate.Date = day;
 8004cea:	b2da      	uxtb	r2, r3
  hrtc->DateToUpdate.Year = year;
 8004cec:	73e8      	strb	r0, [r5, #15]
  hrtc->DateToUpdate.Month = month;
 8004cee:	7369      	strb	r1, [r5, #13]
  hrtc->DateToUpdate.Date = day;
 8004cf0:	73aa      	strb	r2, [r5, #14]
  hrtc->DateToUpdate.WeekDay = RTC_WeekDayNum(year, month, day);
 8004cf2:	f7ff fecd 	bl	8004a90 <RTC_WeekDayNum>
 8004cf6:	7328      	strb	r0, [r5, #12]
  if (Format != RTC_FORMAT_BIN)
 8004cf8:	b15f      	cbz	r7, 8004d12 <HAL_RTC_GetTime+0xd2>
    sTime->Hours    = (uint8_t)RTC_ByteToBcd2(sTime->Hours);
 8004cfa:	7830      	ldrb	r0, [r6, #0]
 8004cfc:	f7ff feb5 	bl	8004a6a <RTC_ByteToBcd2>
 8004d00:	7030      	strb	r0, [r6, #0]
    sTime->Minutes  = (uint8_t)RTC_ByteToBcd2(sTime->Minutes);
 8004d02:	7870      	ldrb	r0, [r6, #1]
 8004d04:	f7ff feb1 	bl	8004a6a <RTC_ByteToBcd2>
 8004d08:	7070      	strb	r0, [r6, #1]
    sTime->Seconds  = (uint8_t)RTC_ByteToBcd2(sTime->Seconds);
 8004d0a:	78b0      	ldrb	r0, [r6, #2]
 8004d0c:	f7ff fead 	bl	8004a6a <RTC_ByteToBcd2>
 8004d10:	70b0      	strb	r0, [r6, #2]
  return HAL_OK;
 8004d12:	2000      	movs	r0, #0
 8004d14:	e79b      	b.n	8004c4e <HAL_RTC_GetTime+0xe>
      if (RTC_WriteAlarmCounter(hrtc, counter_alarm) != HAL_OK)
 8004d16:	4651      	mov	r1, sl
 8004d18:	e7d7      	b.n	8004cca <HAL_RTC_GetTime+0x8a>
    if ((month == 1U) || (month == 3U) || (month == 5U) || (month == 7U) || \
 8004d1a:	f104 3eff 	add.w	lr, r4, #4294967295
 8004d1e:	f1be 0f09 	cmp.w	lr, #9
 8004d22:	d90e      	bls.n	8004d42 <HAL_RTC_GetTime+0x102>
        (month == 8U) || (month == 10U) || (month == 12U))
 8004d24:	2c0c      	cmp	r4, #12
 8004d26:	d03c      	beq.n	8004da2 <HAL_RTC_GetTime+0x162>
    else if ((month == 4U) || (month == 6U) || (month == 9U) || (month == 11U))
 8004d28:	f024 0e02 	bic.w	lr, r4, #2
 8004d2c:	f1be 0f04 	cmp.w	lr, #4
 8004d30:	d002      	beq.n	8004d38 <HAL_RTC_GetTime+0xf8>
 8004d32:	f1be 0f09 	cmp.w	lr, #9
 8004d36:	d10b      	bne.n	8004d50 <HAL_RTC_GetTime+0x110>
      if (day < 30U)
 8004d38:	2b1d      	cmp	r3, #29
      if (day < 31U)
 8004d3a:	d90d      	bls.n	8004d58 <HAL_RTC_GetTime+0x118>
        day = 1U;
 8004d3c:	2301      	movs	r3, #1
        month++;
 8004d3e:	3401      	adds	r4, #1
        day = 1U;
 8004d40:	e034      	b.n	8004dac <HAL_RTC_GetTime+0x16c>
    if ((month == 1U) || (month == 3U) || (month == 5U) || (month == 7U) || \
 8004d42:	fa2c fe0e 	lsr.w	lr, ip, lr
 8004d46:	f01e 0f01 	tst.w	lr, #1
 8004d4a:	d0ed      	beq.n	8004d28 <HAL_RTC_GetTime+0xe8>
      if (day < 31U)
 8004d4c:	2b1e      	cmp	r3, #30
 8004d4e:	e7f4      	b.n	8004d3a <HAL_RTC_GetTime+0xfa>
    else if (month == 2U)
 8004d50:	2c02      	cmp	r4, #2
 8004d52:	d12b      	bne.n	8004dac <HAL_RTC_GetTime+0x16c>
      if (day < 28U)
 8004d54:	2b1b      	cmp	r3, #27
 8004d56:	d801      	bhi.n	8004d5c <HAL_RTC_GetTime+0x11c>
        day++;
 8004d58:	3301      	adds	r3, #1
 8004d5a:	e027      	b.n	8004dac <HAL_RTC_GetTime+0x16c>
      else if (day == 28U)
 8004d5c:	2b1c      	cmp	r3, #28
 8004d5e:	d117      	bne.n	8004d90 <HAL_RTC_GetTime+0x150>
  if ((nYear % 4U) != 0U)
 8004d60:	f010 0f03 	tst.w	r0, #3
        if (RTC_IsLeapYear(year))
 8004d64:	b283      	uxth	r3, r0
  if ((nYear % 4U) != 0U)
 8004d66:	d115      	bne.n	8004d94 <HAL_RTC_GetTime+0x154>
  if ((nYear % 100U) != 0U)
 8004d68:	fbb3 fef2 	udiv	lr, r3, r2
 8004d6c:	fb02 3e1e 	mls	lr, r2, lr, r3
 8004d70:	fa1f fe8e 	uxth.w	lr, lr
 8004d74:	f1be 0f00 	cmp.w	lr, #0
 8004d78:	d10f      	bne.n	8004d9a <HAL_RTC_GetTime+0x15a>
  if ((nYear % 400U) == 0U)
 8004d7a:	fbb3 fef1 	udiv	lr, r3, r1
 8004d7e:	fb01 331e 	mls	r3, r1, lr, r3
 8004d82:	b29b      	uxth	r3, r3
          day++;
 8004d84:	2b00      	cmp	r3, #0
 8004d86:	bf16      	itet	ne
 8004d88:	2301      	movne	r3, #1
 8004d8a:	231d      	moveq	r3, #29
 8004d8c:	2403      	movne	r4, #3
 8004d8e:	e00d      	b.n	8004dac <HAL_RTC_GetTime+0x16c>
      else if (day == 29U)
 8004d90:	2b1d      	cmp	r3, #29
 8004d92:	d10b      	bne.n	8004dac <HAL_RTC_GetTime+0x16c>
          day = 1U;
 8004d94:	2301      	movs	r3, #1
          month++;
 8004d96:	2403      	movs	r4, #3
 8004d98:	e008      	b.n	8004dac <HAL_RTC_GetTime+0x16c>
          day++;
 8004d9a:	231d      	movs	r3, #29
 8004d9c:	e006      	b.n	8004dac <HAL_RTC_GetTime+0x16c>
    sTime->Hours = hours;
 8004d9e:	7032      	strb	r2, [r6, #0]
 8004da0:	e7aa      	b.n	8004cf8 <HAL_RTC_GetTime+0xb8>
      if (day < 31U)
 8004da2:	2b1e      	cmp	r3, #30
 8004da4:	d9d8      	bls.n	8004d58 <HAL_RTC_GetTime+0x118>
          day = 1U;
 8004da6:	2301      	movs	r3, #1
          month = 1U;
 8004da8:	461c      	mov	r4, r3
          year++;
 8004daa:	3001      	adds	r0, #1
  for (loop = 0U; loop < DayElapsed; loop++)
 8004dac:	f108 0801 	add.w	r8, r8, #1
 8004db0:	e798      	b.n	8004ce4 <HAL_RTC_GetTime+0xa4>
 8004db2:	bf00      	nop
 8004db4:	0001517f 	.word	0x0001517f
 8004db8:	00015180 	.word	0x00015180

08004dbc <HAL_RTC_SetDate>:
{
 8004dbc:	b570      	push	{r4, r5, r6, lr}
 8004dbe:	460d      	mov	r5, r1
  if ((hrtc == NULL) || (sDate == NULL))
 8004dc0:	4604      	mov	r4, r0
 8004dc2:	b350      	cbz	r0, 8004e1a <HAL_RTC_SetDate+0x5e>
 8004dc4:	b349      	cbz	r1, 8004e1a <HAL_RTC_SetDate+0x5e>
  __HAL_LOCK(hrtc);
 8004dc6:	7c03      	ldrb	r3, [r0, #16]
 8004dc8:	2002      	movs	r0, #2
 8004dca:	2b01      	cmp	r3, #1
 8004dcc:	d048      	beq.n	8004e60 <HAL_RTC_SetDate+0xa4>
 8004dce:	2301      	movs	r3, #1
  hrtc->State = HAL_RTC_STATE_BUSY;
 8004dd0:	7460      	strb	r0, [r4, #17]
  __HAL_LOCK(hrtc);
 8004dd2:	7423      	strb	r3, [r4, #16]
  if (Format == RTC_FORMAT_BIN)
 8004dd4:	78c8      	ldrb	r0, [r1, #3]
 8004dd6:	bb12      	cbnz	r2, 8004e1e <HAL_RTC_SetDate+0x62>
    hrtc->DateToUpdate.Year  = sDate->Year;
 8004dd8:	73e0      	strb	r0, [r4, #15]
    hrtc->DateToUpdate.Month = sDate->Month;
 8004dda:	784b      	ldrb	r3, [r1, #1]
 8004ddc:	7363      	strb	r3, [r4, #13]
    hrtc->DateToUpdate.Date  = sDate->Date;
 8004dde:	788b      	ldrb	r3, [r1, #2]
 8004de0:	73a3      	strb	r3, [r4, #14]
  hrtc->DateToUpdate.WeekDay = RTC_WeekDayNum(hrtc->DateToUpdate.Year, hrtc->DateToUpdate.Month, hrtc->DateToUpdate.Date);
 8004de2:	7ba2      	ldrb	r2, [r4, #14]
 8004de4:	7b61      	ldrb	r1, [r4, #13]
 8004de6:	7be0      	ldrb	r0, [r4, #15]
 8004de8:	f7ff fe52 	bl	8004a90 <RTC_WeekDayNum>
 8004dec:	7320      	strb	r0, [r4, #12]
  sDate->WeekDay = hrtc->DateToUpdate.WeekDay;
 8004dee:	7028      	strb	r0, [r5, #0]
  counter_time = RTC_ReadTimeCounter(hrtc);
 8004df0:	4620      	mov	r0, r4
 8004df2:	f7ff fe21 	bl	8004a38 <RTC_ReadTimeCounter>
  if (hours > 24U)
 8004df6:	4b1b      	ldr	r3, [pc, #108]	; (8004e64 <HAL_RTC_SetDate+0xa8>)
 8004df8:	4298      	cmp	r0, r3
 8004dfa:	d92d      	bls.n	8004e58 <HAL_RTC_SetDate+0x9c>
    counter_time -= ((hours / 24U) * 24U * 3600U);
 8004dfc:	4d1a      	ldr	r5, [pc, #104]	; (8004e68 <HAL_RTC_SetDate+0xac>)
 8004dfe:	fbb0 f1f5 	udiv	r1, r0, r5
 8004e02:	fb05 0511 	mls	r5, r5, r1, r0
    if (RTC_WriteTimeCounter(hrtc, counter_time) != HAL_OK)
 8004e06:	4620      	mov	r0, r4
 8004e08:	4629      	mov	r1, r5
 8004e0a:	f7ff fea2 	bl	8004b52 <RTC_WriteTimeCounter>
 8004e0e:	4606      	mov	r6, r0
 8004e10:	b188      	cbz	r0, 8004e36 <HAL_RTC_SetDate+0x7a>
      hrtc->State = HAL_RTC_STATE_ERROR;
 8004e12:	2304      	movs	r3, #4
 8004e14:	7463      	strb	r3, [r4, #17]
      __HAL_UNLOCK(hrtc);
 8004e16:	2300      	movs	r3, #0
 8004e18:	7423      	strb	r3, [r4, #16]
    return HAL_ERROR;
 8004e1a:	2001      	movs	r0, #1
 8004e1c:	e020      	b.n	8004e60 <HAL_RTC_SetDate+0xa4>
    hrtc->DateToUpdate.Year  = RTC_Bcd2ToByte(sDate->Year);
 8004e1e:	f7ff fe2f 	bl	8004a80 <RTC_Bcd2ToByte>
 8004e22:	73e0      	strb	r0, [r4, #15]
    hrtc->DateToUpdate.Month = RTC_Bcd2ToByte(sDate->Month);
 8004e24:	7848      	ldrb	r0, [r1, #1]
 8004e26:	f7ff fe2b 	bl	8004a80 <RTC_Bcd2ToByte>
 8004e2a:	7360      	strb	r0, [r4, #13]
    hrtc->DateToUpdate.Date  = RTC_Bcd2ToByte(sDate->Date);
 8004e2c:	7888      	ldrb	r0, [r1, #2]
 8004e2e:	f7ff fe27 	bl	8004a80 <RTC_Bcd2ToByte>
 8004e32:	73a0      	strb	r0, [r4, #14]
 8004e34:	e7d5      	b.n	8004de2 <HAL_RTC_SetDate+0x26>
    counter_alarm = RTC_ReadAlarmCounter(hrtc);
 8004e36:	4620      	mov	r0, r4
 8004e38:	f7ff fe10 	bl	8004a5c <RTC_ReadAlarmCounter>
      if (counter_alarm < counter_time)
 8004e3c:	4285      	cmp	r5, r0
 8004e3e:	d90b      	bls.n	8004e58 <HAL_RTC_SetDate+0x9c>
        if (RTC_WriteAlarmCounter(hrtc, counter_alarm) != HAL_OK)
 8004e40:	f500 31a8 	add.w	r1, r0, #86016	; 0x15000
 8004e44:	f501 71c0 	add.w	r1, r1, #384	; 0x180
 8004e48:	4620      	mov	r0, r4
 8004e4a:	f7ff fe96 	bl	8004b7a <RTC_WriteAlarmCounter>
 8004e4e:	b118      	cbz	r0, 8004e58 <HAL_RTC_SetDate+0x9c>
          hrtc->State = HAL_RTC_STATE_ERROR;
 8004e50:	2304      	movs	r3, #4
          __HAL_UNLOCK(hrtc);
 8004e52:	7426      	strb	r6, [r4, #16]
          hrtc->State = HAL_RTC_STATE_ERROR;
 8004e54:	7463      	strb	r3, [r4, #17]
          return HAL_ERROR;
 8004e56:	e7e0      	b.n	8004e1a <HAL_RTC_SetDate+0x5e>
  hrtc->State = HAL_RTC_STATE_READY ;
 8004e58:	2301      	movs	r3, #1
  __HAL_UNLOCK(hrtc);
 8004e5a:	2000      	movs	r0, #0
  hrtc->State = HAL_RTC_STATE_READY ;
 8004e5c:	7463      	strb	r3, [r4, #17]
  __HAL_UNLOCK(hrtc);
 8004e5e:	7420      	strb	r0, [r4, #16]
}
 8004e60:	bd70      	pop	{r4, r5, r6, pc}
 8004e62:	bf00      	nop
 8004e64:	00015f8f 	.word	0x00015f8f
 8004e68:	00015180 	.word	0x00015180

08004e6c <HAL_RTC_GetDate>:
{
 8004e6c:	b5f7      	push	{r0, r1, r2, r4, r5, r6, r7, lr}
 8004e6e:	4616      	mov	r6, r2
  RTC_TimeTypeDef stime = {0U};
 8004e70:	2200      	movs	r2, #0
{
 8004e72:	460c      	mov	r4, r1
  if ((hrtc == NULL) || (sDate == NULL))
 8004e74:	4605      	mov	r5, r0
  RTC_TimeTypeDef stime = {0U};
 8004e76:	f8ad 2004 	strh.w	r2, [sp, #4]
 8004e7a:	f88d 2006 	strb.w	r2, [sp, #6]
  if ((hrtc == NULL) || (sDate == NULL))
 8004e7e:	b918      	cbnz	r0, 8004e88 <HAL_RTC_GetDate+0x1c>
    return HAL_ERROR;
 8004e80:	2101      	movs	r1, #1
}
 8004e82:	4608      	mov	r0, r1
 8004e84:	b003      	add	sp, #12
 8004e86:	bdf0      	pop	{r4, r5, r6, r7, pc}
  if ((hrtc == NULL) || (sDate == NULL))
 8004e88:	2900      	cmp	r1, #0
 8004e8a:	d0f9      	beq.n	8004e80 <HAL_RTC_GetDate+0x14>
  if (HAL_RTC_GetTime(hrtc, &stime, RTC_FORMAT_BIN) != HAL_OK)
 8004e8c:	a901      	add	r1, sp, #4
 8004e8e:	f7ff fed7 	bl	8004c40 <HAL_RTC_GetTime>
 8004e92:	4601      	mov	r1, r0
 8004e94:	2800      	cmp	r0, #0
 8004e96:	d1f3      	bne.n	8004e80 <HAL_RTC_GetDate+0x14>
  sDate->WeekDay  = hrtc->DateToUpdate.WeekDay;
 8004e98:	7b2b      	ldrb	r3, [r5, #12]
 8004e9a:	7023      	strb	r3, [r4, #0]
  sDate->Year     = hrtc->DateToUpdate.Year;
 8004e9c:	7be8      	ldrb	r0, [r5, #15]
 8004e9e:	70e0      	strb	r0, [r4, #3]
  sDate->Month    = hrtc->DateToUpdate.Month;
 8004ea0:	7b6f      	ldrb	r7, [r5, #13]
 8004ea2:	7067      	strb	r7, [r4, #1]
  sDate->Date     = hrtc->DateToUpdate.Date;
 8004ea4:	7baa      	ldrb	r2, [r5, #14]
 8004ea6:	70a2      	strb	r2, [r4, #2]
  if (Format != RTC_FORMAT_BIN)
 8004ea8:	2e00      	cmp	r6, #0
 8004eaa:	d0ea      	beq.n	8004e82 <HAL_RTC_GetDate+0x16>
    sDate->Year   = (uint8_t)RTC_ByteToBcd2(sDate->Year);
 8004eac:	f7ff fddd 	bl	8004a6a <RTC_ByteToBcd2>
 8004eb0:	70e0      	strb	r0, [r4, #3]
    sDate->Month  = (uint8_t)RTC_ByteToBcd2(sDate->Month);
 8004eb2:	4638      	mov	r0, r7
 8004eb4:	f7ff fdd9 	bl	8004a6a <RTC_ByteToBcd2>
 8004eb8:	7060      	strb	r0, [r4, #1]
    sDate->Date   = (uint8_t)RTC_ByteToBcd2(sDate->Date);
 8004eba:	4610      	mov	r0, r2
 8004ebc:	f7ff fdd5 	bl	8004a6a <RTC_ByteToBcd2>
 8004ec0:	70a0      	strb	r0, [r4, #2]
 8004ec2:	e7de      	b.n	8004e82 <HAL_RTC_GetDate+0x16>

08004ec4 <HAL_RTC_WaitForSynchro>:
{
 8004ec4:	b538      	push	{r3, r4, r5, lr}
  if (hrtc == NULL)
 8004ec6:	4604      	mov	r4, r0
 8004ec8:	b1a8      	cbz	r0, 8004ef6 <HAL_RTC_WaitForSynchro+0x32>
  CLEAR_BIT(hrtc->Instance->CRL, RTC_FLAG_RSF);
 8004eca:	6802      	ldr	r2, [r0, #0]
 8004ecc:	6853      	ldr	r3, [r2, #4]
 8004ece:	f023 0308 	bic.w	r3, r3, #8
 8004ed2:	6053      	str	r3, [r2, #4]
  tickstart = HAL_GetTick();
 8004ed4:	f7fe fdb4 	bl	8003a40 <HAL_GetTick>
 8004ed8:	4605      	mov	r5, r0
  while ((hrtc->Instance->CRL & RTC_FLAG_RSF) == (uint32_t)RESET)
 8004eda:	6823      	ldr	r3, [r4, #0]
 8004edc:	685b      	ldr	r3, [r3, #4]
 8004ede:	071b      	lsls	r3, r3, #28
 8004ee0:	d501      	bpl.n	8004ee6 <HAL_RTC_WaitForSynchro+0x22>
  return HAL_OK;
 8004ee2:	2000      	movs	r0, #0
}
 8004ee4:	bd38      	pop	{r3, r4, r5, pc}
    if ((HAL_GetTick() - tickstart) >  RTC_TIMEOUT_VALUE)
 8004ee6:	f7fe fdab 	bl	8003a40 <HAL_GetTick>
 8004eea:	1b40      	subs	r0, r0, r5
 8004eec:	f5b0 7f7a 	cmp.w	r0, #1000	; 0x3e8
 8004ef0:	d9f3      	bls.n	8004eda <HAL_RTC_WaitForSynchro+0x16>
      return HAL_TIMEOUT;
 8004ef2:	2003      	movs	r0, #3
 8004ef4:	e7f6      	b.n	8004ee4 <HAL_RTC_WaitForSynchro+0x20>
    return HAL_ERROR;
 8004ef6:	2001      	movs	r0, #1
 8004ef8:	e7f4      	b.n	8004ee4 <HAL_RTC_WaitForSynchro+0x20>
	...

08004efc <HAL_RTC_Init>:
{
 8004efc:	b510      	push	{r4, lr}
  if (hrtc == NULL)
 8004efe:	4604      	mov	r4, r0
 8004f00:	b170      	cbz	r0, 8004f20 <HAL_RTC_Init+0x24>
  if (hrtc->State == HAL_RTC_STATE_RESET)
 8004f02:	7c43      	ldrb	r3, [r0, #17]
 8004f04:	f003 02ff 	and.w	r2, r3, #255	; 0xff
 8004f08:	b913      	cbnz	r3, 8004f10 <HAL_RTC_Init+0x14>
    hrtc->Lock = HAL_UNLOCKED;
 8004f0a:	7402      	strb	r2, [r0, #16]
    HAL_RTC_MspInit(hrtc);
 8004f0c:	f7fd f948 	bl	80021a0 <HAL_RTC_MspInit>
  hrtc->State = HAL_RTC_STATE_BUSY;
 8004f10:	2302      	movs	r3, #2
  if (HAL_RTC_WaitForSynchro(hrtc) != HAL_OK)
 8004f12:	4620      	mov	r0, r4
  hrtc->State = HAL_RTC_STATE_BUSY;
 8004f14:	7463      	strb	r3, [r4, #17]
  if (HAL_RTC_WaitForSynchro(hrtc) != HAL_OK)
 8004f16:	f7ff ffd5 	bl	8004ec4 <HAL_RTC_WaitForSynchro>
 8004f1a:	b118      	cbz	r0, 8004f24 <HAL_RTC_Init+0x28>
        hrtc->State = HAL_RTC_STATE_ERROR;
 8004f1c:	2304      	movs	r3, #4
 8004f1e:	7463      	strb	r3, [r4, #17]
    return HAL_ERROR;
 8004f20:	2001      	movs	r0, #1
 8004f22:	e036      	b.n	8004f92 <HAL_RTC_Init+0x96>
  if (RTC_EnterInitMode(hrtc) != HAL_OK)
 8004f24:	4620      	mov	r0, r4
 8004f26:	f7ff fde5 	bl	8004af4 <RTC_EnterInitMode>
 8004f2a:	2800      	cmp	r0, #0
 8004f2c:	d1f6      	bne.n	8004f1c <HAL_RTC_Init+0x20>
    CLEAR_BIT(hrtc->Instance->CRL, (RTC_FLAG_OW | RTC_FLAG_ALRAF | RTC_FLAG_SEC));
 8004f2e:	6822      	ldr	r2, [r4, #0]
    if (hrtc->Init.OutPut != RTC_OUTPUTSOURCE_NONE)
 8004f30:	68a0      	ldr	r0, [r4, #8]
    CLEAR_BIT(hrtc->Instance->CRL, (RTC_FLAG_OW | RTC_FLAG_ALRAF | RTC_FLAG_SEC));
 8004f32:	6853      	ldr	r3, [r2, #4]
 8004f34:	f023 0307 	bic.w	r3, r3, #7
 8004f38:	6053      	str	r3, [r2, #4]
    if (hrtc->Init.OutPut != RTC_OUTPUTSOURCE_NONE)
 8004f3a:	4a16      	ldr	r2, [pc, #88]	; (8004f94 <HAL_RTC_Init+0x98>)
 8004f3c:	b118      	cbz	r0, 8004f46 <HAL_RTC_Init+0x4a>
      CLEAR_BIT(BKP->CR, BKP_CR_TPE);
 8004f3e:	6b11      	ldr	r1, [r2, #48]	; 0x30
 8004f40:	f021 0101 	bic.w	r1, r1, #1
 8004f44:	6311      	str	r1, [r2, #48]	; 0x30
    MODIFY_REG(BKP->RTCCR, (BKP_RTCCR_CCO | BKP_RTCCR_ASOE | BKP_RTCCR_ASOS), hrtc->Init.OutPut);
 8004f46:	6ad3      	ldr	r3, [r2, #44]	; 0x2c
 8004f48:	f423 7360 	bic.w	r3, r3, #896	; 0x380
 8004f4c:	4303      	orrs	r3, r0
 8004f4e:	62d3      	str	r3, [r2, #44]	; 0x2c
    if (hrtc->Init.AsynchPrediv != RTC_AUTO_1_SECOND)
 8004f50:	6860      	ldr	r0, [r4, #4]
 8004f52:	1c43      	adds	r3, r0, #1
 8004f54:	d105      	bne.n	8004f62 <HAL_RTC_Init+0x66>
      prescaler = HAL_RCCEx_GetPeriphCLKFreq(RCC_PERIPHCLK_RTC);
 8004f56:	2001      	movs	r0, #1
 8004f58:	f7ff fcfc 	bl	8004954 <HAL_RCCEx_GetPeriphCLKFreq>
      if (prescaler == 0U)
 8004f5c:	2800      	cmp	r0, #0
 8004f5e:	d0dd      	beq.n	8004f1c <HAL_RTC_Init+0x20>
        prescaler = prescaler - 1U;
 8004f60:	3801      	subs	r0, #1
    MODIFY_REG(hrtc->Instance->PRLH, RTC_PRLH_PRL, (prescaler >> 16U));
 8004f62:	6822      	ldr	r2, [r4, #0]
 8004f64:	6893      	ldr	r3, [r2, #8]
 8004f66:	f023 030f 	bic.w	r3, r3, #15
 8004f6a:	ea43 4310 	orr.w	r3, r3, r0, lsr #16
 8004f6e:	6093      	str	r3, [r2, #8]
    MODIFY_REG(hrtc->Instance->PRLL, RTC_PRLL_PRL, (prescaler & RTC_PRLL_PRL));
 8004f70:	68d3      	ldr	r3, [r2, #12]
 8004f72:	b280      	uxth	r0, r0
 8004f74:	0c1b      	lsrs	r3, r3, #16
 8004f76:	041b      	lsls	r3, r3, #16
 8004f78:	4318      	orrs	r0, r3
 8004f7a:	60d0      	str	r0, [r2, #12]
    if (RTC_ExitInitMode(hrtc) != HAL_OK)
 8004f7c:	4620      	mov	r0, r4
 8004f7e:	f7ff fdd0 	bl	8004b22 <RTC_ExitInitMode>
 8004f82:	2301      	movs	r3, #1
 8004f84:	b110      	cbz	r0, 8004f8c <HAL_RTC_Init+0x90>
      hrtc->State = HAL_RTC_STATE_ERROR;
 8004f86:	2204      	movs	r2, #4
 8004f88:	7462      	strb	r2, [r4, #17]
      return HAL_ERROR;
 8004f8a:	e7c9      	b.n	8004f20 <HAL_RTC_Init+0x24>
    hrtc->DateToUpdate.Month = RTC_MONTH_JANUARY;
 8004f8c:	7363      	strb	r3, [r4, #13]
    hrtc->DateToUpdate.Date = 0x01U;
 8004f8e:	81e3      	strh	r3, [r4, #14]
    hrtc->State = HAL_RTC_STATE_READY;
 8004f90:	7463      	strb	r3, [r4, #17]
}
 8004f92:	bd10      	pop	{r4, pc}
 8004f94:	40006c00 	.word	0x40006c00

08004f98 <SPI_WaitFlagStateUntilTimeout.constprop.0>:
  * @param  State flag state to check
  * @param  Timeout Timeout duration
  * @param  Tickstart tick start value
  * @retval HAL status
  */
static HAL_StatusTypeDef SPI_WaitFlagStateUntilTimeout(SPI_HandleTypeDef *hspi, uint32_t Flag, FlagStatus State,
 8004f98:	e92d 41f3 	stmdb	sp!, {r0, r1, r4, r5, r6, r7, r8, lr}
 8004f9c:	461c      	mov	r4, r3
 8004f9e:	4616      	mov	r6, r2
 8004fa0:	460f      	mov	r7, r1
 8004fa2:	4605      	mov	r5, r0
  __IO uint32_t count;
  uint32_t tmp_timeout;
  uint32_t tmp_tickstart;

  /* Adjust Timeout value  in case of end of transfer */
  tmp_timeout   = Timeout - (HAL_GetTick() - Tickstart);
 8004fa4:	f7fe fd4c 	bl	8003a40 <HAL_GetTick>
 8004fa8:	4434      	add	r4, r6
 8004faa:	1a24      	subs	r4, r4, r0
  tmp_tickstart = HAL_GetTick();
 8004fac:	f7fe fd48 	bl	8003a40 <HAL_GetTick>
 8004fb0:	4680      	mov	r8, r0

  /* Calculate Timeout based on a software loop to avoid blocking issue if Systick is disabled */
  count = tmp_timeout * ((SystemCoreClock * 32U) >> 20U);
 8004fb2:	4b23      	ldr	r3, [pc, #140]	; (8005040 <SPI_WaitFlagStateUntilTimeout.constprop.0+0xa8>)
 8004fb4:	681b      	ldr	r3, [r3, #0]
 8004fb6:	f3c3 33cb 	ubfx	r3, r3, #15, #12
 8004fba:	4363      	muls	r3, r4

  while ((__HAL_SPI_GET_FLAG(hspi, Flag) ? SET : RESET) != State)
 8004fbc:	682a      	ldr	r2, [r5, #0]
      /* If Systick is disabled or not incremented, deactivate timeout to go in disable loop procedure */
      if(count == 0U)
      {
        tmp_timeout = 0U;
      }
      count--;
 8004fbe:	9301      	str	r3, [sp, #4]
  while ((__HAL_SPI_GET_FLAG(hspi, Flag) ? SET : RESET) != State)
 8004fc0:	6893      	ldr	r3, [r2, #8]
 8004fc2:	ea37 0303 	bics.w	r3, r7, r3
 8004fc6:	d001      	beq.n	8004fcc <SPI_WaitFlagStateUntilTimeout.constprop.0+0x34>
    }
  }

  return HAL_OK;
 8004fc8:	2000      	movs	r0, #0
 8004fca:	e02e      	b.n	800502a <SPI_WaitFlagStateUntilTimeout.constprop.0+0x92>
    if (Timeout != HAL_MAX_DELAY)
 8004fcc:	1c73      	adds	r3, r6, #1
 8004fce:	d0f7      	beq.n	8004fc0 <SPI_WaitFlagStateUntilTimeout.constprop.0+0x28>
      if (((HAL_GetTick() - tmp_tickstart) >= tmp_timeout) || (tmp_timeout == 0U))
 8004fd0:	f7fe fd36 	bl	8003a40 <HAL_GetTick>
 8004fd4:	eba0 0008 	sub.w	r0, r0, r8
 8004fd8:	42a0      	cmp	r0, r4
 8004fda:	d329      	bcc.n	8005030 <SPI_WaitFlagStateUntilTimeout.constprop.0+0x98>
        __HAL_SPI_DISABLE_IT(hspi, (SPI_IT_TXE | SPI_IT_RXNE | SPI_IT_ERR));
 8004fdc:	682b      	ldr	r3, [r5, #0]
 8004fde:	685a      	ldr	r2, [r3, #4]
 8004fe0:	f022 02e0 	bic.w	r2, r2, #224	; 0xe0
 8004fe4:	605a      	str	r2, [r3, #4]
        if ((hspi->Init.Mode == SPI_MODE_MASTER) && ((hspi->Init.Direction == SPI_DIRECTION_1LINE)
 8004fe6:	686a      	ldr	r2, [r5, #4]
 8004fe8:	f5b2 7f82 	cmp.w	r2, #260	; 0x104
 8004fec:	d10a      	bne.n	8005004 <SPI_WaitFlagStateUntilTimeout.constprop.0+0x6c>
 8004fee:	68aa      	ldr	r2, [r5, #8]
 8004ff0:	f5b2 4f00 	cmp.w	r2, #32768	; 0x8000
 8004ff4:	d002      	beq.n	8004ffc <SPI_WaitFlagStateUntilTimeout.constprop.0+0x64>
                                                     || (hspi->Init.Direction == SPI_DIRECTION_2LINES_RXONLY)))
 8004ff6:	f5b2 6f80 	cmp.w	r2, #1024	; 0x400
 8004ffa:	d103      	bne.n	8005004 <SPI_WaitFlagStateUntilTimeout.constprop.0+0x6c>
          __HAL_SPI_DISABLE(hspi);
 8004ffc:	681a      	ldr	r2, [r3, #0]
 8004ffe:	f022 0240 	bic.w	r2, r2, #64	; 0x40
 8005002:	601a      	str	r2, [r3, #0]
        if (hspi->Init.CRCCalculation == SPI_CRCCALCULATION_ENABLE)
 8005004:	6aaa      	ldr	r2, [r5, #40]	; 0x28
 8005006:	f5b2 5f00 	cmp.w	r2, #8192	; 0x2000
 800500a:	d107      	bne.n	800501c <SPI_WaitFlagStateUntilTimeout.constprop.0+0x84>
          SPI_RESET_CRC(hspi);
 800500c:	681a      	ldr	r2, [r3, #0]
 800500e:	f422 5200 	bic.w	r2, r2, #8192	; 0x2000
 8005012:	601a      	str	r2, [r3, #0]
 8005014:	681a      	ldr	r2, [r3, #0]
 8005016:	f442 5200 	orr.w	r2, r2, #8192	; 0x2000
 800501a:	601a      	str	r2, [r3, #0]
        hspi->State = HAL_SPI_STATE_READY;
 800501c:	2301      	movs	r3, #1
 800501e:	f885 3051 	strb.w	r3, [r5, #81]	; 0x51
        __HAL_UNLOCK(hspi);
 8005022:	2300      	movs	r3, #0
        return HAL_TIMEOUT;
 8005024:	2003      	movs	r0, #3
        __HAL_UNLOCK(hspi);
 8005026:	f885 3050 	strb.w	r3, [r5, #80]	; 0x50
}
 800502a:	b002      	add	sp, #8
 800502c:	e8bd 81f0 	ldmia.w	sp!, {r4, r5, r6, r7, r8, pc}
      if(count == 0U)
 8005030:	9b01      	ldr	r3, [sp, #4]
        tmp_timeout = 0U;
 8005032:	2b00      	cmp	r3, #0
      count--;
 8005034:	9b01      	ldr	r3, [sp, #4]
        tmp_timeout = 0U;
 8005036:	bf08      	it	eq
 8005038:	2400      	moveq	r4, #0
      count--;
 800503a:	3b01      	subs	r3, #1
 800503c:	e7be      	b.n	8004fbc <SPI_WaitFlagStateUntilTimeout.constprop.0+0x24>
 800503e:	bf00      	nop
 8005040:	20000008 	.word	0x20000008

08005044 <SPI_EndRxTxTransaction>:
  * @param  Timeout Timeout duration
  * @param  Tickstart tick start value
  * @retval HAL status
  */
static HAL_StatusTypeDef SPI_EndRxTxTransaction(SPI_HandleTypeDef *hspi, uint32_t Timeout, uint32_t Tickstart)
{
 8005044:	b510      	push	{r4, lr}
 8005046:	4613      	mov	r3, r2
  /* Control the BSY flag */
  if (SPI_WaitFlagStateUntilTimeout(hspi, SPI_FLAG_BSY, RESET, Timeout, Tickstart) != HAL_OK)
 8005048:	460a      	mov	r2, r1
 800504a:	2180      	movs	r1, #128	; 0x80
{
 800504c:	4604      	mov	r4, r0
  if (SPI_WaitFlagStateUntilTimeout(hspi, SPI_FLAG_BSY, RESET, Timeout, Tickstart) != HAL_OK)
 800504e:	f7ff ffa3 	bl	8004f98 <SPI_WaitFlagStateUntilTimeout.constprop.0>
 8005052:	b120      	cbz	r0, 800505e <SPI_EndRxTxTransaction+0x1a>
  {
    SET_BIT(hspi->ErrorCode, HAL_SPI_ERROR_FLAG);
    return HAL_TIMEOUT;
 8005054:	2003      	movs	r0, #3
    SET_BIT(hspi->ErrorCode, HAL_SPI_ERROR_FLAG);
 8005056:	6d63      	ldr	r3, [r4, #84]	; 0x54
 8005058:	f043 0320 	orr.w	r3, r3, #32
 800505c:	6563      	str	r3, [r4, #84]	; 0x54
  }
  return HAL_OK;
}
 800505e:	bd10      	pop	{r4, pc}

08005060 <HAL_SPI_Init>:
{
 8005060:	b510      	push	{r4, lr}
  if (hspi == NULL)
 8005062:	4604      	mov	r4, r0
 8005064:	2800      	cmp	r0, #0
 8005066:	d051      	beq.n	800510c <HAL_SPI_Init+0xac>
  if (hspi->Init.TIMode == SPI_TIMODE_DISABLE)
 8005068:	6a43      	ldr	r3, [r0, #36]	; 0x24
 800506a:	2b00      	cmp	r3, #0
 800506c:	d14a      	bne.n	8005104 <HAL_SPI_Init+0xa4>
    if (hspi->Init.Mode == SPI_MODE_MASTER)
 800506e:	6842      	ldr	r2, [r0, #4]
 8005070:	f5b2 7f82 	cmp.w	r2, #260	; 0x104
 8005074:	d000      	beq.n	8005078 <HAL_SPI_Init+0x18>
      hspi->Init.BaudRatePrescaler = SPI_BAUDRATEPRESCALER_2;
 8005076:	61c3      	str	r3, [r0, #28]
  hspi->Init.CRCCalculation = SPI_CRCCALCULATION_DISABLE;
 8005078:	2300      	movs	r3, #0
 800507a:	62a3      	str	r3, [r4, #40]	; 0x28
  if (hspi->State == HAL_SPI_STATE_RESET)
 800507c:	f894 3051 	ldrb.w	r3, [r4, #81]	; 0x51
 8005080:	f003 02ff 	and.w	r2, r3, #255	; 0xff
 8005084:	b923      	cbnz	r3, 8005090 <HAL_SPI_Init+0x30>
    HAL_SPI_MspInit(hspi);
 8005086:	4620      	mov	r0, r4
    hspi->Lock = HAL_UNLOCKED;
 8005088:	f884 2050 	strb.w	r2, [r4, #80]	; 0x50
    HAL_SPI_MspInit(hspi);
 800508c:	f7fd f8a6 	bl	80021dc <HAL_SPI_MspInit>
  hspi->State = HAL_SPI_STATE_BUSY;
 8005090:	2302      	movs	r3, #2
  __HAL_SPI_DISABLE(hspi);
 8005092:	6822      	ldr	r2, [r4, #0]
  hspi->State = HAL_SPI_STATE_BUSY;
 8005094:	f884 3051 	strb.w	r3, [r4, #81]	; 0x51
  __HAL_SPI_DISABLE(hspi);
 8005098:	6813      	ldr	r3, [r2, #0]
  WRITE_REG(hspi->Instance->CR1, ((hspi->Init.Mode & (SPI_CR1_MSTR | SPI_CR1_SSI)) |
 800509a:	68a0      	ldr	r0, [r4, #8]
  __HAL_SPI_DISABLE(hspi);
 800509c:	f023 0340 	bic.w	r3, r3, #64	; 0x40
 80050a0:	6013      	str	r3, [r2, #0]
  WRITE_REG(hspi->Instance->CR1, ((hspi->Init.Mode & (SPI_CR1_MSTR | SPI_CR1_SSI)) |
 80050a2:	6863      	ldr	r3, [r4, #4]
 80050a4:	f400 4004 	and.w	r0, r0, #33792	; 0x8400
 80050a8:	f403 7382 	and.w	r3, r3, #260	; 0x104
 80050ac:	4303      	orrs	r3, r0
 80050ae:	68e0      	ldr	r0, [r4, #12]
 80050b0:	69a1      	ldr	r1, [r4, #24]
 80050b2:	f400 6000 	and.w	r0, r0, #2048	; 0x800
 80050b6:	4303      	orrs	r3, r0
 80050b8:	6920      	ldr	r0, [r4, #16]
 80050ba:	f000 0002 	and.w	r0, r0, #2
 80050be:	4303      	orrs	r3, r0
 80050c0:	6960      	ldr	r0, [r4, #20]
 80050c2:	f000 0001 	and.w	r0, r0, #1
 80050c6:	4303      	orrs	r3, r0
 80050c8:	f401 7000 	and.w	r0, r1, #512	; 0x200
 80050cc:	4303      	orrs	r3, r0
 80050ce:	69e0      	ldr	r0, [r4, #28]
  WRITE_REG(hspi->Instance->CR2, ((hspi->Init.NSS >> 16U) & SPI_CR2_SSOE));
 80050d0:	0c09      	lsrs	r1, r1, #16
  WRITE_REG(hspi->Instance->CR1, ((hspi->Init.Mode & (SPI_CR1_MSTR | SPI_CR1_SSI)) |
 80050d2:	f000 0038 	and.w	r0, r0, #56	; 0x38
 80050d6:	4303      	orrs	r3, r0
 80050d8:	6a20      	ldr	r0, [r4, #32]
  WRITE_REG(hspi->Instance->CR2, ((hspi->Init.NSS >> 16U) & SPI_CR2_SSOE));
 80050da:	f001 0104 	and.w	r1, r1, #4
  WRITE_REG(hspi->Instance->CR1, ((hspi->Init.Mode & (SPI_CR1_MSTR | SPI_CR1_SSI)) |
 80050de:	f000 0080 	and.w	r0, r0, #128	; 0x80
 80050e2:	4303      	orrs	r3, r0
 80050e4:	6aa0      	ldr	r0, [r4, #40]	; 0x28
 80050e6:	f400 5000 	and.w	r0, r0, #8192	; 0x2000
 80050ea:	4303      	orrs	r3, r0
 80050ec:	6013      	str	r3, [r2, #0]
  WRITE_REG(hspi->Instance->CR2, ((hspi->Init.NSS >> 16U) & SPI_CR2_SSOE));
 80050ee:	6051      	str	r1, [r2, #4]
  CLEAR_BIT(hspi->Instance->I2SCFGR, SPI_I2SCFGR_I2SMOD);
 80050f0:	69d3      	ldr	r3, [r2, #28]
  hspi->ErrorCode = HAL_SPI_ERROR_NONE;
 80050f2:	2000      	movs	r0, #0
  CLEAR_BIT(hspi->Instance->I2SCFGR, SPI_I2SCFGR_I2SMOD);
 80050f4:	f423 6300 	bic.w	r3, r3, #2048	; 0x800
 80050f8:	61d3      	str	r3, [r2, #28]
  hspi->State     = HAL_SPI_STATE_READY;
 80050fa:	2301      	movs	r3, #1
  hspi->ErrorCode = HAL_SPI_ERROR_NONE;
 80050fc:	6560      	str	r0, [r4, #84]	; 0x54
  hspi->State     = HAL_SPI_STATE_READY;
 80050fe:	f884 3051 	strb.w	r3, [r4, #81]	; 0x51
}
 8005102:	bd10      	pop	{r4, pc}
    hspi->Init.CLKPolarity = SPI_POLARITY_LOW;
 8005104:	2300      	movs	r3, #0
    hspi->Init.CLKPhase    = SPI_PHASE_1EDGE;
 8005106:	e9c0 3304 	strd	r3, r3, [r0, #16]
 800510a:	e7b5      	b.n	8005078 <HAL_SPI_Init+0x18>
    return HAL_ERROR;
 800510c:	2001      	movs	r0, #1
 800510e:	e7f8      	b.n	8005102 <HAL_SPI_Init+0xa2>

08005110 <HAL_SPI_Transmit>:
{
 8005110:	e92d 41f3 	stmdb	sp!, {r0, r1, r4, r5, r6, r7, r8, lr}
 8005114:	461e      	mov	r6, r3
  __HAL_LOCK(hspi);
 8005116:	f890 3050 	ldrb.w	r3, [r0, #80]	; 0x50
{
 800511a:	4604      	mov	r4, r0
  __HAL_LOCK(hspi);
 800511c:	2b01      	cmp	r3, #1
{
 800511e:	460d      	mov	r5, r1
 8005120:	4617      	mov	r7, r2
  __HAL_LOCK(hspi);
 8005122:	f000 80a0 	beq.w	8005266 <HAL_SPI_Transmit+0x156>
 8005126:	2301      	movs	r3, #1
 8005128:	f880 3050 	strb.w	r3, [r0, #80]	; 0x50
  tickstart = HAL_GetTick();
 800512c:	f7fe fc88 	bl	8003a40 <HAL_GetTick>
  if (hspi->State != HAL_SPI_STATE_READY)
 8005130:	f894 3051 	ldrb.w	r3, [r4, #81]	; 0x51
  tickstart = HAL_GetTick();
 8005134:	4680      	mov	r8, r0
  if (hspi->State != HAL_SPI_STATE_READY)
 8005136:	2b01      	cmp	r3, #1
 8005138:	b2d8      	uxtb	r0, r3
 800513a:	f040 8092 	bne.w	8005262 <HAL_SPI_Transmit+0x152>
  if ((pData == NULL) || (Size == 0U))
 800513e:	2d00      	cmp	r5, #0
 8005140:	d05d      	beq.n	80051fe <HAL_SPI_Transmit+0xee>
 8005142:	2f00      	cmp	r7, #0
 8005144:	d05b      	beq.n	80051fe <HAL_SPI_Transmit+0xee>
  hspi->State       = HAL_SPI_STATE_BUSY_TX;
 8005146:	2303      	movs	r3, #3
 8005148:	f884 3051 	strb.w	r3, [r4, #81]	; 0x51
  hspi->ErrorCode   = HAL_SPI_ERROR_NONE;
 800514c:	2300      	movs	r3, #0
  if (hspi->Init.Direction == SPI_DIRECTION_1LINE)
 800514e:	68a2      	ldr	r2, [r4, #8]
  hspi->ErrorCode   = HAL_SPI_ERROR_NONE;
 8005150:	6563      	str	r3, [r4, #84]	; 0x54
  if (hspi->Init.Direction == SPI_DIRECTION_1LINE)
 8005152:	f5b2 4f00 	cmp.w	r2, #32768	; 0x8000
  hspi->RxISR       = NULL;
 8005156:	e9c4 3310 	strd	r3, r3, [r4, #64]	; 0x40
  hspi->TxXferCount = Size;
 800515a:	86e7      	strh	r7, [r4, #54]	; 0x36
  hspi->pRxBuffPtr  = (uint8_t *)NULL;
 800515c:	63a3      	str	r3, [r4, #56]	; 0x38
  hspi->RxXferSize  = 0U;
 800515e:	87a3      	strh	r3, [r4, #60]	; 0x3c
  hspi->RxXferCount = 0U;
 8005160:	87e3      	strh	r3, [r4, #62]	; 0x3e
  hspi->pTxBuffPtr  = (uint8_t *)pData;
 8005162:	6325      	str	r5, [r4, #48]	; 0x30
    __HAL_SPI_DISABLE(hspi);
 8005164:	6823      	ldr	r3, [r4, #0]
  hspi->TxXferSize  = Size;
 8005166:	86a7      	strh	r7, [r4, #52]	; 0x34
  if (hspi->Init.Direction == SPI_DIRECTION_1LINE)
 8005168:	d107      	bne.n	800517a <HAL_SPI_Transmit+0x6a>
    __HAL_SPI_DISABLE(hspi);
 800516a:	681a      	ldr	r2, [r3, #0]
 800516c:	f022 0240 	bic.w	r2, r2, #64	; 0x40
 8005170:	601a      	str	r2, [r3, #0]
    SPI_1LINE_TX(hspi);
 8005172:	681a      	ldr	r2, [r3, #0]
 8005174:	f442 4280 	orr.w	r2, r2, #16384	; 0x4000
 8005178:	601a      	str	r2, [r3, #0]
  if ((hspi->Instance->CR1 & SPI_CR1_SPE) != SPI_CR1_SPE)
 800517a:	681a      	ldr	r2, [r3, #0]
  if (hspi->Init.DataSize == SPI_DATASIZE_16BIT)
 800517c:	68e1      	ldr	r1, [r4, #12]
  if ((hspi->Instance->CR1 & SPI_CR1_SPE) != SPI_CR1_SPE)
 800517e:	0652      	lsls	r2, r2, #25
    __HAL_SPI_ENABLE(hspi);
 8005180:	bf5e      	ittt	pl
 8005182:	681a      	ldrpl	r2, [r3, #0]
 8005184:	f042 0240 	orrpl.w	r2, r2, #64	; 0x40
 8005188:	601a      	strpl	r2, [r3, #0]
  if (hspi->Init.DataSize == SPI_DATASIZE_16BIT)
 800518a:	f5b1 6f00 	cmp.w	r1, #2048	; 0x800
    if ((hspi->Init.Mode == SPI_MODE_SLAVE) || (initial_TxXferCount == 0x01U))
 800518e:	6862      	ldr	r2, [r4, #4]
  if (hspi->Init.DataSize == SPI_DATASIZE_16BIT)
 8005190:	d141      	bne.n	8005216 <HAL_SPI_Transmit+0x106>
    if ((hspi->Init.Mode == SPI_MODE_SLAVE) || (initial_TxXferCount == 0x01U))
 8005192:	b10a      	cbz	r2, 8005198 <HAL_SPI_Transmit+0x88>
 8005194:	2f01      	cmp	r7, #1
 8005196:	d107      	bne.n	80051a8 <HAL_SPI_Transmit+0x98>
      hspi->Instance->DR = *((uint16_t *)hspi->pTxBuffPtr);
 8005198:	f835 2b02 	ldrh.w	r2, [r5], #2
 800519c:	60da      	str	r2, [r3, #12]
      hspi->pTxBuffPtr += sizeof(uint16_t);
 800519e:	6325      	str	r5, [r4, #48]	; 0x30
        hspi->TxXferCount--;
 80051a0:	8ee3      	ldrh	r3, [r4, #54]	; 0x36
 80051a2:	3b01      	subs	r3, #1
 80051a4:	b29b      	uxth	r3, r3
 80051a6:	86e3      	strh	r3, [r4, #54]	; 0x36
    while (hspi->TxXferCount > 0U)
 80051a8:	8ee3      	ldrh	r3, [r4, #54]	; 0x36
 80051aa:	b29b      	uxth	r3, r3
 80051ac:	b9a3      	cbnz	r3, 80051d8 <HAL_SPI_Transmit+0xc8>
  if (SPI_EndRxTxTransaction(hspi, Timeout, tickstart) != HAL_OK)
 80051ae:	4642      	mov	r2, r8
 80051b0:	4631      	mov	r1, r6
 80051b2:	4620      	mov	r0, r4
 80051b4:	f7ff ff46 	bl	8005044 <SPI_EndRxTxTransaction>
 80051b8:	2800      	cmp	r0, #0
 80051ba:	d14f      	bne.n	800525c <HAL_SPI_Transmit+0x14c>
  if (hspi->Init.Direction == SPI_DIRECTION_2LINES)
 80051bc:	68a3      	ldr	r3, [r4, #8]
 80051be:	b933      	cbnz	r3, 80051ce <HAL_SPI_Transmit+0xbe>
    __HAL_SPI_CLEAR_OVRFLAG(hspi);
 80051c0:	9301      	str	r3, [sp, #4]
 80051c2:	6823      	ldr	r3, [r4, #0]
 80051c4:	68da      	ldr	r2, [r3, #12]
 80051c6:	9201      	str	r2, [sp, #4]
 80051c8:	689b      	ldr	r3, [r3, #8]
 80051ca:	9301      	str	r3, [sp, #4]
 80051cc:	9b01      	ldr	r3, [sp, #4]
  if (hspi->ErrorCode != HAL_SPI_ERROR_NONE)
 80051ce:	6d60      	ldr	r0, [r4, #84]	; 0x54
    errorcode = HAL_BUSY;
 80051d0:	3800      	subs	r0, #0
 80051d2:	bf18      	it	ne
 80051d4:	2001      	movne	r0, #1
error:
 80051d6:	e012      	b.n	80051fe <HAL_SPI_Transmit+0xee>
      if (__HAL_SPI_GET_FLAG(hspi, SPI_FLAG_TXE))
 80051d8:	6822      	ldr	r2, [r4, #0]
 80051da:	6893      	ldr	r3, [r2, #8]
 80051dc:	0798      	lsls	r0, r3, #30
 80051de:	d505      	bpl.n	80051ec <HAL_SPI_Transmit+0xdc>
        hspi->Instance->DR = *((uint16_t *)hspi->pTxBuffPtr);
 80051e0:	6b23      	ldr	r3, [r4, #48]	; 0x30
 80051e2:	f833 1b02 	ldrh.w	r1, [r3], #2
 80051e6:	60d1      	str	r1, [r2, #12]
        hspi->pTxBuffPtr += sizeof(uint16_t);
 80051e8:	6323      	str	r3, [r4, #48]	; 0x30
 80051ea:	e7d9      	b.n	80051a0 <HAL_SPI_Transmit+0x90>
        if ((((HAL_GetTick() - tickstart) >=  Timeout) && (Timeout != HAL_MAX_DELAY)) || (Timeout == 0U))
 80051ec:	f7fe fc28 	bl	8003a40 <HAL_GetTick>
 80051f0:	eba0 0008 	sub.w	r0, r0, r8
 80051f4:	42b0      	cmp	r0, r6
 80051f6:	d30b      	bcc.n	8005210 <HAL_SPI_Transmit+0x100>
 80051f8:	1c71      	adds	r1, r6, #1
 80051fa:	d0d5      	beq.n	80051a8 <HAL_SPI_Transmit+0x98>
          errorcode = HAL_TIMEOUT;
 80051fc:	2003      	movs	r0, #3
  hspi->State = HAL_SPI_STATE_READY;
 80051fe:	2301      	movs	r3, #1
 8005200:	f884 3051 	strb.w	r3, [r4, #81]	; 0x51
  __HAL_UNLOCK(hspi);
 8005204:	2300      	movs	r3, #0
 8005206:	f884 3050 	strb.w	r3, [r4, #80]	; 0x50
}
 800520a:	b002      	add	sp, #8
 800520c:	e8bd 81f0 	ldmia.w	sp!, {r4, r5, r6, r7, r8, pc}
        if ((((HAL_GetTick() - tickstart) >=  Timeout) && (Timeout != HAL_MAX_DELAY)) || (Timeout == 0U))
 8005210:	2e00      	cmp	r6, #0
 8005212:	d1c9      	bne.n	80051a8 <HAL_SPI_Transmit+0x98>
 8005214:	e7f2      	b.n	80051fc <HAL_SPI_Transmit+0xec>
    if ((hspi->Init.Mode == SPI_MODE_SLAVE) || (initial_TxXferCount == 0x01U))
 8005216:	b10a      	cbz	r2, 800521c <HAL_SPI_Transmit+0x10c>
 8005218:	2f01      	cmp	r7, #1
 800521a:	d108      	bne.n	800522e <HAL_SPI_Transmit+0x11e>
      *((__IO uint8_t *)&hspi->Instance->DR) = (*hspi->pTxBuffPtr);
 800521c:	782a      	ldrb	r2, [r5, #0]
        *((__IO uint8_t *)&hspi->Instance->DR) = (*hspi->pTxBuffPtr);
 800521e:	731a      	strb	r2, [r3, #12]
        hspi->pTxBuffPtr += sizeof(uint8_t);
 8005220:	6b23      	ldr	r3, [r4, #48]	; 0x30
 8005222:	3301      	adds	r3, #1
 8005224:	6323      	str	r3, [r4, #48]	; 0x30
        hspi->TxXferCount--;
 8005226:	8ee3      	ldrh	r3, [r4, #54]	; 0x36
 8005228:	3b01      	subs	r3, #1
 800522a:	b29b      	uxth	r3, r3
 800522c:	86e3      	strh	r3, [r4, #54]	; 0x36
    while (hspi->TxXferCount > 0U)
 800522e:	8ee3      	ldrh	r3, [r4, #54]	; 0x36
 8005230:	b29b      	uxth	r3, r3
 8005232:	2b00      	cmp	r3, #0
 8005234:	d0bb      	beq.n	80051ae <HAL_SPI_Transmit+0x9e>
      if (__HAL_SPI_GET_FLAG(hspi, SPI_FLAG_TXE))
 8005236:	6823      	ldr	r3, [r4, #0]
 8005238:	689a      	ldr	r2, [r3, #8]
 800523a:	0792      	lsls	r2, r2, #30
 800523c:	d502      	bpl.n	8005244 <HAL_SPI_Transmit+0x134>
        *((__IO uint8_t *)&hspi->Instance->DR) = (*hspi->pTxBuffPtr);
 800523e:	6b22      	ldr	r2, [r4, #48]	; 0x30
 8005240:	7812      	ldrb	r2, [r2, #0]
 8005242:	e7ec      	b.n	800521e <HAL_SPI_Transmit+0x10e>
        if ((((HAL_GetTick() - tickstart) >=  Timeout) && (Timeout != HAL_MAX_DELAY)) || (Timeout == 0U))
 8005244:	f7fe fbfc 	bl	8003a40 <HAL_GetTick>
 8005248:	eba0 0008 	sub.w	r0, r0, r8
 800524c:	42b0      	cmp	r0, r6
 800524e:	d302      	bcc.n	8005256 <HAL_SPI_Transmit+0x146>
 8005250:	1c73      	adds	r3, r6, #1
 8005252:	d0ec      	beq.n	800522e <HAL_SPI_Transmit+0x11e>
 8005254:	e7d2      	b.n	80051fc <HAL_SPI_Transmit+0xec>
 8005256:	2e00      	cmp	r6, #0
 8005258:	d1e9      	bne.n	800522e <HAL_SPI_Transmit+0x11e>
 800525a:	e7cf      	b.n	80051fc <HAL_SPI_Transmit+0xec>
    hspi->ErrorCode = HAL_SPI_ERROR_FLAG;
 800525c:	2320      	movs	r3, #32
 800525e:	6563      	str	r3, [r4, #84]	; 0x54
 8005260:	e7ac      	b.n	80051bc <HAL_SPI_Transmit+0xac>
    errorcode = HAL_BUSY;
 8005262:	2002      	movs	r0, #2
 8005264:	e7cb      	b.n	80051fe <HAL_SPI_Transmit+0xee>
  __HAL_LOCK(hspi);
 8005266:	2002      	movs	r0, #2
 8005268:	e7cf      	b.n	800520a <HAL_SPI_Transmit+0xfa>
	...

0800526c <TIM_OC1_SetConfig>:
  uint32_t tmpccmrx;
  uint32_t tmpccer;
  uint32_t tmpcr2;

  /* Disable the Channel 1: Reset the CC1E Bit */
  TIMx->CCER &= ~TIM_CCER_CC1E;
 800526c:	6a03      	ldr	r3, [r0, #32]
{
 800526e:	b570      	push	{r4, r5, r6, lr}
  TIMx->CCER &= ~TIM_CCER_CC1E;
 8005270:	f023 0301 	bic.w	r3, r3, #1
 8005274:	6203      	str	r3, [r0, #32]

  /* Get the TIMx CCER register value */
  tmpccer = TIMx->CCER;
 8005276:	6a03      	ldr	r3, [r0, #32]
  /* Get the TIMx CR2 register value */
  tmpcr2 =  TIMx->CR2;
 8005278:	6844      	ldr	r4, [r0, #4]

  /* Get the TIMx CCMR1 register value */
  tmpccmrx = TIMx->CCMR1;
 800527a:	6982      	ldr	r2, [r0, #24]

  /* Reset the Output Compare Mode Bits */
  tmpccmrx &= ~TIM_CCMR1_OC1M;
  tmpccmrx &= ~TIM_CCMR1_CC1S;
  /* Select the Output Compare Mode */
  tmpccmrx |= OC_Config->OCMode;
 800527c:	680d      	ldr	r5, [r1, #0]
  tmpccmrx &= ~TIM_CCMR1_CC1S;
 800527e:	f022 0273 	bic.w	r2, r2, #115	; 0x73
  tmpccmrx |= OC_Config->OCMode;
 8005282:	432a      	orrs	r2, r5

  /* Reset the Output Polarity level */
  tmpccer &= ~TIM_CCER_CC1P;
  /* Set the Output Compare Polarity */
  tmpccer |= OC_Config->OCPolarity;
 8005284:	688d      	ldr	r5, [r1, #8]
  tmpccer &= ~TIM_CCER_CC1P;
 8005286:	f023 0302 	bic.w	r3, r3, #2
  tmpccer |= OC_Config->OCPolarity;
 800528a:	432b      	orrs	r3, r5

  if (IS_TIM_CCXN_INSTANCE(TIMx, TIM_CHANNEL_1))
 800528c:	4d0a      	ldr	r5, [pc, #40]	; (80052b8 <TIM_OC1_SetConfig+0x4c>)
 800528e:	42a8      	cmp	r0, r5
 8005290:	d10b      	bne.n	80052aa <TIM_OC1_SetConfig+0x3e>
    assert_param(IS_TIM_OCN_POLARITY(OC_Config->OCNPolarity));

    /* Reset the Output N Polarity level */
    tmpccer &= ~TIM_CCER_CC1NP;
    /* Set the Output N Polarity */
    tmpccer |= OC_Config->OCNPolarity;
 8005292:	68cd      	ldr	r5, [r1, #12]
    tmpccer &= ~TIM_CCER_CC1NP;
 8005294:	f023 0308 	bic.w	r3, r3, #8
    tmpccer |= OC_Config->OCNPolarity;
 8005298:	432b      	orrs	r3, r5
    assert_param(IS_TIM_OCNIDLE_STATE(OC_Config->OCNIdleState));
    assert_param(IS_TIM_OCIDLE_STATE(OC_Config->OCIdleState));

    /* Reset the Output Compare and Output Compare N IDLE State */
    tmpcr2 &= ~TIM_CR2_OIS1;
    tmpcr2 &= ~TIM_CR2_OIS1N;
 800529a:	f424 7440 	bic.w	r4, r4, #768	; 0x300
    /* Set the Output Idle state */
    tmpcr2 |= OC_Config->OCIdleState;
    /* Set the Output N Idle state */
    tmpcr2 |= OC_Config->OCNIdleState;
 800529e:	e9d1 5605 	ldrd	r5, r6, [r1, #20]
 80052a2:	4335      	orrs	r5, r6
    tmpccer &= ~TIM_CCER_CC1NE;
 80052a4:	f023 0304 	bic.w	r3, r3, #4
    tmpcr2 |= OC_Config->OCNIdleState;
 80052a8:	432c      	orrs	r4, r5
  }

  /* Write to TIMx CR2 */
  TIMx->CR2 = tmpcr2;
 80052aa:	6044      	str	r4, [r0, #4]

  /* Write to TIMx CCMR1 */
  TIMx->CCMR1 = tmpccmrx;
 80052ac:	6182      	str	r2, [r0, #24]

  /* Set the Capture Compare Register value */
  TIMx->CCR1 = OC_Config->Pulse;
 80052ae:	684a      	ldr	r2, [r1, #4]
 80052b0:	6342      	str	r2, [r0, #52]	; 0x34

  /* Write to TIMx CCER */
  TIMx->CCER = tmpccer;
 80052b2:	6203      	str	r3, [r0, #32]
}
 80052b4:	bd70      	pop	{r4, r5, r6, pc}
 80052b6:	bf00      	nop
 80052b8:	40012c00 	.word	0x40012c00

080052bc <TIM_OC3_SetConfig>:
  uint32_t tmpccmrx;
  uint32_t tmpccer;
  uint32_t tmpcr2;

  /* Disable the Channel 3: Reset the CC2E Bit */
  TIMx->CCER &= ~TIM_CCER_CC3E;
 80052bc:	6a03      	ldr	r3, [r0, #32]
{
 80052be:	b570      	push	{r4, r5, r6, lr}
  TIMx->CCER &= ~TIM_CCER_CC3E;
 80052c0:	f423 7380 	bic.w	r3, r3, #256	; 0x100
 80052c4:	6203      	str	r3, [r0, #32]

  /* Get the TIMx CCER register value */
  tmpccer = TIMx->CCER;
 80052c6:	6a03      	ldr	r3, [r0, #32]
  /* Get the TIMx CR2 register value */
  tmpcr2 =  TIMx->CR2;
 80052c8:	6844      	ldr	r4, [r0, #4]

  /* Get the TIMx CCMR2 register value */
  tmpccmrx = TIMx->CCMR2;
 80052ca:	69c2      	ldr	r2, [r0, #28]

  /* Reset the Output Compare mode and Capture/Compare selection Bits */
  tmpccmrx &= ~TIM_CCMR2_OC3M;
  tmpccmrx &= ~TIM_CCMR2_CC3S;
  /* Select the Output Compare Mode */
  tmpccmrx |= OC_Config->OCMode;
 80052cc:	680d      	ldr	r5, [r1, #0]
  tmpccmrx &= ~TIM_CCMR2_CC3S;
 80052ce:	f022 0273 	bic.w	r2, r2, #115	; 0x73
  tmpccmrx |= OC_Config->OCMode;
 80052d2:	432a      	orrs	r2, r5

  /* Reset the Output Polarity level */
  tmpccer &= ~TIM_CCER_CC3P;
  /* Set the Output Compare Polarity */
  tmpccer |= (OC_Config->OCPolarity << 8U);
 80052d4:	688d      	ldr	r5, [r1, #8]
  tmpccer &= ~TIM_CCER_CC3P;
 80052d6:	f423 7300 	bic.w	r3, r3, #512	; 0x200
  tmpccer |= (OC_Config->OCPolarity << 8U);
 80052da:	ea43 2305 	orr.w	r3, r3, r5, lsl #8

  if (IS_TIM_CCXN_INSTANCE(TIMx, TIM_CHANNEL_3))
 80052de:	4d0b      	ldr	r5, [pc, #44]	; (800530c <TIM_OC3_SetConfig+0x50>)
 80052e0:	42a8      	cmp	r0, r5
 80052e2:	d10d      	bne.n	8005300 <TIM_OC3_SetConfig+0x44>
    assert_param(IS_TIM_OCN_POLARITY(OC_Config->OCNPolarity));

    /* Reset the Output N Polarity level */
    tmpccer &= ~TIM_CCER_CC3NP;
    /* Set the Output N Polarity */
    tmpccer |= (OC_Config->OCNPolarity << 8U);
 80052e4:	68cd      	ldr	r5, [r1, #12]
    tmpccer &= ~TIM_CCER_CC3NP;
 80052e6:	f423 6300 	bic.w	r3, r3, #2048	; 0x800
    tmpccer |= (OC_Config->OCNPolarity << 8U);
 80052ea:	ea43 2305 	orr.w	r3, r3, r5, lsl #8
    assert_param(IS_TIM_OCNIDLE_STATE(OC_Config->OCNIdleState));
    assert_param(IS_TIM_OCIDLE_STATE(OC_Config->OCIdleState));

    /* Reset the Output Compare and Output Compare N IDLE State */
    tmpcr2 &= ~TIM_CR2_OIS3;
    tmpcr2 &= ~TIM_CR2_OIS3N;
 80052ee:	f424 5440 	bic.w	r4, r4, #12288	; 0x3000
    /* Set the Output Idle state */
    tmpcr2 |= (OC_Config->OCIdleState << 4U);
    /* Set the Output N Idle state */
    tmpcr2 |= (OC_Config->OCNIdleState << 4U);
 80052f2:	e9d1 5605 	ldrd	r5, r6, [r1, #20]
 80052f6:	4335      	orrs	r5, r6
    tmpccer &= ~TIM_CCER_CC3NE;
 80052f8:	f423 6380 	bic.w	r3, r3, #1024	; 0x400
    tmpcr2 |= (OC_Config->OCNIdleState << 4U);
 80052fc:	ea44 1405 	orr.w	r4, r4, r5, lsl #4
  }

  /* Write to TIMx CR2 */
  TIMx->CR2 = tmpcr2;
 8005300:	6044      	str	r4, [r0, #4]

  /* Write to TIMx CCMR2 */
  TIMx->CCMR2 = tmpccmrx;
 8005302:	61c2      	str	r2, [r0, #28]

  /* Set the Capture Compare Register value */
  TIMx->CCR3 = OC_Config->Pulse;
 8005304:	684a      	ldr	r2, [r1, #4]
 8005306:	63c2      	str	r2, [r0, #60]	; 0x3c

  /* Write to TIMx CCER */
  TIMx->CCER = tmpccer;
 8005308:	6203      	str	r3, [r0, #32]
}
 800530a:	bd70      	pop	{r4, r5, r6, pc}
 800530c:	40012c00 	.word	0x40012c00

08005310 <TIM_OC4_SetConfig>:
  uint32_t tmpccmrx;
  uint32_t tmpccer;
  uint32_t tmpcr2;

  /* Disable the Channel 4: Reset the CC4E Bit */
  TIMx->CCER &= ~TIM_CCER_CC4E;
 8005310:	6a03      	ldr	r3, [r0, #32]
{
 8005312:	b530      	push	{r4, r5, lr}
  TIMx->CCER &= ~TIM_CCER_CC4E;
 8005314:	f423 5380 	bic.w	r3, r3, #4096	; 0x1000
 8005318:	6203      	str	r3, [r0, #32]

  /* Get the TIMx CCER register value */
  tmpccer = TIMx->CCER;
 800531a:	6a03      	ldr	r3, [r0, #32]
  /* Get the TIMx CR2 register value */
  tmpcr2 =  TIMx->CR2;
 800531c:	6844      	ldr	r4, [r0, #4]

  /* Get the TIMx CCMR2 register value */
  tmpccmrx = TIMx->CCMR2;
 800531e:	69c2      	ldr	r2, [r0, #28]
  /* Reset the Output Compare mode and Capture/Compare selection Bits */
  tmpccmrx &= ~TIM_CCMR2_OC4M;
  tmpccmrx &= ~TIM_CCMR2_CC4S;

  /* Select the Output Compare Mode */
  tmpccmrx |= (OC_Config->OCMode << 8U);
 8005320:	680d      	ldr	r5, [r1, #0]
  tmpccmrx &= ~TIM_CCMR2_CC4S;
 8005322:	f422 42e6 	bic.w	r2, r2, #29440	; 0x7300
  tmpccmrx |= (OC_Config->OCMode << 8U);
 8005326:	ea42 2205 	orr.w	r2, r2, r5, lsl #8

  /* Reset the Output Polarity level */
  tmpccer &= ~TIM_CCER_CC4P;
  /* Set the Output Compare Polarity */
  tmpccer |= (OC_Config->OCPolarity << 12U);
 800532a:	688d      	ldr	r5, [r1, #8]
  tmpccer &= ~TIM_CCER_CC4P;
 800532c:	f423 5300 	bic.w	r3, r3, #8192	; 0x2000
  tmpccer |= (OC_Config->OCPolarity << 12U);
 8005330:	ea43 3305 	orr.w	r3, r3, r5, lsl #12

  if (IS_TIM_BREAK_INSTANCE(TIMx))
 8005334:	4d06      	ldr	r5, [pc, #24]	; (8005350 <TIM_OC4_SetConfig+0x40>)
 8005336:	42a8      	cmp	r0, r5

    /* Reset the Output Compare IDLE State */
    tmpcr2 &= ~TIM_CR2_OIS4;

    /* Set the Output Idle state */
    tmpcr2 |= (OC_Config->OCIdleState << 6U);
 8005338:	bf02      	ittt	eq
 800533a:	694d      	ldreq	r5, [r1, #20]
    tmpcr2 &= ~TIM_CR2_OIS4;
 800533c:	f424 4480 	biceq.w	r4, r4, #16384	; 0x4000
    tmpcr2 |= (OC_Config->OCIdleState << 6U);
 8005340:	ea44 1485 	orreq.w	r4, r4, r5, lsl #6
  }

  /* Write to TIMx CR2 */
  TIMx->CR2 = tmpcr2;
 8005344:	6044      	str	r4, [r0, #4]

  /* Write to TIMx CCMR2 */
  TIMx->CCMR2 = tmpccmrx;
 8005346:	61c2      	str	r2, [r0, #28]

  /* Set the Capture Compare Register value */
  TIMx->CCR4 = OC_Config->Pulse;
 8005348:	684a      	ldr	r2, [r1, #4]
 800534a:	6402      	str	r2, [r0, #64]	; 0x40

  /* Write to TIMx CCER */
  TIMx->CCER = tmpccer;
 800534c:	6203      	str	r3, [r0, #32]
}
 800534e:	bd30      	pop	{r4, r5, pc}
 8005350:	40012c00 	.word	0x40012c00

08005354 <HAL_TIM_PWM_MspInit>:
 8005354:	4770      	bx	lr
	...

08005358 <TIM_Base_SetConfig>:
  if (IS_TIM_COUNTER_MODE_SELECT_INSTANCE(TIMx))
 8005358:	4a1a      	ldr	r2, [pc, #104]	; (80053c4 <TIM_Base_SetConfig+0x6c>)
  tmpcr1 = TIMx->CR1;
 800535a:	6803      	ldr	r3, [r0, #0]
  if (IS_TIM_COUNTER_MODE_SELECT_INSTANCE(TIMx))
 800535c:	4290      	cmp	r0, r2
 800535e:	d00a      	beq.n	8005376 <TIM_Base_SetConfig+0x1e>
 8005360:	f1b0 4f80 	cmp.w	r0, #1073741824	; 0x40000000
 8005364:	d007      	beq.n	8005376 <TIM_Base_SetConfig+0x1e>
 8005366:	f5a2 3294 	sub.w	r2, r2, #75776	; 0x12800
 800536a:	4290      	cmp	r0, r2
 800536c:	d003      	beq.n	8005376 <TIM_Base_SetConfig+0x1e>
 800536e:	f502 6280 	add.w	r2, r2, #1024	; 0x400
 8005372:	4290      	cmp	r0, r2
 8005374:	d115      	bne.n	80053a2 <TIM_Base_SetConfig+0x4a>
    tmpcr1 |= Structure->CounterMode;
 8005376:	684a      	ldr	r2, [r1, #4]
    tmpcr1 &= ~(TIM_CR1_DIR | TIM_CR1_CMS);
 8005378:	f023 0370 	bic.w	r3, r3, #112	; 0x70
    tmpcr1 |= Structure->CounterMode;
 800537c:	4313      	orrs	r3, r2
  if (IS_TIM_CLOCK_DIVISION_INSTANCE(TIMx))
 800537e:	4a11      	ldr	r2, [pc, #68]	; (80053c4 <TIM_Base_SetConfig+0x6c>)
 8005380:	4290      	cmp	r0, r2
 8005382:	d00a      	beq.n	800539a <TIM_Base_SetConfig+0x42>
 8005384:	f1b0 4f80 	cmp.w	r0, #1073741824	; 0x40000000
 8005388:	d007      	beq.n	800539a <TIM_Base_SetConfig+0x42>
 800538a:	f5a2 3294 	sub.w	r2, r2, #75776	; 0x12800
 800538e:	4290      	cmp	r0, r2
 8005390:	d003      	beq.n	800539a <TIM_Base_SetConfig+0x42>
 8005392:	f502 6280 	add.w	r2, r2, #1024	; 0x400
 8005396:	4290      	cmp	r0, r2
 8005398:	d103      	bne.n	80053a2 <TIM_Base_SetConfig+0x4a>
    tmpcr1 |= (uint32_t)Structure->ClockDivision;
 800539a:	68ca      	ldr	r2, [r1, #12]
    tmpcr1 &= ~TIM_CR1_CKD;
 800539c:	f423 7340 	bic.w	r3, r3, #768	; 0x300
    tmpcr1 |= (uint32_t)Structure->ClockDivision;
 80053a0:	4313      	orrs	r3, r2
  MODIFY_REG(tmpcr1, TIM_CR1_ARPE, Structure->AutoReloadPreload);
 80053a2:	694a      	ldr	r2, [r1, #20]
 80053a4:	f023 0380 	bic.w	r3, r3, #128	; 0x80
 80053a8:	4313      	orrs	r3, r2
  TIMx->CR1 = tmpcr1;
 80053aa:	6003      	str	r3, [r0, #0]
  TIMx->ARR = (uint32_t)Structure->Period ;
 80053ac:	688b      	ldr	r3, [r1, #8]
 80053ae:	62c3      	str	r3, [r0, #44]	; 0x2c
  TIMx->PSC = Structure->Prescaler;
 80053b0:	680b      	ldr	r3, [r1, #0]
 80053b2:	6283      	str	r3, [r0, #40]	; 0x28
  if (IS_TIM_REPETITION_COUNTER_INSTANCE(TIMx))
 80053b4:	4b03      	ldr	r3, [pc, #12]	; (80053c4 <TIM_Base_SetConfig+0x6c>)
 80053b6:	4298      	cmp	r0, r3
    TIMx->RCR = Structure->RepetitionCounter;
 80053b8:	bf04      	itt	eq
 80053ba:	690b      	ldreq	r3, [r1, #16]
 80053bc:	6303      	streq	r3, [r0, #48]	; 0x30
  TIMx->EGR = TIM_EGR_UG;
 80053be:	2301      	movs	r3, #1
 80053c0:	6143      	str	r3, [r0, #20]
}
 80053c2:	4770      	bx	lr
 80053c4:	40012c00 	.word	0x40012c00

080053c8 <HAL_TIM_Base_Init>:
{
 80053c8:	b510      	push	{r4, lr}
  if (htim == NULL)
 80053ca:	4604      	mov	r4, r0
 80053cc:	b330      	cbz	r0, 800541c <HAL_TIM_Base_Init+0x54>
  if (htim->State == HAL_TIM_STATE_RESET)
 80053ce:	f890 303d 	ldrb.w	r3, [r0, #61]	; 0x3d
 80053d2:	f003 02ff 	and.w	r2, r3, #255	; 0xff
 80053d6:	b91b      	cbnz	r3, 80053e0 <HAL_TIM_Base_Init+0x18>
    htim->Lock = HAL_UNLOCKED;
 80053d8:	f880 203c 	strb.w	r2, [r0, #60]	; 0x3c
    HAL_TIM_Base_MspInit(htim);
 80053dc:	f7fc ff30 	bl	8002240 <HAL_TIM_Base_MspInit>
  htim->State = HAL_TIM_STATE_BUSY;
 80053e0:	2302      	movs	r3, #2
  TIM_Base_SetConfig(htim->Instance, &htim->Init);
 80053e2:	6820      	ldr	r0, [r4, #0]
  htim->State = HAL_TIM_STATE_BUSY;
 80053e4:	f884 303d 	strb.w	r3, [r4, #61]	; 0x3d
  TIM_Base_SetConfig(htim->Instance, &htim->Init);
 80053e8:	1d21      	adds	r1, r4, #4
 80053ea:	f7ff ffb5 	bl	8005358 <TIM_Base_SetConfig>
  htim->DMABurstState = HAL_DMA_BURST_STATE_READY;
 80053ee:	2301      	movs	r3, #1
  return HAL_OK;
 80053f0:	2000      	movs	r0, #0
  htim->DMABurstState = HAL_DMA_BURST_STATE_READY;
 80053f2:	f884 3046 	strb.w	r3, [r4, #70]	; 0x46
  TIM_CHANNEL_STATE_SET_ALL(htim, HAL_TIM_CHANNEL_STATE_READY);
 80053f6:	f884 303e 	strb.w	r3, [r4, #62]	; 0x3e
 80053fa:	f884 303f 	strb.w	r3, [r4, #63]	; 0x3f
 80053fe:	f884 3040 	strb.w	r3, [r4, #64]	; 0x40
 8005402:	f884 3041 	strb.w	r3, [r4, #65]	; 0x41
  TIM_CHANNEL_N_STATE_SET_ALL(htim, HAL_TIM_CHANNEL_STATE_READY);
 8005406:	f884 3042 	strb.w	r3, [r4, #66]	; 0x42
 800540a:	f884 3043 	strb.w	r3, [r4, #67]	; 0x43
 800540e:	f884 3044 	strb.w	r3, [r4, #68]	; 0x44
 8005412:	f884 3045 	strb.w	r3, [r4, #69]	; 0x45
  htim->State = HAL_TIM_STATE_READY;
 8005416:	f884 303d 	strb.w	r3, [r4, #61]	; 0x3d
}
 800541a:	bd10      	pop	{r4, pc}
    return HAL_ERROR;
 800541c:	2001      	movs	r0, #1
 800541e:	e7fc      	b.n	800541a <HAL_TIM_Base_Init+0x52>

08005420 <HAL_TIM_PWM_Init>:
{
 8005420:	b510      	push	{r4, lr}
  if (htim == NULL)
 8005422:	4604      	mov	r4, r0
 8005424:	b330      	cbz	r0, 8005474 <HAL_TIM_PWM_Init+0x54>
  if (htim->State == HAL_TIM_STATE_RESET)
 8005426:	f890 303d 	ldrb.w	r3, [r0, #61]	; 0x3d
 800542a:	f003 02ff 	and.w	r2, r3, #255	; 0xff
 800542e:	b91b      	cbnz	r3, 8005438 <HAL_TIM_PWM_Init+0x18>
    htim->Lock = HAL_UNLOCKED;
 8005430:	f880 203c 	strb.w	r2, [r0, #60]	; 0x3c
    HAL_TIM_PWM_MspInit(htim);
 8005434:	f7ff ff8e 	bl	8005354 <HAL_TIM_PWM_MspInit>
  htim->State = HAL_TIM_STATE_BUSY;
 8005438:	2302      	movs	r3, #2
  TIM_Base_SetConfig(htim->Instance, &htim->Init);
 800543a:	6820      	ldr	r0, [r4, #0]
  htim->State = HAL_TIM_STATE_BUSY;
 800543c:	f884 303d 	strb.w	r3, [r4, #61]	; 0x3d
  TIM_Base_SetConfig(htim->Instance, &htim->Init);
 8005440:	1d21      	adds	r1, r4, #4
 8005442:	f7ff ff89 	bl	8005358 <TIM_Base_SetConfig>
  htim->DMABurstState = HAL_DMA_BURST_STATE_READY;
 8005446:	2301      	movs	r3, #1
  return HAL_OK;
 8005448:	2000      	movs	r0, #0
  htim->DMABurstState = HAL_DMA_BURST_STATE_READY;
 800544a:	f884 3046 	strb.w	r3, [r4, #70]	; 0x46
  TIM_CHANNEL_STATE_SET_ALL(htim, HAL_TIM_CHANNEL_STATE_READY);
 800544e:	f884 303e 	strb.w	r3, [r4, #62]	; 0x3e
 8005452:	f884 303f 	strb.w	r3, [r4, #63]	; 0x3f
 8005456:	f884 3040 	strb.w	r3, [r4, #64]	; 0x40
 800545a:	f884 3041 	strb.w	r3, [r4, #65]	; 0x41
  TIM_CHANNEL_N_STATE_SET_ALL(htim, HAL_TIM_CHANNEL_STATE_READY);
 800545e:	f884 3042 	strb.w	r3, [r4, #66]	; 0x42
 8005462:	f884 3043 	strb.w	r3, [r4, #67]	; 0x43
 8005466:	f884 3044 	strb.w	r3, [r4, #68]	; 0x44
 800546a:	f884 3045 	strb.w	r3, [r4, #69]	; 0x45
  htim->State = HAL_TIM_STATE_READY;
 800546e:	f884 303d 	strb.w	r3, [r4, #61]	; 0x3d
}
 8005472:	bd10      	pop	{r4, pc}
    return HAL_ERROR;
 8005474:	2001      	movs	r0, #1
 8005476:	e7fc      	b.n	8005472 <HAL_TIM_PWM_Init+0x52>

08005478 <TIM_OC2_SetConfig>:
  TIMx->CCER &= ~TIM_CCER_CC2E;
 8005478:	6a03      	ldr	r3, [r0, #32]
{
 800547a:	b570      	push	{r4, r5, r6, lr}
  TIMx->CCER &= ~TIM_CCER_CC2E;
 800547c:	f023 0310 	bic.w	r3, r3, #16
 8005480:	6203      	str	r3, [r0, #32]
  tmpccer = TIMx->CCER;
 8005482:	6a03      	ldr	r3, [r0, #32]
  tmpcr2 =  TIMx->CR2;
 8005484:	6844      	ldr	r4, [r0, #4]
  tmpccmrx = TIMx->CCMR1;
 8005486:	6982      	ldr	r2, [r0, #24]
  tmpccmrx |= (OC_Config->OCMode << 8U);
 8005488:	680d      	ldr	r5, [r1, #0]
  tmpccmrx &= ~TIM_CCMR1_CC2S;
 800548a:	f422 42e6 	bic.w	r2, r2, #29440	; 0x7300
  tmpccmrx |= (OC_Config->OCMode << 8U);
 800548e:	ea42 2205 	orr.w	r2, r2, r5, lsl #8
  tmpccer |= (OC_Config->OCPolarity << 4U);
 8005492:	688d      	ldr	r5, [r1, #8]
  tmpccer &= ~TIM_CCER_CC2P;
 8005494:	f023 0320 	bic.w	r3, r3, #32
  tmpccer |= (OC_Config->OCPolarity << 4U);
 8005498:	ea43 1305 	orr.w	r3, r3, r5, lsl #4
  if (IS_TIM_CCXN_INSTANCE(TIMx, TIM_CHANNEL_2))
 800549c:	4d0b      	ldr	r5, [pc, #44]	; (80054cc <TIM_OC2_SetConfig+0x54>)
 800549e:	42a8      	cmp	r0, r5
 80054a0:	d10d      	bne.n	80054be <TIM_OC2_SetConfig+0x46>
    tmpccer |= (OC_Config->OCNPolarity << 4U);
 80054a2:	68cd      	ldr	r5, [r1, #12]
    tmpccer &= ~TIM_CCER_CC2NP;
 80054a4:	f023 0380 	bic.w	r3, r3, #128	; 0x80
    tmpccer |= (OC_Config->OCNPolarity << 4U);
 80054a8:	ea43 1305 	orr.w	r3, r3, r5, lsl #4
    tmpcr2 &= ~TIM_CR2_OIS2N;
 80054ac:	f424 6440 	bic.w	r4, r4, #3072	; 0xc00
    tmpcr2 |= (OC_Config->OCNIdleState << 2U);
 80054b0:	e9d1 5605 	ldrd	r5, r6, [r1, #20]
 80054b4:	4335      	orrs	r5, r6
    tmpccer &= ~TIM_CCER_CC2NE;
 80054b6:	f023 0340 	bic.w	r3, r3, #64	; 0x40
    tmpcr2 |= (OC_Config->OCNIdleState << 2U);
 80054ba:	ea44 0485 	orr.w	r4, r4, r5, lsl #2
  TIMx->CR2 = tmpcr2;
 80054be:	6044      	str	r4, [r0, #4]
  TIMx->CCMR1 = tmpccmrx;
 80054c0:	6182      	str	r2, [r0, #24]
  TIMx->CCR2 = OC_Config->Pulse;
 80054c2:	684a      	ldr	r2, [r1, #4]
 80054c4:	6382      	str	r2, [r0, #56]	; 0x38
  TIMx->CCER = tmpccer;
 80054c6:	6203      	str	r3, [r0, #32]
}
 80054c8:	bd70      	pop	{r4, r5, r6, pc}
 80054ca:	bf00      	nop
 80054cc:	40012c00 	.word	0x40012c00

080054d0 <HAL_TIM_PWM_ConfigChannel>:
{
 80054d0:	b538      	push	{r3, r4, r5, lr}
  __HAL_LOCK(htim);
 80054d2:	f890 303c 	ldrb.w	r3, [r0, #60]	; 0x3c
{
 80054d6:	4604      	mov	r4, r0
  __HAL_LOCK(htim);
 80054d8:	2b01      	cmp	r3, #1
 80054da:	d052      	beq.n	8005582 <HAL_TIM_PWM_ConfigChannel+0xb2>
 80054dc:	2301      	movs	r3, #1
  switch (Channel)
 80054de:	2a08      	cmp	r2, #8
  __HAL_LOCK(htim);
 80054e0:	f880 303c 	strb.w	r3, [r0, #60]	; 0x3c
  switch (Channel)
 80054e4:	d03c      	beq.n	8005560 <HAL_TIM_PWM_ConfigChannel+0x90>
 80054e6:	d806      	bhi.n	80054f6 <HAL_TIM_PWM_ConfigChannel+0x26>
 80054e8:	b1c2      	cbz	r2, 800551c <HAL_TIM_PWM_ConfigChannel+0x4c>
 80054ea:	2a04      	cmp	r2, #4
 80054ec:	d027      	beq.n	800553e <HAL_TIM_PWM_ConfigChannel+0x6e>
  __HAL_UNLOCK(htim);
 80054ee:	2000      	movs	r0, #0
 80054f0:	f884 003c 	strb.w	r0, [r4, #60]	; 0x3c
}
 80054f4:	bd38      	pop	{r3, r4, r5, pc}
  switch (Channel)
 80054f6:	2a0c      	cmp	r2, #12
 80054f8:	d1f9      	bne.n	80054ee <HAL_TIM_PWM_ConfigChannel+0x1e>
      TIM_OC4_SetConfig(htim->Instance, sConfig);
 80054fa:	6800      	ldr	r0, [r0, #0]
 80054fc:	f7ff ff08 	bl	8005310 <TIM_OC4_SetConfig>
      htim->Instance->CCMR2 |= TIM_CCMR2_OC4PE;
 8005500:	6823      	ldr	r3, [r4, #0]
      htim->Instance->CCMR2 |= sConfig->OCFastMode << 8U;
 8005502:	6909      	ldr	r1, [r1, #16]
      htim->Instance->CCMR2 |= TIM_CCMR2_OC4PE;
 8005504:	69da      	ldr	r2, [r3, #28]
 8005506:	f442 6200 	orr.w	r2, r2, #2048	; 0x800
 800550a:	61da      	str	r2, [r3, #28]
      htim->Instance->CCMR2 &= ~TIM_CCMR2_OC4FE;
 800550c:	69da      	ldr	r2, [r3, #28]
 800550e:	f422 6280 	bic.w	r2, r2, #1024	; 0x400
 8005512:	61da      	str	r2, [r3, #28]
      htim->Instance->CCMR2 |= sConfig->OCFastMode << 8U;
 8005514:	69da      	ldr	r2, [r3, #28]
 8005516:	ea42 2201 	orr.w	r2, r2, r1, lsl #8
 800551a:	e030      	b.n	800557e <HAL_TIM_PWM_ConfigChannel+0xae>
      TIM_OC1_SetConfig(htim->Instance, sConfig);
 800551c:	6800      	ldr	r0, [r0, #0]
 800551e:	f7ff fea5 	bl	800526c <TIM_OC1_SetConfig>
      htim->Instance->CCMR1 |= TIM_CCMR1_OC1PE;
 8005522:	6823      	ldr	r3, [r4, #0]
      htim->Instance->CCMR1 |= sConfig->OCFastMode;
 8005524:	6909      	ldr	r1, [r1, #16]
      htim->Instance->CCMR1 |= TIM_CCMR1_OC1PE;
 8005526:	699a      	ldr	r2, [r3, #24]
 8005528:	f042 0208 	orr.w	r2, r2, #8
 800552c:	619a      	str	r2, [r3, #24]
      htim->Instance->CCMR1 &= ~TIM_CCMR1_OC1FE;
 800552e:	699a      	ldr	r2, [r3, #24]
 8005530:	f022 0204 	bic.w	r2, r2, #4
 8005534:	619a      	str	r2, [r3, #24]
      htim->Instance->CCMR1 |= sConfig->OCFastMode;
 8005536:	699a      	ldr	r2, [r3, #24]
 8005538:	430a      	orrs	r2, r1
      htim->Instance->CCMR1 |= sConfig->OCFastMode << 8U;
 800553a:	619a      	str	r2, [r3, #24]
      break;
 800553c:	e7d7      	b.n	80054ee <HAL_TIM_PWM_ConfigChannel+0x1e>
      TIM_OC2_SetConfig(htim->Instance, sConfig);
 800553e:	6800      	ldr	r0, [r0, #0]
 8005540:	f7ff ff9a 	bl	8005478 <TIM_OC2_SetConfig>
      htim->Instance->CCMR1 |= TIM_CCMR1_OC2PE;
 8005544:	6823      	ldr	r3, [r4, #0]
      htim->Instance->CCMR1 |= sConfig->OCFastMode << 8U;
 8005546:	6909      	ldr	r1, [r1, #16]
      htim->Instance->CCMR1 |= TIM_CCMR1_OC2PE;
 8005548:	699a      	ldr	r2, [r3, #24]
 800554a:	f442 6200 	orr.w	r2, r2, #2048	; 0x800
 800554e:	619a      	str	r2, [r3, #24]
      htim->Instance->CCMR1 &= ~TIM_CCMR1_OC2FE;
 8005550:	699a      	ldr	r2, [r3, #24]
 8005552:	f422 6280 	bic.w	r2, r2, #1024	; 0x400
 8005556:	619a      	str	r2, [r3, #24]
      htim->Instance->CCMR1 |= sConfig->OCFastMode << 8U;
 8005558:	699a      	ldr	r2, [r3, #24]
 800555a:	ea42 2201 	orr.w	r2, r2, r1, lsl #8
 800555e:	e7ec      	b.n	800553a <HAL_TIM_PWM_ConfigChannel+0x6a>
      TIM_OC3_SetConfig(htim->Instance, sConfig);
 8005560:	6800      	ldr	r0, [r0, #0]
 8005562:	f7ff feab 	bl	80052bc <TIM_OC3_SetConfig>
      htim->Instance->CCMR2 |= TIM_CCMR2_OC3PE;
 8005566:	6823      	ldr	r3, [r4, #0]
      htim->Instance->CCMR2 |= sConfig->OCFastMode;
 8005568:	6909      	ldr	r1, [r1, #16]
      htim->Instance->CCMR2 |= TIM_CCMR2_OC3PE;
 800556a:	69da      	ldr	r2, [r3, #28]
 800556c:	f042 0208 	orr.w	r2, r2, #8
 8005570:	61da      	str	r2, [r3, #28]
      htim->Instance->CCMR2 &= ~TIM_CCMR2_OC3FE;
 8005572:	69da      	ldr	r2, [r3, #28]
 8005574:	f022 0204 	bic.w	r2, r2, #4
 8005578:	61da      	str	r2, [r3, #28]
      htim->Instance->CCMR2 |= sConfig->OCFastMode;
 800557a:	69da      	ldr	r2, [r3, #28]
 800557c:	430a      	orrs	r2, r1
      htim->Instance->CCMR2 |= sConfig->OCFastMode << 8U;
 800557e:	61da      	str	r2, [r3, #28]
      break;
 8005580:	e7b5      	b.n	80054ee <HAL_TIM_PWM_ConfigChannel+0x1e>
  __HAL_LOCK(htim);
 8005582:	2002      	movs	r0, #2
 8005584:	e7b6      	b.n	80054f4 <HAL_TIM_PWM_ConfigChannel+0x24>

08005586 <TIM_ETR_SetConfig>:
  *          This parameter must be a value between 0x00 and 0x0F
  * @retval None
  */
void TIM_ETR_SetConfig(TIM_TypeDef *TIMx, uint32_t TIM_ExtTRGPrescaler,
                       uint32_t TIM_ExtTRGPolarity, uint32_t ExtTRGFilter)
{
 8005586:	b510      	push	{r4, lr}
  uint32_t tmpsmcr;

  tmpsmcr = TIMx->SMCR;
 8005588:	6884      	ldr	r4, [r0, #8]

  /* Reset the ETR Bits */
  tmpsmcr &= ~(TIM_SMCR_ETF | TIM_SMCR_ETPS | TIM_SMCR_ECE | TIM_SMCR_ETP);

  /* Set the Prescaler, the Filter value and the Polarity */
  tmpsmcr |= (uint32_t)(TIM_ExtTRGPrescaler | (TIM_ExtTRGPolarity | (ExtTRGFilter << 8U)));
 800558a:	430a      	orrs	r2, r1
  tmpsmcr &= ~(TIM_SMCR_ETF | TIM_SMCR_ETPS | TIM_SMCR_ECE | TIM_SMCR_ETP);
 800558c:	f424 447f 	bic.w	r4, r4, #65280	; 0xff00
  tmpsmcr |= (uint32_t)(TIM_ExtTRGPrescaler | (TIM_ExtTRGPolarity | (ExtTRGFilter << 8U)));
 8005590:	ea42 2203 	orr.w	r2, r2, r3, lsl #8
 8005594:	4322      	orrs	r2, r4

  /* Write to TIMx SMCR */
  TIMx->SMCR = tmpsmcr;
 8005596:	6082      	str	r2, [r0, #8]
}
 8005598:	bd10      	pop	{r4, pc}

0800559a <HAL_TIM_ConfigClockSource>:
{
 800559a:	b570      	push	{r4, r5, r6, lr}
  __HAL_LOCK(htim);
 800559c:	f890 303c 	ldrb.w	r3, [r0, #60]	; 0x3c
{
 80055a0:	4604      	mov	r4, r0
  __HAL_LOCK(htim);
 80055a2:	2b01      	cmp	r3, #1
 80055a4:	f04f 0002 	mov.w	r0, #2
 80055a8:	d027      	beq.n	80055fa <HAL_TIM_ConfigClockSource+0x60>
 80055aa:	2301      	movs	r3, #1
  htim->State = HAL_TIM_STATE_BUSY;
 80055ac:	f884 003d 	strb.w	r0, [r4, #61]	; 0x3d
  tmpsmcr = htim->Instance->SMCR;
 80055b0:	6820      	ldr	r0, [r4, #0]
  __HAL_LOCK(htim);
 80055b2:	f884 303c 	strb.w	r3, [r4, #60]	; 0x3c
  tmpsmcr = htim->Instance->SMCR;
 80055b6:	6883      	ldr	r3, [r0, #8]
  tmpsmcr &= ~(TIM_SMCR_ETF | TIM_SMCR_ETPS | TIM_SMCR_ECE | TIM_SMCR_ETP);
 80055b8:	f423 437f 	bic.w	r3, r3, #65280	; 0xff00
 80055bc:	f023 0377 	bic.w	r3, r3, #119	; 0x77
  htim->Instance->SMCR = tmpsmcr;
 80055c0:	6083      	str	r3, [r0, #8]
  switch (sClockSourceConfig->ClockSource)
 80055c2:	680b      	ldr	r3, [r1, #0]
 80055c4:	2b60      	cmp	r3, #96	; 0x60
 80055c6:	d04d      	beq.n	8005664 <HAL_TIM_ConfigClockSource+0xca>
 80055c8:	d832      	bhi.n	8005630 <HAL_TIM_ConfigClockSource+0x96>
 80055ca:	2b40      	cmp	r3, #64	; 0x40
 80055cc:	d062      	beq.n	8005694 <HAL_TIM_ConfigClockSource+0xfa>
 80055ce:	d815      	bhi.n	80055fc <HAL_TIM_ConfigClockSource+0x62>
 80055d0:	2b20      	cmp	r3, #32
 80055d2:	d003      	beq.n	80055dc <HAL_TIM_ConfigClockSource+0x42>
 80055d4:	d809      	bhi.n	80055ea <HAL_TIM_ConfigClockSource+0x50>
 80055d6:	f033 0210 	bics.w	r2, r3, #16
 80055da:	d108      	bne.n	80055ee <HAL_TIM_ConfigClockSource+0x54>
  tmpsmcr = TIMx->SMCR;
 80055dc:	6882      	ldr	r2, [r0, #8]
  tmpsmcr &= ~TIM_SMCR_TS;
 80055de:	f022 0270 	bic.w	r2, r2, #112	; 0x70
  tmpsmcr |= (InputTriggerSource | TIM_SLAVEMODE_EXTERNAL1);
 80055e2:	4313      	orrs	r3, r2
 80055e4:	f043 0307 	orr.w	r3, r3, #7
 80055e8:	e020      	b.n	800562c <HAL_TIM_ConfigClockSource+0x92>
  switch (sClockSourceConfig->ClockSource)
 80055ea:	2b30      	cmp	r3, #48	; 0x30
 80055ec:	d0f6      	beq.n	80055dc <HAL_TIM_ConfigClockSource+0x42>
  htim->State = HAL_TIM_STATE_READY;
 80055ee:	2301      	movs	r3, #1
  __HAL_UNLOCK(htim);
 80055f0:	2000      	movs	r0, #0
  htim->State = HAL_TIM_STATE_READY;
 80055f2:	f884 303d 	strb.w	r3, [r4, #61]	; 0x3d
  __HAL_UNLOCK(htim);
 80055f6:	f884 003c 	strb.w	r0, [r4, #60]	; 0x3c
}
 80055fa:	bd70      	pop	{r4, r5, r6, pc}
  switch (sClockSourceConfig->ClockSource)
 80055fc:	2b50      	cmp	r3, #80	; 0x50
 80055fe:	d1f6      	bne.n	80055ee <HAL_TIM_ConfigClockSource+0x54>
      TIM_TI1_ConfigInputStage(htim->Instance,
 8005600:	684a      	ldr	r2, [r1, #4]
 8005602:	68ce      	ldr	r6, [r1, #12]
  tmpccer = TIMx->CCER;
 8005604:	6a01      	ldr	r1, [r0, #32]
  TIMx->CCER &= ~TIM_CCER_CC1E;
 8005606:	6a05      	ldr	r5, [r0, #32]
  tmpccer &= ~(TIM_CCER_CC1P | TIM_CCER_CC1NP);
 8005608:	f021 010a 	bic.w	r1, r1, #10
  TIMx->CCER &= ~TIM_CCER_CC1E;
 800560c:	f025 0501 	bic.w	r5, r5, #1
 8005610:	6205      	str	r5, [r0, #32]
  tmpccmr1 = TIMx->CCMR1;
 8005612:	6983      	ldr	r3, [r0, #24]
  tmpccer |= TIM_ICPolarity;
 8005614:	430a      	orrs	r2, r1
  tmpccmr1 &= ~TIM_CCMR1_IC1F;
 8005616:	f023 03f0 	bic.w	r3, r3, #240	; 0xf0
  tmpccmr1 |= (TIM_ICFilter << 4U);
 800561a:	ea43 1306 	orr.w	r3, r3, r6, lsl #4
  TIMx->CCMR1 = tmpccmr1;
 800561e:	6183      	str	r3, [r0, #24]
  TIMx->CCER = tmpccer;
 8005620:	6202      	str	r2, [r0, #32]
  tmpsmcr = TIMx->SMCR;
 8005622:	6883      	ldr	r3, [r0, #8]
  tmpsmcr &= ~TIM_SMCR_TS;
 8005624:	f023 0370 	bic.w	r3, r3, #112	; 0x70
  tmpsmcr |= (InputTriggerSource | TIM_SLAVEMODE_EXTERNAL1);
 8005628:	f043 0357 	orr.w	r3, r3, #87	; 0x57
  TIMx->SMCR = tmpsmcr;
 800562c:	6083      	str	r3, [r0, #8]
}
 800562e:	e7de      	b.n	80055ee <HAL_TIM_ConfigClockSource+0x54>
  switch (sClockSourceConfig->ClockSource)
 8005630:	2b70      	cmp	r3, #112	; 0x70
 8005632:	d00c      	beq.n	800564e <HAL_TIM_ConfigClockSource+0xb4>
 8005634:	f5b3 5f00 	cmp.w	r3, #8192	; 0x2000
 8005638:	d1d9      	bne.n	80055ee <HAL_TIM_ConfigClockSource+0x54>
      TIM_ETR_SetConfig(htim->Instance,
 800563a:	68cb      	ldr	r3, [r1, #12]
 800563c:	e9d1 2101 	ldrd	r2, r1, [r1, #4]
 8005640:	f7ff ffa1 	bl	8005586 <TIM_ETR_SetConfig>
      htim->Instance->SMCR |= TIM_SMCR_ECE;
 8005644:	6822      	ldr	r2, [r4, #0]
 8005646:	6893      	ldr	r3, [r2, #8]
 8005648:	f443 4380 	orr.w	r3, r3, #16384	; 0x4000
 800564c:	e008      	b.n	8005660 <HAL_TIM_ConfigClockSource+0xc6>
      TIM_ETR_SetConfig(htim->Instance,
 800564e:	68cb      	ldr	r3, [r1, #12]
 8005650:	e9d1 2101 	ldrd	r2, r1, [r1, #4]
 8005654:	f7ff ff97 	bl	8005586 <TIM_ETR_SetConfig>
      tmpsmcr = htim->Instance->SMCR;
 8005658:	6822      	ldr	r2, [r4, #0]
 800565a:	6893      	ldr	r3, [r2, #8]
      tmpsmcr |= (TIM_SLAVEMODE_EXTERNAL1 | TIM_CLOCKSOURCE_ETRMODE1);
 800565c:	f043 0377 	orr.w	r3, r3, #119	; 0x77
      htim->Instance->SMCR |= TIM_SMCR_ECE;
 8005660:	6093      	str	r3, [r2, #8]
      break;
 8005662:	e7c4      	b.n	80055ee <HAL_TIM_ConfigClockSource+0x54>
      TIM_TI2_ConfigInputStage(htim->Instance,
 8005664:	684d      	ldr	r5, [r1, #4]
 8005666:	68ce      	ldr	r6, [r1, #12]
  TIMx->CCER &= ~TIM_CCER_CC2E;
 8005668:	6a01      	ldr	r1, [r0, #32]
 800566a:	f021 0110 	bic.w	r1, r1, #16
 800566e:	6201      	str	r1, [r0, #32]
  tmpccmr1 = TIMx->CCMR1;
 8005670:	6982      	ldr	r2, [r0, #24]
  tmpccer = TIMx->CCER;
 8005672:	6a03      	ldr	r3, [r0, #32]
  tmpccmr1 &= ~TIM_CCMR1_IC2F;
 8005674:	f422 4270 	bic.w	r2, r2, #61440	; 0xf000
  tmpccer &= ~(TIM_CCER_CC2P | TIM_CCER_CC2NP);
 8005678:	f023 03a0 	bic.w	r3, r3, #160	; 0xa0
  tmpccer |= (TIM_ICPolarity << 4U);
 800567c:	ea43 1305 	orr.w	r3, r3, r5, lsl #4
  tmpccmr1 |= (TIM_ICFilter << 12U);
 8005680:	ea42 3206 	orr.w	r2, r2, r6, lsl #12
  TIMx->CCMR1 = tmpccmr1 ;
 8005684:	6182      	str	r2, [r0, #24]
  TIMx->CCER = tmpccer;
 8005686:	6203      	str	r3, [r0, #32]
  tmpsmcr = TIMx->SMCR;
 8005688:	6883      	ldr	r3, [r0, #8]
  tmpsmcr &= ~TIM_SMCR_TS;
 800568a:	f023 0370 	bic.w	r3, r3, #112	; 0x70
  tmpsmcr |= (InputTriggerSource | TIM_SLAVEMODE_EXTERNAL1);
 800568e:	f043 0367 	orr.w	r3, r3, #103	; 0x67
  TIMx->SMCR = tmpsmcr;
 8005692:	e7cb      	b.n	800562c <HAL_TIM_ConfigClockSource+0x92>
      TIM_TI1_ConfigInputStage(htim->Instance,
 8005694:	684a      	ldr	r2, [r1, #4]
 8005696:	68ce      	ldr	r6, [r1, #12]
  tmpccer = TIMx->CCER;
 8005698:	6a01      	ldr	r1, [r0, #32]
  TIMx->CCER &= ~TIM_CCER_CC1E;
 800569a:	6a05      	ldr	r5, [r0, #32]
  tmpccer &= ~(TIM_CCER_CC1P | TIM_CCER_CC1NP);
 800569c:	f021 010a 	bic.w	r1, r1, #10
  TIMx->CCER &= ~TIM_CCER_CC1E;
 80056a0:	f025 0501 	bic.w	r5, r5, #1
 80056a4:	6205      	str	r5, [r0, #32]
  tmpccmr1 = TIMx->CCMR1;
 80056a6:	6983      	ldr	r3, [r0, #24]
  tmpccer |= TIM_ICPolarity;
 80056a8:	430a      	orrs	r2, r1
  tmpccmr1 &= ~TIM_CCMR1_IC1F;
 80056aa:	f023 03f0 	bic.w	r3, r3, #240	; 0xf0
  tmpccmr1 |= (TIM_ICFilter << 4U);
 80056ae:	ea43 1306 	orr.w	r3, r3, r6, lsl #4
  TIMx->CCMR1 = tmpccmr1;
 80056b2:	6183      	str	r3, [r0, #24]
  TIMx->CCER = tmpccer;
 80056b4:	6202      	str	r2, [r0, #32]
  tmpsmcr = TIMx->SMCR;
 80056b6:	6883      	ldr	r3, [r0, #8]
  tmpsmcr &= ~TIM_SMCR_TS;
 80056b8:	f023 0370 	bic.w	r3, r3, #112	; 0x70
  tmpsmcr |= (InputTriggerSource | TIM_SLAVEMODE_EXTERNAL1);
 80056bc:	f043 0347 	orr.w	r3, r3, #71	; 0x47
  TIMx->SMCR = tmpsmcr;
 80056c0:	e7b4      	b.n	800562c <HAL_TIM_ConfigClockSource+0x92>

080056c2 <TIM_CCxChannelCmd>:
  * @param  ChannelState specifies the TIM Channel CCxE bit new state.
  *          This parameter can be: TIM_CCx_ENABLE or TIM_CCx_DISABLE.
  * @retval None
  */
void TIM_CCxChannelCmd(TIM_TypeDef *TIMx, uint32_t Channel, uint32_t ChannelState)
{
 80056c2:	b510      	push	{r4, lr}

  /* Check the parameters */
  assert_param(IS_TIM_CC1_INSTANCE(TIMx));
  assert_param(IS_TIM_CHANNELS(Channel));

  tmp = TIM_CCER_CC1E << (Channel & 0x1FU); /* 0x1FU = 31 bits max shift */
 80056c4:	2401      	movs	r4, #1

  /* Reset the CCxE Bit */
  TIMx->CCER &= ~tmp;
 80056c6:	6a03      	ldr	r3, [r0, #32]
  tmp = TIM_CCER_CC1E << (Channel & 0x1FU); /* 0x1FU = 31 bits max shift */
 80056c8:	f001 011f 	and.w	r1, r1, #31
 80056cc:	408c      	lsls	r4, r1
  TIMx->CCER &= ~tmp;
 80056ce:	ea23 0304 	bic.w	r3, r3, r4
 80056d2:	6203      	str	r3, [r0, #32]

  /* Set or reset the CCxE Bit */
  TIMx->CCER |= (uint32_t)(ChannelState << (Channel & 0x1FU)); /* 0x1FU = 31 bits max shift */
 80056d4:	6a03      	ldr	r3, [r0, #32]
 80056d6:	408a      	lsls	r2, r1
 80056d8:	431a      	orrs	r2, r3
 80056da:	6202      	str	r2, [r0, #32]
}
 80056dc:	bd10      	pop	{r4, pc}
	...

080056e0 <HAL_TIM_OC_Start>:
{
 80056e0:	b510      	push	{r4, lr}
 80056e2:	4604      	mov	r4, r0
  if (TIM_CHANNEL_STATE_GET(htim, Channel) != HAL_TIM_CHANNEL_STATE_READY)
 80056e4:	b929      	cbnz	r1, 80056f2 <HAL_TIM_OC_Start+0x12>
 80056e6:	f890 303e 	ldrb.w	r3, [r0, #62]	; 0x3e
 80056ea:	2b01      	cmp	r3, #1
 80056ec:	d021      	beq.n	8005732 <HAL_TIM_OC_Start+0x52>
    return HAL_ERROR;
 80056ee:	2001      	movs	r0, #1
}
 80056f0:	bd10      	pop	{r4, pc}
  if (TIM_CHANNEL_STATE_GET(htim, Channel) != HAL_TIM_CHANNEL_STATE_READY)
 80056f2:	2904      	cmp	r1, #4
 80056f4:	d107      	bne.n	8005706 <HAL_TIM_OC_Start+0x26>
 80056f6:	f890 303f 	ldrb.w	r3, [r0, #63]	; 0x3f
 80056fa:	2b01      	cmp	r3, #1
 80056fc:	d1f7      	bne.n	80056ee <HAL_TIM_OC_Start+0xe>
  TIM_CHANNEL_STATE_SET(htim, Channel, HAL_TIM_CHANNEL_STATE_BUSY);
 80056fe:	2302      	movs	r3, #2
 8005700:	f884 303f 	strb.w	r3, [r4, #63]	; 0x3f
 8005704:	e018      	b.n	8005738 <HAL_TIM_OC_Start+0x58>
  if (TIM_CHANNEL_STATE_GET(htim, Channel) != HAL_TIM_CHANNEL_STATE_READY)
 8005706:	2908      	cmp	r1, #8
 8005708:	d107      	bne.n	800571a <HAL_TIM_OC_Start+0x3a>
 800570a:	f890 3040 	ldrb.w	r3, [r0, #64]	; 0x40
 800570e:	2b01      	cmp	r3, #1
 8005710:	d1ed      	bne.n	80056ee <HAL_TIM_OC_Start+0xe>
  TIM_CHANNEL_STATE_SET(htim, Channel, HAL_TIM_CHANNEL_STATE_BUSY);
 8005712:	2302      	movs	r3, #2
 8005714:	f884 3040 	strb.w	r3, [r4, #64]	; 0x40
 8005718:	e00e      	b.n	8005738 <HAL_TIM_OC_Start+0x58>
  if (TIM_CHANNEL_STATE_GET(htim, Channel) != HAL_TIM_CHANNEL_STATE_READY)
 800571a:	f890 3041 	ldrb.w	r3, [r0, #65]	; 0x41
 800571e:	2b01      	cmp	r3, #1
 8005720:	d1e5      	bne.n	80056ee <HAL_TIM_OC_Start+0xe>
  TIM_CHANNEL_STATE_SET(htim, Channel, HAL_TIM_CHANNEL_STATE_BUSY);
 8005722:	2904      	cmp	r1, #4
 8005724:	d0eb      	beq.n	80056fe <HAL_TIM_OC_Start+0x1e>
 8005726:	2908      	cmp	r1, #8
 8005728:	d0f3      	beq.n	8005712 <HAL_TIM_OC_Start+0x32>
 800572a:	2302      	movs	r3, #2
 800572c:	f880 3041 	strb.w	r3, [r0, #65]	; 0x41
 8005730:	e002      	b.n	8005738 <HAL_TIM_OC_Start+0x58>
 8005732:	2302      	movs	r3, #2
 8005734:	f880 303e 	strb.w	r3, [r0, #62]	; 0x3e
  TIM_CCxChannelCmd(htim->Instance, Channel, TIM_CCx_ENABLE);
 8005738:	2201      	movs	r2, #1
 800573a:	6820      	ldr	r0, [r4, #0]
 800573c:	f7ff ffc1 	bl	80056c2 <TIM_CCxChannelCmd>
  if (IS_TIM_BREAK_INSTANCE(htim->Instance) != RESET)
 8005740:	6823      	ldr	r3, [r4, #0]
 8005742:	4a0e      	ldr	r2, [pc, #56]	; (800577c <HAL_TIM_OC_Start+0x9c>)
 8005744:	4293      	cmp	r3, r2
 8005746:	d10a      	bne.n	800575e <HAL_TIM_OC_Start+0x7e>
    __HAL_TIM_MOE_ENABLE(htim);
 8005748:	6c5a      	ldr	r2, [r3, #68]	; 0x44
 800574a:	f442 4200 	orr.w	r2, r2, #32768	; 0x8000
 800574e:	645a      	str	r2, [r3, #68]	; 0x44
    tmpsmcr = htim->Instance->SMCR & TIM_SMCR_SMS;
 8005750:	689a      	ldr	r2, [r3, #8]
 8005752:	f002 0207 	and.w	r2, r2, #7
    if (!IS_TIM_SLAVEMODE_TRIGGER_ENABLED(tmpsmcr))
 8005756:	2a06      	cmp	r2, #6
 8005758:	d10b      	bne.n	8005772 <HAL_TIM_OC_Start+0x92>
  return HAL_OK;
 800575a:	2000      	movs	r0, #0
 800575c:	e7c8      	b.n	80056f0 <HAL_TIM_OC_Start+0x10>
  if (IS_TIM_SLAVE_INSTANCE(htim->Instance))
 800575e:	f1b3 4f80 	cmp.w	r3, #1073741824	; 0x40000000
 8005762:	d0f5      	beq.n	8005750 <HAL_TIM_OC_Start+0x70>
 8005764:	4a06      	ldr	r2, [pc, #24]	; (8005780 <HAL_TIM_OC_Start+0xa0>)
 8005766:	4293      	cmp	r3, r2
 8005768:	d0f2      	beq.n	8005750 <HAL_TIM_OC_Start+0x70>
 800576a:	f502 6280 	add.w	r2, r2, #1024	; 0x400
 800576e:	4293      	cmp	r3, r2
 8005770:	d0ee      	beq.n	8005750 <HAL_TIM_OC_Start+0x70>
    __HAL_TIM_ENABLE(htim);
 8005772:	681a      	ldr	r2, [r3, #0]
 8005774:	f042 0201 	orr.w	r2, r2, #1
 8005778:	601a      	str	r2, [r3, #0]
 800577a:	e7ee      	b.n	800575a <HAL_TIM_OC_Start+0x7a>
 800577c:	40012c00 	.word	0x40012c00
 8005780:	40000400 	.word	0x40000400

08005784 <HAL_TIM_PWM_Start>:
 8005784:	f7ff bfac 	b.w	80056e0 <HAL_TIM_OC_Start>

08005788 <HAL_TIMEx_MasterConfigSynchronization>:
  *         mode.
  * @retval HAL status
  */
HAL_StatusTypeDef HAL_TIMEx_MasterConfigSynchronization(TIM_HandleTypeDef *htim,
                                                        TIM_MasterConfigTypeDef *sMasterConfig)
{
 8005788:	b530      	push	{r4, r5, lr}
  assert_param(IS_TIM_MASTER_INSTANCE(htim->Instance));
  assert_param(IS_TIM_TRGO_SOURCE(sMasterConfig->MasterOutputTrigger));
  assert_param(IS_TIM_MSM_STATE(sMasterConfig->MasterSlaveMode));

  /* Check input state */
  __HAL_LOCK(htim);
 800578a:	f890 303c 	ldrb.w	r3, [r0, #60]	; 0x3c
{
 800578e:	4602      	mov	r2, r0
  __HAL_LOCK(htim);
 8005790:	2b01      	cmp	r3, #1
 8005792:	f04f 0002 	mov.w	r0, #2
 8005796:	d022      	beq.n	80057de <HAL_TIMEx_MasterConfigSynchronization+0x56>

  /* Change the handler state */
  htim->State = HAL_TIM_STATE_BUSY;

  /* Get the TIMx CR2 register value */
  tmpcr2 = htim->Instance->CR2;
 8005798:	6813      	ldr	r3, [r2, #0]
  htim->State = HAL_TIM_STATE_BUSY;
 800579a:	f882 003d 	strb.w	r0, [r2, #61]	; 0x3d
  tmpcr2 = htim->Instance->CR2;
 800579e:	685c      	ldr	r4, [r3, #4]
  tmpsmcr = htim->Instance->SMCR;

  /* Reset the MMS Bits */
  tmpcr2 &= ~TIM_CR2_MMS;
  /* Select the TRGO source */
  tmpcr2 |=  sMasterConfig->MasterOutputTrigger;
 80057a0:	680d      	ldr	r5, [r1, #0]
  tmpcr2 &= ~TIM_CR2_MMS;
 80057a2:	f024 0470 	bic.w	r4, r4, #112	; 0x70
  tmpcr2 |=  sMasterConfig->MasterOutputTrigger;
 80057a6:	432c      	orrs	r4, r5
  tmpsmcr = htim->Instance->SMCR;
 80057a8:	6898      	ldr	r0, [r3, #8]

  /* Update TIMx CR2 */
  htim->Instance->CR2 = tmpcr2;
 80057aa:	605c      	str	r4, [r3, #4]

  if (IS_TIM_SLAVE_INSTANCE(htim->Instance))
 80057ac:	4c0c      	ldr	r4, [pc, #48]	; (80057e0 <HAL_TIMEx_MasterConfigSynchronization+0x58>)
 80057ae:	42a3      	cmp	r3, r4
 80057b0:	d00a      	beq.n	80057c8 <HAL_TIMEx_MasterConfigSynchronization+0x40>
 80057b2:	f1b3 4f80 	cmp.w	r3, #1073741824	; 0x40000000
 80057b6:	d007      	beq.n	80057c8 <HAL_TIMEx_MasterConfigSynchronization+0x40>
 80057b8:	f5a4 3494 	sub.w	r4, r4, #75776	; 0x12800
 80057bc:	42a3      	cmp	r3, r4
 80057be:	d003      	beq.n	80057c8 <HAL_TIMEx_MasterConfigSynchronization+0x40>
 80057c0:	f504 6480 	add.w	r4, r4, #1024	; 0x400
 80057c4:	42a3      	cmp	r3, r4
 80057c6:	d104      	bne.n	80057d2 <HAL_TIMEx_MasterConfigSynchronization+0x4a>
  {
    /* Reset the MSM Bit */
    tmpsmcr &= ~TIM_SMCR_MSM;
    /* Set master mode */
    tmpsmcr |= sMasterConfig->MasterSlaveMode;
 80057c8:	6849      	ldr	r1, [r1, #4]
    tmpsmcr &= ~TIM_SMCR_MSM;
 80057ca:	f020 0080 	bic.w	r0, r0, #128	; 0x80
    tmpsmcr |= sMasterConfig->MasterSlaveMode;
 80057ce:	4301      	orrs	r1, r0

    /* Update TIMx SMCR */
    htim->Instance->SMCR = tmpsmcr;
 80057d0:	6099      	str	r1, [r3, #8]
  }

  /* Change the htim state */
  htim->State = HAL_TIM_STATE_READY;
 80057d2:	2301      	movs	r3, #1

  __HAL_UNLOCK(htim);
 80057d4:	2000      	movs	r0, #0
  htim->State = HAL_TIM_STATE_READY;
 80057d6:	f882 303d 	strb.w	r3, [r2, #61]	; 0x3d
  __HAL_UNLOCK(htim);
 80057da:	f882 003c 	strb.w	r0, [r2, #60]	; 0x3c

  return HAL_OK;
}
 80057de:	bd30      	pop	{r4, r5, pc}
 80057e0:	40012c00 	.word	0x40012c00

080057e4 <HAL_TIMEx_ConfigBreakDeadTime>:
  assert_param(IS_TIM_BREAK_STATE(sBreakDeadTimeConfig->BreakState));
  assert_param(IS_TIM_BREAK_POLARITY(sBreakDeadTimeConfig->BreakPolarity));
  assert_param(IS_TIM_AUTOMATIC_OUTPUT_STATE(sBreakDeadTimeConfig->AutomaticOutput));

  /* Check input state */
  __HAL_LOCK(htim);
 80057e4:	f890 303c 	ldrb.w	r3, [r0, #60]	; 0x3c
 80057e8:	2b01      	cmp	r3, #1
 80057ea:	d01f      	beq.n	800582c <HAL_TIMEx_ConfigBreakDeadTime+0x48>
  /* Set the Lock level, the Break enable Bit and the Polarity, the OSSR State,
     the OSSI State, the dead time value and the Automatic Output Enable Bit */

  /* Set the BDTR bits */
  MODIFY_REG(tmpbdtr, TIM_BDTR_DTG, sBreakDeadTimeConfig->DeadTime);
  MODIFY_REG(tmpbdtr, TIM_BDTR_LOCK, sBreakDeadTimeConfig->LockLevel);
 80057ec:	68cb      	ldr	r3, [r1, #12]
 80057ee:	688a      	ldr	r2, [r1, #8]
 80057f0:	f423 7340 	bic.w	r3, r3, #768	; 0x300
 80057f4:	4313      	orrs	r3, r2
  MODIFY_REG(tmpbdtr, TIM_BDTR_OSSI, sBreakDeadTimeConfig->OffStateIDLEMode);
 80057f6:	684a      	ldr	r2, [r1, #4]
 80057f8:	f423 6380 	bic.w	r3, r3, #1024	; 0x400
 80057fc:	4313      	orrs	r3, r2
  MODIFY_REG(tmpbdtr, TIM_BDTR_OSSR, sBreakDeadTimeConfig->OffStateRunMode);
 80057fe:	680a      	ldr	r2, [r1, #0]
 8005800:	f423 6300 	bic.w	r3, r3, #2048	; 0x800
 8005804:	4313      	orrs	r3, r2
  MODIFY_REG(tmpbdtr, TIM_BDTR_BKE, sBreakDeadTimeConfig->BreakState);
 8005806:	690a      	ldr	r2, [r1, #16]
 8005808:	f423 5380 	bic.w	r3, r3, #4096	; 0x1000
 800580c:	4313      	orrs	r3, r2
  MODIFY_REG(tmpbdtr, TIM_BDTR_BKP, sBreakDeadTimeConfig->BreakPolarity);
 800580e:	694a      	ldr	r2, [r1, #20]
 8005810:	f423 5300 	bic.w	r3, r3, #8192	; 0x2000
 8005814:	4313      	orrs	r3, r2
  MODIFY_REG(tmpbdtr, TIM_BDTR_AOE, sBreakDeadTimeConfig->AutomaticOutput);
 8005816:	69ca      	ldr	r2, [r1, #28]
 8005818:	f423 4380 	bic.w	r3, r3, #16384	; 0x4000
 800581c:	4313      	orrs	r3, r2


  /* Set TIMx_BDTR */
  htim->Instance->BDTR = tmpbdtr;
 800581e:	6802      	ldr	r2, [r0, #0]
 8005820:	6453      	str	r3, [r2, #68]	; 0x44

  __HAL_UNLOCK(htim);
 8005822:	2300      	movs	r3, #0
 8005824:	f880 303c 	strb.w	r3, [r0, #60]	; 0x3c

  return HAL_OK;
 8005828:	4618      	mov	r0, r3
 800582a:	4770      	bx	lr
  __HAL_LOCK(htim);
 800582c:	2002      	movs	r0, #2
}
 800582e:	4770      	bx	lr

08005830 <__errno>:
 8005830:	4b01      	ldr	r3, [pc, #4]	; (8005838 <__errno+0x8>)
 8005832:	6818      	ldr	r0, [r3, #0]
 8005834:	4770      	bx	lr
 8005836:	bf00      	nop
 8005838:	20000050 	.word	0x20000050

0800583c <__libc_init_array>:
 800583c:	b570      	push	{r4, r5, r6, lr}
 800583e:	2600      	movs	r6, #0
 8005840:	4d0c      	ldr	r5, [pc, #48]	; (8005874 <__libc_init_array+0x38>)
 8005842:	4c0d      	ldr	r4, [pc, #52]	; (8005878 <__libc_init_array+0x3c>)
 8005844:	1b64      	subs	r4, r4, r5
 8005846:	10a4      	asrs	r4, r4, #2
 8005848:	42a6      	cmp	r6, r4
 800584a:	d109      	bne.n	8005860 <__libc_init_array+0x24>
 800584c:	f001 f88e 	bl	800696c <_init>
 8005850:	2600      	movs	r6, #0
 8005852:	4d0a      	ldr	r5, [pc, #40]	; (800587c <__libc_init_array+0x40>)
 8005854:	4c0a      	ldr	r4, [pc, #40]	; (8005880 <__libc_init_array+0x44>)
 8005856:	1b64      	subs	r4, r4, r5
 8005858:	10a4      	asrs	r4, r4, #2
 800585a:	42a6      	cmp	r6, r4
 800585c:	d105      	bne.n	800586a <__libc_init_array+0x2e>
 800585e:	bd70      	pop	{r4, r5, r6, pc}
 8005860:	f855 3b04 	ldr.w	r3, [r5], #4
 8005864:	4798      	blx	r3
 8005866:	3601      	adds	r6, #1
 8005868:	e7ee      	b.n	8005848 <__libc_init_array+0xc>
 800586a:	f855 3b04 	ldr.w	r3, [r5], #4
 800586e:	4798      	blx	r3
 8005870:	3601      	adds	r6, #1
 8005872:	e7f2      	b.n	800585a <__libc_init_array+0x1e>
 8005874:	080087ac 	.word	0x080087ac
 8005878:	080087ac 	.word	0x080087ac
 800587c:	080087ac 	.word	0x080087ac
 8005880:	080087b0 	.word	0x080087b0

08005884 <memset>:
 8005884:	4603      	mov	r3, r0
 8005886:	4402      	add	r2, r0
 8005888:	4293      	cmp	r3, r2
 800588a:	d100      	bne.n	800588e <memset+0xa>
 800588c:	4770      	bx	lr
 800588e:	f803 1b01 	strb.w	r1, [r3], #1
 8005892:	e7f9      	b.n	8005888 <memset+0x4>

08005894 <srand>:
 8005894:	b538      	push	{r3, r4, r5, lr}
 8005896:	4b10      	ldr	r3, [pc, #64]	; (80058d8 <srand+0x44>)
 8005898:	4604      	mov	r4, r0
 800589a:	681d      	ldr	r5, [r3, #0]
 800589c:	6bab      	ldr	r3, [r5, #56]	; 0x38
 800589e:	b9b3      	cbnz	r3, 80058ce <srand+0x3a>
 80058a0:	2018      	movs	r0, #24
 80058a2:	f000 f893 	bl	80059cc <malloc>
 80058a6:	4602      	mov	r2, r0
 80058a8:	63a8      	str	r0, [r5, #56]	; 0x38
 80058aa:	b920      	cbnz	r0, 80058b6 <srand+0x22>
 80058ac:	2142      	movs	r1, #66	; 0x42
 80058ae:	4b0b      	ldr	r3, [pc, #44]	; (80058dc <srand+0x48>)
 80058b0:	480b      	ldr	r0, [pc, #44]	; (80058e0 <srand+0x4c>)
 80058b2:	f000 f85b 	bl	800596c <__assert_func>
 80058b6:	490b      	ldr	r1, [pc, #44]	; (80058e4 <srand+0x50>)
 80058b8:	4b0b      	ldr	r3, [pc, #44]	; (80058e8 <srand+0x54>)
 80058ba:	e9c0 1300 	strd	r1, r3, [r0]
 80058be:	4b0b      	ldr	r3, [pc, #44]	; (80058ec <srand+0x58>)
 80058c0:	2100      	movs	r1, #0
 80058c2:	6083      	str	r3, [r0, #8]
 80058c4:	230b      	movs	r3, #11
 80058c6:	8183      	strh	r3, [r0, #12]
 80058c8:	2001      	movs	r0, #1
 80058ca:	e9c2 0104 	strd	r0, r1, [r2, #16]
 80058ce:	2200      	movs	r2, #0
 80058d0:	6bab      	ldr	r3, [r5, #56]	; 0x38
 80058d2:	611c      	str	r4, [r3, #16]
 80058d4:	615a      	str	r2, [r3, #20]
 80058d6:	bd38      	pop	{r3, r4, r5, pc}
 80058d8:	20000050 	.word	0x20000050
 80058dc:	08008668 	.word	0x08008668
 80058e0:	0800867f 	.word	0x0800867f
 80058e4:	abcd330e 	.word	0xabcd330e
 80058e8:	e66d1234 	.word	0xe66d1234
 80058ec:	0005deec 	.word	0x0005deec

080058f0 <rand>:
 80058f0:	4b16      	ldr	r3, [pc, #88]	; (800594c <rand+0x5c>)
 80058f2:	b510      	push	{r4, lr}
 80058f4:	681c      	ldr	r4, [r3, #0]
 80058f6:	6ba3      	ldr	r3, [r4, #56]	; 0x38
 80058f8:	b9b3      	cbnz	r3, 8005928 <rand+0x38>
 80058fa:	2018      	movs	r0, #24
 80058fc:	f000 f866 	bl	80059cc <malloc>
 8005900:	4602      	mov	r2, r0
 8005902:	63a0      	str	r0, [r4, #56]	; 0x38
 8005904:	b920      	cbnz	r0, 8005910 <rand+0x20>
 8005906:	214e      	movs	r1, #78	; 0x4e
 8005908:	4b11      	ldr	r3, [pc, #68]	; (8005950 <rand+0x60>)
 800590a:	4812      	ldr	r0, [pc, #72]	; (8005954 <rand+0x64>)
 800590c:	f000 f82e 	bl	800596c <__assert_func>
 8005910:	4911      	ldr	r1, [pc, #68]	; (8005958 <rand+0x68>)
 8005912:	4b12      	ldr	r3, [pc, #72]	; (800595c <rand+0x6c>)
 8005914:	e9c0 1300 	strd	r1, r3, [r0]
 8005918:	4b11      	ldr	r3, [pc, #68]	; (8005960 <rand+0x70>)
 800591a:	2100      	movs	r1, #0
 800591c:	6083      	str	r3, [r0, #8]
 800591e:	230b      	movs	r3, #11
 8005920:	8183      	strh	r3, [r0, #12]
 8005922:	2001      	movs	r0, #1
 8005924:	e9c2 0104 	strd	r0, r1, [r2, #16]
 8005928:	6ba4      	ldr	r4, [r4, #56]	; 0x38
 800592a:	4a0e      	ldr	r2, [pc, #56]	; (8005964 <rand+0x74>)
 800592c:	6920      	ldr	r0, [r4, #16]
 800592e:	6963      	ldr	r3, [r4, #20]
 8005930:	4342      	muls	r2, r0
 8005932:	490d      	ldr	r1, [pc, #52]	; (8005968 <rand+0x78>)
 8005934:	fb01 2203 	mla	r2, r1, r3, r2
 8005938:	fba0 0101 	umull	r0, r1, r0, r1
 800593c:	1c43      	adds	r3, r0, #1
 800593e:	eb42 0001 	adc.w	r0, r2, r1
 8005942:	e9c4 3004 	strd	r3, r0, [r4, #16]
 8005946:	f020 4000 	bic.w	r0, r0, #2147483648	; 0x80000000
 800594a:	bd10      	pop	{r4, pc}
 800594c:	20000050 	.word	0x20000050
 8005950:	08008668 	.word	0x08008668
 8005954:	0800867f 	.word	0x0800867f
 8005958:	abcd330e 	.word	0xabcd330e
 800595c:	e66d1234 	.word	0xe66d1234
 8005960:	0005deec 	.word	0x0005deec
 8005964:	5851f42d 	.word	0x5851f42d
 8005968:	4c957f2d 	.word	0x4c957f2d

0800596c <__assert_func>:
 800596c:	b51f      	push	{r0, r1, r2, r3, r4, lr}
 800596e:	4614      	mov	r4, r2
 8005970:	461a      	mov	r2, r3
 8005972:	4b09      	ldr	r3, [pc, #36]	; (8005998 <__assert_func+0x2c>)
 8005974:	4605      	mov	r5, r0
 8005976:	681b      	ldr	r3, [r3, #0]
 8005978:	68d8      	ldr	r0, [r3, #12]
 800597a:	b14c      	cbz	r4, 8005990 <__assert_func+0x24>
 800597c:	4b07      	ldr	r3, [pc, #28]	; (800599c <__assert_func+0x30>)
 800597e:	e9cd 3401 	strd	r3, r4, [sp, #4]
 8005982:	9100      	str	r1, [sp, #0]
 8005984:	462b      	mov	r3, r5
 8005986:	4906      	ldr	r1, [pc, #24]	; (80059a0 <__assert_func+0x34>)
 8005988:	f000 f80e 	bl	80059a8 <fiprintf>
 800598c:	f000 fcc0 	bl	8006310 <abort>
 8005990:	4b04      	ldr	r3, [pc, #16]	; (80059a4 <__assert_func+0x38>)
 8005992:	461c      	mov	r4, r3
 8005994:	e7f3      	b.n	800597e <__assert_func+0x12>
 8005996:	bf00      	nop
 8005998:	20000050 	.word	0x20000050
 800599c:	080086da 	.word	0x080086da
 80059a0:	080086e7 	.word	0x080086e7
 80059a4:	08008715 	.word	0x08008715

080059a8 <fiprintf>:
 80059a8:	b40e      	push	{r1, r2, r3}
 80059aa:	b503      	push	{r0, r1, lr}
 80059ac:	4601      	mov	r1, r0
 80059ae:	ab03      	add	r3, sp, #12
 80059b0:	4805      	ldr	r0, [pc, #20]	; (80059c8 <fiprintf+0x20>)
 80059b2:	f853 2b04 	ldr.w	r2, [r3], #4
 80059b6:	6800      	ldr	r0, [r0, #0]
 80059b8:	9301      	str	r3, [sp, #4]
 80059ba:	f000 f913 	bl	8005be4 <_vfiprintf_r>
 80059be:	b002      	add	sp, #8
 80059c0:	f85d eb04 	ldr.w	lr, [sp], #4
 80059c4:	b003      	add	sp, #12
 80059c6:	4770      	bx	lr
 80059c8:	20000050 	.word	0x20000050

080059cc <malloc>:
 80059cc:	4b02      	ldr	r3, [pc, #8]	; (80059d8 <malloc+0xc>)
 80059ce:	4601      	mov	r1, r0
 80059d0:	6818      	ldr	r0, [r3, #0]
 80059d2:	f000 b86b 	b.w	8005aac <_malloc_r>
 80059d6:	bf00      	nop
 80059d8:	20000050 	.word	0x20000050

080059dc <_free_r>:
 80059dc:	b538      	push	{r3, r4, r5, lr}
 80059de:	4605      	mov	r5, r0
 80059e0:	2900      	cmp	r1, #0
 80059e2:	d040      	beq.n	8005a66 <_free_r+0x8a>
 80059e4:	f851 3c04 	ldr.w	r3, [r1, #-4]
 80059e8:	1f0c      	subs	r4, r1, #4
 80059ea:	2b00      	cmp	r3, #0
 80059ec:	bfb8      	it	lt
 80059ee:	18e4      	addlt	r4, r4, r3
 80059f0:	f000 fec0 	bl	8006774 <__malloc_lock>
 80059f4:	4a1c      	ldr	r2, [pc, #112]	; (8005a68 <_free_r+0x8c>)
 80059f6:	6813      	ldr	r3, [r2, #0]
 80059f8:	b933      	cbnz	r3, 8005a08 <_free_r+0x2c>
 80059fa:	6063      	str	r3, [r4, #4]
 80059fc:	6014      	str	r4, [r2, #0]
 80059fe:	4628      	mov	r0, r5
 8005a00:	e8bd 4038 	ldmia.w	sp!, {r3, r4, r5, lr}
 8005a04:	f000 bebc 	b.w	8006780 <__malloc_unlock>
 8005a08:	42a3      	cmp	r3, r4
 8005a0a:	d908      	bls.n	8005a1e <_free_r+0x42>
 8005a0c:	6820      	ldr	r0, [r4, #0]
 8005a0e:	1821      	adds	r1, r4, r0
 8005a10:	428b      	cmp	r3, r1
 8005a12:	bf01      	itttt	eq
 8005a14:	6819      	ldreq	r1, [r3, #0]
 8005a16:	685b      	ldreq	r3, [r3, #4]
 8005a18:	1809      	addeq	r1, r1, r0
 8005a1a:	6021      	streq	r1, [r4, #0]
 8005a1c:	e7ed      	b.n	80059fa <_free_r+0x1e>
 8005a1e:	461a      	mov	r2, r3
 8005a20:	685b      	ldr	r3, [r3, #4]
 8005a22:	b10b      	cbz	r3, 8005a28 <_free_r+0x4c>
 8005a24:	42a3      	cmp	r3, r4
 8005a26:	d9fa      	bls.n	8005a1e <_free_r+0x42>
 8005a28:	6811      	ldr	r1, [r2, #0]
 8005a2a:	1850      	adds	r0, r2, r1
 8005a2c:	42a0      	cmp	r0, r4
 8005a2e:	d10b      	bne.n	8005a48 <_free_r+0x6c>
 8005a30:	6820      	ldr	r0, [r4, #0]
 8005a32:	4401      	add	r1, r0
 8005a34:	1850      	adds	r0, r2, r1
 8005a36:	4283      	cmp	r3, r0
 8005a38:	6011      	str	r1, [r2, #0]
 8005a3a:	d1e0      	bne.n	80059fe <_free_r+0x22>
 8005a3c:	6818      	ldr	r0, [r3, #0]
 8005a3e:	685b      	ldr	r3, [r3, #4]
 8005a40:	4401      	add	r1, r0
 8005a42:	6011      	str	r1, [r2, #0]
 8005a44:	6053      	str	r3, [r2, #4]
 8005a46:	e7da      	b.n	80059fe <_free_r+0x22>
 8005a48:	d902      	bls.n	8005a50 <_free_r+0x74>
 8005a4a:	230c      	movs	r3, #12
 8005a4c:	602b      	str	r3, [r5, #0]
 8005a4e:	e7d6      	b.n	80059fe <_free_r+0x22>
 8005a50:	6820      	ldr	r0, [r4, #0]
 8005a52:	1821      	adds	r1, r4, r0
 8005a54:	428b      	cmp	r3, r1
 8005a56:	bf01      	itttt	eq
 8005a58:	6819      	ldreq	r1, [r3, #0]
 8005a5a:	685b      	ldreq	r3, [r3, #4]
 8005a5c:	1809      	addeq	r1, r1, r0
 8005a5e:	6021      	streq	r1, [r4, #0]
 8005a60:	6063      	str	r3, [r4, #4]
 8005a62:	6054      	str	r4, [r2, #4]
 8005a64:	e7cb      	b.n	80059fe <_free_r+0x22>
 8005a66:	bd38      	pop	{r3, r4, r5, pc}
 8005a68:	200009e8 	.word	0x200009e8

08005a6c <sbrk_aligned>:
 8005a6c:	b570      	push	{r4, r5, r6, lr}
 8005a6e:	4e0e      	ldr	r6, [pc, #56]	; (8005aa8 <sbrk_aligned+0x3c>)
 8005a70:	460c      	mov	r4, r1
 8005a72:	6831      	ldr	r1, [r6, #0]
 8005a74:	4605      	mov	r5, r0
 8005a76:	b911      	cbnz	r1, 8005a7e <sbrk_aligned+0x12>
 8005a78:	f000 fb7a 	bl	8006170 <_sbrk_r>
 8005a7c:	6030      	str	r0, [r6, #0]
 8005a7e:	4621      	mov	r1, r4
 8005a80:	4628      	mov	r0, r5
 8005a82:	f000 fb75 	bl	8006170 <_sbrk_r>
 8005a86:	1c43      	adds	r3, r0, #1
 8005a88:	d00a      	beq.n	8005aa0 <sbrk_aligned+0x34>
 8005a8a:	1cc4      	adds	r4, r0, #3
 8005a8c:	f024 0403 	bic.w	r4, r4, #3
 8005a90:	42a0      	cmp	r0, r4
 8005a92:	d007      	beq.n	8005aa4 <sbrk_aligned+0x38>
 8005a94:	1a21      	subs	r1, r4, r0
 8005a96:	4628      	mov	r0, r5
 8005a98:	f000 fb6a 	bl	8006170 <_sbrk_r>
 8005a9c:	3001      	adds	r0, #1
 8005a9e:	d101      	bne.n	8005aa4 <sbrk_aligned+0x38>
 8005aa0:	f04f 34ff 	mov.w	r4, #4294967295
 8005aa4:	4620      	mov	r0, r4
 8005aa6:	bd70      	pop	{r4, r5, r6, pc}
 8005aa8:	200009ec 	.word	0x200009ec

08005aac <_malloc_r>:
 8005aac:	e92d 41f0 	stmdb	sp!, {r4, r5, r6, r7, r8, lr}
 8005ab0:	1ccd      	adds	r5, r1, #3
 8005ab2:	f025 0503 	bic.w	r5, r5, #3
 8005ab6:	3508      	adds	r5, #8
 8005ab8:	2d0c      	cmp	r5, #12
 8005aba:	bf38      	it	cc
 8005abc:	250c      	movcc	r5, #12
 8005abe:	2d00      	cmp	r5, #0
 8005ac0:	4607      	mov	r7, r0
 8005ac2:	db01      	blt.n	8005ac8 <_malloc_r+0x1c>
 8005ac4:	42a9      	cmp	r1, r5
 8005ac6:	d905      	bls.n	8005ad4 <_malloc_r+0x28>
 8005ac8:	230c      	movs	r3, #12
 8005aca:	2600      	movs	r6, #0
 8005acc:	603b      	str	r3, [r7, #0]
 8005ace:	4630      	mov	r0, r6
 8005ad0:	e8bd 81f0 	ldmia.w	sp!, {r4, r5, r6, r7, r8, pc}
 8005ad4:	4e2e      	ldr	r6, [pc, #184]	; (8005b90 <_malloc_r+0xe4>)
 8005ad6:	f000 fe4d 	bl	8006774 <__malloc_lock>
 8005ada:	6833      	ldr	r3, [r6, #0]
 8005adc:	461c      	mov	r4, r3
 8005ade:	bb34      	cbnz	r4, 8005b2e <_malloc_r+0x82>
 8005ae0:	4629      	mov	r1, r5
 8005ae2:	4638      	mov	r0, r7
 8005ae4:	f7ff ffc2 	bl	8005a6c <sbrk_aligned>
 8005ae8:	1c43      	adds	r3, r0, #1
 8005aea:	4604      	mov	r4, r0
 8005aec:	d14d      	bne.n	8005b8a <_malloc_r+0xde>
 8005aee:	6834      	ldr	r4, [r6, #0]
 8005af0:	4626      	mov	r6, r4
 8005af2:	2e00      	cmp	r6, #0
 8005af4:	d140      	bne.n	8005b78 <_malloc_r+0xcc>
 8005af6:	6823      	ldr	r3, [r4, #0]
 8005af8:	4631      	mov	r1, r6
 8005afa:	4638      	mov	r0, r7
 8005afc:	eb04 0803 	add.w	r8, r4, r3
 8005b00:	f000 fb36 	bl	8006170 <_sbrk_r>
 8005b04:	4580      	cmp	r8, r0
 8005b06:	d13a      	bne.n	8005b7e <_malloc_r+0xd2>
 8005b08:	6821      	ldr	r1, [r4, #0]
 8005b0a:	3503      	adds	r5, #3
 8005b0c:	1a6d      	subs	r5, r5, r1
 8005b0e:	f025 0503 	bic.w	r5, r5, #3
 8005b12:	3508      	adds	r5, #8
 8005b14:	2d0c      	cmp	r5, #12
 8005b16:	bf38      	it	cc
 8005b18:	250c      	movcc	r5, #12
 8005b1a:	4638      	mov	r0, r7
 8005b1c:	4629      	mov	r1, r5
 8005b1e:	f7ff ffa5 	bl	8005a6c <sbrk_aligned>
 8005b22:	3001      	adds	r0, #1
 8005b24:	d02b      	beq.n	8005b7e <_malloc_r+0xd2>
 8005b26:	6823      	ldr	r3, [r4, #0]
 8005b28:	442b      	add	r3, r5
 8005b2a:	6023      	str	r3, [r4, #0]
 8005b2c:	e00e      	b.n	8005b4c <_malloc_r+0xa0>
 8005b2e:	6822      	ldr	r2, [r4, #0]
 8005b30:	1b52      	subs	r2, r2, r5
 8005b32:	d41e      	bmi.n	8005b72 <_malloc_r+0xc6>
 8005b34:	2a0b      	cmp	r2, #11
 8005b36:	d916      	bls.n	8005b66 <_malloc_r+0xba>
 8005b38:	1961      	adds	r1, r4, r5
 8005b3a:	42a3      	cmp	r3, r4
 8005b3c:	6025      	str	r5, [r4, #0]
 8005b3e:	bf18      	it	ne
 8005b40:	6059      	strne	r1, [r3, #4]
 8005b42:	6863      	ldr	r3, [r4, #4]
 8005b44:	bf08      	it	eq
 8005b46:	6031      	streq	r1, [r6, #0]
 8005b48:	5162      	str	r2, [r4, r5]
 8005b4a:	604b      	str	r3, [r1, #4]
 8005b4c:	4638      	mov	r0, r7
 8005b4e:	f104 060b 	add.w	r6, r4, #11
 8005b52:	f000 fe15 	bl	8006780 <__malloc_unlock>
 8005b56:	f026 0607 	bic.w	r6, r6, #7
 8005b5a:	1d23      	adds	r3, r4, #4
 8005b5c:	1af2      	subs	r2, r6, r3
 8005b5e:	d0b6      	beq.n	8005ace <_malloc_r+0x22>
 8005b60:	1b9b      	subs	r3, r3, r6
 8005b62:	50a3      	str	r3, [r4, r2]
 8005b64:	e7b3      	b.n	8005ace <_malloc_r+0x22>
 8005b66:	6862      	ldr	r2, [r4, #4]
 8005b68:	42a3      	cmp	r3, r4
 8005b6a:	bf0c      	ite	eq
 8005b6c:	6032      	streq	r2, [r6, #0]
 8005b6e:	605a      	strne	r2, [r3, #4]
 8005b70:	e7ec      	b.n	8005b4c <_malloc_r+0xa0>
 8005b72:	4623      	mov	r3, r4
 8005b74:	6864      	ldr	r4, [r4, #4]
 8005b76:	e7b2      	b.n	8005ade <_malloc_r+0x32>
 8005b78:	4634      	mov	r4, r6
 8005b7a:	6876      	ldr	r6, [r6, #4]
 8005b7c:	e7b9      	b.n	8005af2 <_malloc_r+0x46>
 8005b7e:	230c      	movs	r3, #12
 8005b80:	4638      	mov	r0, r7
 8005b82:	603b      	str	r3, [r7, #0]
 8005b84:	f000 fdfc 	bl	8006780 <__malloc_unlock>
 8005b88:	e7a1      	b.n	8005ace <_malloc_r+0x22>
 8005b8a:	6025      	str	r5, [r4, #0]
 8005b8c:	e7de      	b.n	8005b4c <_malloc_r+0xa0>
 8005b8e:	bf00      	nop
 8005b90:	200009e8 	.word	0x200009e8

08005b94 <__sfputc_r>:
 8005b94:	6893      	ldr	r3, [r2, #8]
 8005b96:	b410      	push	{r4}
 8005b98:	3b01      	subs	r3, #1
 8005b9a:	2b00      	cmp	r3, #0
 8005b9c:	6093      	str	r3, [r2, #8]
 8005b9e:	da07      	bge.n	8005bb0 <__sfputc_r+0x1c>
 8005ba0:	6994      	ldr	r4, [r2, #24]
 8005ba2:	42a3      	cmp	r3, r4
 8005ba4:	db01      	blt.n	8005baa <__sfputc_r+0x16>
 8005ba6:	290a      	cmp	r1, #10
 8005ba8:	d102      	bne.n	8005bb0 <__sfputc_r+0x1c>
 8005baa:	bc10      	pop	{r4}
 8005bac:	f000 baf0 	b.w	8006190 <__swbuf_r>
 8005bb0:	6813      	ldr	r3, [r2, #0]
 8005bb2:	1c58      	adds	r0, r3, #1
 8005bb4:	6010      	str	r0, [r2, #0]
 8005bb6:	7019      	strb	r1, [r3, #0]
 8005bb8:	4608      	mov	r0, r1
 8005bba:	bc10      	pop	{r4}
 8005bbc:	4770      	bx	lr

08005bbe <__sfputs_r>:
 8005bbe:	b5f8      	push	{r3, r4, r5, r6, r7, lr}
 8005bc0:	4606      	mov	r6, r0
 8005bc2:	460f      	mov	r7, r1
 8005bc4:	4614      	mov	r4, r2
 8005bc6:	18d5      	adds	r5, r2, r3
 8005bc8:	42ac      	cmp	r4, r5
 8005bca:	d101      	bne.n	8005bd0 <__sfputs_r+0x12>
 8005bcc:	2000      	movs	r0, #0
 8005bce:	e007      	b.n	8005be0 <__sfputs_r+0x22>
 8005bd0:	463a      	mov	r2, r7
 8005bd2:	4630      	mov	r0, r6
 8005bd4:	f814 1b01 	ldrb.w	r1, [r4], #1
 8005bd8:	f7ff ffdc 	bl	8005b94 <__sfputc_r>
 8005bdc:	1c43      	adds	r3, r0, #1
 8005bde:	d1f3      	bne.n	8005bc8 <__sfputs_r+0xa>
 8005be0:	bdf8      	pop	{r3, r4, r5, r6, r7, pc}
	...

08005be4 <_vfiprintf_r>:
 8005be4:	e92d 4ff0 	stmdb	sp!, {r4, r5, r6, r7, r8, r9, sl, fp, lr}
 8005be8:	460d      	mov	r5, r1
 8005bea:	4614      	mov	r4, r2
 8005bec:	4698      	mov	r8, r3
 8005bee:	4606      	mov	r6, r0
 8005bf0:	b09d      	sub	sp, #116	; 0x74
 8005bf2:	b118      	cbz	r0, 8005bfc <_vfiprintf_r+0x18>
 8005bf4:	6983      	ldr	r3, [r0, #24]
 8005bf6:	b90b      	cbnz	r3, 8005bfc <_vfiprintf_r+0x18>
 8005bf8:	f000 fca8 	bl	800654c <__sinit>
 8005bfc:	4b89      	ldr	r3, [pc, #548]	; (8005e24 <_vfiprintf_r+0x240>)
 8005bfe:	429d      	cmp	r5, r3
 8005c00:	d11b      	bne.n	8005c3a <_vfiprintf_r+0x56>
 8005c02:	6875      	ldr	r5, [r6, #4]
 8005c04:	6e6b      	ldr	r3, [r5, #100]	; 0x64
 8005c06:	07d9      	lsls	r1, r3, #31
 8005c08:	d405      	bmi.n	8005c16 <_vfiprintf_r+0x32>
 8005c0a:	89ab      	ldrh	r3, [r5, #12]
 8005c0c:	059a      	lsls	r2, r3, #22
 8005c0e:	d402      	bmi.n	8005c16 <_vfiprintf_r+0x32>
 8005c10:	6da8      	ldr	r0, [r5, #88]	; 0x58
 8005c12:	f000 fd39 	bl	8006688 <__retarget_lock_acquire_recursive>
 8005c16:	89ab      	ldrh	r3, [r5, #12]
 8005c18:	071b      	lsls	r3, r3, #28
 8005c1a:	d501      	bpl.n	8005c20 <_vfiprintf_r+0x3c>
 8005c1c:	692b      	ldr	r3, [r5, #16]
 8005c1e:	b9eb      	cbnz	r3, 8005c5c <_vfiprintf_r+0x78>
 8005c20:	4629      	mov	r1, r5
 8005c22:	4630      	mov	r0, r6
 8005c24:	f000 fb06 	bl	8006234 <__swsetup_r>
 8005c28:	b1c0      	cbz	r0, 8005c5c <_vfiprintf_r+0x78>
 8005c2a:	6e6b      	ldr	r3, [r5, #100]	; 0x64
 8005c2c:	07dc      	lsls	r4, r3, #31
 8005c2e:	d50e      	bpl.n	8005c4e <_vfiprintf_r+0x6a>
 8005c30:	f04f 30ff 	mov.w	r0, #4294967295
 8005c34:	b01d      	add	sp, #116	; 0x74
 8005c36:	e8bd 8ff0 	ldmia.w	sp!, {r4, r5, r6, r7, r8, r9, sl, fp, pc}
 8005c3a:	4b7b      	ldr	r3, [pc, #492]	; (8005e28 <_vfiprintf_r+0x244>)
 8005c3c:	429d      	cmp	r5, r3
 8005c3e:	d101      	bne.n	8005c44 <_vfiprintf_r+0x60>
 8005c40:	68b5      	ldr	r5, [r6, #8]
 8005c42:	e7df      	b.n	8005c04 <_vfiprintf_r+0x20>
 8005c44:	4b79      	ldr	r3, [pc, #484]	; (8005e2c <_vfiprintf_r+0x248>)
 8005c46:	429d      	cmp	r5, r3
 8005c48:	bf08      	it	eq
 8005c4a:	68f5      	ldreq	r5, [r6, #12]
 8005c4c:	e7da      	b.n	8005c04 <_vfiprintf_r+0x20>
 8005c4e:	89ab      	ldrh	r3, [r5, #12]
 8005c50:	0598      	lsls	r0, r3, #22
 8005c52:	d4ed      	bmi.n	8005c30 <_vfiprintf_r+0x4c>
 8005c54:	6da8      	ldr	r0, [r5, #88]	; 0x58
 8005c56:	f000 fd18 	bl	800668a <__retarget_lock_release_recursive>
 8005c5a:	e7e9      	b.n	8005c30 <_vfiprintf_r+0x4c>
 8005c5c:	2300      	movs	r3, #0
 8005c5e:	9309      	str	r3, [sp, #36]	; 0x24
 8005c60:	2320      	movs	r3, #32
 8005c62:	f88d 3029 	strb.w	r3, [sp, #41]	; 0x29
 8005c66:	2330      	movs	r3, #48	; 0x30
 8005c68:	f04f 0901 	mov.w	r9, #1
 8005c6c:	f8cd 800c 	str.w	r8, [sp, #12]
 8005c70:	f8df 81bc 	ldr.w	r8, [pc, #444]	; 8005e30 <_vfiprintf_r+0x24c>
 8005c74:	f88d 302a 	strb.w	r3, [sp, #42]	; 0x2a
 8005c78:	4623      	mov	r3, r4
 8005c7a:	469a      	mov	sl, r3
 8005c7c:	f813 2b01 	ldrb.w	r2, [r3], #1
 8005c80:	b10a      	cbz	r2, 8005c86 <_vfiprintf_r+0xa2>
 8005c82:	2a25      	cmp	r2, #37	; 0x25
 8005c84:	d1f9      	bne.n	8005c7a <_vfiprintf_r+0x96>
 8005c86:	ebba 0b04 	subs.w	fp, sl, r4
 8005c8a:	d00b      	beq.n	8005ca4 <_vfiprintf_r+0xc0>
 8005c8c:	465b      	mov	r3, fp
 8005c8e:	4622      	mov	r2, r4
 8005c90:	4629      	mov	r1, r5
 8005c92:	4630      	mov	r0, r6
 8005c94:	f7ff ff93 	bl	8005bbe <__sfputs_r>
 8005c98:	3001      	adds	r0, #1
 8005c9a:	f000 80aa 	beq.w	8005df2 <_vfiprintf_r+0x20e>
 8005c9e:	9a09      	ldr	r2, [sp, #36]	; 0x24
 8005ca0:	445a      	add	r2, fp
 8005ca2:	9209      	str	r2, [sp, #36]	; 0x24
 8005ca4:	f89a 3000 	ldrb.w	r3, [sl]
 8005ca8:	2b00      	cmp	r3, #0
 8005caa:	f000 80a2 	beq.w	8005df2 <_vfiprintf_r+0x20e>
 8005cae:	2300      	movs	r3, #0
 8005cb0:	f04f 32ff 	mov.w	r2, #4294967295
 8005cb4:	e9cd 2305 	strd	r2, r3, [sp, #20]
 8005cb8:	f10a 0a01 	add.w	sl, sl, #1
 8005cbc:	9304      	str	r3, [sp, #16]
 8005cbe:	9307      	str	r3, [sp, #28]
 8005cc0:	f88d 3053 	strb.w	r3, [sp, #83]	; 0x53
 8005cc4:	931a      	str	r3, [sp, #104]	; 0x68
 8005cc6:	4654      	mov	r4, sl
 8005cc8:	2205      	movs	r2, #5
 8005cca:	f814 1b01 	ldrb.w	r1, [r4], #1
 8005cce:	4858      	ldr	r0, [pc, #352]	; (8005e30 <_vfiprintf_r+0x24c>)
 8005cd0:	f000 fd42 	bl	8006758 <memchr>
 8005cd4:	9a04      	ldr	r2, [sp, #16]
 8005cd6:	b9d8      	cbnz	r0, 8005d10 <_vfiprintf_r+0x12c>
 8005cd8:	06d1      	lsls	r1, r2, #27
 8005cda:	bf44      	itt	mi
 8005cdc:	2320      	movmi	r3, #32
 8005cde:	f88d 3053 	strbmi.w	r3, [sp, #83]	; 0x53
 8005ce2:	0713      	lsls	r3, r2, #28
 8005ce4:	bf44      	itt	mi
 8005ce6:	232b      	movmi	r3, #43	; 0x2b
 8005ce8:	f88d 3053 	strbmi.w	r3, [sp, #83]	; 0x53
 8005cec:	f89a 3000 	ldrb.w	r3, [sl]
 8005cf0:	2b2a      	cmp	r3, #42	; 0x2a
 8005cf2:	d015      	beq.n	8005d20 <_vfiprintf_r+0x13c>
 8005cf4:	4654      	mov	r4, sl
 8005cf6:	2000      	movs	r0, #0
 8005cf8:	f04f 0c0a 	mov.w	ip, #10
 8005cfc:	9a07      	ldr	r2, [sp, #28]
 8005cfe:	4621      	mov	r1, r4
 8005d00:	f811 3b01 	ldrb.w	r3, [r1], #1
 8005d04:	3b30      	subs	r3, #48	; 0x30
 8005d06:	2b09      	cmp	r3, #9
 8005d08:	d94e      	bls.n	8005da8 <_vfiprintf_r+0x1c4>
 8005d0a:	b1b0      	cbz	r0, 8005d3a <_vfiprintf_r+0x156>
 8005d0c:	9207      	str	r2, [sp, #28]
 8005d0e:	e014      	b.n	8005d3a <_vfiprintf_r+0x156>
 8005d10:	eba0 0308 	sub.w	r3, r0, r8
 8005d14:	fa09 f303 	lsl.w	r3, r9, r3
 8005d18:	4313      	orrs	r3, r2
 8005d1a:	46a2      	mov	sl, r4
 8005d1c:	9304      	str	r3, [sp, #16]
 8005d1e:	e7d2      	b.n	8005cc6 <_vfiprintf_r+0xe2>
 8005d20:	9b03      	ldr	r3, [sp, #12]
 8005d22:	1d19      	adds	r1, r3, #4
 8005d24:	681b      	ldr	r3, [r3, #0]
 8005d26:	9103      	str	r1, [sp, #12]
 8005d28:	2b00      	cmp	r3, #0
 8005d2a:	bfbb      	ittet	lt
 8005d2c:	425b      	neglt	r3, r3
 8005d2e:	f042 0202 	orrlt.w	r2, r2, #2
 8005d32:	9307      	strge	r3, [sp, #28]
 8005d34:	9307      	strlt	r3, [sp, #28]
 8005d36:	bfb8      	it	lt
 8005d38:	9204      	strlt	r2, [sp, #16]
 8005d3a:	7823      	ldrb	r3, [r4, #0]
 8005d3c:	2b2e      	cmp	r3, #46	; 0x2e
 8005d3e:	d10c      	bne.n	8005d5a <_vfiprintf_r+0x176>
 8005d40:	7863      	ldrb	r3, [r4, #1]
 8005d42:	2b2a      	cmp	r3, #42	; 0x2a
 8005d44:	d135      	bne.n	8005db2 <_vfiprintf_r+0x1ce>
 8005d46:	9b03      	ldr	r3, [sp, #12]
 8005d48:	3402      	adds	r4, #2
 8005d4a:	1d1a      	adds	r2, r3, #4
 8005d4c:	681b      	ldr	r3, [r3, #0]
 8005d4e:	9203      	str	r2, [sp, #12]
 8005d50:	2b00      	cmp	r3, #0
 8005d52:	bfb8      	it	lt
 8005d54:	f04f 33ff 	movlt.w	r3, #4294967295
 8005d58:	9305      	str	r3, [sp, #20]
 8005d5a:	f8df a0d8 	ldr.w	sl, [pc, #216]	; 8005e34 <_vfiprintf_r+0x250>
 8005d5e:	2203      	movs	r2, #3
 8005d60:	4650      	mov	r0, sl
 8005d62:	7821      	ldrb	r1, [r4, #0]
 8005d64:	f000 fcf8 	bl	8006758 <memchr>
 8005d68:	b140      	cbz	r0, 8005d7c <_vfiprintf_r+0x198>
 8005d6a:	2340      	movs	r3, #64	; 0x40
 8005d6c:	eba0 000a 	sub.w	r0, r0, sl
 8005d70:	fa03 f000 	lsl.w	r0, r3, r0
 8005d74:	9b04      	ldr	r3, [sp, #16]
 8005d76:	3401      	adds	r4, #1
 8005d78:	4303      	orrs	r3, r0
 8005d7a:	9304      	str	r3, [sp, #16]
 8005d7c:	f814 1b01 	ldrb.w	r1, [r4], #1
 8005d80:	2206      	movs	r2, #6
 8005d82:	482d      	ldr	r0, [pc, #180]	; (8005e38 <_vfiprintf_r+0x254>)
 8005d84:	f88d 1028 	strb.w	r1, [sp, #40]	; 0x28
 8005d88:	f000 fce6 	bl	8006758 <memchr>
 8005d8c:	2800      	cmp	r0, #0
 8005d8e:	d03f      	beq.n	8005e10 <_vfiprintf_r+0x22c>
 8005d90:	4b2a      	ldr	r3, [pc, #168]	; (8005e3c <_vfiprintf_r+0x258>)
 8005d92:	bb1b      	cbnz	r3, 8005ddc <_vfiprintf_r+0x1f8>
 8005d94:	9b03      	ldr	r3, [sp, #12]
 8005d96:	3307      	adds	r3, #7
 8005d98:	f023 0307 	bic.w	r3, r3, #7
 8005d9c:	3308      	adds	r3, #8
 8005d9e:	9303      	str	r3, [sp, #12]
 8005da0:	9b09      	ldr	r3, [sp, #36]	; 0x24
 8005da2:	443b      	add	r3, r7
 8005da4:	9309      	str	r3, [sp, #36]	; 0x24
 8005da6:	e767      	b.n	8005c78 <_vfiprintf_r+0x94>
 8005da8:	460c      	mov	r4, r1
 8005daa:	2001      	movs	r0, #1
 8005dac:	fb0c 3202 	mla	r2, ip, r2, r3
 8005db0:	e7a5      	b.n	8005cfe <_vfiprintf_r+0x11a>
 8005db2:	2300      	movs	r3, #0
 8005db4:	f04f 0c0a 	mov.w	ip, #10
 8005db8:	4619      	mov	r1, r3
 8005dba:	3401      	adds	r4, #1
 8005dbc:	9305      	str	r3, [sp, #20]
 8005dbe:	4620      	mov	r0, r4
 8005dc0:	f810 2b01 	ldrb.w	r2, [r0], #1
 8005dc4:	3a30      	subs	r2, #48	; 0x30
 8005dc6:	2a09      	cmp	r2, #9
 8005dc8:	d903      	bls.n	8005dd2 <_vfiprintf_r+0x1ee>
 8005dca:	2b00      	cmp	r3, #0
 8005dcc:	d0c5      	beq.n	8005d5a <_vfiprintf_r+0x176>
 8005dce:	9105      	str	r1, [sp, #20]
 8005dd0:	e7c3      	b.n	8005d5a <_vfiprintf_r+0x176>
 8005dd2:	4604      	mov	r4, r0
 8005dd4:	2301      	movs	r3, #1
 8005dd6:	fb0c 2101 	mla	r1, ip, r1, r2
 8005dda:	e7f0      	b.n	8005dbe <_vfiprintf_r+0x1da>
 8005ddc:	ab03      	add	r3, sp, #12
 8005dde:	9300      	str	r3, [sp, #0]
 8005de0:	462a      	mov	r2, r5
 8005de2:	4630      	mov	r0, r6
 8005de4:	4b16      	ldr	r3, [pc, #88]	; (8005e40 <_vfiprintf_r+0x25c>)
 8005de6:	a904      	add	r1, sp, #16
 8005de8:	f3af 8000 	nop.w
 8005dec:	4607      	mov	r7, r0
 8005dee:	1c78      	adds	r0, r7, #1
 8005df0:	d1d6      	bne.n	8005da0 <_vfiprintf_r+0x1bc>
 8005df2:	6e6b      	ldr	r3, [r5, #100]	; 0x64
 8005df4:	07d9      	lsls	r1, r3, #31
 8005df6:	d405      	bmi.n	8005e04 <_vfiprintf_r+0x220>
 8005df8:	89ab      	ldrh	r3, [r5, #12]
 8005dfa:	059a      	lsls	r2, r3, #22
 8005dfc:	d402      	bmi.n	8005e04 <_vfiprintf_r+0x220>
 8005dfe:	6da8      	ldr	r0, [r5, #88]	; 0x58
 8005e00:	f000 fc43 	bl	800668a <__retarget_lock_release_recursive>
 8005e04:	89ab      	ldrh	r3, [r5, #12]
 8005e06:	065b      	lsls	r3, r3, #25
 8005e08:	f53f af12 	bmi.w	8005c30 <_vfiprintf_r+0x4c>
 8005e0c:	9809      	ldr	r0, [sp, #36]	; 0x24
 8005e0e:	e711      	b.n	8005c34 <_vfiprintf_r+0x50>
 8005e10:	ab03      	add	r3, sp, #12
 8005e12:	9300      	str	r3, [sp, #0]
 8005e14:	462a      	mov	r2, r5
 8005e16:	4630      	mov	r0, r6
 8005e18:	4b09      	ldr	r3, [pc, #36]	; (8005e40 <_vfiprintf_r+0x25c>)
 8005e1a:	a904      	add	r1, sp, #16
 8005e1c:	f000 f882 	bl	8005f24 <_printf_i>
 8005e20:	e7e4      	b.n	8005dec <_vfiprintf_r+0x208>
 8005e22:	bf00      	nop
 8005e24:	0800876c 	.word	0x0800876c
 8005e28:	0800878c 	.word	0x0800878c
 8005e2c:	0800874c 	.word	0x0800874c
 8005e30:	08008716 	.word	0x08008716
 8005e34:	0800871c 	.word	0x0800871c
 8005e38:	08008720 	.word	0x08008720
 8005e3c:	00000000 	.word	0x00000000
 8005e40:	08005bbf 	.word	0x08005bbf

08005e44 <_printf_common>:
 8005e44:	e92d 47f0 	stmdb	sp!, {r4, r5, r6, r7, r8, r9, sl, lr}
 8005e48:	4616      	mov	r6, r2
 8005e4a:	4699      	mov	r9, r3
 8005e4c:	688a      	ldr	r2, [r1, #8]
 8005e4e:	690b      	ldr	r3, [r1, #16]
 8005e50:	4607      	mov	r7, r0
 8005e52:	4293      	cmp	r3, r2
 8005e54:	bfb8      	it	lt
 8005e56:	4613      	movlt	r3, r2
 8005e58:	6033      	str	r3, [r6, #0]
 8005e5a:	f891 2043 	ldrb.w	r2, [r1, #67]	; 0x43
 8005e5e:	460c      	mov	r4, r1
 8005e60:	f8dd 8020 	ldr.w	r8, [sp, #32]
 8005e64:	b10a      	cbz	r2, 8005e6a <_printf_common+0x26>
 8005e66:	3301      	adds	r3, #1
 8005e68:	6033      	str	r3, [r6, #0]
 8005e6a:	6823      	ldr	r3, [r4, #0]
 8005e6c:	0699      	lsls	r1, r3, #26
 8005e6e:	bf42      	ittt	mi
 8005e70:	6833      	ldrmi	r3, [r6, #0]
 8005e72:	3302      	addmi	r3, #2
 8005e74:	6033      	strmi	r3, [r6, #0]
 8005e76:	6825      	ldr	r5, [r4, #0]
 8005e78:	f015 0506 	ands.w	r5, r5, #6
 8005e7c:	d106      	bne.n	8005e8c <_printf_common+0x48>
 8005e7e:	f104 0a19 	add.w	sl, r4, #25
 8005e82:	68e3      	ldr	r3, [r4, #12]
 8005e84:	6832      	ldr	r2, [r6, #0]
 8005e86:	1a9b      	subs	r3, r3, r2
 8005e88:	42ab      	cmp	r3, r5
 8005e8a:	dc28      	bgt.n	8005ede <_printf_common+0x9a>
 8005e8c:	f894 2043 	ldrb.w	r2, [r4, #67]	; 0x43
 8005e90:	1e13      	subs	r3, r2, #0
 8005e92:	6822      	ldr	r2, [r4, #0]
 8005e94:	bf18      	it	ne
 8005e96:	2301      	movne	r3, #1
 8005e98:	0692      	lsls	r2, r2, #26
 8005e9a:	d42d      	bmi.n	8005ef8 <_printf_common+0xb4>
 8005e9c:	4649      	mov	r1, r9
 8005e9e:	4638      	mov	r0, r7
 8005ea0:	f104 0243 	add.w	r2, r4, #67	; 0x43
 8005ea4:	47c0      	blx	r8
 8005ea6:	3001      	adds	r0, #1
 8005ea8:	d020      	beq.n	8005eec <_printf_common+0xa8>
 8005eaa:	6823      	ldr	r3, [r4, #0]
 8005eac:	68e5      	ldr	r5, [r4, #12]
 8005eae:	f003 0306 	and.w	r3, r3, #6
 8005eb2:	2b04      	cmp	r3, #4
 8005eb4:	bf18      	it	ne
 8005eb6:	2500      	movne	r5, #0
 8005eb8:	6832      	ldr	r2, [r6, #0]
 8005eba:	f04f 0600 	mov.w	r6, #0
 8005ebe:	68a3      	ldr	r3, [r4, #8]
 8005ec0:	bf08      	it	eq
 8005ec2:	1aad      	subeq	r5, r5, r2
 8005ec4:	6922      	ldr	r2, [r4, #16]
 8005ec6:	bf08      	it	eq
 8005ec8:	ea25 75e5 	biceq.w	r5, r5, r5, asr #31
 8005ecc:	4293      	cmp	r3, r2
 8005ece:	bfc4      	itt	gt
 8005ed0:	1a9b      	subgt	r3, r3, r2
 8005ed2:	18ed      	addgt	r5, r5, r3
 8005ed4:	341a      	adds	r4, #26
 8005ed6:	42b5      	cmp	r5, r6
 8005ed8:	d11a      	bne.n	8005f10 <_printf_common+0xcc>
 8005eda:	2000      	movs	r0, #0
 8005edc:	e008      	b.n	8005ef0 <_printf_common+0xac>
 8005ede:	2301      	movs	r3, #1
 8005ee0:	4652      	mov	r2, sl
 8005ee2:	4649      	mov	r1, r9
 8005ee4:	4638      	mov	r0, r7
 8005ee6:	47c0      	blx	r8
 8005ee8:	3001      	adds	r0, #1
 8005eea:	d103      	bne.n	8005ef4 <_printf_common+0xb0>
 8005eec:	f04f 30ff 	mov.w	r0, #4294967295
 8005ef0:	e8bd 87f0 	ldmia.w	sp!, {r4, r5, r6, r7, r8, r9, sl, pc}
 8005ef4:	3501      	adds	r5, #1
 8005ef6:	e7c4      	b.n	8005e82 <_printf_common+0x3e>
 8005ef8:	2030      	movs	r0, #48	; 0x30
 8005efa:	18e1      	adds	r1, r4, r3
 8005efc:	f881 0043 	strb.w	r0, [r1, #67]	; 0x43
 8005f00:	1c5a      	adds	r2, r3, #1
 8005f02:	f894 1045 	ldrb.w	r1, [r4, #69]	; 0x45
 8005f06:	4422      	add	r2, r4
 8005f08:	3302      	adds	r3, #2
 8005f0a:	f882 1043 	strb.w	r1, [r2, #67]	; 0x43
 8005f0e:	e7c5      	b.n	8005e9c <_printf_common+0x58>
 8005f10:	2301      	movs	r3, #1
 8005f12:	4622      	mov	r2, r4
 8005f14:	4649      	mov	r1, r9
 8005f16:	4638      	mov	r0, r7
 8005f18:	47c0      	blx	r8
 8005f1a:	3001      	adds	r0, #1
 8005f1c:	d0e6      	beq.n	8005eec <_printf_common+0xa8>
 8005f1e:	3601      	adds	r6, #1
 8005f20:	e7d9      	b.n	8005ed6 <_printf_common+0x92>
	...

08005f24 <_printf_i>:
 8005f24:	e92d 47ff 	stmdb	sp!, {r0, r1, r2, r3, r4, r5, r6, r7, r8, r9, sl, lr}
 8005f28:	7e0f      	ldrb	r7, [r1, #24]
 8005f2a:	4691      	mov	r9, r2
 8005f2c:	2f78      	cmp	r7, #120	; 0x78
 8005f2e:	4680      	mov	r8, r0
 8005f30:	460c      	mov	r4, r1
 8005f32:	469a      	mov	sl, r3
 8005f34:	9d0c      	ldr	r5, [sp, #48]	; 0x30
 8005f36:	f101 0243 	add.w	r2, r1, #67	; 0x43
 8005f3a:	d807      	bhi.n	8005f4c <_printf_i+0x28>
 8005f3c:	2f62      	cmp	r7, #98	; 0x62
 8005f3e:	d80a      	bhi.n	8005f56 <_printf_i+0x32>
 8005f40:	2f00      	cmp	r7, #0
 8005f42:	f000 80d9 	beq.w	80060f8 <_printf_i+0x1d4>
 8005f46:	2f58      	cmp	r7, #88	; 0x58
 8005f48:	f000 80a4 	beq.w	8006094 <_printf_i+0x170>
 8005f4c:	f104 0542 	add.w	r5, r4, #66	; 0x42
 8005f50:	f884 7042 	strb.w	r7, [r4, #66]	; 0x42
 8005f54:	e03a      	b.n	8005fcc <_printf_i+0xa8>
 8005f56:	f1a7 0363 	sub.w	r3, r7, #99	; 0x63
 8005f5a:	2b15      	cmp	r3, #21
 8005f5c:	d8f6      	bhi.n	8005f4c <_printf_i+0x28>
 8005f5e:	a101      	add	r1, pc, #4	; (adr r1, 8005f64 <_printf_i+0x40>)
 8005f60:	f851 f023 	ldr.w	pc, [r1, r3, lsl #2]
 8005f64:	08005fbd 	.word	0x08005fbd
 8005f68:	08005fd1 	.word	0x08005fd1
 8005f6c:	08005f4d 	.word	0x08005f4d
 8005f70:	08005f4d 	.word	0x08005f4d
 8005f74:	08005f4d 	.word	0x08005f4d
 8005f78:	08005f4d 	.word	0x08005f4d
 8005f7c:	08005fd1 	.word	0x08005fd1
 8005f80:	08005f4d 	.word	0x08005f4d
 8005f84:	08005f4d 	.word	0x08005f4d
 8005f88:	08005f4d 	.word	0x08005f4d
 8005f8c:	08005f4d 	.word	0x08005f4d
 8005f90:	080060df 	.word	0x080060df
 8005f94:	08006001 	.word	0x08006001
 8005f98:	080060c1 	.word	0x080060c1
 8005f9c:	08005f4d 	.word	0x08005f4d
 8005fa0:	08005f4d 	.word	0x08005f4d
 8005fa4:	08006101 	.word	0x08006101
 8005fa8:	08005f4d 	.word	0x08005f4d
 8005fac:	08006001 	.word	0x08006001
 8005fb0:	08005f4d 	.word	0x08005f4d
 8005fb4:	08005f4d 	.word	0x08005f4d
 8005fb8:	080060c9 	.word	0x080060c9
 8005fbc:	682b      	ldr	r3, [r5, #0]
 8005fbe:	1d1a      	adds	r2, r3, #4
 8005fc0:	681b      	ldr	r3, [r3, #0]
 8005fc2:	602a      	str	r2, [r5, #0]
 8005fc4:	f104 0542 	add.w	r5, r4, #66	; 0x42
 8005fc8:	f884 3042 	strb.w	r3, [r4, #66]	; 0x42
 8005fcc:	2301      	movs	r3, #1
 8005fce:	e0a4      	b.n	800611a <_printf_i+0x1f6>
 8005fd0:	6820      	ldr	r0, [r4, #0]
 8005fd2:	6829      	ldr	r1, [r5, #0]
 8005fd4:	0606      	lsls	r6, r0, #24
 8005fd6:	f101 0304 	add.w	r3, r1, #4
 8005fda:	d50a      	bpl.n	8005ff2 <_printf_i+0xce>
 8005fdc:	680e      	ldr	r6, [r1, #0]
 8005fde:	602b      	str	r3, [r5, #0]
 8005fe0:	2e00      	cmp	r6, #0
 8005fe2:	da03      	bge.n	8005fec <_printf_i+0xc8>
 8005fe4:	232d      	movs	r3, #45	; 0x2d
 8005fe6:	4276      	negs	r6, r6
 8005fe8:	f884 3043 	strb.w	r3, [r4, #67]	; 0x43
 8005fec:	230a      	movs	r3, #10
 8005fee:	485e      	ldr	r0, [pc, #376]	; (8006168 <_printf_i+0x244>)
 8005ff0:	e019      	b.n	8006026 <_printf_i+0x102>
 8005ff2:	680e      	ldr	r6, [r1, #0]
 8005ff4:	f010 0f40 	tst.w	r0, #64	; 0x40
 8005ff8:	602b      	str	r3, [r5, #0]
 8005ffa:	bf18      	it	ne
 8005ffc:	b236      	sxthne	r6, r6
 8005ffe:	e7ef      	b.n	8005fe0 <_printf_i+0xbc>
 8006000:	682b      	ldr	r3, [r5, #0]
 8006002:	6820      	ldr	r0, [r4, #0]
 8006004:	1d19      	adds	r1, r3, #4
 8006006:	6029      	str	r1, [r5, #0]
 8006008:	0601      	lsls	r1, r0, #24
 800600a:	d501      	bpl.n	8006010 <_printf_i+0xec>
 800600c:	681e      	ldr	r6, [r3, #0]
 800600e:	e002      	b.n	8006016 <_printf_i+0xf2>
 8006010:	0646      	lsls	r6, r0, #25
 8006012:	d5fb      	bpl.n	800600c <_printf_i+0xe8>
 8006014:	881e      	ldrh	r6, [r3, #0]
 8006016:	2f6f      	cmp	r7, #111	; 0x6f
 8006018:	bf0c      	ite	eq
 800601a:	2308      	moveq	r3, #8
 800601c:	230a      	movne	r3, #10
 800601e:	4852      	ldr	r0, [pc, #328]	; (8006168 <_printf_i+0x244>)
 8006020:	2100      	movs	r1, #0
 8006022:	f884 1043 	strb.w	r1, [r4, #67]	; 0x43
 8006026:	6865      	ldr	r5, [r4, #4]
 8006028:	2d00      	cmp	r5, #0
 800602a:	bfa8      	it	ge
 800602c:	6821      	ldrge	r1, [r4, #0]
 800602e:	60a5      	str	r5, [r4, #8]
 8006030:	bfa4      	itt	ge
 8006032:	f021 0104 	bicge.w	r1, r1, #4
 8006036:	6021      	strge	r1, [r4, #0]
 8006038:	b90e      	cbnz	r6, 800603e <_printf_i+0x11a>
 800603a:	2d00      	cmp	r5, #0
 800603c:	d04d      	beq.n	80060da <_printf_i+0x1b6>
 800603e:	4615      	mov	r5, r2
 8006040:	fbb6 f1f3 	udiv	r1, r6, r3
 8006044:	fb03 6711 	mls	r7, r3, r1, r6
 8006048:	5dc7      	ldrb	r7, [r0, r7]
 800604a:	f805 7d01 	strb.w	r7, [r5, #-1]!
 800604e:	4637      	mov	r7, r6
 8006050:	42bb      	cmp	r3, r7
 8006052:	460e      	mov	r6, r1
 8006054:	d9f4      	bls.n	8006040 <_printf_i+0x11c>
 8006056:	2b08      	cmp	r3, #8
 8006058:	d10b      	bne.n	8006072 <_printf_i+0x14e>
 800605a:	6823      	ldr	r3, [r4, #0]
 800605c:	07de      	lsls	r6, r3, #31
 800605e:	d508      	bpl.n	8006072 <_printf_i+0x14e>
 8006060:	6923      	ldr	r3, [r4, #16]
 8006062:	6861      	ldr	r1, [r4, #4]
 8006064:	4299      	cmp	r1, r3
 8006066:	bfde      	ittt	le
 8006068:	2330      	movle	r3, #48	; 0x30
 800606a:	f805 3c01 	strble.w	r3, [r5, #-1]
 800606e:	f105 35ff 	addle.w	r5, r5, #4294967295
 8006072:	1b52      	subs	r2, r2, r5
 8006074:	6122      	str	r2, [r4, #16]
 8006076:	464b      	mov	r3, r9
 8006078:	4621      	mov	r1, r4
 800607a:	4640      	mov	r0, r8
 800607c:	f8cd a000 	str.w	sl, [sp]
 8006080:	aa03      	add	r2, sp, #12
 8006082:	f7ff fedf 	bl	8005e44 <_printf_common>
 8006086:	3001      	adds	r0, #1
 8006088:	d14c      	bne.n	8006124 <_printf_i+0x200>
 800608a:	f04f 30ff 	mov.w	r0, #4294967295
 800608e:	b004      	add	sp, #16
 8006090:	e8bd 87f0 	ldmia.w	sp!, {r4, r5, r6, r7, r8, r9, sl, pc}
 8006094:	4834      	ldr	r0, [pc, #208]	; (8006168 <_printf_i+0x244>)
 8006096:	f881 7045 	strb.w	r7, [r1, #69]	; 0x45
 800609a:	6829      	ldr	r1, [r5, #0]
 800609c:	6823      	ldr	r3, [r4, #0]
 800609e:	f851 6b04 	ldr.w	r6, [r1], #4
 80060a2:	6029      	str	r1, [r5, #0]
 80060a4:	061d      	lsls	r5, r3, #24
 80060a6:	d514      	bpl.n	80060d2 <_printf_i+0x1ae>
 80060a8:	07df      	lsls	r7, r3, #31
 80060aa:	bf44      	itt	mi
 80060ac:	f043 0320 	orrmi.w	r3, r3, #32
 80060b0:	6023      	strmi	r3, [r4, #0]
 80060b2:	b91e      	cbnz	r6, 80060bc <_printf_i+0x198>
 80060b4:	6823      	ldr	r3, [r4, #0]
 80060b6:	f023 0320 	bic.w	r3, r3, #32
 80060ba:	6023      	str	r3, [r4, #0]
 80060bc:	2310      	movs	r3, #16
 80060be:	e7af      	b.n	8006020 <_printf_i+0xfc>
 80060c0:	6823      	ldr	r3, [r4, #0]
 80060c2:	f043 0320 	orr.w	r3, r3, #32
 80060c6:	6023      	str	r3, [r4, #0]
 80060c8:	2378      	movs	r3, #120	; 0x78
 80060ca:	4828      	ldr	r0, [pc, #160]	; (800616c <_printf_i+0x248>)
 80060cc:	f884 3045 	strb.w	r3, [r4, #69]	; 0x45
 80060d0:	e7e3      	b.n	800609a <_printf_i+0x176>
 80060d2:	0659      	lsls	r1, r3, #25
 80060d4:	bf48      	it	mi
 80060d6:	b2b6      	uxthmi	r6, r6
 80060d8:	e7e6      	b.n	80060a8 <_printf_i+0x184>
 80060da:	4615      	mov	r5, r2
 80060dc:	e7bb      	b.n	8006056 <_printf_i+0x132>
 80060de:	682b      	ldr	r3, [r5, #0]
 80060e0:	6826      	ldr	r6, [r4, #0]
 80060e2:	1d18      	adds	r0, r3, #4
 80060e4:	6961      	ldr	r1, [r4, #20]
 80060e6:	6028      	str	r0, [r5, #0]
 80060e8:	0635      	lsls	r5, r6, #24
 80060ea:	681b      	ldr	r3, [r3, #0]
 80060ec:	d501      	bpl.n	80060f2 <_printf_i+0x1ce>
 80060ee:	6019      	str	r1, [r3, #0]
 80060f0:	e002      	b.n	80060f8 <_printf_i+0x1d4>
 80060f2:	0670      	lsls	r0, r6, #25
 80060f4:	d5fb      	bpl.n	80060ee <_printf_i+0x1ca>
 80060f6:	8019      	strh	r1, [r3, #0]
 80060f8:	2300      	movs	r3, #0
 80060fa:	4615      	mov	r5, r2
 80060fc:	6123      	str	r3, [r4, #16]
 80060fe:	e7ba      	b.n	8006076 <_printf_i+0x152>
 8006100:	682b      	ldr	r3, [r5, #0]
 8006102:	2100      	movs	r1, #0
 8006104:	1d1a      	adds	r2, r3, #4
 8006106:	602a      	str	r2, [r5, #0]
 8006108:	681d      	ldr	r5, [r3, #0]
 800610a:	6862      	ldr	r2, [r4, #4]
 800610c:	4628      	mov	r0, r5
 800610e:	f000 fb23 	bl	8006758 <memchr>
 8006112:	b108      	cbz	r0, 8006118 <_printf_i+0x1f4>
 8006114:	1b40      	subs	r0, r0, r5
 8006116:	6060      	str	r0, [r4, #4]
 8006118:	6863      	ldr	r3, [r4, #4]
 800611a:	6123      	str	r3, [r4, #16]
 800611c:	2300      	movs	r3, #0
 800611e:	f884 3043 	strb.w	r3, [r4, #67]	; 0x43
 8006122:	e7a8      	b.n	8006076 <_printf_i+0x152>
 8006124:	462a      	mov	r2, r5
 8006126:	4649      	mov	r1, r9
 8006128:	4640      	mov	r0, r8
 800612a:	6923      	ldr	r3, [r4, #16]
 800612c:	47d0      	blx	sl
 800612e:	3001      	adds	r0, #1
 8006130:	d0ab      	beq.n	800608a <_printf_i+0x166>
 8006132:	6823      	ldr	r3, [r4, #0]
 8006134:	079b      	lsls	r3, r3, #30
 8006136:	d413      	bmi.n	8006160 <_printf_i+0x23c>
 8006138:	68e0      	ldr	r0, [r4, #12]
 800613a:	9b03      	ldr	r3, [sp, #12]
 800613c:	4298      	cmp	r0, r3
 800613e:	bfb8      	it	lt
 8006140:	4618      	movlt	r0, r3
 8006142:	e7a4      	b.n	800608e <_printf_i+0x16a>
 8006144:	2301      	movs	r3, #1
 8006146:	4632      	mov	r2, r6
 8006148:	4649      	mov	r1, r9
 800614a:	4640      	mov	r0, r8
 800614c:	47d0      	blx	sl
 800614e:	3001      	adds	r0, #1
 8006150:	d09b      	beq.n	800608a <_printf_i+0x166>
 8006152:	3501      	adds	r5, #1
 8006154:	68e3      	ldr	r3, [r4, #12]
 8006156:	9903      	ldr	r1, [sp, #12]
 8006158:	1a5b      	subs	r3, r3, r1
 800615a:	42ab      	cmp	r3, r5
 800615c:	dcf2      	bgt.n	8006144 <_printf_i+0x220>
 800615e:	e7eb      	b.n	8006138 <_printf_i+0x214>
 8006160:	2500      	movs	r5, #0
 8006162:	f104 0619 	add.w	r6, r4, #25
 8006166:	e7f5      	b.n	8006154 <_printf_i+0x230>
 8006168:	08008727 	.word	0x08008727
 800616c:	08008738 	.word	0x08008738

08006170 <_sbrk_r>:
 8006170:	b538      	push	{r3, r4, r5, lr}
 8006172:	2300      	movs	r3, #0
 8006174:	4d05      	ldr	r5, [pc, #20]	; (800618c <_sbrk_r+0x1c>)
 8006176:	4604      	mov	r4, r0
 8006178:	4608      	mov	r0, r1
 800617a:	602b      	str	r3, [r5, #0]
 800617c:	f7fc f8d6 	bl	800232c <_sbrk>
 8006180:	1c43      	adds	r3, r0, #1
 8006182:	d102      	bne.n	800618a <_sbrk_r+0x1a>
 8006184:	682b      	ldr	r3, [r5, #0]
 8006186:	b103      	cbz	r3, 800618a <_sbrk_r+0x1a>
 8006188:	6023      	str	r3, [r4, #0]
 800618a:	bd38      	pop	{r3, r4, r5, pc}
 800618c:	200009f4 	.word	0x200009f4

08006190 <__swbuf_r>:
 8006190:	b5f8      	push	{r3, r4, r5, r6, r7, lr}
 8006192:	460e      	mov	r6, r1
 8006194:	4614      	mov	r4, r2
 8006196:	4605      	mov	r5, r0
 8006198:	b118      	cbz	r0, 80061a2 <__swbuf_r+0x12>
 800619a:	6983      	ldr	r3, [r0, #24]
 800619c:	b90b      	cbnz	r3, 80061a2 <__swbuf_r+0x12>
 800619e:	f000 f9d5 	bl	800654c <__sinit>
 80061a2:	4b21      	ldr	r3, [pc, #132]	; (8006228 <__swbuf_r+0x98>)
 80061a4:	429c      	cmp	r4, r3
 80061a6:	d12b      	bne.n	8006200 <__swbuf_r+0x70>
 80061a8:	686c      	ldr	r4, [r5, #4]
 80061aa:	69a3      	ldr	r3, [r4, #24]
 80061ac:	60a3      	str	r3, [r4, #8]
 80061ae:	89a3      	ldrh	r3, [r4, #12]
 80061b0:	071a      	lsls	r2, r3, #28
 80061b2:	d52f      	bpl.n	8006214 <__swbuf_r+0x84>
 80061b4:	6923      	ldr	r3, [r4, #16]
 80061b6:	b36b      	cbz	r3, 8006214 <__swbuf_r+0x84>
 80061b8:	6923      	ldr	r3, [r4, #16]
 80061ba:	6820      	ldr	r0, [r4, #0]
 80061bc:	b2f6      	uxtb	r6, r6
 80061be:	1ac0      	subs	r0, r0, r3
 80061c0:	6963      	ldr	r3, [r4, #20]
 80061c2:	4637      	mov	r7, r6
 80061c4:	4283      	cmp	r3, r0
 80061c6:	dc04      	bgt.n	80061d2 <__swbuf_r+0x42>
 80061c8:	4621      	mov	r1, r4
 80061ca:	4628      	mov	r0, r5
 80061cc:	f000 f92a 	bl	8006424 <_fflush_r>
 80061d0:	bb30      	cbnz	r0, 8006220 <__swbuf_r+0x90>
 80061d2:	68a3      	ldr	r3, [r4, #8]
 80061d4:	3001      	adds	r0, #1
 80061d6:	3b01      	subs	r3, #1
 80061d8:	60a3      	str	r3, [r4, #8]
 80061da:	6823      	ldr	r3, [r4, #0]
 80061dc:	1c5a      	adds	r2, r3, #1
 80061de:	6022      	str	r2, [r4, #0]
 80061e0:	701e      	strb	r6, [r3, #0]
 80061e2:	6963      	ldr	r3, [r4, #20]
 80061e4:	4283      	cmp	r3, r0
 80061e6:	d004      	beq.n	80061f2 <__swbuf_r+0x62>
 80061e8:	89a3      	ldrh	r3, [r4, #12]
 80061ea:	07db      	lsls	r3, r3, #31
 80061ec:	d506      	bpl.n	80061fc <__swbuf_r+0x6c>
 80061ee:	2e0a      	cmp	r6, #10
 80061f0:	d104      	bne.n	80061fc <__swbuf_r+0x6c>
 80061f2:	4621      	mov	r1, r4
 80061f4:	4628      	mov	r0, r5
 80061f6:	f000 f915 	bl	8006424 <_fflush_r>
 80061fa:	b988      	cbnz	r0, 8006220 <__swbuf_r+0x90>
 80061fc:	4638      	mov	r0, r7
 80061fe:	bdf8      	pop	{r3, r4, r5, r6, r7, pc}
 8006200:	4b0a      	ldr	r3, [pc, #40]	; (800622c <__swbuf_r+0x9c>)
 8006202:	429c      	cmp	r4, r3
 8006204:	d101      	bne.n	800620a <__swbuf_r+0x7a>
 8006206:	68ac      	ldr	r4, [r5, #8]
 8006208:	e7cf      	b.n	80061aa <__swbuf_r+0x1a>
 800620a:	4b09      	ldr	r3, [pc, #36]	; (8006230 <__swbuf_r+0xa0>)
 800620c:	429c      	cmp	r4, r3
 800620e:	bf08      	it	eq
 8006210:	68ec      	ldreq	r4, [r5, #12]
 8006212:	e7ca      	b.n	80061aa <__swbuf_r+0x1a>
 8006214:	4621      	mov	r1, r4
 8006216:	4628      	mov	r0, r5
 8006218:	f000 f80c 	bl	8006234 <__swsetup_r>
 800621c:	2800      	cmp	r0, #0
 800621e:	d0cb      	beq.n	80061b8 <__swbuf_r+0x28>
 8006220:	f04f 37ff 	mov.w	r7, #4294967295
 8006224:	e7ea      	b.n	80061fc <__swbuf_r+0x6c>
 8006226:	bf00      	nop
 8006228:	0800876c 	.word	0x0800876c
 800622c:	0800878c 	.word	0x0800878c
 8006230:	0800874c 	.word	0x0800874c

08006234 <__swsetup_r>:
 8006234:	4b32      	ldr	r3, [pc, #200]	; (8006300 <__swsetup_r+0xcc>)
 8006236:	b570      	push	{r4, r5, r6, lr}
 8006238:	681d      	ldr	r5, [r3, #0]
 800623a:	4606      	mov	r6, r0
 800623c:	460c      	mov	r4, r1
 800623e:	b125      	cbz	r5, 800624a <__swsetup_r+0x16>
 8006240:	69ab      	ldr	r3, [r5, #24]
 8006242:	b913      	cbnz	r3, 800624a <__swsetup_r+0x16>
 8006244:	4628      	mov	r0, r5
 8006246:	f000 f981 	bl	800654c <__sinit>
 800624a:	4b2e      	ldr	r3, [pc, #184]	; (8006304 <__swsetup_r+0xd0>)
 800624c:	429c      	cmp	r4, r3
 800624e:	d10f      	bne.n	8006270 <__swsetup_r+0x3c>
 8006250:	686c      	ldr	r4, [r5, #4]
 8006252:	89a3      	ldrh	r3, [r4, #12]
 8006254:	f9b4 200c 	ldrsh.w	r2, [r4, #12]
 8006258:	0719      	lsls	r1, r3, #28
 800625a:	d42c      	bmi.n	80062b6 <__swsetup_r+0x82>
 800625c:	06dd      	lsls	r5, r3, #27
 800625e:	d411      	bmi.n	8006284 <__swsetup_r+0x50>
 8006260:	2309      	movs	r3, #9
 8006262:	6033      	str	r3, [r6, #0]
 8006264:	f042 0340 	orr.w	r3, r2, #64	; 0x40
 8006268:	f04f 30ff 	mov.w	r0, #4294967295
 800626c:	81a3      	strh	r3, [r4, #12]
 800626e:	e03e      	b.n	80062ee <__swsetup_r+0xba>
 8006270:	4b25      	ldr	r3, [pc, #148]	; (8006308 <__swsetup_r+0xd4>)
 8006272:	429c      	cmp	r4, r3
 8006274:	d101      	bne.n	800627a <__swsetup_r+0x46>
 8006276:	68ac      	ldr	r4, [r5, #8]
 8006278:	e7eb      	b.n	8006252 <__swsetup_r+0x1e>
 800627a:	4b24      	ldr	r3, [pc, #144]	; (800630c <__swsetup_r+0xd8>)
 800627c:	429c      	cmp	r4, r3
 800627e:	bf08      	it	eq
 8006280:	68ec      	ldreq	r4, [r5, #12]
 8006282:	e7e6      	b.n	8006252 <__swsetup_r+0x1e>
 8006284:	0758      	lsls	r0, r3, #29
 8006286:	d512      	bpl.n	80062ae <__swsetup_r+0x7a>
 8006288:	6b61      	ldr	r1, [r4, #52]	; 0x34
 800628a:	b141      	cbz	r1, 800629e <__swsetup_r+0x6a>
 800628c:	f104 0344 	add.w	r3, r4, #68	; 0x44
 8006290:	4299      	cmp	r1, r3
 8006292:	d002      	beq.n	800629a <__swsetup_r+0x66>
 8006294:	4630      	mov	r0, r6
 8006296:	f7ff fba1 	bl	80059dc <_free_r>
 800629a:	2300      	movs	r3, #0
 800629c:	6363      	str	r3, [r4, #52]	; 0x34
 800629e:	89a3      	ldrh	r3, [r4, #12]
 80062a0:	f023 0324 	bic.w	r3, r3, #36	; 0x24
 80062a4:	81a3      	strh	r3, [r4, #12]
 80062a6:	2300      	movs	r3, #0
 80062a8:	6063      	str	r3, [r4, #4]
 80062aa:	6923      	ldr	r3, [r4, #16]
 80062ac:	6023      	str	r3, [r4, #0]
 80062ae:	89a3      	ldrh	r3, [r4, #12]
 80062b0:	f043 0308 	orr.w	r3, r3, #8
 80062b4:	81a3      	strh	r3, [r4, #12]
 80062b6:	6923      	ldr	r3, [r4, #16]
 80062b8:	b94b      	cbnz	r3, 80062ce <__swsetup_r+0x9a>
 80062ba:	89a3      	ldrh	r3, [r4, #12]
 80062bc:	f403 7320 	and.w	r3, r3, #640	; 0x280
 80062c0:	f5b3 7f00 	cmp.w	r3, #512	; 0x200
 80062c4:	d003      	beq.n	80062ce <__swsetup_r+0x9a>
 80062c6:	4621      	mov	r1, r4
 80062c8:	4630      	mov	r0, r6
 80062ca:	f000 fa05 	bl	80066d8 <__smakebuf_r>
 80062ce:	89a0      	ldrh	r0, [r4, #12]
 80062d0:	f9b4 200c 	ldrsh.w	r2, [r4, #12]
 80062d4:	f010 0301 	ands.w	r3, r0, #1
 80062d8:	d00a      	beq.n	80062f0 <__swsetup_r+0xbc>
 80062da:	2300      	movs	r3, #0
 80062dc:	60a3      	str	r3, [r4, #8]
 80062de:	6963      	ldr	r3, [r4, #20]
 80062e0:	425b      	negs	r3, r3
 80062e2:	61a3      	str	r3, [r4, #24]
 80062e4:	6923      	ldr	r3, [r4, #16]
 80062e6:	b943      	cbnz	r3, 80062fa <__swsetup_r+0xc6>
 80062e8:	f010 0080 	ands.w	r0, r0, #128	; 0x80
 80062ec:	d1ba      	bne.n	8006264 <__swsetup_r+0x30>
 80062ee:	bd70      	pop	{r4, r5, r6, pc}
 80062f0:	0781      	lsls	r1, r0, #30
 80062f2:	bf58      	it	pl
 80062f4:	6963      	ldrpl	r3, [r4, #20]
 80062f6:	60a3      	str	r3, [r4, #8]
 80062f8:	e7f4      	b.n	80062e4 <__swsetup_r+0xb0>
 80062fa:	2000      	movs	r0, #0
 80062fc:	e7f7      	b.n	80062ee <__swsetup_r+0xba>
 80062fe:	bf00      	nop
 8006300:	20000050 	.word	0x20000050
 8006304:	0800876c 	.word	0x0800876c
 8006308:	0800878c 	.word	0x0800878c
 800630c:	0800874c 	.word	0x0800874c

08006310 <abort>:
 8006310:	2006      	movs	r0, #6
 8006312:	b508      	push	{r3, lr}
 8006314:	f000 fa62 	bl	80067dc <raise>
 8006318:	2001      	movs	r0, #1
 800631a:	f7fb ffe7 	bl	80022ec <_exit>
	...

08006320 <__sflush_r>:
 8006320:	898a      	ldrh	r2, [r1, #12]
 8006322:	b5f8      	push	{r3, r4, r5, r6, r7, lr}
 8006324:	4605      	mov	r5, r0
 8006326:	0710      	lsls	r0, r2, #28
 8006328:	460c      	mov	r4, r1
 800632a:	d457      	bmi.n	80063dc <__sflush_r+0xbc>
 800632c:	684b      	ldr	r3, [r1, #4]
 800632e:	2b00      	cmp	r3, #0
 8006330:	dc04      	bgt.n	800633c <__sflush_r+0x1c>
 8006332:	6c0b      	ldr	r3, [r1, #64]	; 0x40
 8006334:	2b00      	cmp	r3, #0
 8006336:	dc01      	bgt.n	800633c <__sflush_r+0x1c>
 8006338:	2000      	movs	r0, #0
 800633a:	bdf8      	pop	{r3, r4, r5, r6, r7, pc}
 800633c:	6ae6      	ldr	r6, [r4, #44]	; 0x2c
 800633e:	2e00      	cmp	r6, #0
 8006340:	d0fa      	beq.n	8006338 <__sflush_r+0x18>
 8006342:	2300      	movs	r3, #0
 8006344:	f412 5280 	ands.w	r2, r2, #4096	; 0x1000
 8006348:	682f      	ldr	r7, [r5, #0]
 800634a:	602b      	str	r3, [r5, #0]
 800634c:	d032      	beq.n	80063b4 <__sflush_r+0x94>
 800634e:	6d60      	ldr	r0, [r4, #84]	; 0x54
 8006350:	89a3      	ldrh	r3, [r4, #12]
 8006352:	075a      	lsls	r2, r3, #29
 8006354:	d505      	bpl.n	8006362 <__sflush_r+0x42>
 8006356:	6863      	ldr	r3, [r4, #4]
 8006358:	1ac0      	subs	r0, r0, r3
 800635a:	6b63      	ldr	r3, [r4, #52]	; 0x34
 800635c:	b10b      	cbz	r3, 8006362 <__sflush_r+0x42>
 800635e:	6c23      	ldr	r3, [r4, #64]	; 0x40
 8006360:	1ac0      	subs	r0, r0, r3
 8006362:	2300      	movs	r3, #0
 8006364:	4602      	mov	r2, r0
 8006366:	6ae6      	ldr	r6, [r4, #44]	; 0x2c
 8006368:	4628      	mov	r0, r5
 800636a:	6a21      	ldr	r1, [r4, #32]
 800636c:	47b0      	blx	r6
 800636e:	1c43      	adds	r3, r0, #1
 8006370:	89a3      	ldrh	r3, [r4, #12]
 8006372:	d106      	bne.n	8006382 <__sflush_r+0x62>
 8006374:	6829      	ldr	r1, [r5, #0]
 8006376:	291d      	cmp	r1, #29
 8006378:	d82c      	bhi.n	80063d4 <__sflush_r+0xb4>
 800637a:	4a29      	ldr	r2, [pc, #164]	; (8006420 <__sflush_r+0x100>)
 800637c:	40ca      	lsrs	r2, r1
 800637e:	07d6      	lsls	r6, r2, #31
 8006380:	d528      	bpl.n	80063d4 <__sflush_r+0xb4>
 8006382:	2200      	movs	r2, #0
 8006384:	6062      	str	r2, [r4, #4]
 8006386:	6922      	ldr	r2, [r4, #16]
 8006388:	04d9      	lsls	r1, r3, #19
 800638a:	6022      	str	r2, [r4, #0]
 800638c:	d504      	bpl.n	8006398 <__sflush_r+0x78>
 800638e:	1c42      	adds	r2, r0, #1
 8006390:	d101      	bne.n	8006396 <__sflush_r+0x76>
 8006392:	682b      	ldr	r3, [r5, #0]
 8006394:	b903      	cbnz	r3, 8006398 <__sflush_r+0x78>
 8006396:	6560      	str	r0, [r4, #84]	; 0x54
 8006398:	6b61      	ldr	r1, [r4, #52]	; 0x34
 800639a:	602f      	str	r7, [r5, #0]
 800639c:	2900      	cmp	r1, #0
 800639e:	d0cb      	beq.n	8006338 <__sflush_r+0x18>
 80063a0:	f104 0344 	add.w	r3, r4, #68	; 0x44
 80063a4:	4299      	cmp	r1, r3
 80063a6:	d002      	beq.n	80063ae <__sflush_r+0x8e>
 80063a8:	4628      	mov	r0, r5
 80063aa:	f7ff fb17 	bl	80059dc <_free_r>
 80063ae:	2000      	movs	r0, #0
 80063b0:	6360      	str	r0, [r4, #52]	; 0x34
 80063b2:	e7c2      	b.n	800633a <__sflush_r+0x1a>
 80063b4:	6a21      	ldr	r1, [r4, #32]
 80063b6:	2301      	movs	r3, #1
 80063b8:	4628      	mov	r0, r5
 80063ba:	47b0      	blx	r6
 80063bc:	1c41      	adds	r1, r0, #1
 80063be:	d1c7      	bne.n	8006350 <__sflush_r+0x30>
 80063c0:	682b      	ldr	r3, [r5, #0]
 80063c2:	2b00      	cmp	r3, #0
 80063c4:	d0c4      	beq.n	8006350 <__sflush_r+0x30>
 80063c6:	2b1d      	cmp	r3, #29
 80063c8:	d001      	beq.n	80063ce <__sflush_r+0xae>
 80063ca:	2b16      	cmp	r3, #22
 80063cc:	d101      	bne.n	80063d2 <__sflush_r+0xb2>
 80063ce:	602f      	str	r7, [r5, #0]
 80063d0:	e7b2      	b.n	8006338 <__sflush_r+0x18>
 80063d2:	89a3      	ldrh	r3, [r4, #12]
 80063d4:	f043 0340 	orr.w	r3, r3, #64	; 0x40
 80063d8:	81a3      	strh	r3, [r4, #12]
 80063da:	e7ae      	b.n	800633a <__sflush_r+0x1a>
 80063dc:	690f      	ldr	r7, [r1, #16]
 80063de:	2f00      	cmp	r7, #0
 80063e0:	d0aa      	beq.n	8006338 <__sflush_r+0x18>
 80063e2:	0793      	lsls	r3, r2, #30
 80063e4:	bf18      	it	ne
 80063e6:	2300      	movne	r3, #0
 80063e8:	680e      	ldr	r6, [r1, #0]
 80063ea:	bf08      	it	eq
 80063ec:	694b      	ldreq	r3, [r1, #20]
 80063ee:	1bf6      	subs	r6, r6, r7
 80063f0:	600f      	str	r7, [r1, #0]
 80063f2:	608b      	str	r3, [r1, #8]
 80063f4:	2e00      	cmp	r6, #0
 80063f6:	dd9f      	ble.n	8006338 <__sflush_r+0x18>
 80063f8:	4633      	mov	r3, r6
 80063fa:	463a      	mov	r2, r7
 80063fc:	4628      	mov	r0, r5
 80063fe:	6a21      	ldr	r1, [r4, #32]
 8006400:	f8d4 c028 	ldr.w	ip, [r4, #40]	; 0x28
 8006404:	47e0      	blx	ip
 8006406:	2800      	cmp	r0, #0
 8006408:	dc06      	bgt.n	8006418 <__sflush_r+0xf8>
 800640a:	89a3      	ldrh	r3, [r4, #12]
 800640c:	f04f 30ff 	mov.w	r0, #4294967295
 8006410:	f043 0340 	orr.w	r3, r3, #64	; 0x40
 8006414:	81a3      	strh	r3, [r4, #12]
 8006416:	e790      	b.n	800633a <__sflush_r+0x1a>
 8006418:	4407      	add	r7, r0
 800641a:	1a36      	subs	r6, r6, r0
 800641c:	e7ea      	b.n	80063f4 <__sflush_r+0xd4>
 800641e:	bf00      	nop
 8006420:	20400001 	.word	0x20400001

08006424 <_fflush_r>:
 8006424:	b538      	push	{r3, r4, r5, lr}
 8006426:	690b      	ldr	r3, [r1, #16]
 8006428:	4605      	mov	r5, r0
 800642a:	460c      	mov	r4, r1
 800642c:	b913      	cbnz	r3, 8006434 <_fflush_r+0x10>
 800642e:	2500      	movs	r5, #0
 8006430:	4628      	mov	r0, r5
 8006432:	bd38      	pop	{r3, r4, r5, pc}
 8006434:	b118      	cbz	r0, 800643e <_fflush_r+0x1a>
 8006436:	6983      	ldr	r3, [r0, #24]
 8006438:	b90b      	cbnz	r3, 800643e <_fflush_r+0x1a>
 800643a:	f000 f887 	bl	800654c <__sinit>
 800643e:	4b14      	ldr	r3, [pc, #80]	; (8006490 <_fflush_r+0x6c>)
 8006440:	429c      	cmp	r4, r3
 8006442:	d11b      	bne.n	800647c <_fflush_r+0x58>
 8006444:	686c      	ldr	r4, [r5, #4]
 8006446:	f9b4 300c 	ldrsh.w	r3, [r4, #12]
 800644a:	2b00      	cmp	r3, #0
 800644c:	d0ef      	beq.n	800642e <_fflush_r+0xa>
 800644e:	6e62      	ldr	r2, [r4, #100]	; 0x64
 8006450:	07d0      	lsls	r0, r2, #31
 8006452:	d404      	bmi.n	800645e <_fflush_r+0x3a>
 8006454:	0599      	lsls	r1, r3, #22
 8006456:	d402      	bmi.n	800645e <_fflush_r+0x3a>
 8006458:	6da0      	ldr	r0, [r4, #88]	; 0x58
 800645a:	f000 f915 	bl	8006688 <__retarget_lock_acquire_recursive>
 800645e:	4628      	mov	r0, r5
 8006460:	4621      	mov	r1, r4
 8006462:	f7ff ff5d 	bl	8006320 <__sflush_r>
 8006466:	6e63      	ldr	r3, [r4, #100]	; 0x64
 8006468:	4605      	mov	r5, r0
 800646a:	07da      	lsls	r2, r3, #31
 800646c:	d4e0      	bmi.n	8006430 <_fflush_r+0xc>
 800646e:	89a3      	ldrh	r3, [r4, #12]
 8006470:	059b      	lsls	r3, r3, #22
 8006472:	d4dd      	bmi.n	8006430 <_fflush_r+0xc>
 8006474:	6da0      	ldr	r0, [r4, #88]	; 0x58
 8006476:	f000 f908 	bl	800668a <__retarget_lock_release_recursive>
 800647a:	e7d9      	b.n	8006430 <_fflush_r+0xc>
 800647c:	4b05      	ldr	r3, [pc, #20]	; (8006494 <_fflush_r+0x70>)
 800647e:	429c      	cmp	r4, r3
 8006480:	d101      	bne.n	8006486 <_fflush_r+0x62>
 8006482:	68ac      	ldr	r4, [r5, #8]
 8006484:	e7df      	b.n	8006446 <_fflush_r+0x22>
 8006486:	4b04      	ldr	r3, [pc, #16]	; (8006498 <_fflush_r+0x74>)
 8006488:	429c      	cmp	r4, r3
 800648a:	bf08      	it	eq
 800648c:	68ec      	ldreq	r4, [r5, #12]
 800648e:	e7da      	b.n	8006446 <_fflush_r+0x22>
 8006490:	0800876c 	.word	0x0800876c
 8006494:	0800878c 	.word	0x0800878c
 8006498:	0800874c 	.word	0x0800874c

0800649c <std>:
 800649c:	2300      	movs	r3, #0
 800649e:	b510      	push	{r4, lr}
 80064a0:	4604      	mov	r4, r0
 80064a2:	e9c0 3300 	strd	r3, r3, [r0]
 80064a6:	e9c0 3304 	strd	r3, r3, [r0, #16]
 80064aa:	6083      	str	r3, [r0, #8]
 80064ac:	8181      	strh	r1, [r0, #12]
 80064ae:	6643      	str	r3, [r0, #100]	; 0x64
 80064b0:	81c2      	strh	r2, [r0, #14]
 80064b2:	6183      	str	r3, [r0, #24]
 80064b4:	4619      	mov	r1, r3
 80064b6:	2208      	movs	r2, #8
 80064b8:	305c      	adds	r0, #92	; 0x5c
 80064ba:	f7ff f9e3 	bl	8005884 <memset>
 80064be:	4b05      	ldr	r3, [pc, #20]	; (80064d4 <std+0x38>)
 80064c0:	6224      	str	r4, [r4, #32]
 80064c2:	6263      	str	r3, [r4, #36]	; 0x24
 80064c4:	4b04      	ldr	r3, [pc, #16]	; (80064d8 <std+0x3c>)
 80064c6:	62a3      	str	r3, [r4, #40]	; 0x28
 80064c8:	4b04      	ldr	r3, [pc, #16]	; (80064dc <std+0x40>)
 80064ca:	62e3      	str	r3, [r4, #44]	; 0x2c
 80064cc:	4b04      	ldr	r3, [pc, #16]	; (80064e0 <std+0x44>)
 80064ce:	6323      	str	r3, [r4, #48]	; 0x30
 80064d0:	bd10      	pop	{r4, pc}
 80064d2:	bf00      	nop
 80064d4:	08006815 	.word	0x08006815
 80064d8:	08006837 	.word	0x08006837
 80064dc:	0800686f 	.word	0x0800686f
 80064e0:	08006893 	.word	0x08006893

080064e4 <_cleanup_r>:
 80064e4:	4901      	ldr	r1, [pc, #4]	; (80064ec <_cleanup_r+0x8>)
 80064e6:	f000 b8af 	b.w	8006648 <_fwalk_reent>
 80064ea:	bf00      	nop
 80064ec:	08006425 	.word	0x08006425

080064f0 <__sfmoreglue>:
 80064f0:	2268      	movs	r2, #104	; 0x68
 80064f2:	b570      	push	{r4, r5, r6, lr}
 80064f4:	1e4d      	subs	r5, r1, #1
 80064f6:	4355      	muls	r5, r2
 80064f8:	460e      	mov	r6, r1
 80064fa:	f105 0174 	add.w	r1, r5, #116	; 0x74
 80064fe:	f7ff fad5 	bl	8005aac <_malloc_r>
 8006502:	4604      	mov	r4, r0
 8006504:	b140      	cbz	r0, 8006518 <__sfmoreglue+0x28>
 8006506:	2100      	movs	r1, #0
 8006508:	e9c0 1600 	strd	r1, r6, [r0]
 800650c:	300c      	adds	r0, #12
 800650e:	60a0      	str	r0, [r4, #8]
 8006510:	f105 0268 	add.w	r2, r5, #104	; 0x68
 8006514:	f7ff f9b6 	bl	8005884 <memset>
 8006518:	4620      	mov	r0, r4
 800651a:	bd70      	pop	{r4, r5, r6, pc}

0800651c <__sfp_lock_acquire>:
 800651c:	4801      	ldr	r0, [pc, #4]	; (8006524 <__sfp_lock_acquire+0x8>)
 800651e:	f000 b8b3 	b.w	8006688 <__retarget_lock_acquire_recursive>
 8006522:	bf00      	nop
 8006524:	200009f1 	.word	0x200009f1

08006528 <__sfp_lock_release>:
 8006528:	4801      	ldr	r0, [pc, #4]	; (8006530 <__sfp_lock_release+0x8>)
 800652a:	f000 b8ae 	b.w	800668a <__retarget_lock_release_recursive>
 800652e:	bf00      	nop
 8006530:	200009f1 	.word	0x200009f1

08006534 <__sinit_lock_acquire>:
 8006534:	4801      	ldr	r0, [pc, #4]	; (800653c <__sinit_lock_acquire+0x8>)
 8006536:	f000 b8a7 	b.w	8006688 <__retarget_lock_acquire_recursive>
 800653a:	bf00      	nop
 800653c:	200009f2 	.word	0x200009f2

08006540 <__sinit_lock_release>:
 8006540:	4801      	ldr	r0, [pc, #4]	; (8006548 <__sinit_lock_release+0x8>)
 8006542:	f000 b8a2 	b.w	800668a <__retarget_lock_release_recursive>
 8006546:	bf00      	nop
 8006548:	200009f2 	.word	0x200009f2

0800654c <__sinit>:
 800654c:	b510      	push	{r4, lr}
 800654e:	4604      	mov	r4, r0
 8006550:	f7ff fff0 	bl	8006534 <__sinit_lock_acquire>
 8006554:	69a3      	ldr	r3, [r4, #24]
 8006556:	b11b      	cbz	r3, 8006560 <__sinit+0x14>
 8006558:	e8bd 4010 	ldmia.w	sp!, {r4, lr}
 800655c:	f7ff bff0 	b.w	8006540 <__sinit_lock_release>
 8006560:	e9c4 3312 	strd	r3, r3, [r4, #72]	; 0x48
 8006564:	6523      	str	r3, [r4, #80]	; 0x50
 8006566:	4b13      	ldr	r3, [pc, #76]	; (80065b4 <__sinit+0x68>)
 8006568:	4a13      	ldr	r2, [pc, #76]	; (80065b8 <__sinit+0x6c>)
 800656a:	681b      	ldr	r3, [r3, #0]
 800656c:	62a2      	str	r2, [r4, #40]	; 0x28
 800656e:	42a3      	cmp	r3, r4
 8006570:	bf08      	it	eq
 8006572:	2301      	moveq	r3, #1
 8006574:	4620      	mov	r0, r4
 8006576:	bf08      	it	eq
 8006578:	61a3      	streq	r3, [r4, #24]
 800657a:	f000 f81f 	bl	80065bc <__sfp>
 800657e:	6060      	str	r0, [r4, #4]
 8006580:	4620      	mov	r0, r4
 8006582:	f000 f81b 	bl	80065bc <__sfp>
 8006586:	60a0      	str	r0, [r4, #8]
 8006588:	4620      	mov	r0, r4
 800658a:	f000 f817 	bl	80065bc <__sfp>
 800658e:	2200      	movs	r2, #0
 8006590:	2104      	movs	r1, #4
 8006592:	60e0      	str	r0, [r4, #12]
 8006594:	6860      	ldr	r0, [r4, #4]
 8006596:	f7ff ff81 	bl	800649c <std>
 800659a:	2201      	movs	r2, #1
 800659c:	2109      	movs	r1, #9
 800659e:	68a0      	ldr	r0, [r4, #8]
 80065a0:	f7ff ff7c 	bl	800649c <std>
 80065a4:	2202      	movs	r2, #2
 80065a6:	2112      	movs	r1, #18
 80065a8:	68e0      	ldr	r0, [r4, #12]
 80065aa:	f7ff ff77 	bl	800649c <std>
 80065ae:	2301      	movs	r3, #1
 80065b0:	61a3      	str	r3, [r4, #24]
 80065b2:	e7d1      	b.n	8006558 <__sinit+0xc>
 80065b4:	08008664 	.word	0x08008664
 80065b8:	080064e5 	.word	0x080064e5

080065bc <__sfp>:
 80065bc:	b5f8      	push	{r3, r4, r5, r6, r7, lr}
 80065be:	4607      	mov	r7, r0
 80065c0:	f7ff ffac 	bl	800651c <__sfp_lock_acquire>
 80065c4:	4b1e      	ldr	r3, [pc, #120]	; (8006640 <__sfp+0x84>)
 80065c6:	681e      	ldr	r6, [r3, #0]
 80065c8:	69b3      	ldr	r3, [r6, #24]
 80065ca:	b913      	cbnz	r3, 80065d2 <__sfp+0x16>
 80065cc:	4630      	mov	r0, r6
 80065ce:	f7ff ffbd 	bl	800654c <__sinit>
 80065d2:	3648      	adds	r6, #72	; 0x48
 80065d4:	e9d6 3401 	ldrd	r3, r4, [r6, #4]
 80065d8:	3b01      	subs	r3, #1
 80065da:	d503      	bpl.n	80065e4 <__sfp+0x28>
 80065dc:	6833      	ldr	r3, [r6, #0]
 80065de:	b30b      	cbz	r3, 8006624 <__sfp+0x68>
 80065e0:	6836      	ldr	r6, [r6, #0]
 80065e2:	e7f7      	b.n	80065d4 <__sfp+0x18>
 80065e4:	f9b4 500c 	ldrsh.w	r5, [r4, #12]
 80065e8:	b9d5      	cbnz	r5, 8006620 <__sfp+0x64>
 80065ea:	4b16      	ldr	r3, [pc, #88]	; (8006644 <__sfp+0x88>)
 80065ec:	f104 0058 	add.w	r0, r4, #88	; 0x58
 80065f0:	60e3      	str	r3, [r4, #12]
 80065f2:	6665      	str	r5, [r4, #100]	; 0x64
 80065f4:	f000 f847 	bl	8006686 <__retarget_lock_init_recursive>
 80065f8:	f7ff ff96 	bl	8006528 <__sfp_lock_release>
 80065fc:	2208      	movs	r2, #8
 80065fe:	4629      	mov	r1, r5
 8006600:	e9c4 5501 	strd	r5, r5, [r4, #4]
 8006604:	e9c4 5504 	strd	r5, r5, [r4, #16]
 8006608:	6025      	str	r5, [r4, #0]
 800660a:	61a5      	str	r5, [r4, #24]
 800660c:	f104 005c 	add.w	r0, r4, #92	; 0x5c
 8006610:	f7ff f938 	bl	8005884 <memset>
 8006614:	e9c4 550d 	strd	r5, r5, [r4, #52]	; 0x34
 8006618:	e9c4 5512 	strd	r5, r5, [r4, #72]	; 0x48
 800661c:	4620      	mov	r0, r4
 800661e:	bdf8      	pop	{r3, r4, r5, r6, r7, pc}
 8006620:	3468      	adds	r4, #104	; 0x68
 8006622:	e7d9      	b.n	80065d8 <__sfp+0x1c>
 8006624:	2104      	movs	r1, #4
 8006626:	4638      	mov	r0, r7
 8006628:	f7ff ff62 	bl	80064f0 <__sfmoreglue>
 800662c:	4604      	mov	r4, r0
 800662e:	6030      	str	r0, [r6, #0]
 8006630:	2800      	cmp	r0, #0
 8006632:	d1d5      	bne.n	80065e0 <__sfp+0x24>
 8006634:	f7ff ff78 	bl	8006528 <__sfp_lock_release>
 8006638:	230c      	movs	r3, #12
 800663a:	603b      	str	r3, [r7, #0]
 800663c:	e7ee      	b.n	800661c <__sfp+0x60>
 800663e:	bf00      	nop
 8006640:	08008664 	.word	0x08008664
 8006644:	ffff0001 	.word	0xffff0001

08006648 <_fwalk_reent>:
 8006648:	e92d 43f8 	stmdb	sp!, {r3, r4, r5, r6, r7, r8, r9, lr}
 800664c:	4606      	mov	r6, r0
 800664e:	4688      	mov	r8, r1
 8006650:	2700      	movs	r7, #0
 8006652:	f100 0448 	add.w	r4, r0, #72	; 0x48
 8006656:	e9d4 9501 	ldrd	r9, r5, [r4, #4]
 800665a:	f1b9 0901 	subs.w	r9, r9, #1
 800665e:	d505      	bpl.n	800666c <_fwalk_reent+0x24>
 8006660:	6824      	ldr	r4, [r4, #0]
 8006662:	2c00      	cmp	r4, #0
 8006664:	d1f7      	bne.n	8006656 <_fwalk_reent+0xe>
 8006666:	4638      	mov	r0, r7
 8006668:	e8bd 83f8 	ldmia.w	sp!, {r3, r4, r5, r6, r7, r8, r9, pc}
 800666c:	89ab      	ldrh	r3, [r5, #12]
 800666e:	2b01      	cmp	r3, #1
 8006670:	d907      	bls.n	8006682 <_fwalk_reent+0x3a>
 8006672:	f9b5 300e 	ldrsh.w	r3, [r5, #14]
 8006676:	3301      	adds	r3, #1
 8006678:	d003      	beq.n	8006682 <_fwalk_reent+0x3a>
 800667a:	4629      	mov	r1, r5
 800667c:	4630      	mov	r0, r6
 800667e:	47c0      	blx	r8
 8006680:	4307      	orrs	r7, r0
 8006682:	3568      	adds	r5, #104	; 0x68
 8006684:	e7e9      	b.n	800665a <_fwalk_reent+0x12>

08006686 <__retarget_lock_init_recursive>:
 8006686:	4770      	bx	lr

08006688 <__retarget_lock_acquire_recursive>:
 8006688:	4770      	bx	lr

0800668a <__retarget_lock_release_recursive>:
 800668a:	4770      	bx	lr

0800668c <__swhatbuf_r>:
 800668c:	b570      	push	{r4, r5, r6, lr}
 800668e:	460e      	mov	r6, r1
 8006690:	f9b1 100e 	ldrsh.w	r1, [r1, #14]
 8006694:	4614      	mov	r4, r2
 8006696:	2900      	cmp	r1, #0
 8006698:	461d      	mov	r5, r3
 800669a:	b096      	sub	sp, #88	; 0x58
 800669c:	da08      	bge.n	80066b0 <__swhatbuf_r+0x24>
 800669e:	2200      	movs	r2, #0
 80066a0:	f9b6 300c 	ldrsh.w	r3, [r6, #12]
 80066a4:	602a      	str	r2, [r5, #0]
 80066a6:	061a      	lsls	r2, r3, #24
 80066a8:	d410      	bmi.n	80066cc <__swhatbuf_r+0x40>
 80066aa:	f44f 6380 	mov.w	r3, #1024	; 0x400
 80066ae:	e00e      	b.n	80066ce <__swhatbuf_r+0x42>
 80066b0:	466a      	mov	r2, sp
 80066b2:	f000 f915 	bl	80068e0 <_fstat_r>
 80066b6:	2800      	cmp	r0, #0
 80066b8:	dbf1      	blt.n	800669e <__swhatbuf_r+0x12>
 80066ba:	9a01      	ldr	r2, [sp, #4]
 80066bc:	f402 4270 	and.w	r2, r2, #61440	; 0xf000
 80066c0:	f5a2 5300 	sub.w	r3, r2, #8192	; 0x2000
 80066c4:	425a      	negs	r2, r3
 80066c6:	415a      	adcs	r2, r3
 80066c8:	602a      	str	r2, [r5, #0]
 80066ca:	e7ee      	b.n	80066aa <__swhatbuf_r+0x1e>
 80066cc:	2340      	movs	r3, #64	; 0x40
 80066ce:	2000      	movs	r0, #0
 80066d0:	6023      	str	r3, [r4, #0]
 80066d2:	b016      	add	sp, #88	; 0x58
 80066d4:	bd70      	pop	{r4, r5, r6, pc}
	...

080066d8 <__smakebuf_r>:
 80066d8:	898b      	ldrh	r3, [r1, #12]
 80066da:	b573      	push	{r0, r1, r4, r5, r6, lr}
 80066dc:	079d      	lsls	r5, r3, #30
 80066de:	4606      	mov	r6, r0
 80066e0:	460c      	mov	r4, r1
 80066e2:	d507      	bpl.n	80066f4 <__smakebuf_r+0x1c>
 80066e4:	f104 0347 	add.w	r3, r4, #71	; 0x47
 80066e8:	6023      	str	r3, [r4, #0]
 80066ea:	6123      	str	r3, [r4, #16]
 80066ec:	2301      	movs	r3, #1
 80066ee:	6163      	str	r3, [r4, #20]
 80066f0:	b002      	add	sp, #8
 80066f2:	bd70      	pop	{r4, r5, r6, pc}
 80066f4:	466a      	mov	r2, sp
 80066f6:	ab01      	add	r3, sp, #4
 80066f8:	f7ff ffc8 	bl	800668c <__swhatbuf_r>
 80066fc:	9900      	ldr	r1, [sp, #0]
 80066fe:	4605      	mov	r5, r0
 8006700:	4630      	mov	r0, r6
 8006702:	f7ff f9d3 	bl	8005aac <_malloc_r>
 8006706:	b948      	cbnz	r0, 800671c <__smakebuf_r+0x44>
 8006708:	f9b4 300c 	ldrsh.w	r3, [r4, #12]
 800670c:	059a      	lsls	r2, r3, #22
 800670e:	d4ef      	bmi.n	80066f0 <__smakebuf_r+0x18>
 8006710:	f023 0303 	bic.w	r3, r3, #3
 8006714:	f043 0302 	orr.w	r3, r3, #2
 8006718:	81a3      	strh	r3, [r4, #12]
 800671a:	e7e3      	b.n	80066e4 <__smakebuf_r+0xc>
 800671c:	4b0d      	ldr	r3, [pc, #52]	; (8006754 <__smakebuf_r+0x7c>)
 800671e:	62b3      	str	r3, [r6, #40]	; 0x28
 8006720:	89a3      	ldrh	r3, [r4, #12]
 8006722:	6020      	str	r0, [r4, #0]
 8006724:	f043 0380 	orr.w	r3, r3, #128	; 0x80
 8006728:	81a3      	strh	r3, [r4, #12]
 800672a:	9b00      	ldr	r3, [sp, #0]
 800672c:	6120      	str	r0, [r4, #16]
 800672e:	6163      	str	r3, [r4, #20]
 8006730:	9b01      	ldr	r3, [sp, #4]
 8006732:	b15b      	cbz	r3, 800674c <__smakebuf_r+0x74>
 8006734:	4630      	mov	r0, r6
 8006736:	f9b4 100e 	ldrsh.w	r1, [r4, #14]
 800673a:	f000 f8e3 	bl	8006904 <_isatty_r>
 800673e:	b128      	cbz	r0, 800674c <__smakebuf_r+0x74>
 8006740:	89a3      	ldrh	r3, [r4, #12]
 8006742:	f023 0303 	bic.w	r3, r3, #3
 8006746:	f043 0301 	orr.w	r3, r3, #1
 800674a:	81a3      	strh	r3, [r4, #12]
 800674c:	89a0      	ldrh	r0, [r4, #12]
 800674e:	4305      	orrs	r5, r0
 8006750:	81a5      	strh	r5, [r4, #12]
 8006752:	e7cd      	b.n	80066f0 <__smakebuf_r+0x18>
 8006754:	080064e5 	.word	0x080064e5

08006758 <memchr>:
 8006758:	4603      	mov	r3, r0
 800675a:	b510      	push	{r4, lr}
 800675c:	b2c9      	uxtb	r1, r1
 800675e:	4402      	add	r2, r0
 8006760:	4293      	cmp	r3, r2
 8006762:	4618      	mov	r0, r3
 8006764:	d101      	bne.n	800676a <memchr+0x12>
 8006766:	2000      	movs	r0, #0
 8006768:	e003      	b.n	8006772 <memchr+0x1a>
 800676a:	7804      	ldrb	r4, [r0, #0]
 800676c:	3301      	adds	r3, #1
 800676e:	428c      	cmp	r4, r1
 8006770:	d1f6      	bne.n	8006760 <memchr+0x8>
 8006772:	bd10      	pop	{r4, pc}

08006774 <__malloc_lock>:
 8006774:	4801      	ldr	r0, [pc, #4]	; (800677c <__malloc_lock+0x8>)
 8006776:	f7ff bf87 	b.w	8006688 <__retarget_lock_acquire_recursive>
 800677a:	bf00      	nop
 800677c:	200009f0 	.word	0x200009f0

08006780 <__malloc_unlock>:
 8006780:	4801      	ldr	r0, [pc, #4]	; (8006788 <__malloc_unlock+0x8>)
 8006782:	f7ff bf82 	b.w	800668a <__retarget_lock_release_recursive>
 8006786:	bf00      	nop
 8006788:	200009f0 	.word	0x200009f0

0800678c <_raise_r>:
 800678c:	291f      	cmp	r1, #31
 800678e:	b538      	push	{r3, r4, r5, lr}
 8006790:	4604      	mov	r4, r0
 8006792:	460d      	mov	r5, r1
 8006794:	d904      	bls.n	80067a0 <_raise_r+0x14>
 8006796:	2316      	movs	r3, #22
 8006798:	6003      	str	r3, [r0, #0]
 800679a:	f04f 30ff 	mov.w	r0, #4294967295
 800679e:	bd38      	pop	{r3, r4, r5, pc}
 80067a0:	6c42      	ldr	r2, [r0, #68]	; 0x44
 80067a2:	b112      	cbz	r2, 80067aa <_raise_r+0x1e>
 80067a4:	f852 3021 	ldr.w	r3, [r2, r1, lsl #2]
 80067a8:	b94b      	cbnz	r3, 80067be <_raise_r+0x32>
 80067aa:	4620      	mov	r0, r4
 80067ac:	f000 f830 	bl	8006810 <_getpid_r>
 80067b0:	462a      	mov	r2, r5
 80067b2:	4601      	mov	r1, r0
 80067b4:	4620      	mov	r0, r4
 80067b6:	e8bd 4038 	ldmia.w	sp!, {r3, r4, r5, lr}
 80067ba:	f000 b817 	b.w	80067ec <_kill_r>
 80067be:	2b01      	cmp	r3, #1
 80067c0:	d00a      	beq.n	80067d8 <_raise_r+0x4c>
 80067c2:	1c59      	adds	r1, r3, #1
 80067c4:	d103      	bne.n	80067ce <_raise_r+0x42>
 80067c6:	2316      	movs	r3, #22
 80067c8:	6003      	str	r3, [r0, #0]
 80067ca:	2001      	movs	r0, #1
 80067cc:	e7e7      	b.n	800679e <_raise_r+0x12>
 80067ce:	2400      	movs	r4, #0
 80067d0:	4628      	mov	r0, r5
 80067d2:	f842 4025 	str.w	r4, [r2, r5, lsl #2]
 80067d6:	4798      	blx	r3
 80067d8:	2000      	movs	r0, #0
 80067da:	e7e0      	b.n	800679e <_raise_r+0x12>

080067dc <raise>:
 80067dc:	4b02      	ldr	r3, [pc, #8]	; (80067e8 <raise+0xc>)
 80067de:	4601      	mov	r1, r0
 80067e0:	6818      	ldr	r0, [r3, #0]
 80067e2:	f7ff bfd3 	b.w	800678c <_raise_r>
 80067e6:	bf00      	nop
 80067e8:	20000050 	.word	0x20000050

080067ec <_kill_r>:
 80067ec:	b538      	push	{r3, r4, r5, lr}
 80067ee:	2300      	movs	r3, #0
 80067f0:	4d06      	ldr	r5, [pc, #24]	; (800680c <_kill_r+0x20>)
 80067f2:	4604      	mov	r4, r0
 80067f4:	4608      	mov	r0, r1
 80067f6:	4611      	mov	r1, r2
 80067f8:	602b      	str	r3, [r5, #0]
 80067fa:	f7fb fd6f 	bl	80022dc <_kill>
 80067fe:	1c43      	adds	r3, r0, #1
 8006800:	d102      	bne.n	8006808 <_kill_r+0x1c>
 8006802:	682b      	ldr	r3, [r5, #0]
 8006804:	b103      	cbz	r3, 8006808 <_kill_r+0x1c>
 8006806:	6023      	str	r3, [r4, #0]
 8006808:	bd38      	pop	{r3, r4, r5, pc}
 800680a:	bf00      	nop
 800680c:	200009f4 	.word	0x200009f4

08006810 <_getpid_r>:
 8006810:	f7fb bd62 	b.w	80022d8 <_getpid>

08006814 <__sread>:
 8006814:	b510      	push	{r4, lr}
 8006816:	460c      	mov	r4, r1
 8006818:	f9b1 100e 	ldrsh.w	r1, [r1, #14]
 800681c:	f000 f894 	bl	8006948 <_read_r>
 8006820:	2800      	cmp	r0, #0
 8006822:	bfab      	itete	ge
 8006824:	6d63      	ldrge	r3, [r4, #84]	; 0x54
 8006826:	89a3      	ldrhlt	r3, [r4, #12]
 8006828:	181b      	addge	r3, r3, r0
 800682a:	f423 5380 	biclt.w	r3, r3, #4096	; 0x1000
 800682e:	bfac      	ite	ge
 8006830:	6563      	strge	r3, [r4, #84]	; 0x54
 8006832:	81a3      	strhlt	r3, [r4, #12]
 8006834:	bd10      	pop	{r4, pc}

08006836 <__swrite>:
 8006836:	e92d 41f0 	stmdb	sp!, {r4, r5, r6, r7, r8, lr}
 800683a:	461f      	mov	r7, r3
 800683c:	898b      	ldrh	r3, [r1, #12]
 800683e:	4605      	mov	r5, r0
 8006840:	05db      	lsls	r3, r3, #23
 8006842:	460c      	mov	r4, r1
 8006844:	4616      	mov	r6, r2
 8006846:	d505      	bpl.n	8006854 <__swrite+0x1e>
 8006848:	2302      	movs	r3, #2
 800684a:	2200      	movs	r2, #0
 800684c:	f9b1 100e 	ldrsh.w	r1, [r1, #14]
 8006850:	f000 f868 	bl	8006924 <_lseek_r>
 8006854:	89a3      	ldrh	r3, [r4, #12]
 8006856:	4632      	mov	r2, r6
 8006858:	f423 5380 	bic.w	r3, r3, #4096	; 0x1000
 800685c:	81a3      	strh	r3, [r4, #12]
 800685e:	4628      	mov	r0, r5
 8006860:	463b      	mov	r3, r7
 8006862:	f9b4 100e 	ldrsh.w	r1, [r4, #14]
 8006866:	e8bd 41f0 	ldmia.w	sp!, {r4, r5, r6, r7, r8, lr}
 800686a:	f000 b817 	b.w	800689c <_write_r>

0800686e <__sseek>:
 800686e:	b510      	push	{r4, lr}
 8006870:	460c      	mov	r4, r1
 8006872:	f9b1 100e 	ldrsh.w	r1, [r1, #14]
 8006876:	f000 f855 	bl	8006924 <_lseek_r>
 800687a:	1c43      	adds	r3, r0, #1
 800687c:	89a3      	ldrh	r3, [r4, #12]
 800687e:	bf15      	itete	ne
 8006880:	6560      	strne	r0, [r4, #84]	; 0x54
 8006882:	f423 5380 	biceq.w	r3, r3, #4096	; 0x1000
 8006886:	f443 5380 	orrne.w	r3, r3, #4096	; 0x1000
 800688a:	81a3      	strheq	r3, [r4, #12]
 800688c:	bf18      	it	ne
 800688e:	81a3      	strhne	r3, [r4, #12]
 8006890:	bd10      	pop	{r4, pc}

08006892 <__sclose>:
 8006892:	f9b1 100e 	ldrsh.w	r1, [r1, #14]
 8006896:	f000 b813 	b.w	80068c0 <_close_r>
	...

0800689c <_write_r>:
 800689c:	b538      	push	{r3, r4, r5, lr}
 800689e:	4604      	mov	r4, r0
 80068a0:	4608      	mov	r0, r1
 80068a2:	4611      	mov	r1, r2
 80068a4:	2200      	movs	r2, #0
 80068a6:	4d05      	ldr	r5, [pc, #20]	; (80068bc <_write_r+0x20>)
 80068a8:	602a      	str	r2, [r5, #0]
 80068aa:	461a      	mov	r2, r3
 80068ac:	f7fa fc0a 	bl	80010c4 <_write>
 80068b0:	1c43      	adds	r3, r0, #1
 80068b2:	d102      	bne.n	80068ba <_write_r+0x1e>
 80068b4:	682b      	ldr	r3, [r5, #0]
 80068b6:	b103      	cbz	r3, 80068ba <_write_r+0x1e>
 80068b8:	6023      	str	r3, [r4, #0]
 80068ba:	bd38      	pop	{r3, r4, r5, pc}
 80068bc:	200009f4 	.word	0x200009f4

080068c0 <_close_r>:
 80068c0:	b538      	push	{r3, r4, r5, lr}
 80068c2:	2300      	movs	r3, #0
 80068c4:	4d05      	ldr	r5, [pc, #20]	; (80068dc <_close_r+0x1c>)
 80068c6:	4604      	mov	r4, r0
 80068c8:	4608      	mov	r0, r1
 80068ca:	602b      	str	r3, [r5, #0]
 80068cc:	f7fb fd22 	bl	8002314 <_close>
 80068d0:	1c43      	adds	r3, r0, #1
 80068d2:	d102      	bne.n	80068da <_close_r+0x1a>
 80068d4:	682b      	ldr	r3, [r5, #0]
 80068d6:	b103      	cbz	r3, 80068da <_close_r+0x1a>
 80068d8:	6023      	str	r3, [r4, #0]
 80068da:	bd38      	pop	{r3, r4, r5, pc}
 80068dc:	200009f4 	.word	0x200009f4

080068e0 <_fstat_r>:
 80068e0:	b538      	push	{r3, r4, r5, lr}
 80068e2:	2300      	movs	r3, #0
 80068e4:	4d06      	ldr	r5, [pc, #24]	; (8006900 <_fstat_r+0x20>)
 80068e6:	4604      	mov	r4, r0
 80068e8:	4608      	mov	r0, r1
 80068ea:	4611      	mov	r1, r2
 80068ec:	602b      	str	r3, [r5, #0]
 80068ee:	f7fb fd14 	bl	800231a <_fstat>
 80068f2:	1c43      	adds	r3, r0, #1
 80068f4:	d102      	bne.n	80068fc <_fstat_r+0x1c>
 80068f6:	682b      	ldr	r3, [r5, #0]
 80068f8:	b103      	cbz	r3, 80068fc <_fstat_r+0x1c>
 80068fa:	6023      	str	r3, [r4, #0]
 80068fc:	bd38      	pop	{r3, r4, r5, pc}
 80068fe:	bf00      	nop
 8006900:	200009f4 	.word	0x200009f4

08006904 <_isatty_r>:
 8006904:	b538      	push	{r3, r4, r5, lr}
 8006906:	2300      	movs	r3, #0
 8006908:	4d05      	ldr	r5, [pc, #20]	; (8006920 <_isatty_r+0x1c>)
 800690a:	4604      	mov	r4, r0
 800690c:	4608      	mov	r0, r1
 800690e:	602b      	str	r3, [r5, #0]
 8006910:	f7fb fd08 	bl	8002324 <_isatty>
 8006914:	1c43      	adds	r3, r0, #1
 8006916:	d102      	bne.n	800691e <_isatty_r+0x1a>
 8006918:	682b      	ldr	r3, [r5, #0]
 800691a:	b103      	cbz	r3, 800691e <_isatty_r+0x1a>
 800691c:	6023      	str	r3, [r4, #0]
 800691e:	bd38      	pop	{r3, r4, r5, pc}
 8006920:	200009f4 	.word	0x200009f4

08006924 <_lseek_r>:
 8006924:	b538      	push	{r3, r4, r5, lr}
 8006926:	4604      	mov	r4, r0
 8006928:	4608      	mov	r0, r1
 800692a:	4611      	mov	r1, r2
 800692c:	2200      	movs	r2, #0
 800692e:	4d05      	ldr	r5, [pc, #20]	; (8006944 <_lseek_r+0x20>)
 8006930:	602a      	str	r2, [r5, #0]
 8006932:	461a      	mov	r2, r3
 8006934:	f7fb fcf8 	bl	8002328 <_lseek>
 8006938:	1c43      	adds	r3, r0, #1
 800693a:	d102      	bne.n	8006942 <_lseek_r+0x1e>
 800693c:	682b      	ldr	r3, [r5, #0]
 800693e:	b103      	cbz	r3, 8006942 <_lseek_r+0x1e>
 8006940:	6023      	str	r3, [r4, #0]
 8006942:	bd38      	pop	{r3, r4, r5, pc}
 8006944:	200009f4 	.word	0x200009f4

08006948 <_read_r>:
 8006948:	b538      	push	{r3, r4, r5, lr}
 800694a:	4604      	mov	r4, r0
 800694c:	4608      	mov	r0, r1
 800694e:	4611      	mov	r1, r2
 8006950:	2200      	movs	r2, #0
 8006952:	4d05      	ldr	r5, [pc, #20]	; (8006968 <_read_r+0x20>)
 8006954:	602a      	str	r2, [r5, #0]
 8006956:	461a      	mov	r2, r3
 8006958:	f7fb fcce 	bl	80022f8 <_read>
 800695c:	1c43      	adds	r3, r0, #1
 800695e:	d102      	bne.n	8006966 <_read_r+0x1e>
 8006960:	682b      	ldr	r3, [r5, #0]
 8006962:	b103      	cbz	r3, 8006966 <_read_r+0x1e>
 8006964:	6023      	str	r3, [r4, #0]
 8006966:	bd38      	pop	{r3, r4, r5, pc}
 8006968:	200009f4 	.word	0x200009f4

0800696c <_init>:
 800696c:	b5f8      	push	{r3, r4, r5, r6, r7, lr}
 800696e:	bf00      	nop
 8006970:	bcf8      	pop	{r3, r4, r5, r6, r7}
 8006972:	bc08      	pop	{r3}
 8006974:	469e      	mov	lr, r3
 8006976:	4770      	bx	lr

08006978 <_fini>:
 8006978:	b5f8      	push	{r3, r4, r5, r6, r7, lr}
 800697a:	bf00      	nop
 800697c:	bcf8      	pop	{r3, r4, r5, r6, r7}
 800697e:	bc08      	pop	{r3}
 8006980:	469e      	mov	lr, r3
 8006982:	4770      	bx	lr
