
GameBox.elf:     file format elf32-littlearm

Sections:
Idx Name          Size      VMA       LMA       File off  Algn
  0 .isr_vector   0000010c  08000000  08000000  00010000  2**0
                  CONTENTS, ALLOC, LOAD, READONLY, DATA
  1 .text         000081e0  0800010c  0800010c  0001010c  2**2
                  CONTENTS, ALLOC, LOAD, READONLY, CODE
  2 .rodata       00001e90  080082ec  080082ec  000182ec  2**2
                  CONTENTS, ALLOC, LOAD, READONLY, DATA
  3 .ARM.extab    00000000  0800a17c  0800a17c  000200b8  2**0
                  CONTENTS
  4 .ARM          00000000  0800a17c  0800a17c  000200b8  2**0
                  CONTENTS
  5 .preinit_array 00000000  0800a17c  0800a17c  000200b8  2**0
                  CONTENTS, ALLOC, LOAD, DATA
  6 .init_array   00000004  0800a17c  0800a17c  0001a17c  2**2
                  CONTENTS, ALLOC, LOAD, DATA
  7 .fini_array   00000004  0800a180  0800a180  0001a180  2**2
                  CONTENTS, ALLOC, LOAD, DATA
  8 .data         000000b8  20000000  0800a184  00020000  2**2
                  CONTENTS, ALLOC, LOAD, DATA
  9 .bss          00000818  200000b8  0800a23c  000200b8  2**2
                  ALLOC
 10 ._user_heap_stack 00000600  200008d0  0800a23c  000208d0  2**0
                  ALLOC
 11 .ARM.attributes 00000029  00000000  00000000  000200b8  2**0
                  CONTENTS, READONLY
 12 .debug_info   0001d72e  00000000  00000000  000200e1  2**0
                  CONTENTS, READONLY, DEBUGGING, OCTETS
 13 .debug_abbrev 000041e0  00000000  00000000  0003d80f  2**0
                  CONTENTS, READONLY, DEBUGGING, OCTETS
 14 .debug_loc    0001507c  00000000  00000000  000419ef  2**0
                  CONTENTS, READONLY, DEBUGGING, OCTETS
 15 .debug_aranges 00001010  00000000  00000000  00056a70  2**3
                  CONTENTS, READONLY, DEBUGGING, OCTETS
 16 .debug_ranges 00003340  00000000  00000000  00057a80  2**3
                  CONTENTS, READONLY, DEBUGGING, OCTETS
 17 .debug_macro  0001a647  00000000  00000000  0005adc0  2**0
                  CONTENTS, READONLY, DEBUGGING, OCTETS
 18 .debug_line   000212a7  00000000  00000000  00075407  2**0
                  CONTENTS, READONLY, DEBUGGING, OCTETS
 19 .debug_str    00094571  00000000  00000000  000966ae  2**0
                  CONTENTS, READONLY, DEBUGGING, OCTETS
 20 .comment      00000050  00000000  00000000  0012ac1f  2**0
                  CONTENTS, READONLY
 21 .debug_frame  00003fb8  00000000  00000000  0012ac70  2**2
                  CONTENTS, READONLY, DEBUGGING, OCTETS

Disassembly of section .text:

0800010c <__do_global_dtors_aux>:
 800010c:	b510      	push	{r4, lr}
 800010e:	4c05      	ldr	r4, [pc, #20]	; (8000124 <__do_global_dtors_aux+0x18>)
 8000110:	7823      	ldrb	r3, [r4, #0]
 8000112:	b933      	cbnz	r3, 8000122 <__do_global_dtors_aux+0x16>
 8000114:	4b04      	ldr	r3, [pc, #16]	; (8000128 <__do_global_dtors_aux+0x1c>)
 8000116:	b113      	cbz	r3, 800011e <__do_global_dtors_aux+0x12>
 8000118:	4804      	ldr	r0, [pc, #16]	; (800012c <__do_global_dtors_aux+0x20>)
 800011a:	f3af 8000 	nop.w
 800011e:	2301      	movs	r3, #1
 8000120:	7023      	strb	r3, [r4, #0]
 8000122:	bd10      	pop	{r4, pc}
 8000124:	200000b8 	.word	0x200000b8
 8000128:	00000000 	.word	0x00000000
 800012c:	080082d4 	.word	0x080082d4

08000130 <frame_dummy>:
 8000130:	b508      	push	{r3, lr}
 8000132:	4b03      	ldr	r3, [pc, #12]	; (8000140 <frame_dummy+0x10>)
 8000134:	b11b      	cbz	r3, 800013e <frame_dummy+0xe>
 8000136:	4903      	ldr	r1, [pc, #12]	; (8000144 <frame_dummy+0x14>)
 8000138:	4803      	ldr	r0, [pc, #12]	; (8000148 <frame_dummy+0x18>)
 800013a:	f3af 8000 	nop.w
 800013e:	bd08      	pop	{r3, pc}
 8000140:	00000000 	.word	0x00000000
 8000144:	200000bc 	.word	0x200000bc
 8000148:	080082d4 	.word	0x080082d4

0800014c <randinit>:
  return val;
}

void randinit(void)
{
  srand((uint8)timestamp);
 800014c:	4b01      	ldr	r3, [pc, #4]	; (8000154 <randinit+0x8>)
 800014e:	7818      	ldrb	r0, [r3, #0]
 8000150:	f007 b854 	b.w	80071fc <srand>
 8000154:	2000014c 	.word	0x2000014c

08000158 <getrand>:
}

uint8 getrand(uint8 N)
{
 8000158:	b510      	push	{r4, lr}
 800015a:	4604      	mov	r4, r0
  return (rand() % (N + 1));
 800015c:	f007 f87c 	bl	8007258 <rand>
 8000160:	1c63      	adds	r3, r4, #1
 8000162:	fb90 f2f3 	sdiv	r2, r0, r3
 8000166:	fb02 0013 	mls	r0, r2, r3, r0
}
 800016a:	b2c0      	uxtb	r0, r0
 800016c:	bd10      	pop	{r4, pc}
 800016e:	bf00      	nop

08000170 <dig_to_smb>:

uint8 dig_to_smb(uint8 dig)
{
  switch (dig)
 8000170:	2809      	cmp	r0, #9
 8000172:	bf9a      	itte	ls
 8000174:	3030      	addls	r0, #48	; 0x30
 8000176:	b2c0      	uxtbls	r0, r0
{
 8000178:	2000      	movhi	r0, #0
    case 7: return '7'; 
    case 8: return '8';
    case 9: return '9';
  }
  return 0;
}
 800017a:	4770      	bx	lr

0800017c <u16_to_str>:

void u16_to_str(uint8* str, uint16 num, uint8 N)
{ 
  //sprintf((char*)str, "%u", num);
  
  str[0] = dig_to_smb((uint8)(num/10000));
 800017c:	4b42      	ldr	r3, [pc, #264]	; (8000288 <u16_to_str+0x10c>)
{ 
 800017e:	b570      	push	{r4, r5, r6, lr}
  str[0] = dig_to_smb((uint8)(num/10000));
 8000180:	fba3 3e01 	umull	r3, lr, r3, r1
  num %= 10000;
 8000184:	4b40      	ldr	r3, [pc, #256]	; (8000288 <u16_to_str+0x10c>)
  str[1] = dig_to_smb((uint8)(num/1000));
  num %= 1000;
  str[2] = dig_to_smb((uint8)(num/100));
  num %= 100;
 8000186:	f04f 0c64 	mov.w	ip, #100	; 0x64
  num %= 10000;
 800018a:	fba3 4301 	umull	r4, r3, r3, r1
 800018e:	f242 7410 	movw	r4, #10000	; 0x2710
 8000192:	0b5b      	lsrs	r3, r3, #13
 8000194:	fb04 1313 	mls	r3, r4, r3, r1
  str[1] = dig_to_smb((uint8)(num/1000));
 8000198:	493c      	ldr	r1, [pc, #240]	; (800028c <u16_to_str+0x110>)
  str[0] = dig_to_smb((uint8)(num/10000));
 800019a:	f3ce 3e47 	ubfx	lr, lr, #13, #8
  str[1] = dig_to_smb((uint8)(num/1000));
 800019e:	fba1 4103 	umull	r4, r1, r1, r3
  num %= 1000;
 80001a2:	f44f 747a 	mov.w	r4, #1000	; 0x3e8
 80001a6:	f1be 0f09 	cmp.w	lr, #9
  str[0] = dig_to_smb((uint8)(num/10000));
 80001aa:	bf88      	it	hi
 80001ac:	f04f 0e00 	movhi.w	lr, #0
  str[3] = dig_to_smb((uint8)(num/10));
  str[4] = dig_to_smb((uint8)(num%10));
  str[5] = '\0';
 80001b0:	f04f 0500 	mov.w	r5, #0
  str[1] = dig_to_smb((uint8)(num/1000));
 80001b4:	ea4f 1191 	mov.w	r1, r1, lsr #6
  num %= 1000;
 80001b8:	fb04 3311 	mls	r3, r4, r1, r3
  str[2] = dig_to_smb((uint8)(num/100));
 80001bc:	4c34      	ldr	r4, [pc, #208]	; (8000290 <u16_to_str+0x114>)
 80001be:	bf98      	it	ls
 80001c0:	f10e 0e30 	addls.w	lr, lr, #48	; 0x30
 80001c4:	fba4 6403 	umull	r6, r4, r4, r3
 80001c8:	ea4f 1454 	mov.w	r4, r4, lsr #5
  num %= 100;
 80001cc:	fb0c 3314 	mls	r3, ip, r4, r3
  str[2] = dig_to_smb((uint8)(num/100));
 80001d0:	f104 0430 	add.w	r4, r4, #48	; 0x30
 80001d4:	7084      	strb	r4, [r0, #2]
  str[3] = dig_to_smb((uint8)(num/10));
 80001d6:	4c2f      	ldr	r4, [pc, #188]	; (8000294 <u16_to_str+0x118>)
 80001d8:	f101 0130 	add.w	r1, r1, #48	; 0x30
 80001dc:	fba4 4c03 	umull	r4, ip, r4, r3
 80001e0:	ea4f 0cdc 	mov.w	ip, ip, lsr #3
  str[4] = dig_to_smb((uint8)(num%10));
 80001e4:	eb0c 048c 	add.w	r4, ip, ip, lsl #2
 80001e8:	eba3 0344 	sub.w	r3, r3, r4, lsl #1
 80001ec:	bf98      	it	ls
 80001ee:	fa5f fe8e 	uxtbls.w	lr, lr
 80001f2:	b2c9      	uxtb	r1, r1
  str[3] = dig_to_smb((uint8)(num/10));
 80001f4:	f10c 0c30 	add.w	ip, ip, #48	; 0x30
  str[4] = dig_to_smb((uint8)(num%10));
 80001f8:	3330      	adds	r3, #48	; 0x30
  
  if(N == 10)
 80001fa:	2a0a      	cmp	r2, #10
  str[0] = dig_to_smb((uint8)(num/10000));
 80001fc:	f880 e000 	strb.w	lr, [r0]
  str[1] = dig_to_smb((uint8)(num/1000));
 8000200:	7041      	strb	r1, [r0, #1]
  str[5] = '\0';
 8000202:	7145      	strb	r5, [r0, #5]
  str[3] = dig_to_smb((uint8)(num/10));
 8000204:	f880 c003 	strb.w	ip, [r0, #3]
  str[4] = dig_to_smb((uint8)(num%10));
 8000208:	7103      	strb	r3, [r0, #4]
  if(N == 10)
 800020a:	d01a      	beq.n	8000242 <u16_to_str+0xc6>
      str[0] = '0';
      str[1] = '\0';
    }
  }
      
  if((N < 5) && (N > 0))
 800020c:	1e53      	subs	r3, r2, #1
 800020e:	2b03      	cmp	r3, #3
 8000210:	d816      	bhi.n	8000240 <u16_to_str+0xc4>
  {
    for(uint8 i = 0; i <= N; i++) 
      str[i] = str[5 - N + i];
 8000212:	f1c2 0305 	rsb	r3, r2, #5
 8000216:	5cc1      	ldrb	r1, [r0, r3]
 8000218:	f1c2 0306 	rsb	r3, r2, #6
 800021c:	7001      	strb	r1, [r0, #0]
 800021e:	5cc3      	ldrb	r3, [r0, r3]
    for(uint8 i = 0; i <= N; i++) 
 8000220:	2a01      	cmp	r2, #1
      str[i] = str[5 - N + i];
 8000222:	7043      	strb	r3, [r0, #1]
    for(uint8 i = 0; i <= N; i++) 
 8000224:	d00c      	beq.n	8000240 <u16_to_str+0xc4>
      str[i] = str[5 - N + i];
 8000226:	f1c2 0307 	rsb	r3, r2, #7
 800022a:	5cc3      	ldrb	r3, [r0, r3]
    for(uint8 i = 0; i <= N; i++) 
 800022c:	2a02      	cmp	r2, #2
      str[i] = str[5 - N + i];
 800022e:	7083      	strb	r3, [r0, #2]
    for(uint8 i = 0; i <= N; i++) 
 8000230:	d006      	beq.n	8000240 <u16_to_str+0xc4>
      str[i] = str[5 - N + i];
 8000232:	f1c2 0308 	rsb	r3, r2, #8
 8000236:	5cc3      	ldrb	r3, [r0, r3]
    for(uint8 i = 0; i <= N; i++) 
 8000238:	2a04      	cmp	r2, #4
      str[i] = str[5 - N + i];
 800023a:	70c3      	strb	r3, [r0, #3]
    for(uint8 i = 0; i <= N; i++) 
 800023c:	d100      	bne.n	8000240 <u16_to_str+0xc4>
      str[i] = str[5 - N + i];
 800023e:	7105      	strb	r5, [r0, #4]
  }
}
 8000240:	bd70      	pop	{r4, r5, r6, pc}
      if((str[i] == '0') && !chars) continue;
 8000242:	f1be 0f30 	cmp.w	lr, #48	; 0x30
 8000246:	d011      	beq.n	800026c <u16_to_str+0xf0>
      chars++;
 8000248:	2501      	movs	r5, #1
      str[chars] = str[i];
 800024a:	5541      	strb	r1, [r0, r5]
      if((str[i] == '0') && !chars) continue;
 800024c:	7883      	ldrb	r3, [r0, #2]
      chars++;
 800024e:	3501      	adds	r5, #1
      str[chars] = str[i];
 8000250:	5543      	strb	r3, [r0, r5]
      if((str[i] == '0') && !chars) continue;
 8000252:	78c3      	ldrb	r3, [r0, #3]
      chars++;
 8000254:	3501      	adds	r5, #1
 8000256:	b2ed      	uxtb	r5, r5
      str[chars] = str[i];
 8000258:	5543      	strb	r3, [r0, r5]
      if((str[i] == '0') && !chars) continue;
 800025a:	7903      	ldrb	r3, [r0, #4]
      chars++;
 800025c:	3501      	adds	r5, #1
 800025e:	b2ed      	uxtb	r5, r5
      str[chars] = str[i];
 8000260:	5543      	strb	r3, [r0, r5]
      if((str[i] == '0') && !chars) continue;
 8000262:	7943      	ldrb	r3, [r0, #5]
      chars++;
 8000264:	3501      	adds	r5, #1
 8000266:	b2ed      	uxtb	r5, r5
      str[chars] = str[i];
 8000268:	5543      	strb	r3, [r0, r5]
}
 800026a:	bd70      	pop	{r4, r5, r6, pc}
      if((str[i] == '0') && !chars) continue;
 800026c:	2930      	cmp	r1, #48	; 0x30
 800026e:	d1ec      	bne.n	800024a <u16_to_str+0xce>
 8000270:	7883      	ldrb	r3, [r0, #2]
 8000272:	2b30      	cmp	r3, #48	; 0x30
 8000274:	d1ec      	bne.n	8000250 <u16_to_str+0xd4>
 8000276:	78c3      	ldrb	r3, [r0, #3]
 8000278:	2b30      	cmp	r3, #48	; 0x30
 800027a:	d1ed      	bne.n	8000258 <u16_to_str+0xdc>
 800027c:	7903      	ldrb	r3, [r0, #4]
 800027e:	2b30      	cmp	r3, #48	; 0x30
 8000280:	d1ee      	bne.n	8000260 <u16_to_str+0xe4>
      str[0] = '0';
 8000282:	f8a0 e000 	strh.w	lr, [r0]
}
 8000286:	bd70      	pop	{r4, r5, r6, pc}
 8000288:	d1b71759 	.word	0xd1b71759
 800028c:	10624dd3 	.word	0x10624dd3
 8000290:	51eb851f 	.word	0x51eb851f
 8000294:	cccccccd 	.word	0xcccccccd

08000298 <commoninit>:
/*----------------------------------------------------------------------------*/

/*-------------------------------INITIALIZATION-------------------------------*/

void commoninit(void)
{
 8000298:	b508      	push	{r3, lr}
  HAL_GPIO_WritePin(SHUTDOWN_GPIO_Port, SHUTDOWN_Pin, SET);
 800029a:	2201      	movs	r2, #1
 800029c:	f44f 5100 	mov.w	r1, #8192	; 0x2000
 80002a0:	4808      	ldr	r0, [pc, #32]	; (80002c4 <commoninit+0x2c>)
 80002a2:	f005 fc57 	bl	8005b54 <HAL_GPIO_WritePin>
  HAL_GPIO_WritePin(SOUND_OUT_GPIO_Port, SOUND_OUT_Pin, RESET);
 80002a6:	2110      	movs	r1, #16
 80002a8:	2200      	movs	r2, #0
 80002aa:	4807      	ldr	r0, [pc, #28]	; (80002c8 <commoninit+0x30>)
 80002ac:	f005 fc52 	bl	8005b54 <HAL_GPIO_WritePin>

extern TIM_HandleTypeDef htim1;
void BrightPWMgen(uint8 duty_cycle)
{
	uint16 dutyCycle = duty_cycle * 255;
	__HAL_TIM_SET_COMPARE(&htim1, TIM_CHANNEL_1, dutyCycle);
 80002b0:	f64d 3224 	movw	r2, #56100	; 0xdb24
 80002b4:	4805      	ldr	r0, [pc, #20]	; (80002cc <commoninit+0x34>)
	HAL_TIM_PWM_Start(&htim1, TIM_CHANNEL_1);
 80002b6:	2100      	movs	r1, #0
	__HAL_TIM_SET_COMPARE(&htim1, TIM_CHANNEL_1, dutyCycle);
 80002b8:	6803      	ldr	r3, [r0, #0]
 80002ba:	635a      	str	r2, [r3, #52]	; 0x34
}
 80002bc:	e8bd 4008 	ldmia.w	sp!, {r3, lr}
	HAL_TIM_PWM_Start(&htim1, TIM_CHANNEL_1);
 80002c0:	f006 bd10 	b.w	8006ce4 <HAL_TIM_PWM_Start>
 80002c4:	40011000 	.word	0x40011000
 80002c8:	40010800 	.word	0x40010800
 80002cc:	2000063c 	.word	0x2000063c

080002d0 <initbuttons>:
  B1 = CreateBtn(BTN_1_GPIO_Port, BTN_1_Pin, &timestamp);
 80002d0:	2040      	movs	r0, #64	; 0x40
  B2 = CreateBtn(BTN_2_GPIO_Port, BTN_2_Pin, &timestamp);
 80002d2:	2180      	movs	r1, #128	; 0x80
  B3 = CreateBtn(BTN_3_GPIO_Port, BTN_3_Pin, &timestamp);
 80002d4:	2210      	movs	r2, #16
  B1 = CreateBtn(BTN_1_GPIO_Port, BTN_1_Pin, &timestamp);
 80002d6:	2300      	movs	r3, #0
{
 80002d8:	b430      	push	{r4, r5}
  B4 = CreateBtn(BTN_4_GPIO_Port, BTN_4_Pin, &timestamp);
 80002da:	2520      	movs	r5, #32
  B1 = CreateBtn(BTN_1_GPIO_Port, BTN_1_Pin, &timestamp);
 80002dc:	4c0f      	ldr	r4, [pc, #60]	; (800031c <initbuttons+0x4c>)
 80002de:	6060      	str	r0, [r4, #4]
  B2 = CreateBtn(BTN_2_GPIO_Port, BTN_2_Pin, &timestamp);
 80002e0:	480f      	ldr	r0, [pc, #60]	; (8000320 <initbuttons+0x50>)
  B1 = CreateBtn(BTN_1_GPIO_Port, BTN_1_Pin, &timestamp);
 80002e2:	e9c4 3303 	strd	r3, r3, [r4, #12]
  B2 = CreateBtn(BTN_2_GPIO_Port, BTN_2_Pin, &timestamp);
 80002e6:	6041      	str	r1, [r0, #4]
  B3 = CreateBtn(BTN_3_GPIO_Port, BTN_3_Pin, &timestamp);
 80002e8:	490e      	ldr	r1, [pc, #56]	; (8000324 <initbuttons+0x54>)
  B2 = CreateBtn(BTN_2_GPIO_Port, BTN_2_Pin, &timestamp);
 80002ea:	e9c0 3303 	strd	r3, r3, [r0, #12]
  B3 = CreateBtn(BTN_3_GPIO_Port, BTN_3_Pin, &timestamp);
 80002ee:	604a      	str	r2, [r1, #4]
  B4 = CreateBtn(BTN_4_GPIO_Port, BTN_4_Pin, &timestamp);
 80002f0:	4a0d      	ldr	r2, [pc, #52]	; (8000328 <initbuttons+0x58>)
  B3 = CreateBtn(BTN_3_GPIO_Port, BTN_3_Pin, &timestamp);
 80002f2:	e9c1 3303 	strd	r3, r3, [r1, #12]
  B4 = CreateBtn(BTN_4_GPIO_Port, BTN_4_Pin, &timestamp);
 80002f6:	e9c2 3303 	strd	r3, r3, [r2, #12]
  B1 = CreateBtn(BTN_1_GPIO_Port, BTN_1_Pin, &timestamp);
 80002fa:	7523      	strb	r3, [r4, #20]
  B2 = CreateBtn(BTN_2_GPIO_Port, BTN_2_Pin, &timestamp);
 80002fc:	7503      	strb	r3, [r0, #20]
  B3 = CreateBtn(BTN_3_GPIO_Port, BTN_3_Pin, &timestamp);
 80002fe:	750b      	strb	r3, [r1, #20]
  B4 = CreateBtn(BTN_4_GPIO_Port, BTN_4_Pin, &timestamp);
 8000300:	7513      	strb	r3, [r2, #20]
  B1 = CreateBtn(BTN_1_GPIO_Port, BTN_1_Pin, &timestamp);
 8000302:	4b0a      	ldr	r3, [pc, #40]	; (800032c <initbuttons+0x5c>)
  B4 = CreateBtn(BTN_4_GPIO_Port, BTN_4_Pin, &timestamp);
 8000304:	6055      	str	r5, [r2, #4]
  B1 = CreateBtn(BTN_1_GPIO_Port, BTN_1_Pin, &timestamp);
 8000306:	6023      	str	r3, [r4, #0]
  B2 = CreateBtn(BTN_2_GPIO_Port, BTN_2_Pin, &timestamp);
 8000308:	6003      	str	r3, [r0, #0]
  B3 = CreateBtn(BTN_3_GPIO_Port, BTN_3_Pin, &timestamp);
 800030a:	600b      	str	r3, [r1, #0]
  B4 = CreateBtn(BTN_4_GPIO_Port, BTN_4_Pin, &timestamp);
 800030c:	6013      	str	r3, [r2, #0]
  B1 = CreateBtn(BTN_1_GPIO_Port, BTN_1_Pin, &timestamp);
 800030e:	4b08      	ldr	r3, [pc, #32]	; (8000330 <initbuttons+0x60>)
 8000310:	60a3      	str	r3, [r4, #8]
  B2 = CreateBtn(BTN_2_GPIO_Port, BTN_2_Pin, &timestamp);
 8000312:	6083      	str	r3, [r0, #8]
  B3 = CreateBtn(BTN_3_GPIO_Port, BTN_3_Pin, &timestamp);
 8000314:	608b      	str	r3, [r1, #8]
  B4 = CreateBtn(BTN_4_GPIO_Port, BTN_4_Pin, &timestamp);
 8000316:	6093      	str	r3, [r2, #8]
}
 8000318:	bc30      	pop	{r4, r5}
 800031a:	4770      	bx	lr
 800031c:	200000d4 	.word	0x200000d4
 8000320:	200000ec 	.word	0x200000ec
 8000324:	20000104 	.word	0x20000104
 8000328:	2000011c 	.word	0x2000011c
 800032c:	40010c00 	.word	0x40010c00
 8000330:	2000014c 	.word	0x2000014c

08000334 <ShutDownLB>:
{
 8000334:	b508      	push	{r3, lr}
  LCD_bufupload_buferase();
 8000336:	f000 fbbf 	bl	8000ab8 <LCD_bufupload_buferase>
  HAL_GPIO_WritePin(SHUTDOWN_GPIO_Port, SHUTDOWN_Pin, RESET);
 800033a:	2200      	movs	r2, #0
 800033c:	f44f 5100 	mov.w	r1, #8192	; 0x2000
 8000340:	480a      	ldr	r0, [pc, #40]	; (800036c <ShutDownLB+0x38>)
 8000342:	f005 fc07 	bl	8005b54 <HAL_GPIO_WritePin>
  LCD_printstr8x5((uint8*)"Низкий заряд батареи!", 1, 0);
 8000346:	2200      	movs	r2, #0
 8000348:	2101      	movs	r1, #1
 800034a:	4809      	ldr	r0, [pc, #36]	; (8000370 <ShutDownLB+0x3c>)
 800034c:	f000 fab2 	bl	80008b4 <LCD_printstr8x5>
  LCD_printstr8x5((uint8*)"Устройство", 3, 0);
 8000350:	2200      	movs	r2, #0
 8000352:	2103      	movs	r1, #3
 8000354:	4807      	ldr	r0, [pc, #28]	; (8000374 <ShutDownLB+0x40>)
 8000356:	f000 faad 	bl	80008b4 <LCD_printstr8x5>
  LCD_printstr8x5((uint8*)"сейчас выключится!", 5, 0);
 800035a:	2200      	movs	r2, #0
 800035c:	2105      	movs	r1, #5
 800035e:	4806      	ldr	r0, [pc, #24]	; (8000378 <ShutDownLB+0x44>)
 8000360:	f000 faa8 	bl	80008b4 <LCD_printstr8x5>
  LCD_bufupload_buferase();
 8000364:	f000 fba8 	bl	8000ab8 <LCD_bufupload_buferase>
  while(1);
 8000368:	e7fe      	b.n	8000368 <ShutDownLB+0x34>
 800036a:	bf00      	nop
 800036c:	40011000 	.word	0x40011000
 8000370:	080082fc 	.word	0x080082fc
 8000374:	08008314 	.word	0x08008314
 8000378:	08008320 	.word	0x08008320

0800037c <batcheck>:
{
 800037c:	b538      	push	{r3, r4, r5, lr}
  batlvl = getbatlvl(Ubat);
 800037e:	4b2a      	ldr	r3, [pc, #168]	; (8000428 <batcheck+0xac>)
 8000380:	781b      	ldrb	r3, [r3, #0]
  if(Ub < 157) return 100; // bat to low, immediately shotdown code - 100
 8000382:	2b9c      	cmp	r3, #156	; 0x9c
 8000384:	d91c      	bls.n	80003c0 <batcheck+0x44>
  if(val > max) val = max;
 8000386:	2bf1      	cmp	r3, #241	; 0xf1
 8000388:	461a      	mov	r2, r3
 800038a:	bf28      	it	cs
 800038c:	22f1      	movcs	r2, #241	; 0xf1
  if((Ub <= Umax) && (Ub >= Umin)) return reslvl;
 800038e:	4827      	ldr	r0, [pc, #156]	; (800042c <batcheck+0xb0>)
 8000390:	7801      	ldrb	r1, [r0, #0]
 8000392:	4291      	cmp	r1, r2
 8000394:	d303      	bcc.n	800039e <batcheck+0x22>
 8000396:	4926      	ldr	r1, [pc, #152]	; (8000430 <batcheck+0xb4>)
 8000398:	7809      	ldrb	r1, [r1, #0]
 800039a:	4291      	cmp	r1, r2
 800039c:	d915      	bls.n	80003ca <batcheck+0x4e>
  uint8 lvl = (240 - Ub) / 14;
 800039e:	4925      	ldr	r1, [pc, #148]	; (8000434 <batcheck+0xb8>)
 80003a0:	f1c3 03f0 	rsb	r3, r3, #240	; 0xf0
 80003a4:	fb81 2103 	smull	r2, r1, r1, r3
 80003a8:	17da      	asrs	r2, r3, #31
 80003aa:	440b      	add	r3, r1
 80003ac:	ebc2 03e3 	rsb	r3, r2, r3, asr #3
    switch(lvl)
 80003b0:	b2db      	uxtb	r3, r3
 80003b2:	2b05      	cmp	r3, #5
 80003b4:	d809      	bhi.n	80003ca <batcheck+0x4e>
 80003b6:	e8df f003 	tbb	[pc, r3]
 80003ba:	0f1a      	.short	0x0f1a
 80003bc:	2a26221e 	.word	0x2a26221e
  batlvl = getbatlvl(Ubat);
 80003c0:	2264      	movs	r2, #100	; 0x64
 80003c2:	4b1d      	ldr	r3, [pc, #116]	; (8000438 <batcheck+0xbc>)
 80003c4:	701a      	strb	r2, [r3, #0]
  if(batlvl == 100) ShutDownLB();
 80003c6:	f7ff ffb5 	bl	8000334 <ShutDownLB>
  return reslvl;
 80003ca:	4b1c      	ldr	r3, [pc, #112]	; (800043c <batcheck+0xc0>)
  batlvl = getbatlvl(Ubat);
 80003cc:	4a1a      	ldr	r2, [pc, #104]	; (8000438 <batcheck+0xbc>)
  return reslvl;
 80003ce:	781b      	ldrb	r3, [r3, #0]
  if(batlvl == 100) ShutDownLB();
 80003d0:	2b64      	cmp	r3, #100	; 0x64
  batlvl = getbatlvl(Ubat);
 80003d2:	7013      	strb	r3, [r2, #0]
  if(batlvl == 100) ShutDownLB();
 80003d4:	d0f7      	beq.n	80003c6 <batcheck+0x4a>
}
 80003d6:	bd38      	pop	{r3, r4, r5, pc}
      case 1: Umin = 206; Umax = 227; reslvl = 1; break;
 80003d8:	2301      	movs	r3, #1
 80003da:	24ce      	movs	r4, #206	; 0xce
 80003dc:	21e3      	movs	r1, #227	; 0xe3
      case 4: Umin = 164; Umax = 185; reslvl = 4; break;
 80003de:	4a14      	ldr	r2, [pc, #80]	; (8000430 <batcheck+0xb4>)
 80003e0:	4d16      	ldr	r5, [pc, #88]	; (800043c <batcheck+0xc0>)
 80003e2:	7014      	strb	r4, [r2, #0]
  batlvl = getbatlvl(Ubat);
 80003e4:	4a14      	ldr	r2, [pc, #80]	; (8000438 <batcheck+0xbc>)
      case 4: Umin = 164; Umax = 185; reslvl = 4; break;
 80003e6:	7001      	strb	r1, [r0, #0]
  batlvl = getbatlvl(Ubat);
 80003e8:	7013      	strb	r3, [r2, #0]
      case 4: Umin = 164; Umax = 185; reslvl = 4; break;
 80003ea:	702b      	strb	r3, [r5, #0]
}
 80003ec:	bd38      	pop	{r3, r4, r5, pc}
      case 0: Umin = 220; Umax = 241; reslvl = 0; break;
 80003ee:	2300      	movs	r3, #0
 80003f0:	24dc      	movs	r4, #220	; 0xdc
 80003f2:	21f1      	movs	r1, #241	; 0xf1
 80003f4:	e7f3      	b.n	80003de <batcheck+0x62>
      case 2: Umin = 192; Umax = 213; reslvl = 2; break;
 80003f6:	2302      	movs	r3, #2
 80003f8:	24c0      	movs	r4, #192	; 0xc0
 80003fa:	21d5      	movs	r1, #213	; 0xd5
 80003fc:	e7ef      	b.n	80003de <batcheck+0x62>
      case 3: Umin = 178; Umax = 199; reslvl = 3; break;
 80003fe:	2303      	movs	r3, #3
 8000400:	24b2      	movs	r4, #178	; 0xb2
 8000402:	21c7      	movs	r1, #199	; 0xc7
 8000404:	e7eb      	b.n	80003de <batcheck+0x62>
      case 4: Umin = 164; Umax = 185; reslvl = 4; break;
 8000406:	2304      	movs	r3, #4
 8000408:	24a4      	movs	r4, #164	; 0xa4
 800040a:	21b9      	movs	r1, #185	; 0xb9
 800040c:	e7e7      	b.n	80003de <batcheck+0x62>
      case 5: Umin = 157; Umax = 171; reslvl = 5; break;
 800040e:	f04f 0c9d 	mov.w	ip, #157	; 0x9d
 8000412:	2305      	movs	r3, #5
 8000414:	21ab      	movs	r1, #171	; 0xab
 8000416:	4a06      	ldr	r2, [pc, #24]	; (8000430 <batcheck+0xb4>)
 8000418:	4c08      	ldr	r4, [pc, #32]	; (800043c <batcheck+0xc0>)
 800041a:	f882 c000 	strb.w	ip, [r2]
  batlvl = getbatlvl(Ubat);
 800041e:	4a06      	ldr	r2, [pc, #24]	; (8000438 <batcheck+0xbc>)
      case 5: Umin = 157; Umax = 171; reslvl = 5; break;
 8000420:	7023      	strb	r3, [r4, #0]
 8000422:	7001      	strb	r1, [r0, #0]
  batlvl = getbatlvl(Ubat);
 8000424:	7013      	strb	r3, [r2, #0]
}
 8000426:	bd38      	pop	{r3, r4, r5, pc}
 8000428:	20000134 	.word	0x20000134
 800042c:	20000004 	.word	0x20000004
 8000430:	20000005 	.word	0x20000005
 8000434:	92492493 	.word	0x92492493
 8000438:	20000135 	.word	0x20000135
 800043c:	2000013b 	.word	0x2000013b

08000440 <ShutDown>:
{
 8000440:	b508      	push	{r3, lr}
  LCD_bufupload_buferase();
 8000442:	f000 fb39 	bl	8000ab8 <LCD_bufupload_buferase>
  HAL_GPIO_WritePin(SHUTDOWN_GPIO_Port, SHUTDOWN_Pin, RESET);
 8000446:	2200      	movs	r2, #0
 8000448:	f44f 5100 	mov.w	r1, #8192	; 0x2000
 800044c:	4805      	ldr	r0, [pc, #20]	; (8000464 <ShutDown+0x24>)
 800044e:	f005 fb81 	bl	8005b54 <HAL_GPIO_WritePin>
  LCD_printstr8x5((uint8*)"Выключение...", 3, 0);
 8000452:	2200      	movs	r2, #0
 8000454:	2103      	movs	r1, #3
 8000456:	4804      	ldr	r0, [pc, #16]	; (8000468 <ShutDown+0x28>)
 8000458:	f000 fa2c 	bl	80008b4 <LCD_printstr8x5>
  LCD_bufupload_buferase();
 800045c:	f000 fb2c 	bl	8000ab8 <LCD_bufupload_buferase>
  while(1);
 8000460:	e7fe      	b.n	8000460 <ShutDown+0x20>
 8000462:	bf00      	nop
 8000464:	40011000 	.word	0x40011000
 8000468:	08008334 	.word	0x08008334

0800046c <getbrightlvl>:
  brightlvl = ((brightPWM - 10) / 30) - 1;
 800046c:	4a06      	ldr	r2, [pc, #24]	; (8000488 <getbrightlvl+0x1c>)
 800046e:	4b07      	ldr	r3, [pc, #28]	; (800048c <getbrightlvl+0x20>)
 8000470:	7812      	ldrb	r2, [r2, #0]
 8000472:	4807      	ldr	r0, [pc, #28]	; (8000490 <getbrightlvl+0x24>)
 8000474:	3a0a      	subs	r2, #10
 8000476:	43d1      	mvns	r1, r2
 8000478:	fb83 c302 	smull	ip, r3, r3, r2
 800047c:	0fc9      	lsrs	r1, r1, #31
 800047e:	4413      	add	r3, r2
 8000480:	ebc1 1323 	rsb	r3, r1, r3, asr #4
 8000484:	7003      	strb	r3, [r0, #0]
}
 8000486:	4770      	bx	lr
 8000488:	20000006 	.word	0x20000006
 800048c:	88888889 	.word	0x88888889
 8000490:	20000136 	.word	0x20000136

08000494 <decbright>:
  if(brightPWM <= 40) brightPWM = 70; 
 8000494:	4a04      	ldr	r2, [pc, #16]	; (80004a8 <decbright+0x14>)
 8000496:	7813      	ldrb	r3, [r2, #0]
 8000498:	2b28      	cmp	r3, #40	; 0x28
 800049a:	bf92      	itee	ls
 800049c:	2328      	movls	r3, #40	; 0x28
  brightPWM -=30;
 800049e:	3b1e      	subhi	r3, #30
 80004a0:	b2db      	uxtbhi	r3, r3
 80004a2:	7013      	strb	r3, [r2, #0]
}
 80004a4:	4770      	bx	lr
 80004a6:	bf00      	nop
 80004a8:	20000006 	.word	0x20000006

080004ac <incbright>:
  if(brightPWM >= 250) brightPWM = 220; 
 80004ac:	4a04      	ldr	r2, [pc, #16]	; (80004c0 <incbright+0x14>)
 80004ae:	7813      	ldrb	r3, [r2, #0]
 80004b0:	2bf9      	cmp	r3, #249	; 0xf9
 80004b2:	bf8e      	itee	hi
 80004b4:	23fa      	movhi	r3, #250	; 0xfa
  brightPWM +=30;
 80004b6:	331e      	addls	r3, #30
 80004b8:	b2db      	uxtbls	r3, r3
 80004ba:	7013      	strb	r3, [r2, #0]
}
 80004bc:	4770      	bx	lr
 80004be:	bf00      	nop
 80004c0:	20000006 	.word	0x20000006

080004c4 <BrightPWMgen>:
{
 80004c4:	4603      	mov	r3, r0
	__HAL_TIM_SET_COMPARE(&htim1, TIM_CHANNEL_1, dutyCycle);
 80004c6:	4804      	ldr	r0, [pc, #16]	; (80004d8 <BrightPWMgen+0x14>)
	uint16 dutyCycle = duty_cycle * 255;
 80004c8:	ebc3 2303 	rsb	r3, r3, r3, lsl #8
	__HAL_TIM_SET_COMPARE(&htim1, TIM_CHANNEL_1, dutyCycle);
 80004cc:	6802      	ldr	r2, [r0, #0]
	HAL_TIM_PWM_Start(&htim1, TIM_CHANNEL_1);
 80004ce:	2100      	movs	r1, #0
	__HAL_TIM_SET_COMPARE(&htim1, TIM_CHANNEL_1, dutyCycle);
 80004d0:	6353      	str	r3, [r2, #52]	; 0x34
	HAL_TIM_PWM_Start(&htim1, TIM_CHANNEL_1);
 80004d2:	f006 bc07 	b.w	8006ce4 <HAL_TIM_PWM_Start>
 80004d6:	bf00      	nop
 80004d8:	2000063c 	.word	0x2000063c

080004dc <Sounds>:
}

void Sounds(uint16 delay)
{
  uint32 j;
  for(uint16 i = 0; i < (15000/delay); i++)
 80004dc:	f643 2398 	movw	r3, #15000	; 0x3a98
 80004e0:	4298      	cmp	r0, r3
{
 80004e2:	b570      	push	{r4, r5, r6, lr}
  for(uint16 i = 0; i < (15000/delay); i++)
 80004e4:	fbb3 f6f0 	udiv	r6, r3, r0
 80004e8:	d80e      	bhi.n	8000508 <Sounds+0x2c>
 80004ea:	2400      	movs	r4, #0
  {  
  	HAL_GPIO_WritePin(SOUND_OUT_GPIO_Port, SOUND_OUT_Pin, SET);
 80004ec:	4d07      	ldr	r5, [pc, #28]	; (800050c <Sounds+0x30>)
 80004ee:	2201      	movs	r2, #1
 80004f0:	2110      	movs	r1, #16
 80004f2:	4628      	mov	r0, r5
 80004f4:	f005 fb2e 	bl	8005b54 <HAL_GPIO_WritePin>
  for(uint16 i = 0; i < (15000/delay); i++)
 80004f8:	3401      	adds	r4, #1
    j = delay * 6;
    while(j--);
    HAL_GPIO_WritePin(SOUND_OUT_GPIO_Port, SOUND_OUT_Pin, RESET);
 80004fa:	2200      	movs	r2, #0
 80004fc:	2110      	movs	r1, #16
 80004fe:	4628      	mov	r0, r5
 8000500:	f005 fb28 	bl	8005b54 <HAL_GPIO_WritePin>
  for(uint16 i = 0; i < (15000/delay); i++)
 8000504:	42b4      	cmp	r4, r6
 8000506:	d3f2      	bcc.n	80004ee <Sounds+0x12>
    j = delay * 6;
    while(j--);
  }
}
 8000508:	bd70      	pop	{r4, r5, r6, pc}
 800050a:	bf00      	nop
 800050c:	40010800 	.word	0x40010800

08000510 <RTCgetdata>:

void RTCgetdata(uint8* RTCarr)
{

}
 8000510:	4770      	bx	lr
 8000512:	bf00      	nop

08000514 <RTCsenddata>:
 8000514:	4770      	bx	lr
 8000516:	bf00      	nop

08000518 <rtcrawtobcd>:
{

}

void rtcrawtobcd(void)
{
 8000518:	e92d 4ff0 	stmdb	sp!, {r4, r5, r6, r7, r8, r9, sl, fp, lr}
  rtcbcd.year = (uint8)((rtcraw.year / 10) << 4) | (rtcraw.year % 10);
 800051c:	4e28      	ldr	r6, [pc, #160]	; (80005c0 <rtcrawtobcd+0xa8>)
 800051e:	4929      	ldr	r1, [pc, #164]	; (80005c4 <rtcrawtobcd+0xac>)
 8000520:	4b29      	ldr	r3, [pc, #164]	; (80005c8 <rtcrawtobcd+0xb0>)
  rtcbcd.month = (0x80 | (uint8)((rtcraw.month / 10) << 4)) | rtcraw.month % 10;
 8000522:	7972      	ldrb	r2, [r6, #5]
  rtcbcd.year = (uint8)((rtcraw.year / 10) << 4) | (rtcraw.year % 10);
 8000524:	79b5      	ldrb	r5, [r6, #6]
  rtcbcd.day = (uint8)((rtcraw.day / 10) << 4) | (rtcraw.day % 10);
 8000526:	78f4      	ldrb	r4, [r6, #3]
  rtcbcd.weekday = rtcraw.weekday;
  rtcbcd.hour = (uint8)((rtcraw.hour / 10) << 4) | (rtcraw.hour % 10);
 8000528:	f896 e002 	ldrb.w	lr, [r6, #2]
  rtcbcd.min = (uint8)((rtcraw.min / 10) << 4) | (rtcraw.min % 10);
 800052c:	f896 c001 	ldrb.w	ip, [r6, #1]
  rtcbcd.sec = (uint8)((rtcraw.sec / 10) << 4) | (rtcraw.sec % 10);
 8000530:	7830      	ldrb	r0, [r6, #0]
  rtcbcd.weekday = rtcraw.weekday;
 8000532:	7936      	ldrb	r6, [r6, #4]
 8000534:	710e      	strb	r6, [r1, #4]
  rtcbcd.month = (0x80 | (uint8)((rtcraw.month / 10) << 4)) | rtcraw.month % 10;
 8000536:	fba3 6a02 	umull	r6, sl, r3, r2
  rtcbcd.year = (uint8)((rtcraw.year / 10) << 4) | (rtcraw.year % 10);
 800053a:	fba3 6905 	umull	r6, r9, r3, r5
  rtcbcd.month = (0x80 | (uint8)((rtcraw.month / 10) << 4)) | rtcraw.month % 10;
 800053e:	ea4f 0ada 	mov.w	sl, sl, lsr #3
  rtcbcd.day = (uint8)((rtcraw.day / 10) << 4) | (rtcraw.day % 10);
 8000542:	fba3 6804 	umull	r6, r8, r3, r4
  rtcbcd.hour = (uint8)((rtcraw.hour / 10) << 4) | (rtcraw.hour % 10);
 8000546:	fba3 670e 	umull	r6, r7, r3, lr
  rtcbcd.min = (uint8)((rtcraw.min / 10) << 4) | (rtcraw.min % 10);
 800054a:	fba3 b60c 	umull	fp, r6, r3, ip
  rtcbcd.sec = (uint8)((rtcraw.sec / 10) << 4) | (rtcraw.sec % 10);
 800054e:	fba3 b300 	umull	fp, r3, r3, r0
  rtcbcd.month = (0x80 | (uint8)((rtcraw.month / 10) << 4)) | rtcraw.month % 10;
 8000552:	eb0a 0b8a 	add.w	fp, sl, sl, lsl #2
 8000556:	eba2 024b 	sub.w	r2, r2, fp, lsl #1
 800055a:	ea42 120a 	orr.w	r2, r2, sl, lsl #4
  rtcbcd.year = (uint8)((rtcraw.year / 10) << 4) | (rtcraw.year % 10);
 800055e:	ea4f 09d9 	mov.w	r9, r9, lsr #3
  rtcbcd.month = (0x80 | (uint8)((rtcraw.month / 10) << 4)) | rtcraw.month % 10;
 8000562:	f062 027f 	orn	r2, r2, #127	; 0x7f
  rtcbcd.day = (uint8)((rtcraw.day / 10) << 4) | (rtcraw.day % 10);
 8000566:	ea4f 08d8 	mov.w	r8, r8, lsr #3
  rtcbcd.month = (0x80 | (uint8)((rtcraw.month / 10) << 4)) | rtcraw.month % 10;
 800056a:	714a      	strb	r2, [r1, #5]
  rtcbcd.year = (uint8)((rtcraw.year / 10) << 4) | (rtcraw.year % 10);
 800056c:	eb09 0289 	add.w	r2, r9, r9, lsl #2
  rtcbcd.hour = (uint8)((rtcraw.hour / 10) << 4) | (rtcraw.hour % 10);
 8000570:	08ff      	lsrs	r7, r7, #3
  rtcbcd.year = (uint8)((rtcraw.year / 10) << 4) | (rtcraw.year % 10);
 8000572:	eba5 0542 	sub.w	r5, r5, r2, lsl #1
  rtcbcd.day = (uint8)((rtcraw.day / 10) << 4) | (rtcraw.day % 10);
 8000576:	eb08 0288 	add.w	r2, r8, r8, lsl #2
  rtcbcd.min = (uint8)((rtcraw.min / 10) << 4) | (rtcraw.min % 10);
 800057a:	08f6      	lsrs	r6, r6, #3
  rtcbcd.day = (uint8)((rtcraw.day / 10) << 4) | (rtcraw.day % 10);
 800057c:	eba4 0442 	sub.w	r4, r4, r2, lsl #1
  rtcbcd.hour = (uint8)((rtcraw.hour / 10) << 4) | (rtcraw.hour % 10);
 8000580:	eb07 0287 	add.w	r2, r7, r7, lsl #2
  rtcbcd.sec = (uint8)((rtcraw.sec / 10) << 4) | (rtcraw.sec % 10);
 8000584:	08db      	lsrs	r3, r3, #3
  rtcbcd.hour = (uint8)((rtcraw.hour / 10) << 4) | (rtcraw.hour % 10);
 8000586:	ebae 0e42 	sub.w	lr, lr, r2, lsl #1
  rtcbcd.min = (uint8)((rtcraw.min / 10) << 4) | (rtcraw.min % 10);
 800058a:	eb06 0286 	add.w	r2, r6, r6, lsl #2
 800058e:	ebac 0c42 	sub.w	ip, ip, r2, lsl #1
  rtcbcd.sec = (uint8)((rtcraw.sec / 10) << 4) | (rtcraw.sec % 10);
 8000592:	eb03 0283 	add.w	r2, r3, r3, lsl #2
 8000596:	eba0 0042 	sub.w	r0, r0, r2, lsl #1
  rtcbcd.year = (uint8)((rtcraw.year / 10) << 4) | (rtcraw.year % 10);
 800059a:	ea45 1909 	orr.w	r9, r5, r9, lsl #4
  rtcbcd.day = (uint8)((rtcraw.day / 10) << 4) | (rtcraw.day % 10);
 800059e:	ea44 1808 	orr.w	r8, r4, r8, lsl #4
  rtcbcd.hour = (uint8)((rtcraw.hour / 10) << 4) | (rtcraw.hour % 10);
 80005a2:	ea4e 1707 	orr.w	r7, lr, r7, lsl #4
  rtcbcd.min = (uint8)((rtcraw.min / 10) << 4) | (rtcraw.min % 10);
 80005a6:	ea4c 1606 	orr.w	r6, ip, r6, lsl #4
  rtcbcd.sec = (uint8)((rtcraw.sec / 10) << 4) | (rtcraw.sec % 10);
 80005aa:	ea40 1303 	orr.w	r3, r0, r3, lsl #4
  rtcbcd.year = (uint8)((rtcraw.year / 10) << 4) | (rtcraw.year % 10);
 80005ae:	f881 9006 	strb.w	r9, [r1, #6]
  rtcbcd.day = (uint8)((rtcraw.day / 10) << 4) | (rtcraw.day % 10);
 80005b2:	f881 8003 	strb.w	r8, [r1, #3]
  rtcbcd.hour = (uint8)((rtcraw.hour / 10) << 4) | (rtcraw.hour % 10);
 80005b6:	708f      	strb	r7, [r1, #2]
  rtcbcd.min = (uint8)((rtcraw.min / 10) << 4) | (rtcraw.min % 10);
 80005b8:	704e      	strb	r6, [r1, #1]
  rtcbcd.sec = (uint8)((rtcraw.sec / 10) << 4) | (rtcraw.sec % 10);
 80005ba:	700b      	strb	r3, [r1, #0]
}
 80005bc:	e8bd 8ff0 	ldmia.w	sp!, {r4, r5, r6, r7, r8, r9, sl, fp, pc}
 80005c0:	20000144 	.word	0x20000144
 80005c4:	2000013c 	.word	0x2000013c
 80005c8:	cccccccd 	.word	0xcccccccd

080005cc <rtcbcdtoraw>:

void rtcbcdtoraw(void)
{
  rtcraw.year = (rtcbcd.year >> 4) * 10 + (rtcbcd.year & 0x0F);
 80005cc:	4b25      	ldr	r3, [pc, #148]	; (8000664 <rtcbcdtoraw+0x98>)
{
 80005ce:	b510      	push	{r4, lr}
  rtcraw.year = (rtcbcd.year >> 4) * 10 + (rtcbcd.year & 0x0F);
 80005d0:	799a      	ldrb	r2, [r3, #6]
 80005d2:	4c25      	ldr	r4, [pc, #148]	; (8000668 <rtcbcdtoraw+0x9c>)
 80005d4:	0911      	lsrs	r1, r2, #4
 80005d6:	eb01 0181 	add.w	r1, r1, r1, lsl #2
 80005da:	f002 020f 	and.w	r2, r2, #15
 80005de:	eb02 0141 	add.w	r1, r2, r1, lsl #1
  rtcraw.month = ((rtcbcd.month & 0x1F) >> 4) * 10 + (rtcbcd.month & 0x0F);
 80005e2:	795a      	ldrb	r2, [r3, #5]
  rtcraw.day = ((rtcbcd.day & 0x3F) >> 4) * 10 + (rtcbcd.day & 0x0F);
  rtcraw.weekday = rtcbcd.weekday & 0x07;
  rtcraw.hour = ((rtcbcd.hour & 0x3F) >> 4) * 10 + (rtcbcd.hour & 0x0F);
  rtcraw.min = ((rtcbcd.min & 0x7F) >> 4) * 10 + (rtcbcd.min & 0x0F);
 80005e4:	7858      	ldrb	r0, [r3, #1]
  rtcraw.month = ((rtcbcd.month & 0x1F) >> 4) * 10 + (rtcbcd.month & 0x0F);
 80005e6:	f3c2 1e00 	ubfx	lr, r2, #4, #1
 80005ea:	eb0e 0e8e 	add.w	lr, lr, lr, lsl #2
 80005ee:	f002 020f 	and.w	r2, r2, #15
  rtcraw.sec = ((rtcbcd.sec & 0x7F) >> 4) * 10 + (rtcbcd.sec & 0x0F);
 80005f2:	f893 c000 	ldrb.w	ip, [r3]
  rtcraw.month = ((rtcbcd.month & 0x1F) >> 4) * 10 + (rtcbcd.month & 0x0F);
 80005f6:	eb02 0e4e 	add.w	lr, r2, lr, lsl #1
  rtcraw.year = (rtcbcd.year >> 4) * 10 + (rtcbcd.year & 0x0F);
 80005fa:	71a1      	strb	r1, [r4, #6]
  rtcraw.day = ((rtcbcd.day & 0x3F) >> 4) * 10 + (rtcbcd.day & 0x0F);
 80005fc:	78da      	ldrb	r2, [r3, #3]
  rtcraw.hour = ((rtcbcd.hour & 0x3F) >> 4) * 10 + (rtcbcd.hour & 0x0F);
 80005fe:	7899      	ldrb	r1, [r3, #2]
  rtcraw.weekday = rtcbcd.weekday & 0x07;
 8000600:	791b      	ldrb	r3, [r3, #4]
  rtcraw.month = ((rtcbcd.month & 0x1F) >> 4) * 10 + (rtcbcd.month & 0x0F);
 8000602:	f884 e005 	strb.w	lr, [r4, #5]
  rtcraw.weekday = rtcbcd.weekday & 0x07;
 8000606:	f003 0307 	and.w	r3, r3, #7
 800060a:	7123      	strb	r3, [r4, #4]
  rtcraw.sec = ((rtcbcd.sec & 0x7F) >> 4) * 10 + (rtcbcd.sec & 0x0F);
 800060c:	2300      	movs	r3, #0
 800060e:	f3cc 1e02 	ubfx	lr, ip, #4, #3
 8000612:	eb0e 0e8e 	add.w	lr, lr, lr, lsl #2
 8000616:	f00c 0c0f 	and.w	ip, ip, #15
 800061a:	eb0c 0c4e 	add.w	ip, ip, lr, lsl #1
 800061e:	f36c 0307 	bfi	r3, ip, #0, #8
  rtcraw.min = ((rtcbcd.min & 0x7F) >> 4) * 10 + (rtcbcd.min & 0x0F);
 8000622:	f3c0 1c02 	ubfx	ip, r0, #4, #3
 8000626:	eb0c 0c8c 	add.w	ip, ip, ip, lsl #2
 800062a:	f000 000f 	and.w	r0, r0, #15
 800062e:	eb00 004c 	add.w	r0, r0, ip, lsl #1
  rtcraw.sec = ((rtcbcd.sec & 0x7F) >> 4) * 10 + (rtcbcd.sec & 0x0F);
 8000632:	f360 230f 	bfi	r3, r0, #8, #8
  rtcraw.hour = ((rtcbcd.hour & 0x3F) >> 4) * 10 + (rtcbcd.hour & 0x0F);
 8000636:	f3c1 1001 	ubfx	r0, r1, #4, #2
 800063a:	eb00 0080 	add.w	r0, r0, r0, lsl #2
 800063e:	f001 010f 	and.w	r1, r1, #15
 8000642:	eb01 0140 	add.w	r1, r1, r0, lsl #1
  rtcraw.day = ((rtcbcd.day & 0x3F) >> 4) * 10 + (rtcbcd.day & 0x0F);
 8000646:	f3c2 1001 	ubfx	r0, r2, #4, #2
 800064a:	eb00 0080 	add.w	r0, r0, r0, lsl #2
 800064e:	f002 020f 	and.w	r2, r2, #15
 8000652:	eb02 0240 	add.w	r2, r2, r0, lsl #1
  rtcraw.sec = ((rtcbcd.sec & 0x7F) >> 4) * 10 + (rtcbcd.sec & 0x0F);
 8000656:	f361 4317 	bfi	r3, r1, #16, #8
 800065a:	f362 631f 	bfi	r3, r2, #24, #8
 800065e:	6023      	str	r3, [r4, #0]
}
 8000660:	bd10      	pop	{r4, pc}
 8000662:	bf00      	nop
 8000664:	2000013c 	.word	0x2000013c
 8000668:	20000144 	.word	0x20000144

0800066c <TestBtn>:
  TestBtn(&B4);
  checkjoydir();
}

void TestBtn(tButton* btn)
{
 800066c:	b510      	push	{r4, lr}
  if (!HAL_GPIO_ReadPin(btn->Port, btn->Pin) && !btn->BtnFl && ((*(btn->timecounter) - btn->btnTimer) > 30)) {
 800066e:	8881      	ldrh	r1, [r0, #4]
{
 8000670:	4604      	mov	r4, r0
  if (!HAL_GPIO_ReadPin(btn->Port, btn->Pin) && !btn->BtnFl && ((*(btn->timecounter) - btn->btnTimer) > 30)) {
 8000672:	6800      	ldr	r0, [r0, #0]
 8000674:	f005 fa68 	bl	8005b48 <HAL_GPIO_ReadPin>
 8000678:	b910      	cbnz	r0, 8000680 <TestBtn+0x14>
 800067a:	7c23      	ldrb	r3, [r4, #16]
 800067c:	2b00      	cmp	r3, #0
 800067e:	d03e      	beq.n	80006fe <TestBtn+0x92>
    else btn->Toggle = 1;
    btn->BtnFl = 1;
    btn->btnTimer = *(btn->timecounter); 
    btn->BtnON = 1;
  }
  if (HAL_GPIO_ReadPin(btn->Port, btn->Pin) && ((*(btn->timecounter) - btn->btnTimer) > 30)) {
 8000680:	88a1      	ldrh	r1, [r4, #4]
 8000682:	6820      	ldr	r0, [r4, #0]
 8000684:	f005 fa60 	bl	8005b48 <HAL_GPIO_ReadPin>
 8000688:	b128      	cbz	r0, 8000696 <TestBtn+0x2a>
 800068a:	e9d4 2302 	ldrd	r2, r3, [r4, #8]
 800068e:	6812      	ldr	r2, [r2, #0]
 8000690:	1ad3      	subs	r3, r2, r3
 8000692:	2b1e      	cmp	r3, #30
 8000694:	d82d      	bhi.n	80006f2 <TestBtn+0x86>
    btn->BtnFl = 0;
    btn->HoldON = 0;
    btn->StuckON = 0;
    btn->btnTimer = *(btn->timecounter);
  }
  if (!HAL_GPIO_ReadPin(btn->Port, btn->Pin) && btn->BtnFl && ((*(btn->timecounter) - btn->btnTimer) > BTN_HOLD_ON_DELAY) && ((*(btn->timecounter) - btn->btnTimer) <= BTN_STUCK_ON_DELAY)) {
 8000696:	88a1      	ldrh	r1, [r4, #4]
 8000698:	6820      	ldr	r0, [r4, #0]
 800069a:	f005 fa55 	bl	8005b48 <HAL_GPIO_ReadPin>
 800069e:	b908      	cbnz	r0, 80006a4 <TestBtn+0x38>
 80006a0:	7c23      	ldrb	r3, [r4, #16]
 80006a2:	b9ab      	cbnz	r3, 80006d0 <TestBtn+0x64>
    btn->HoldON = 1;
    if(btn->Toggle) btn->Toggle = 0; 
    else btn->Toggle = 1;
  }
  if (!HAL_GPIO_ReadPin(btn->Port, btn->Pin) && btn->BtnFl && ((*(btn->timecounter) - btn->btnTimer) > BTN_STUCK_ON_DELAY)) {
 80006a4:	88a1      	ldrh	r1, [r4, #4]
 80006a6:	6820      	ldr	r0, [r4, #0]
 80006a8:	f005 fa4e 	bl	8005b48 <HAL_GPIO_ReadPin>
 80006ac:	b978      	cbnz	r0, 80006ce <TestBtn+0x62>
 80006ae:	7c23      	ldrb	r3, [r4, #16]
 80006b0:	b16b      	cbz	r3, 80006ce <TestBtn+0x62>
 80006b2:	e9d4 3202 	ldrd	r3, r2, [r4, #8]
 80006b6:	681b      	ldr	r3, [r3, #0]
 80006b8:	1a9b      	subs	r3, r3, r2
 80006ba:	f5b3 6ffa 	cmp.w	r3, #2000	; 0x7d0
 80006be:	d906      	bls.n	80006ce <TestBtn+0x62>
    btn->HoldON = 0;
 80006c0:	f44f 7280 	mov.w	r2, #256	; 0x100
    btn->StuckON = 1;
    if(btn->Toggle) btn->Toggle = 0; 
 80006c4:	7ca3      	ldrb	r3, [r4, #18]
    btn->HoldON = 0;
 80006c6:	f8a4 2013 	strh.w	r2, [r4, #19]
    if(btn->Toggle) btn->Toggle = 0; 
 80006ca:	b343      	cbz	r3, 800071e <TestBtn+0xb2>
 80006cc:	74a0      	strb	r0, [r4, #18]
    else btn->Toggle = 1;
  }
}
 80006ce:	bd10      	pop	{r4, pc}
  if (!HAL_GPIO_ReadPin(btn->Port, btn->Pin) && btn->BtnFl && ((*(btn->timecounter) - btn->btnTimer) > BTN_HOLD_ON_DELAY) && ((*(btn->timecounter) - btn->btnTimer) <= BTN_STUCK_ON_DELAY)) {
 80006d0:	f240 7284 	movw	r2, #1924	; 0x784
 80006d4:	e9d4 3102 	ldrd	r3, r1, [r4, #8]
 80006d8:	681b      	ldr	r3, [r3, #0]
 80006da:	1a5b      	subs	r3, r3, r1
 80006dc:	3b4c      	subs	r3, #76	; 0x4c
 80006de:	4293      	cmp	r3, r2
 80006e0:	d8e0      	bhi.n	80006a4 <TestBtn+0x38>
    btn->HoldON = 1;
 80006e2:	2301      	movs	r3, #1
    if(btn->Toggle) btn->Toggle = 0; 
 80006e4:	7ca2      	ldrb	r2, [r4, #18]
    btn->HoldON = 1;
 80006e6:	74e3      	strb	r3, [r4, #19]
    if(btn->Toggle) btn->Toggle = 0; 
 80006e8:	2a00      	cmp	r2, #0
 80006ea:	bf08      	it	eq
 80006ec:	4618      	moveq	r0, r3
 80006ee:	74a0      	strb	r0, [r4, #18]
 80006f0:	e7d8      	b.n	80006a4 <TestBtn+0x38>
    btn->BtnFl = 0;
 80006f2:	2300      	movs	r3, #0
    btn->btnTimer = *(btn->timecounter);
 80006f4:	60e2      	str	r2, [r4, #12]
    btn->BtnFl = 0;
 80006f6:	7423      	strb	r3, [r4, #16]
    btn->HoldON = 0;
 80006f8:	f8a4 3013 	strh.w	r3, [r4, #19]
    btn->btnTimer = *(btn->timecounter);
 80006fc:	e7cb      	b.n	8000696 <TestBtn+0x2a>
  if (!HAL_GPIO_ReadPin(btn->Port, btn->Pin) && !btn->BtnFl && ((*(btn->timecounter) - btn->btnTimer) > 30)) {
 80006fe:	e9d4 2302 	ldrd	r2, r3, [r4, #8]
 8000702:	6812      	ldr	r2, [r2, #0]
 8000704:	1ad3      	subs	r3, r2, r3
 8000706:	2b1e      	cmp	r3, #30
 8000708:	d9ba      	bls.n	8000680 <TestBtn+0x14>
    if(btn->Toggle) btn->Toggle = 0; 
 800070a:	7ca3      	ldrb	r3, [r4, #18]
    btn->BtnFl = 1;
 800070c:	f240 1101 	movw	r1, #257	; 0x101
    if(btn->Toggle) btn->Toggle = 0; 
 8000710:	fab3 f383 	clz	r3, r3
 8000714:	095b      	lsrs	r3, r3, #5
    btn->btnTimer = *(btn->timecounter); 
 8000716:	60e2      	str	r2, [r4, #12]
    btn->BtnFl = 1;
 8000718:	8221      	strh	r1, [r4, #16]
    if(btn->Toggle) btn->Toggle = 0; 
 800071a:	74a3      	strb	r3, [r4, #18]
    btn->BtnON = 1;
 800071c:	e7b0      	b.n	8000680 <TestBtn+0x14>
    else btn->Toggle = 1;
 800071e:	2301      	movs	r3, #1
 8000720:	74a3      	strb	r3, [r4, #18]
}
 8000722:	bd10      	pop	{r4, pc}

08000724 <checkjoydir>:

void checkjoydir(void)
{
    if(joystick.oy > 150 && joystick.joyFl == 0) {
 8000724:	4b1f      	ldr	r3, [pc, #124]	; (80007a4 <checkjoydir+0x80>)
 8000726:	7899      	ldrb	r1, [r3, #2]
 8000728:	2996      	cmp	r1, #150	; 0x96
 800072a:	d915      	bls.n	8000758 <checkjoydir+0x34>
 800072c:	781a      	ldrb	r2, [r3, #0]
 800072e:	06d0      	lsls	r0, r2, #27
 8000730:	d417      	bmi.n	8000762 <checkjoydir+0x3e>
        joystick.up = 1; 
 8000732:	f022 0211 	bic.w	r2, r2, #17
 8000736:	f042 0211 	orr.w	r2, r2, #17
 800073a:	701a      	strb	r2, [r3, #0]
    }
    if(joystick.oy < 100 && joystick.joyFl == 0) {
        joystick.down = 1; 
        joystick.joyFl = 1;
    }
    if(joystick.ox > 150 && joystick.joyFl == 0) {
 800073c:	785a      	ldrb	r2, [r3, #1]
 800073e:	2a96      	cmp	r2, #150	; 0x96
 8000740:	d81b      	bhi.n	800077a <checkjoydir+0x56>
        joystick.right = 1; 
        joystick.joyFl = 1;
    }
    if(joystick.ox < 100 && joystick.joyFl == 0) {
 8000742:	2a63      	cmp	r2, #99	; 0x63
 8000744:	d822      	bhi.n	800078c <checkjoydir+0x68>
 8000746:	781a      	ldrb	r2, [r3, #0]
 8000748:	06d1      	lsls	r1, r2, #27
 800074a:	d40d      	bmi.n	8000768 <checkjoydir+0x44>
        joystick.left = 1; 
 800074c:	f022 0214 	bic.w	r2, r2, #20
 8000750:	f042 0214 	orr.w	r2, r2, #20
 8000754:	701a      	strb	r2, [r3, #0]
 8000756:	4770      	bx	lr
    if(joystick.oy < 100 && joystick.joyFl == 0) {
 8000758:	2963      	cmp	r1, #99	; 0x63
 800075a:	d80b      	bhi.n	8000774 <checkjoydir+0x50>
 800075c:	781a      	ldrb	r2, [r3, #0]
 800075e:	06d0      	lsls	r0, r2, #27
 8000760:	d503      	bpl.n	800076a <checkjoydir+0x46>
    if(joystick.ox > 150 && joystick.joyFl == 0) {
 8000762:	785a      	ldrb	r2, [r3, #1]
 8000764:	2a96      	cmp	r2, #150	; 0x96
 8000766:	d9ec      	bls.n	8000742 <checkjoydir+0x1e>
        joystick.joyFl = 1;
    }
    if(joystick.oy < 150 && joystick.oy > 100 && joystick.ox < 150 && joystick.ox > 100) joystick.joyFl = 0;
}
 8000768:	4770      	bx	lr
        joystick.down = 1; 
 800076a:	f022 0212 	bic.w	r2, r2, #18
 800076e:	f042 0212 	orr.w	r2, r2, #18
 8000772:	701a      	strb	r2, [r3, #0]
    if(joystick.ox > 150 && joystick.joyFl == 0) {
 8000774:	785a      	ldrb	r2, [r3, #1]
 8000776:	2a96      	cmp	r2, #150	; 0x96
 8000778:	d9e3      	bls.n	8000742 <checkjoydir+0x1e>
 800077a:	781a      	ldrb	r2, [r3, #0]
 800077c:	06d0      	lsls	r0, r2, #27
 800077e:	d4f3      	bmi.n	8000768 <checkjoydir+0x44>
        joystick.right = 1; 
 8000780:	f022 0218 	bic.w	r2, r2, #24
 8000784:	f042 0218 	orr.w	r2, r2, #24
 8000788:	701a      	strb	r2, [r3, #0]
 800078a:	4770      	bx	lr
    if(joystick.oy < 150 && joystick.oy > 100 && joystick.ox < 150 && joystick.ox > 100) joystick.joyFl = 0;
 800078c:	3965      	subs	r1, #101	; 0x65
 800078e:	2930      	cmp	r1, #48	; 0x30
 8000790:	d8ea      	bhi.n	8000768 <checkjoydir+0x44>
 8000792:	3a65      	subs	r2, #101	; 0x65
 8000794:	2a30      	cmp	r2, #48	; 0x30
 8000796:	d8e7      	bhi.n	8000768 <checkjoydir+0x44>
 8000798:	781a      	ldrb	r2, [r3, #0]
 800079a:	f36f 1204 	bfc	r2, #4, #1
 800079e:	701a      	strb	r2, [r3, #0]
}
 80007a0:	4770      	bx	lr
 80007a2:	bf00      	nop
 80007a4:	20000138 	.word	0x20000138

080007a8 <check_btn_jstk>:
{
 80007a8:	b508      	push	{r3, lr}
  TestBtn(&B1);
 80007aa:	4808      	ldr	r0, [pc, #32]	; (80007cc <check_btn_jstk+0x24>)
 80007ac:	f7ff ff5e 	bl	800066c <TestBtn>
  TestBtn(&B2);
 80007b0:	4807      	ldr	r0, [pc, #28]	; (80007d0 <check_btn_jstk+0x28>)
 80007b2:	f7ff ff5b 	bl	800066c <TestBtn>
  TestBtn(&B3);
 80007b6:	4807      	ldr	r0, [pc, #28]	; (80007d4 <check_btn_jstk+0x2c>)
 80007b8:	f7ff ff58 	bl	800066c <TestBtn>
  TestBtn(&B4);
 80007bc:	4806      	ldr	r0, [pc, #24]	; (80007d8 <check_btn_jstk+0x30>)
 80007be:	f7ff ff55 	bl	800066c <TestBtn>
}
 80007c2:	e8bd 4008 	ldmia.w	sp!, {r3, lr}
  checkjoydir();
 80007c6:	f7ff bfad 	b.w	8000724 <checkjoydir>
 80007ca:	bf00      	nop
 80007cc:	200000d4 	.word	0x200000d4
 80007d0:	200000ec 	.word	0x200000ec
 80007d4:	20000104 	.word	0x20000104
 80007d8:	2000011c 	.word	0x2000011c

080007dc <LCD_init>:

/*----------------------------------------------------------------------------*/

/*------------------------LCD FUNCTIONS---------------------------------------*/
void LCD_init(void)
{
 80007dc:	e92d 41f0 	stmdb	sp!, {r4, r5, r6, r7, r8, lr}
	DISP_RESET_OFF;
 80007e0:	2201      	movs	r2, #1
{
 80007e2:	b086      	sub	sp, #24
	DISP_RESET_OFF;
 80007e4:	2104      	movs	r1, #4
 80007e6:	482f      	ldr	r0, [pc, #188]	; (80008a4 <LCD_init+0xc8>)
 80007e8:	f005 f9b4 	bl	8005b54 <HAL_GPIO_WritePin>
	DISP_INIT_SEND_DAT;
 80007ec:	2201      	movs	r2, #1
 80007ee:	2102      	movs	r1, #2
 80007f0:	482c      	ldr	r0, [pc, #176]	; (80008a4 <LCD_init+0xc8>)
 80007f2:	f005 f9af 	bl	8005b54 <HAL_GPIO_WritePin>
	HAL_Delay(2);
 80007f6:	2002      	movs	r0, #2
 80007f8:	f004 fc9c 	bl	8005134 <HAL_Delay>
	DISP_RESET_ON;
 80007fc:	2200      	movs	r2, #0
 80007fe:	2104      	movs	r1, #4
 8000800:	4828      	ldr	r0, [pc, #160]	; (80008a4 <LCD_init+0xc8>)
 8000802:	f005 f9a7 	bl	8005b54 <HAL_GPIO_WritePin>
	HAL_Delay(2);
 8000806:	2002      	movs	r0, #2
 8000808:	f004 fc94 	bl	8005134 <HAL_Delay>
	DISP_RESET_OFF;
 800080c:	2201      	movs	r2, #1
 800080e:	2104      	movs	r1, #4
 8000810:	4824      	ldr	r0, [pc, #144]	; (80008a4 <LCD_init+0xc8>)
 8000812:	f005 f99f 	bl	8005b54 <HAL_GPIO_WritePin>
	DISP_INIT_SEND_COM;
 8000816:	2200      	movs	r2, #0
 8000818:	2102      	movs	r1, #2
 800081a:	4822      	ldr	r0, [pc, #136]	; (80008a4 <LCD_init+0xc8>)
 800081c:	f005 f99a 	bl	8005b54 <HAL_GPIO_WritePin>
	uint8_t init_data_array[13] = {
 8000820:	4b21      	ldr	r3, [pc, #132]	; (80008a8 <LCD_init+0xcc>)
 8000822:	ac02      	add	r4, sp, #8
 8000824:	cb0f      	ldmia	r3, {r0, r1, r2, r3}
 8000826:	c407      	stmia	r4!, {r0, r1, r2}
	(0x10 | 0),       // Column Address Set - first byte (0-15)
	(0x00 | 0),       // Column Address Set - second byte (0-15)
	(0xAE | 1),       // Display on(1) / Display off (0)
	(0xA6 | 0),       // Display Normal(0) / Display Reverse(1)
	};
	HAL_SPI_Transmit(&hspi2, init_data_array, 13, 20);
 8000828:	220d      	movs	r2, #13
	uint8_t init_data_array[13] = {
 800082a:	7023      	strb	r3, [r4, #0]
	HAL_SPI_Transmit(&hspi2, init_data_array, 13, 20);
 800082c:	481f      	ldr	r0, [pc, #124]	; (80008ac <LCD_init+0xd0>)
 800082e:	2314      	movs	r3, #20
 8000830:	a902      	add	r1, sp, #8
 8000832:	f006 f84b 	bl	80068cc <HAL_SPI_Transmit>
 8000836:	24b0      	movs	r4, #176	; 0xb0
 8000838:	4e1d      	ldr	r6, [pc, #116]	; (80008b0 <LCD_init+0xd4>)
	DISP_INIT_SEND_DAT;
}

void lcd_sendcommands(uint8_t* data, uint8_t N)
{
  DISP_INIT_SEND_COM;
 800083a:	f8df 8068 	ldr.w	r8, [pc, #104]	; 80008a4 <LCD_init+0xc8>
  HAL_SPI_Transmit(&hspi2, data, N, 10);
 800083e:	4f1b      	ldr	r7, [pc, #108]	; (80008ac <LCD_init+0xd0>)

/*------------------------WORKING THROUGH THE BUFFER--------------------------*/
void LCDbuf_upload(void) {
	for(uint8_t j = 0; j < 8; j++)
	  {
		uint8_t tmp_arr[] = {(0xB0 + j), 0x10, 0x00};
 8000840:	2500      	movs	r5, #0
 8000842:	2310      	movs	r3, #16
  DISP_INIT_SEND_COM;
 8000844:	2102      	movs	r1, #2
 8000846:	4640      	mov	r0, r8
 8000848:	462a      	mov	r2, r5
		uint8_t tmp_arr[] = {(0xB0 + j), 0x10, 0x00};
 800084a:	f88d 4004 	strb.w	r4, [sp, #4]
 800084e:	f88d 3005 	strb.w	r3, [sp, #5]
 8000852:	f88d 5006 	strb.w	r5, [sp, #6]
  DISP_INIT_SEND_COM;
 8000856:	f005 f97d 	bl	8005b54 <HAL_GPIO_WritePin>
  HAL_SPI_Transmit(&hspi2, data, N, 10);
 800085a:	230a      	movs	r3, #10
 800085c:	2203      	movs	r2, #3
 800085e:	a901      	add	r1, sp, #4
 8000860:	4638      	mov	r0, r7
 8000862:	f006 f833 	bl	80068cc <HAL_SPI_Transmit>
	for(uint8_t j = 0; j < 8; j++)
 8000866:	3401      	adds	r4, #1
  DISP_INIT_SEND_DAT;
 8000868:	2201      	movs	r2, #1
 800086a:	2102      	movs	r1, #2
 800086c:	4640      	mov	r0, r8
 800086e:	f005 f971 	bl	8005b54 <HAL_GPIO_WritePin>
	for(uint8_t j = 0; j < 8; j++)
 8000872:	b2e4      	uxtb	r4, r4
	    lcd_sendcommands(tmp_arr, 3);
	    HAL_SPI_Transmit(&hspi2, dispbuffer[j], 128, 10);
 8000874:	4631      	mov	r1, r6
 8000876:	230a      	movs	r3, #10
 8000878:	2280      	movs	r2, #128	; 0x80
 800087a:	4638      	mov	r0, r7
 800087c:	f006 f826 	bl	80068cc <HAL_SPI_Transmit>
	for(uint8_t j = 0; j < 8; j++)
 8000880:	2cb8      	cmp	r4, #184	; 0xb8
 8000882:	f106 0680 	add.w	r6, r6, #128	; 0x80
 8000886:	d1db      	bne.n	8000840 <LCD_init+0x64>
	  }
}

void LCDbuf_erase(void) {
  for (uint8 j = 0; j < 8; j++)
    for (uint8 i = 0; i < 128; i++) dispbuffer[j][i] = 0;
 8000888:	4629      	mov	r1, r5
 800088a:	f44f 6280 	mov.w	r2, #1024	; 0x400
 800088e:	4808      	ldr	r0, [pc, #32]	; (80008b0 <LCD_init+0xd4>)
 8000890:	f006 fcac 	bl	80071ec <memset>
	DISP_INIT_SEND_DAT;
 8000894:	2201      	movs	r2, #1
 8000896:	2102      	movs	r1, #2
 8000898:	4802      	ldr	r0, [pc, #8]	; (80008a4 <LCD_init+0xc8>)
 800089a:	f005 f95b 	bl	8005b54 <HAL_GPIO_WritePin>
}
 800089e:	b006      	add	sp, #24
 80008a0:	e8bd 81f0 	ldmia.w	sp!, {r4, r5, r6, r7, r8, pc}
 80008a4:	40010800 	.word	0x40010800
 80008a8:	080082ec 	.word	0x080082ec
 80008ac:	200005e4 	.word	0x200005e4
 80008b0:	20000154 	.word	0x20000154

080008b4 <LCD_printstr8x5>:
uint8 LCD_printstr8x5(const uint8 *str, uint8 pg, uint8 cl) {
 80008b4:	e92d 4ff0 	stmdb	sp!, {r4, r5, r6, r7, r8, r9, sl, fp, lr}
 80008b8:	460c      	mov	r4, r1
 80008ba:	4605      	mov	r5, r0
  uint8 str_null[] = "NULL";
 80008bc:	4b72      	ldr	r3, [pc, #456]	; (8000a88 <LCD_printstr8x5+0x1d4>)
uint8 LCD_printstr8x5(const uint8 *str, uint8 pg, uint8 cl) {
 80008be:	b083      	sub	sp, #12
  uint8 str_null[] = "NULL";
 80008c0:	e893 0003 	ldmia.w	r3, {r0, r1}
 80008c4:	f88d 1004 	strb.w	r1, [sp, #4]
 80008c8:	9000      	str	r0, [sp, #0]
uint8 LCD_printstr8x5(const uint8 *str, uint8 pg, uint8 cl) {
 80008ca:	4621      	mov	r1, r4
  if (str == NULL) str = str_null;
 80008cc:	2d00      	cmp	r5, #0
 80008ce:	f000 80d2 	beq.w	8000a76 <LCD_printstr8x5+0x1c2>
  while (str[i]) {
 80008d2:	782b      	ldrb	r3, [r5, #0]
 80008d4:	2b00      	cmp	r3, #0
 80008d6:	f000 80ca 	beq.w	8000a6e <LCD_printstr8x5+0x1ba>
  uint8 i = 0;
 80008da:	2000      	movs	r0, #0
  bufpg = pg;
 80008dc:	f8df 81ac 	ldr.w	r8, [pc, #428]	; 8000a8c <LCD_printstr8x5+0x1d8>
  bufcl = cl;
 80008e0:	4f6b      	ldr	r7, [pc, #428]	; (8000a90 <LCD_printstr8x5+0x1dc>)
  LCD_senddata(char_8x5[ch], 5);
 80008e2:	4e6c      	ldr	r6, [pc, #432]	; (8000a94 <LCD_printstr8x5+0x1e0>)
    dispbuffer[bufpg][bufcl + i] |= byte[i];
 80008e4:	4c6c      	ldr	r4, [pc, #432]	; (8000a98 <LCD_printstr8x5+0x1e4>)
 80008e6:	e045      	b.n	8000974 <LCD_printstr8x5+0xc0>
      pg++;
 80008e8:	3101      	adds	r1, #1
 80008ea:	b2c9      	uxtb	r1, r1
  LCD_senddata(char_8x5[ch], 5);
 80008ec:	eb03 0383 	add.w	r3, r3, r3, lsl #2
    dispbuffer[bufpg][bufcl + i] |= byte[i];
 80008f0:	ea4f 1ec1 	mov.w	lr, r1, lsl #7
 80008f4:	f814 900e 	ldrb.w	r9, [r4, lr]
 80008f8:	5cf2      	ldrb	r2, [r6, r3]
 80008fa:	468c      	mov	ip, r1
 80008fc:	ea42 0209 	orr.w	r2, r2, r9
 8000900:	f804 200e 	strb.w	r2, [r4, lr]
 8000904:	f04f 0900 	mov.w	r9, #0
 8000908:	2206      	movs	r2, #6
  LCD_senddata(char_8x5[ch], 5);
 800090a:	4433      	add	r3, r6
    if (bufpg > 7) return;
 800090c:	2907      	cmp	r1, #7
 800090e:	f200 80b5 	bhi.w	8000a7c <LCD_printstr8x5+0x1c8>
    dispbuffer[bufpg][bufcl + i] |= byte[i];
 8000912:	eb04 1ccc 	add.w	ip, r4, ip, lsl #7
 8000916:	f109 0a01 	add.w	sl, r9, #1
 800091a:	f81c e00a 	ldrb.w	lr, [ip, sl]
 800091e:	f893 b001 	ldrb.w	fp, [r3, #1]
  bufpg = pg;
 8000922:	f888 1000 	strb.w	r1, [r8]
    dispbuffer[bufpg][bufcl + i] |= byte[i];
 8000926:	ea4e 0e0b 	orr.w	lr, lr, fp
 800092a:	f80c e00a 	strb.w	lr, [ip, sl]
 800092e:	f109 0a02 	add.w	sl, r9, #2
 8000932:	f81c e00a 	ldrb.w	lr, [ip, sl]
 8000936:	f893 b002 	ldrb.w	fp, [r3, #2]
  bufcl++;
 800093a:	703a      	strb	r2, [r7, #0]
    dispbuffer[bufpg][bufcl + i] |= byte[i];
 800093c:	ea4e 0e0b 	orr.w	lr, lr, fp
 8000940:	f80c e00a 	strb.w	lr, [ip, sl]
 8000944:	f109 0a03 	add.w	sl, r9, #3
 8000948:	f81c e00a 	ldrb.w	lr, [ip, sl]
 800094c:	f893 b003 	ldrb.w	fp, [r3, #3]
 8000950:	f109 0904 	add.w	r9, r9, #4
 8000954:	ea4e 0e0b 	orr.w	lr, lr, fp
 8000958:	f80c e00a 	strb.w	lr, [ip, sl]
 800095c:	f893 e004 	ldrb.w	lr, [r3, #4]
 8000960:	f81c 3009 	ldrb.w	r3, [ip, r9]
 8000964:	ea43 030e 	orr.w	r3, r3, lr
 8000968:	f80c 3009 	strb.w	r3, [ip, r9]
    i++;
 800096c:	3001      	adds	r0, #1
 800096e:	b2c0      	uxtb	r0, r0
  while (str[i]) {
 8000970:	5c2b      	ldrb	r3, [r5, r0]
 8000972:	b19b      	cbz	r3, 800099c <LCD_printstr8x5+0xe8>
    if (cl > 123 && str[i] != '\n') {
 8000974:	2a7b      	cmp	r2, #123	; 0x7b
 8000976:	d901      	bls.n	800097c <LCD_printstr8x5+0xc8>
 8000978:	2b0a      	cmp	r3, #10
 800097a:	d1b5      	bne.n	80008e8 <LCD_printstr8x5+0x34>
  uint8 i = 0;
 800097c:	4696      	mov	lr, r2
 800097e:	eba1 0c00 	sub.w	ip, r1, r0
    if(str[i] == '\n') {cl = 0; pg++; i++; continue;}
 8000982:	eb00 010c 	add.w	r1, r0, ip
 8000986:	2b0a      	cmp	r3, #10
 8000988:	f100 0201 	add.w	r2, r0, #1
 800098c:	b2c9      	uxtb	r1, r1
 800098e:	d108      	bne.n	80009a2 <LCD_printstr8x5+0xee>
 8000990:	b2d0      	uxtb	r0, r2
  while (str[i]) {
 8000992:	5c2b      	ldrb	r3, [r5, r0]
    if(str[i] == '\n') {cl = 0; pg++; i++; continue;}
 8000994:	f04f 0e00 	mov.w	lr, #0
  while (str[i]) {
 8000998:	2b00      	cmp	r3, #0
 800099a:	d1f2      	bne.n	8000982 <LCD_printstr8x5+0xce>
}
 800099c:	b003      	add	sp, #12
 800099e:	e8bd 8ff0 	ldmia.w	sp!, {r4, r5, r6, r7, r8, r9, sl, fp, pc}
  LCD_senddata(char_8x5[ch], 5);
 80009a2:	eb03 0383 	add.w	r3, r3, r3, lsl #2
    dispbuffer[bufpg][bufcl + i] |= byte[i];
 80009a6:	eb04 1ac1 	add.w	sl, r4, r1, lsl #7
 80009aa:	f81a c00e 	ldrb.w	ip, [sl, lr]
 80009ae:	f816 b003 	ldrb.w	fp, [r6, r3]
  bufcl++;
 80009b2:	f10e 0206 	add.w	r2, lr, #6
    dispbuffer[bufpg][bufcl + i] |= byte[i];
 80009b6:	ea4c 0c0b 	orr.w	ip, ip, fp
    if (bufcl > 127) bufpg++;
 80009ba:	f01e 0f80 	tst.w	lr, #128	; 0x80
    dispbuffer[bufpg][bufcl + i] |= byte[i];
 80009be:	f80a c00e 	strb.w	ip, [sl, lr]
 80009c2:	46f1      	mov	r9, lr
 80009c4:	468c      	mov	ip, r1
  bufcl++;
 80009c6:	b2d2      	uxtb	r2, r2
  LCD_senddata(char_8x5[ch], 5);
 80009c8:	4433      	add	r3, r6
    if (bufcl > 127) bufpg++;
 80009ca:	d09f      	beq.n	800090c <LCD_printstr8x5+0x58>
 80009cc:	f101 0c01 	add.w	ip, r1, #1
 80009d0:	fa5f fc8c 	uxtb.w	ip, ip
    if (bufpg > 7) return;
 80009d4:	f1bc 0f07 	cmp.w	ip, #7
 80009d8:	d843      	bhi.n	8000a62 <LCD_printstr8x5+0x1ae>
    dispbuffer[bufpg][bufcl + i] |= byte[i];
 80009da:	eb04 1ccc 	add.w	ip, r4, ip, lsl #7
 80009de:	f10e 0a01 	add.w	sl, lr, #1
 80009e2:	f81c b00a 	ldrb.w	fp, [ip, sl]
 80009e6:	f893 9001 	ldrb.w	r9, [r3, #1]
 80009ea:	ea49 090b 	orr.w	r9, r9, fp
 80009ee:	f80c 900a 	strb.w	r9, [ip, sl]
    if (bufcl > 127) bufpg++;
 80009f2:	f101 0c02 	add.w	ip, r1, #2
 80009f6:	fa5f fc8c 	uxtb.w	ip, ip
    if (bufpg > 7) return;
 80009fa:	f1bc 0f08 	cmp.w	ip, #8
 80009fe:	d030      	beq.n	8000a62 <LCD_printstr8x5+0x1ae>
    dispbuffer[bufpg][bufcl + i] |= byte[i];
 8000a00:	eb04 1ccc 	add.w	ip, r4, ip, lsl #7
 8000a04:	f10e 0a02 	add.w	sl, lr, #2
 8000a08:	f81c 900a 	ldrb.w	r9, [ip, sl]
 8000a0c:	f893 b002 	ldrb.w	fp, [r3, #2]
 8000a10:	ea49 090b 	orr.w	r9, r9, fp
 8000a14:	f80c 900a 	strb.w	r9, [ip, sl]
    if (bufcl > 127) bufpg++;
 8000a18:	f101 0c03 	add.w	ip, r1, #3
 8000a1c:	fa5f fc8c 	uxtb.w	ip, ip
    if (bufpg > 7) return;
 8000a20:	f1bc 0f08 	cmp.w	ip, #8
 8000a24:	d01d      	beq.n	8000a62 <LCD_printstr8x5+0x1ae>
    dispbuffer[bufpg][bufcl + i] |= byte[i];
 8000a26:	eb04 1ccc 	add.w	ip, r4, ip, lsl #7
 8000a2a:	f10e 0a03 	add.w	sl, lr, #3
 8000a2e:	f81c 900a 	ldrb.w	r9, [ip, sl]
 8000a32:	f893 b003 	ldrb.w	fp, [r3, #3]
 8000a36:	ea49 090b 	orr.w	r9, r9, fp
 8000a3a:	f80c 900a 	strb.w	r9, [ip, sl]
    if (bufcl > 127) bufpg++;
 8000a3e:	f101 0c04 	add.w	ip, r1, #4
 8000a42:	fa5f fc8c 	uxtb.w	ip, ip
    if (bufpg > 7) return;
 8000a46:	f1bc 0f08 	cmp.w	ip, #8
 8000a4a:	d00a      	beq.n	8000a62 <LCD_printstr8x5+0x1ae>
    dispbuffer[bufpg][bufcl + i] |= byte[i];
 8000a4c:	f10e 0e04 	add.w	lr, lr, #4
 8000a50:	eb04 1ccc 	add.w	ip, r4, ip, lsl #7
 8000a54:	f81c 900e 	ldrb.w	r9, [ip, lr]
 8000a58:	791b      	ldrb	r3, [r3, #4]
 8000a5a:	ea43 0309 	orr.w	r3, r3, r9
 8000a5e:	f80c 300e 	strb.w	r3, [ip, lr]
    if (pg > 7) return 0;
 8000a62:	2907      	cmp	r1, #7
  bufpg = pg;
 8000a64:	f888 1000 	strb.w	r1, [r8]
  bufcl++;
 8000a68:	703a      	strb	r2, [r7, #0]
    if (pg > 7) return 0;
 8000a6a:	f67f af7f 	bls.w	800096c <LCD_printstr8x5+0xb8>
  uint8 i = 0;
 8000a6e:	2000      	movs	r0, #0
}
 8000a70:	b003      	add	sp, #12
 8000a72:	e8bd 8ff0 	ldmia.w	sp!, {r4, r5, r6, r7, r8, r9, sl, fp, pc}
 8000a76:	234e      	movs	r3, #78	; 0x4e
  if (str == NULL) str = str_null;
 8000a78:	466d      	mov	r5, sp
 8000a7a:	e72e      	b.n	80008da <LCD_printstr8x5+0x26>
  uint8 i = 0;
 8000a7c:	2000      	movs	r0, #0
  bufpg = pg;
 8000a7e:	f888 1000 	strb.w	r1, [r8]
  bufcl++;
 8000a82:	703a      	strb	r2, [r7, #0]
    if (pg > 7) return 0;
 8000a84:	e7f4      	b.n	8000a70 <LCD_printstr8x5+0x1bc>
 8000a86:	bf00      	nop
 8000a88:	08008344 	.word	0x08008344
 8000a8c:	20000151 	.word	0x20000151
 8000a90:	20000150 	.word	0x20000150
 8000a94:	080088bc 	.word	0x080088bc
 8000a98:	20000154 	.word	0x20000154

08000a9c <LCD_erasestring>:
void LCD_erasestring(uint8 length, uint8 pg, uint8 cl) {
 8000a9c:	b410      	push	{r4}
  bufcl = cl;
 8000a9e:	4b04      	ldr	r3, [pc, #16]	; (8000ab0 <LCD_erasestring+0x14>)
  bufpg = pg;
 8000aa0:	4c04      	ldr	r4, [pc, #16]	; (8000ab4 <LCD_erasestring+0x18>)
  bufcl = cl;
 8000aa2:	701a      	strb	r2, [r3, #0]
  bufpg = pg;
 8000aa4:	7021      	strb	r1, [r4, #0]
  for (uint8 i = 0; i < length; i++) LCD_writebyte(0x00);
 8000aa6:	b108      	cbz	r0, 8000aac <LCD_erasestring+0x10>
  bufcl++;
 8000aa8:	4402      	add	r2, r0
 8000aaa:	701a      	strb	r2, [r3, #0]
}
 8000aac:	bc10      	pop	{r4}
 8000aae:	4770      	bx	lr
 8000ab0:	20000150 	.word	0x20000150
 8000ab4:	20000151 	.word	0x20000151

08000ab8 <LCD_bufupload_buferase>:
void LCD_bufupload_buferase(void) {
 8000ab8:	e92d 41f0 	stmdb	sp!, {r4, r5, r6, r7, r8, lr}
 8000abc:	24b0      	movs	r4, #176	; 0xb0
 8000abe:	4e19      	ldr	r6, [pc, #100]	; (8000b24 <LCD_bufupload_buferase+0x6c>)
  DISP_INIT_SEND_COM;
 8000ac0:	f8df 8064 	ldr.w	r8, [pc, #100]	; 8000b28 <LCD_bufupload_buferase+0x70>
  HAL_SPI_Transmit(&hspi2, data, N, 10);
 8000ac4:	4f19      	ldr	r7, [pc, #100]	; (8000b2c <LCD_bufupload_buferase+0x74>)
void LCD_bufupload_buferase(void) {
 8000ac6:	b082      	sub	sp, #8
		uint8_t tmp_arr[] = {(0xB0 + j), 0x10, 0x00};
 8000ac8:	2500      	movs	r5, #0
 8000aca:	2310      	movs	r3, #16
  DISP_INIT_SEND_COM;
 8000acc:	2102      	movs	r1, #2
 8000ace:	4640      	mov	r0, r8
 8000ad0:	462a      	mov	r2, r5
		uint8_t tmp_arr[] = {(0xB0 + j), 0x10, 0x00};
 8000ad2:	f88d 4004 	strb.w	r4, [sp, #4]
 8000ad6:	f88d 3005 	strb.w	r3, [sp, #5]
 8000ada:	f88d 5006 	strb.w	r5, [sp, #6]
  DISP_INIT_SEND_COM;
 8000ade:	f005 f839 	bl	8005b54 <HAL_GPIO_WritePin>
  HAL_SPI_Transmit(&hspi2, data, N, 10);
 8000ae2:	230a      	movs	r3, #10
 8000ae4:	2203      	movs	r2, #3
 8000ae6:	a901      	add	r1, sp, #4
 8000ae8:	4638      	mov	r0, r7
 8000aea:	f005 feef 	bl	80068cc <HAL_SPI_Transmit>
	for(uint8_t j = 0; j < 8; j++)
 8000aee:	3401      	adds	r4, #1
  DISP_INIT_SEND_DAT;
 8000af0:	2201      	movs	r2, #1
 8000af2:	2102      	movs	r1, #2
 8000af4:	4640      	mov	r0, r8
 8000af6:	f005 f82d 	bl	8005b54 <HAL_GPIO_WritePin>
	for(uint8_t j = 0; j < 8; j++)
 8000afa:	b2e4      	uxtb	r4, r4
	    HAL_SPI_Transmit(&hspi2, dispbuffer[j], 128, 10);
 8000afc:	4631      	mov	r1, r6
 8000afe:	230a      	movs	r3, #10
 8000b00:	2280      	movs	r2, #128	; 0x80
 8000b02:	4638      	mov	r0, r7
 8000b04:	f005 fee2 	bl	80068cc <HAL_SPI_Transmit>
	for(uint8_t j = 0; j < 8; j++)
 8000b08:	2cb8      	cmp	r4, #184	; 0xb8
 8000b0a:	f106 0680 	add.w	r6, r6, #128	; 0x80
 8000b0e:	d1db      	bne.n	8000ac8 <LCD_bufupload_buferase+0x10>
    for (uint8 i = 0; i < 128; i++) dispbuffer[j][i] = 0;
 8000b10:	f44f 6280 	mov.w	r2, #1024	; 0x400
 8000b14:	4629      	mov	r1, r5
 8000b16:	4803      	ldr	r0, [pc, #12]	; (8000b24 <LCD_bufupload_buferase+0x6c>)
}
 8000b18:	b002      	add	sp, #8
 8000b1a:	e8bd 41f0 	ldmia.w	sp!, {r4, r5, r6, r7, r8, lr}
    for (uint8 i = 0; i < 128; i++) dispbuffer[j][i] = 0;
 8000b1e:	f006 bb65 	b.w	80071ec <memset>
 8000b22:	bf00      	nop
 8000b24:	20000154 	.word	0x20000154
 8000b28:	40010800 	.word	0x40010800
 8000b2c:	200005e4 	.word	0x200005e4

08000b30 <LCD_printweekday>:
/*----------------------------------------------------------------------------*/

/*-----------------------------SYSTEM MENU ELEMENTS---------------------------*/

void LCD_printweekday(uint8 wdaynum, uint8 pg, uint8 cl) {
  LCD_printstr8x5(weekday[wdaynum], pg, cl);
 8000b30:	4b02      	ldr	r3, [pc, #8]	; (8000b3c <LCD_printweekday+0xc>)
 8000b32:	eb00 0040 	add.w	r0, r0, r0, lsl #1
 8000b36:	4418      	add	r0, r3
 8000b38:	f7ff bebc 	b.w	80008b4 <LCD_printstr8x5>
 8000b3c:	08008dec 	.word	0x08008dec

08000b40 <LCD_printclockanddate>:

void LCD_printmonth(uint8 mon, uint8 pg, uint8 cl) {
  LCD_printstr8x5(month[mon - 1], pg, cl);
}

void LCD_printclockanddate(uint8 pg, uint8 cl) {
 8000b40:	e92d 43f0 	stmdb	sp!, {r4, r5, r6, r7, r8, r9, lr}
  uint8 day[3] = {dig_to_smb((rtcbcd.day & 0x30) >> 4), dig_to_smb(rtcbcd.day & 0x0F), '\0'};
 8000b44:	f8df 913c 	ldr.w	r9, [pc, #316]	; 8000c84 <LCD_printclockanddate+0x144>
void LCD_printclockanddate(uint8 pg, uint8 cl) {
 8000b48:	4606      	mov	r6, r0
  uint8 day[3] = {dig_to_smb((rtcbcd.day & 0x30) >> 4), dig_to_smb(rtcbcd.day & 0x0F), '\0'};
 8000b4a:	f899 0003 	ldrb.w	r0, [r9, #3]
void LCD_printclockanddate(uint8 pg, uint8 cl) {
 8000b4e:	b085      	sub	sp, #20
  uint8 day[3] = {dig_to_smb((rtcbcd.day & 0x30) >> 4), dig_to_smb(rtcbcd.day & 0x0F), '\0'};
 8000b50:	f3c0 1001 	ubfx	r0, r0, #4, #2
void LCD_printclockanddate(uint8 pg, uint8 cl) {
 8000b54:	460d      	mov	r5, r1
  uint8 day[3] = {dig_to_smb((rtcbcd.day & 0x30) >> 4), dig_to_smb(rtcbcd.day & 0x0F), '\0'};
 8000b56:	f7ff fb0b 	bl	8000170 <dig_to_smb>
 8000b5a:	4603      	mov	r3, r0
 8000b5c:	f899 0003 	ldrb.w	r0, [r9, #3]
 8000b60:	f88d 3004 	strb.w	r3, [sp, #4]
 8000b64:	f000 000f 	and.w	r0, r0, #15
 8000b68:	f7ff fb02 	bl	8000170 <dig_to_smb>
 8000b6c:	f04f 0800 	mov.w	r8, #0
  uint8 hours[3] = {dig_to_smb(rtcraw.hour / 10), dig_to_smb(rtcraw.hour % 10), '\0'};
 8000b70:	4f45      	ldr	r7, [pc, #276]	; (8000c88 <LCD_printclockanddate+0x148>)
 8000b72:	4c46      	ldr	r4, [pc, #280]	; (8000c8c <LCD_printclockanddate+0x14c>)
  uint8 day[3] = {dig_to_smb((rtcbcd.day & 0x30) >> 4), dig_to_smb(rtcbcd.day & 0x0F), '\0'};
 8000b74:	f88d 0005 	strb.w	r0, [sp, #5]
  uint8 hours[3] = {dig_to_smb(rtcraw.hour / 10), dig_to_smb(rtcraw.hour % 10), '\0'};
 8000b78:	78b8      	ldrb	r0, [r7, #2]
  uint8 day[3] = {dig_to_smb((rtcbcd.day & 0x30) >> 4), dig_to_smb(rtcbcd.day & 0x0F), '\0'};
 8000b7a:	f88d 8006 	strb.w	r8, [sp, #6]
  uint8 hours[3] = {dig_to_smb(rtcraw.hour / 10), dig_to_smb(rtcraw.hour % 10), '\0'};
 8000b7e:	fba4 3000 	umull	r3, r0, r4, r0
 8000b82:	08c0      	lsrs	r0, r0, #3
 8000b84:	f7ff faf4 	bl	8000170 <dig_to_smb>
 8000b88:	78bb      	ldrb	r3, [r7, #2]
 8000b8a:	f88d 0008 	strb.w	r0, [sp, #8]
 8000b8e:	fba4 2003 	umull	r2, r0, r4, r3
 8000b92:	08c0      	lsrs	r0, r0, #3
 8000b94:	eb00 0080 	add.w	r0, r0, r0, lsl #2
 8000b98:	eba3 0040 	sub.w	r0, r3, r0, lsl #1
 8000b9c:	b2c0      	uxtb	r0, r0
 8000b9e:	f7ff fae7 	bl	8000170 <dig_to_smb>
 8000ba2:	f88d 0009 	strb.w	r0, [sp, #9]
  uint8 colon[4] = {0x00, 0x12, 0x00}; // ':' colon
  uint8 minutes[3] = {dig_to_smb(rtcraw.min / 10), dig_to_smb(rtcraw.min % 10), '\0'};
 8000ba6:	7878      	ldrb	r0, [r7, #1]
  uint8 hours[3] = {dig_to_smb(rtcraw.hour / 10), dig_to_smb(rtcraw.hour % 10), '\0'};
 8000ba8:	f88d 800a 	strb.w	r8, [sp, #10]
  uint8 minutes[3] = {dig_to_smb(rtcraw.min / 10), dig_to_smb(rtcraw.min % 10), '\0'};
 8000bac:	fba4 3000 	umull	r3, r0, r4, r0
 8000bb0:	08c0      	lsrs	r0, r0, #3
 8000bb2:	f7ff fadd 	bl	8000170 <dig_to_smb>
 8000bb6:	f88d 000c 	strb.w	r0, [sp, #12]
 8000bba:	7878      	ldrb	r0, [r7, #1]
 8000bbc:	fba4 3400 	umull	r3, r4, r4, r0
 8000bc0:	08e4      	lsrs	r4, r4, #3
 8000bc2:	eb04 0484 	add.w	r4, r4, r4, lsl #2
 8000bc6:	eba0 0044 	sub.w	r0, r0, r4, lsl #1
 8000bca:	b2c0      	uxtb	r0, r0
 8000bcc:	f7ff fad0 	bl	8000170 <dig_to_smb>
 8000bd0:	4603      	mov	r3, r0
  LCD_printstr8x5(day, pg, cl);
 8000bd2:	462a      	mov	r2, r5
 8000bd4:	4631      	mov	r1, r6
 8000bd6:	a801      	add	r0, sp, #4
  uint8 minutes[3] = {dig_to_smb(rtcraw.min / 10), dig_to_smb(rtcraw.min % 10), '\0'};
 8000bd8:	f88d 300d 	strb.w	r3, [sp, #13]
 8000bdc:	f88d 800e 	strb.w	r8, [sp, #14]
  LCD_printstr8x5(day, pg, cl);
 8000be0:	f7ff fe68 	bl	80008b4 <LCD_printstr8x5>
  LCD_printstr8x5(month[mon - 1], pg, cl);
 8000be4:	797b      	ldrb	r3, [r7, #5]
 8000be6:	482a      	ldr	r0, [pc, #168]	; (8000c90 <LCD_printclockanddate+0x150>)
 8000be8:	3b01      	subs	r3, #1
  LCD_printmonth(rtcraw.month, pg, cl + 14);
 8000bea:	f105 020e 	add.w	r2, r5, #14
  LCD_printstr8x5(month[mon - 1], pg, cl);
 8000bee:	4631      	mov	r1, r6
 8000bf0:	eb00 0083 	add.w	r0, r0, r3, lsl #2
 8000bf4:	b2d2      	uxtb	r2, r2
 8000bf6:	f7ff fe5d 	bl	80008b4 <LCD_printstr8x5>
  LCD_printstr8x5(weekday[wdaynum], pg, cl);
 8000bfa:	793b      	ldrb	r3, [r7, #4]
 8000bfc:	4825      	ldr	r0, [pc, #148]	; (8000c94 <LCD_printclockanddate+0x154>)
 8000bfe:	eb03 0343 	add.w	r3, r3, r3, lsl #1
  LCD_printweekday(rtcraw.weekday, pg, cl + 35);
 8000c02:	f105 0223 	add.w	r2, r5, #35	; 0x23
  LCD_printstr8x5(weekday[wdaynum], pg, cl);
 8000c06:	4418      	add	r0, r3
 8000c08:	4631      	mov	r1, r6
 8000c0a:	b2d2      	uxtb	r2, r2
 8000c0c:	f7ff fe52 	bl	80008b4 <LCD_printstr8x5>
  LCD_printstr8x5(hours, pg, cl + 49);
 8000c10:	f105 0231 	add.w	r2, r5, #49	; 0x31
 8000c14:	b2d2      	uxtb	r2, r2
 8000c16:	4631      	mov	r1, r6
 8000c18:	a802      	add	r0, sp, #8
 8000c1a:	f7ff fe4b 	bl	80008b4 <LCD_printstr8x5>
  bufcl = cl;
 8000c1e:	4a1e      	ldr	r2, [pc, #120]	; (8000c98 <LCD_printclockanddate+0x158>)
  LCD_setpagecolumn(pg, cl + 61);
 8000c20:	f105 033d 	add.w	r3, r5, #61	; 0x3d
 8000c24:	b2db      	uxtb	r3, r3
  bufcl = cl;
 8000c26:	7013      	strb	r3, [r2, #0]
 8000c28:	061a      	lsls	r2, r3, #24
  bufpg = pg;
 8000c2a:	481c      	ldr	r0, [pc, #112]	; (8000c9c <LCD_printclockanddate+0x15c>)
  for (uint8 i = 0; i < N; i++) {
 8000c2c:	d415      	bmi.n	8000c5a <LCD_printclockanddate+0x11a>
    if (bufpg > 7) return;
 8000c2e:	2e07      	cmp	r6, #7
 8000c30:	d826      	bhi.n	8000c80 <LCD_printclockanddate+0x140>
    dispbuffer[bufpg][bufcl + i] |= byte[i];
 8000c32:	4a1b      	ldr	r2, [pc, #108]	; (8000ca0 <LCD_printclockanddate+0x160>)
 8000c34:	3301      	adds	r3, #1
 8000c36:	eb02 12c6 	add.w	r2, r2, r6, lsl #7
 8000c3a:	5cd1      	ldrb	r1, [r2, r3]
 8000c3c:	f041 0112 	orr.w	r1, r1, #18
 8000c40:	54d1      	strb	r1, [r2, r3]
 8000c42:	4632      	mov	r2, r6
  LCD_senddata(colon, 3);
  LCD_printstr8x5(minutes, pg, cl + 64);
 8000c44:	7002      	strb	r2, [r0, #0]
 8000c46:	f105 0240 	add.w	r2, r5, #64	; 0x40
 8000c4a:	4631      	mov	r1, r6
 8000c4c:	b2d2      	uxtb	r2, r2
 8000c4e:	a803      	add	r0, sp, #12
 8000c50:	f7ff fe30 	bl	80008b4 <LCD_printstr8x5>
}
 8000c54:	b005      	add	sp, #20
 8000c56:	e8bd 83f0 	ldmia.w	sp!, {r4, r5, r6, r7, r8, r9, pc}
    if (bufcl > 127) bufpg++;
 8000c5a:	1c72      	adds	r2, r6, #1
 8000c5c:	b2d2      	uxtb	r2, r2
    if (bufpg > 7) return;
 8000c5e:	2a07      	cmp	r2, #7
 8000c60:	d8f0      	bhi.n	8000c44 <LCD_printclockanddate+0x104>
    dispbuffer[bufpg][bufcl + i] |= byte[i];
 8000c62:	490f      	ldr	r1, [pc, #60]	; (8000ca0 <LCD_printclockanddate+0x160>)
 8000c64:	3301      	adds	r3, #1
 8000c66:	eb01 12c2 	add.w	r2, r1, r2, lsl #7
 8000c6a:	5cd1      	ldrb	r1, [r2, r3]
 8000c6c:	f041 0112 	orr.w	r1, r1, #18
 8000c70:	54d1      	strb	r1, [r2, r3]
    if (bufcl > 127) bufpg++;
 8000c72:	1cb2      	adds	r2, r6, #2
 8000c74:	b2d2      	uxtb	r2, r2
    if (bufpg > 7) return;
 8000c76:	2a08      	cmp	r2, #8
 8000c78:	d0e4      	beq.n	8000c44 <LCD_printclockanddate+0x104>
    if (bufcl > 127) bufpg++;
 8000c7a:	1cf2      	adds	r2, r6, #3
 8000c7c:	b2d2      	uxtb	r2, r2
    if (bufpg > 7) return;
 8000c7e:	e7e1      	b.n	8000c44 <LCD_printclockanddate+0x104>
 8000c80:	4632      	mov	r2, r6
 8000c82:	e7df      	b.n	8000c44 <LCD_printclockanddate+0x104>
 8000c84:	2000013c 	.word	0x2000013c
 8000c88:	20000144 	.word	0x20000144
 8000c8c:	cccccccd 	.word	0xcccccccd
 8000c90:	08008dbc 	.word	0x08008dbc
 8000c94:	08008dec 	.word	0x08008dec
 8000c98:	20000150 	.word	0x20000150
 8000c9c:	20000151 	.word	0x20000151
 8000ca0:	20000154 	.word	0x20000154

08000ca4 <LCD_printbrightnes>:

void LCD_printbrightnes(uint8 pg, uint8 cl) //  size 26 column
{
  LCD_setpagecolumn(pg, cl);
 8000ca4:	060b      	lsls	r3, r1, #24
{
 8000ca6:	b570      	push	{r4, r5, r6, lr}
    dispbuffer[bufpg][bufcl + i] |= byte[i];
 8000ca8:	ea4f 12c0 	mov.w	r2, r0, lsl #7
  bufpg = pg;
 8000cac:	4cd0      	ldr	r4, [pc, #832]	; (8000ff0 <LCD_printbrightnes+0x34c>)
    dispbuffer[bufpg][bufcl + i] |= byte[i];
 8000cae:	4dd1      	ldr	r5, [pc, #836]	; (8000ff4 <LCD_printbrightnes+0x350>)
 8000cb0:	f100 8128 	bmi.w	8000f04 <LCD_printbrightnes+0x260>
 8000cb4:	eb05 13c0 	add.w	r3, r5, r0, lsl #7
 8000cb8:	5c5e      	ldrb	r6, [r3, r1]
    if (bufpg > 7) return;
 8000cba:	2807      	cmp	r0, #7
    dispbuffer[bufpg][bufcl + i] |= byte[i];
 8000cbc:	f046 061f 	orr.w	r6, r6, #31
 8000cc0:	545e      	strb	r6, [r3, r1]
    if (bufpg > 7) return;
 8000cc2:	d837      	bhi.n	8000d34 <LCD_printbrightnes+0x90>
    dispbuffer[bufpg][bufcl + i] |= byte[i];
 8000cc4:	f101 0c01 	add.w	ip, r1, #1
 8000cc8:	f813 600c 	ldrb.w	r6, [r3, ip]
 8000ccc:	f046 0618 	orr.w	r6, r6, #24
 8000cd0:	f803 600c 	strb.w	r6, [r3, ip]
 8000cd4:	f101 0c02 	add.w	ip, r1, #2
 8000cd8:	f813 600c 	ldrb.w	r6, [r3, ip]
 8000cdc:	f046 0636 	orr.w	r6, r6, #54	; 0x36
 8000ce0:	f803 600c 	strb.w	r6, [r3, ip]
 8000ce4:	f101 0c03 	add.w	ip, r1, #3
 8000ce8:	f813 600c 	ldrb.w	r6, [r3, ip]
 8000cec:	f066 060c 	orn	r6, r6, #12
 8000cf0:	f803 600c 	strb.w	r6, [r3, ip]
 8000cf4:	f101 0c04 	add.w	ip, r1, #4
 8000cf8:	f813 600c 	ldrb.w	r6, [r3, ip]
 8000cfc:	f066 0637 	orn	r6, r6, #55	; 0x37
 8000d00:	f803 600c 	strb.w	r6, [r3, ip]
 8000d04:	f101 0c05 	add.w	ip, r1, #5
 8000d08:	f813 600c 	ldrb.w	r6, [r3, ip]
 8000d0c:	f066 065b 	orn	r6, r6, #91	; 0x5b
 8000d10:	f803 600c 	strb.w	r6, [r3, ip]
 8000d14:	f101 0c06 	add.w	ip, r1, #6
 8000d18:	f813 600c 	ldrb.w	r6, [r3, ip]
 8000d1c:	f066 064d 	orn	r6, r6, #77	; 0x4d
 8000d20:	f803 600c 	strb.w	r6, [r3, ip]
 8000d24:	f101 0c07 	add.w	ip, r1, #7
 8000d28:	f813 600c 	ldrb.w	r6, [r3, ip]
 8000d2c:	f066 066e 	orn	r6, r6, #110	; 0x6e
 8000d30:	f803 600c 	strb.w	r6, [r3, ip]
  LCD_senddata(bright_icon, 8);
  LCD_setpagecolumn(pg, cl + 9);
 8000d34:	3109      	adds	r1, #9
 8000d36:	b2cb      	uxtb	r3, r1
  LCD_senddata(bright_lvl[brightlvl], 15);
 8000d38:	49af      	ldr	r1, [pc, #700]	; (8000ff8 <LCD_printbrightnes+0x354>)
  bufcl = cl;
 8000d3a:	4eb0      	ldr	r6, [pc, #704]	; (8000ffc <LCD_printbrightnes+0x358>)
  LCD_senddata(bright_lvl[brightlvl], 15);
 8000d3c:	7809      	ldrb	r1, [r1, #0]
  bufcl = cl;
 8000d3e:	7033      	strb	r3, [r6, #0]
  LCD_senddata(bright_lvl[brightlvl], 15);
 8000d40:	4eaf      	ldr	r6, [pc, #700]	; (8001000 <LCD_printbrightnes+0x35c>)
 8000d42:	ebc1 1101 	rsb	r1, r1, r1, lsl #4
 8000d46:	f013 0f80 	tst.w	r3, #128	; 0x80
  bufpg = pg;
 8000d4a:	7020      	strb	r0, [r4, #0]
  LCD_senddata(bright_lvl[brightlvl], 15);
 8000d4c:	eb06 0c01 	add.w	ip, r6, r1
  for (uint8 i = 0; i < N; i++) {
 8000d50:	d163      	bne.n	8000e1a <LCD_printbrightnes+0x176>
    dispbuffer[bufpg][bufcl + i] |= byte[i];
 8000d52:	442a      	add	r2, r5
 8000d54:	5c75      	ldrb	r5, [r6, r1]
 8000d56:	5cd1      	ldrb	r1, [r2, r3]
    if (bufpg > 7) return;
 8000d58:	2807      	cmp	r0, #7
    dispbuffer[bufpg][bufcl + i] |= byte[i];
 8000d5a:	ea41 0105 	orr.w	r1, r1, r5
 8000d5e:	54d1      	strb	r1, [r2, r3]
    if (bufpg > 7) return;
 8000d60:	f200 80ce 	bhi.w	8000f00 <LCD_printbrightnes+0x25c>
    dispbuffer[bufpg][bufcl + i] |= byte[i];
 8000d64:	1c58      	adds	r0, r3, #1
 8000d66:	5c11      	ldrb	r1, [r2, r0]
 8000d68:	f89c 4001 	ldrb.w	r4, [ip, #1]
 8000d6c:	4321      	orrs	r1, r4
 8000d6e:	5411      	strb	r1, [r2, r0]
 8000d70:	1c98      	adds	r0, r3, #2
 8000d72:	5c11      	ldrb	r1, [r2, r0]
 8000d74:	f89c 4002 	ldrb.w	r4, [ip, #2]
 8000d78:	4321      	orrs	r1, r4
 8000d7a:	5411      	strb	r1, [r2, r0]
 8000d7c:	1cd8      	adds	r0, r3, #3
 8000d7e:	5c11      	ldrb	r1, [r2, r0]
 8000d80:	f89c 4003 	ldrb.w	r4, [ip, #3]
 8000d84:	4321      	orrs	r1, r4
 8000d86:	5411      	strb	r1, [r2, r0]
 8000d88:	1d18      	adds	r0, r3, #4
 8000d8a:	5c11      	ldrb	r1, [r2, r0]
 8000d8c:	f89c 4004 	ldrb.w	r4, [ip, #4]
 8000d90:	4321      	orrs	r1, r4
 8000d92:	5411      	strb	r1, [r2, r0]
 8000d94:	1d58      	adds	r0, r3, #5
 8000d96:	5c11      	ldrb	r1, [r2, r0]
 8000d98:	f89c 4005 	ldrb.w	r4, [ip, #5]
 8000d9c:	4321      	orrs	r1, r4
 8000d9e:	5411      	strb	r1, [r2, r0]
 8000da0:	1d98      	adds	r0, r3, #6
 8000da2:	5c11      	ldrb	r1, [r2, r0]
 8000da4:	f89c 4006 	ldrb.w	r4, [ip, #6]
 8000da8:	4321      	orrs	r1, r4
 8000daa:	5411      	strb	r1, [r2, r0]
 8000dac:	1dd8      	adds	r0, r3, #7
 8000dae:	5c11      	ldrb	r1, [r2, r0]
 8000db0:	f89c 4007 	ldrb.w	r4, [ip, #7]
 8000db4:	4321      	orrs	r1, r4
 8000db6:	5411      	strb	r1, [r2, r0]
 8000db8:	f103 0008 	add.w	r0, r3, #8
 8000dbc:	5c11      	ldrb	r1, [r2, r0]
 8000dbe:	f89c 4008 	ldrb.w	r4, [ip, #8]
 8000dc2:	4321      	orrs	r1, r4
 8000dc4:	5411      	strb	r1, [r2, r0]
 8000dc6:	f103 0009 	add.w	r0, r3, #9
 8000dca:	5c11      	ldrb	r1, [r2, r0]
 8000dcc:	f89c 4009 	ldrb.w	r4, [ip, #9]
 8000dd0:	4321      	orrs	r1, r4
 8000dd2:	5411      	strb	r1, [r2, r0]
 8000dd4:	f103 000a 	add.w	r0, r3, #10
 8000dd8:	5c11      	ldrb	r1, [r2, r0]
 8000dda:	f89c 400a 	ldrb.w	r4, [ip, #10]
 8000dde:	4321      	orrs	r1, r4
 8000de0:	5411      	strb	r1, [r2, r0]
 8000de2:	f103 000b 	add.w	r0, r3, #11
 8000de6:	5c11      	ldrb	r1, [r2, r0]
 8000de8:	f89c 400b 	ldrb.w	r4, [ip, #11]
 8000dec:	4321      	orrs	r1, r4
 8000dee:	5411      	strb	r1, [r2, r0]
 8000df0:	f103 000c 	add.w	r0, r3, #12
 8000df4:	5c11      	ldrb	r1, [r2, r0]
 8000df6:	f89c 400c 	ldrb.w	r4, [ip, #12]
 8000dfa:	4321      	orrs	r1, r4
 8000dfc:	5411      	strb	r1, [r2, r0]
 8000dfe:	f103 000d 	add.w	r0, r3, #13
 8000e02:	5c11      	ldrb	r1, [r2, r0]
 8000e04:	f89c 400d 	ldrb.w	r4, [ip, #13]
 8000e08:	330e      	adds	r3, #14
 8000e0a:	4321      	orrs	r1, r4
 8000e0c:	5411      	strb	r1, [r2, r0]
 8000e0e:	5cd0      	ldrb	r0, [r2, r3]
 8000e10:	f89c 100e 	ldrb.w	r1, [ip, #14]
 8000e14:	4301      	orrs	r1, r0
 8000e16:	54d1      	strb	r1, [r2, r3]
}
 8000e18:	bd70      	pop	{r4, r5, r6, pc}
    dispbuffer[bufpg][bufcl + i] |= byte[i];
 8000e1a:	442a      	add	r2, r5
 8000e1c:	5c76      	ldrb	r6, [r6, r1]
 8000e1e:	5cd1      	ldrb	r1, [r2, r3]
 8000e20:	4331      	orrs	r1, r6
 8000e22:	54d1      	strb	r1, [r2, r3]
    if (bufcl > 127) bufpg++;
 8000e24:	1c42      	adds	r2, r0, #1
 8000e26:	b2d2      	uxtb	r2, r2
    if (bufpg > 7) return;
 8000e28:	2a07      	cmp	r2, #7
 8000e2a:	f200 80de 	bhi.w	8000fea <LCD_printbrightnes+0x346>
    dispbuffer[bufpg][bufcl + i] |= byte[i];
 8000e2e:	eb05 12c2 	add.w	r2, r5, r2, lsl #7
 8000e32:	1c5e      	adds	r6, r3, #1
 8000e34:	5d91      	ldrb	r1, [r2, r6]
 8000e36:	f89c e001 	ldrb.w	lr, [ip, #1]
 8000e3a:	ea41 010e 	orr.w	r1, r1, lr
 8000e3e:	5591      	strb	r1, [r2, r6]
    if (bufcl > 127) bufpg++;
 8000e40:	1c82      	adds	r2, r0, #2
 8000e42:	b2d2      	uxtb	r2, r2
    if (bufpg > 7) return;
 8000e44:	2a08      	cmp	r2, #8
 8000e46:	f000 80cd 	beq.w	8000fe4 <LCD_printbrightnes+0x340>
    dispbuffer[bufpg][bufcl + i] |= byte[i];
 8000e4a:	eb05 12c2 	add.w	r2, r5, r2, lsl #7
 8000e4e:	1c9e      	adds	r6, r3, #2
 8000e50:	5d91      	ldrb	r1, [r2, r6]
 8000e52:	f89c e002 	ldrb.w	lr, [ip, #2]
 8000e56:	ea41 010e 	orr.w	r1, r1, lr
 8000e5a:	5591      	strb	r1, [r2, r6]
    if (bufcl > 127) bufpg++;
 8000e5c:	1cc2      	adds	r2, r0, #3
 8000e5e:	b2d2      	uxtb	r2, r2
    if (bufpg > 7) return;
 8000e60:	2a08      	cmp	r2, #8
 8000e62:	f000 80c2 	beq.w	8000fea <LCD_printbrightnes+0x346>
    dispbuffer[bufpg][bufcl + i] |= byte[i];
 8000e66:	eb05 12c2 	add.w	r2, r5, r2, lsl #7
 8000e6a:	1cde      	adds	r6, r3, #3
 8000e6c:	5d91      	ldrb	r1, [r2, r6]
 8000e6e:	f89c e003 	ldrb.w	lr, [ip, #3]
 8000e72:	ea41 010e 	orr.w	r1, r1, lr
 8000e76:	5591      	strb	r1, [r2, r6]
    if (bufcl > 127) bufpg++;
 8000e78:	1d02      	adds	r2, r0, #4
 8000e7a:	b2d2      	uxtb	r2, r2
    if (bufpg > 7) return;
 8000e7c:	2a08      	cmp	r2, #8
 8000e7e:	f000 80b1 	beq.w	8000fe4 <LCD_printbrightnes+0x340>
    dispbuffer[bufpg][bufcl + i] |= byte[i];
 8000e82:	eb05 12c2 	add.w	r2, r5, r2, lsl #7
 8000e86:	1d1e      	adds	r6, r3, #4
 8000e88:	5d91      	ldrb	r1, [r2, r6]
 8000e8a:	f89c e004 	ldrb.w	lr, [ip, #4]
 8000e8e:	ea41 010e 	orr.w	r1, r1, lr
 8000e92:	5591      	strb	r1, [r2, r6]
    if (bufcl > 127) bufpg++;
 8000e94:	1d42      	adds	r2, r0, #5
 8000e96:	b2d2      	uxtb	r2, r2
    if (bufpg > 7) return;
 8000e98:	2a08      	cmp	r2, #8
 8000e9a:	f000 80a3 	beq.w	8000fe4 <LCD_printbrightnes+0x340>
    dispbuffer[bufpg][bufcl + i] |= byte[i];
 8000e9e:	eb05 12c2 	add.w	r2, r5, r2, lsl #7
 8000ea2:	1d5e      	adds	r6, r3, #5
 8000ea4:	5d91      	ldrb	r1, [r2, r6]
 8000ea6:	f89c e005 	ldrb.w	lr, [ip, #5]
 8000eaa:	ea41 010e 	orr.w	r1, r1, lr
 8000eae:	5591      	strb	r1, [r2, r6]
    if (bufcl > 127) bufpg++;
 8000eb0:	1d82      	adds	r2, r0, #6
 8000eb2:	b2d2      	uxtb	r2, r2
    if (bufpg > 7) return;
 8000eb4:	2a08      	cmp	r2, #8
 8000eb6:	f000 8095 	beq.w	8000fe4 <LCD_printbrightnes+0x340>
    dispbuffer[bufpg][bufcl + i] |= byte[i];
 8000eba:	eb05 12c2 	add.w	r2, r5, r2, lsl #7
 8000ebe:	1d9e      	adds	r6, r3, #6
 8000ec0:	5d91      	ldrb	r1, [r2, r6]
 8000ec2:	f89c e006 	ldrb.w	lr, [ip, #6]
 8000ec6:	ea41 010e 	orr.w	r1, r1, lr
 8000eca:	5591      	strb	r1, [r2, r6]
    if (bufcl > 127) bufpg++;
 8000ecc:	1dc2      	adds	r2, r0, #7
 8000ece:	b2d2      	uxtb	r2, r2
    if (bufpg > 7) return;
 8000ed0:	2a08      	cmp	r2, #8
 8000ed2:	f000 8087 	beq.w	8000fe4 <LCD_printbrightnes+0x340>
    dispbuffer[bufpg][bufcl + i] |= byte[i];
 8000ed6:	eb05 12c2 	add.w	r2, r5, r2, lsl #7
 8000eda:	1dde      	adds	r6, r3, #7
 8000edc:	5d91      	ldrb	r1, [r2, r6]
 8000ede:	f89c e007 	ldrb.w	lr, [ip, #7]
 8000ee2:	ea41 010e 	orr.w	r1, r1, lr
 8000ee6:	5591      	strb	r1, [r2, r6]
    if (bufpg > 7) return;
 8000ee8:	2800      	cmp	r0, #0
 8000eea:	d07b      	beq.n	8000fe4 <LCD_printbrightnes+0x340>
    if (bufcl > 127) bufpg++;
 8000eec:	2008      	movs	r0, #8
    dispbuffer[bufpg][bufcl + i] |= byte[i];
 8000eee:	3308      	adds	r3, #8
 8000ef0:	442b      	add	r3, r5
 8000ef2:	f893 2380 	ldrb.w	r2, [r3, #896]	; 0x380
 8000ef6:	f89c 1008 	ldrb.w	r1, [ip, #8]
 8000efa:	430a      	orrs	r2, r1
 8000efc:	f883 2380 	strb.w	r2, [r3, #896]	; 0x380
    if (bufpg > 7) return;
 8000f00:	7020      	strb	r0, [r4, #0]
}
 8000f02:	bd70      	pop	{r4, r5, r6, pc}
    dispbuffer[bufpg][bufcl + i] |= byte[i];
 8000f04:	eb05 16c0 	add.w	r6, r5, r0, lsl #7
 8000f08:	5c73      	ldrb	r3, [r6, r1]
 8000f0a:	f043 031f 	orr.w	r3, r3, #31
 8000f0e:	5473      	strb	r3, [r6, r1]
    if (bufcl > 127) bufpg++;
 8000f10:	1c43      	adds	r3, r0, #1
 8000f12:	b2db      	uxtb	r3, r3
    if (bufpg > 7) return;
 8000f14:	2b07      	cmp	r3, #7
 8000f16:	f63f af0d 	bhi.w	8000d34 <LCD_printbrightnes+0x90>
    dispbuffer[bufpg][bufcl + i] |= byte[i];
 8000f1a:	eb05 13c3 	add.w	r3, r5, r3, lsl #7
 8000f1e:	f101 0c01 	add.w	ip, r1, #1
 8000f22:	f813 600c 	ldrb.w	r6, [r3, ip]
 8000f26:	f046 0618 	orr.w	r6, r6, #24
 8000f2a:	f803 600c 	strb.w	r6, [r3, ip]
    if (bufcl > 127) bufpg++;
 8000f2e:	1c83      	adds	r3, r0, #2
 8000f30:	b2db      	uxtb	r3, r3
    if (bufpg > 7) return;
 8000f32:	2b08      	cmp	r3, #8
 8000f34:	f43f aefe 	beq.w	8000d34 <LCD_printbrightnes+0x90>
    dispbuffer[bufpg][bufcl + i] |= byte[i];
 8000f38:	eb05 13c3 	add.w	r3, r5, r3, lsl #7
 8000f3c:	f101 0c02 	add.w	ip, r1, #2
 8000f40:	f813 600c 	ldrb.w	r6, [r3, ip]
 8000f44:	f046 0636 	orr.w	r6, r6, #54	; 0x36
 8000f48:	f803 600c 	strb.w	r6, [r3, ip]
    if (bufcl > 127) bufpg++;
 8000f4c:	1cc3      	adds	r3, r0, #3
 8000f4e:	b2db      	uxtb	r3, r3
    if (bufpg > 7) return;
 8000f50:	2b08      	cmp	r3, #8
 8000f52:	f43f aeef 	beq.w	8000d34 <LCD_printbrightnes+0x90>
    dispbuffer[bufpg][bufcl + i] |= byte[i];
 8000f56:	eb05 13c3 	add.w	r3, r5, r3, lsl #7
 8000f5a:	f101 0c03 	add.w	ip, r1, #3
 8000f5e:	f813 600c 	ldrb.w	r6, [r3, ip]
 8000f62:	f066 060c 	orn	r6, r6, #12
 8000f66:	f803 600c 	strb.w	r6, [r3, ip]
    if (bufcl > 127) bufpg++;
 8000f6a:	1d03      	adds	r3, r0, #4
 8000f6c:	b2db      	uxtb	r3, r3
    if (bufpg > 7) return;
 8000f6e:	2b08      	cmp	r3, #8
 8000f70:	f43f aee0 	beq.w	8000d34 <LCD_printbrightnes+0x90>
    dispbuffer[bufpg][bufcl + i] |= byte[i];
 8000f74:	eb05 13c3 	add.w	r3, r5, r3, lsl #7
 8000f78:	f101 0c04 	add.w	ip, r1, #4
 8000f7c:	f813 600c 	ldrb.w	r6, [r3, ip]
 8000f80:	f066 0637 	orn	r6, r6, #55	; 0x37
 8000f84:	f803 600c 	strb.w	r6, [r3, ip]
    if (bufcl > 127) bufpg++;
 8000f88:	1d43      	adds	r3, r0, #5
 8000f8a:	b2db      	uxtb	r3, r3
    if (bufpg > 7) return;
 8000f8c:	2b08      	cmp	r3, #8
 8000f8e:	f43f aed1 	beq.w	8000d34 <LCD_printbrightnes+0x90>
    dispbuffer[bufpg][bufcl + i] |= byte[i];
 8000f92:	eb05 13c3 	add.w	r3, r5, r3, lsl #7
 8000f96:	f101 0c05 	add.w	ip, r1, #5
 8000f9a:	f813 600c 	ldrb.w	r6, [r3, ip]
 8000f9e:	f066 065b 	orn	r6, r6, #91	; 0x5b
 8000fa2:	f803 600c 	strb.w	r6, [r3, ip]
    if (bufcl > 127) bufpg++;
 8000fa6:	1d83      	adds	r3, r0, #6
 8000fa8:	b2db      	uxtb	r3, r3
    if (bufpg > 7) return;
 8000faa:	2b08      	cmp	r3, #8
 8000fac:	f43f aec2 	beq.w	8000d34 <LCD_printbrightnes+0x90>
    dispbuffer[bufpg][bufcl + i] |= byte[i];
 8000fb0:	eb05 13c3 	add.w	r3, r5, r3, lsl #7
 8000fb4:	f101 0c06 	add.w	ip, r1, #6
 8000fb8:	f813 600c 	ldrb.w	r6, [r3, ip]
 8000fbc:	f066 064d 	orn	r6, r6, #77	; 0x4d
 8000fc0:	f803 600c 	strb.w	r6, [r3, ip]
    if (bufcl > 127) bufpg++;
 8000fc4:	1dc3      	adds	r3, r0, #7
 8000fc6:	b2db      	uxtb	r3, r3
    if (bufpg > 7) return;
 8000fc8:	2b08      	cmp	r3, #8
 8000fca:	f43f aeb3 	beq.w	8000d34 <LCD_printbrightnes+0x90>
    dispbuffer[bufpg][bufcl + i] |= byte[i];
 8000fce:	eb05 13c3 	add.w	r3, r5, r3, lsl #7
 8000fd2:	f101 0c07 	add.w	ip, r1, #7
 8000fd6:	f813 600c 	ldrb.w	r6, [r3, ip]
 8000fda:	f066 066e 	orn	r6, r6, #110	; 0x6e
 8000fde:	f803 600c 	strb.w	r6, [r3, ip]
    if (bufpg > 7) return;
 8000fe2:	e6a7      	b.n	8000d34 <LCD_printbrightnes+0x90>
 8000fe4:	2008      	movs	r0, #8
 8000fe6:	7020      	strb	r0, [r4, #0]
 8000fe8:	e78b      	b.n	8000f02 <LCD_printbrightnes+0x25e>
 8000fea:	4610      	mov	r0, r2
 8000fec:	7020      	strb	r0, [r4, #0]
 8000fee:	e788      	b.n	8000f02 <LCD_printbrightnes+0x25e>
 8000ff0:	20000151 	.word	0x20000151
 8000ff4:	20000154 	.word	0x20000154
 8000ff8:	20000136 	.word	0x20000136
 8000ffc:	20000150 	.word	0x20000150
 8001000:	08008444 	.word	0x08008444

08001004 <LCD_printbatlevel>:
  bufcl = cl;
 8001004:	4b55      	ldr	r3, [pc, #340]	; (800115c <LCD_printbatlevel+0x158>)

void LCD_printbatlevel(uint8 lvl, uint8 pg, uint8 cl) {
  if (lvl == 100) lvl = 5; // 100 -shutdown code
 8001006:	2864      	cmp	r0, #100	; 0x64
void LCD_printbatlevel(uint8 lvl, uint8 pg, uint8 cl) {
 8001008:	b570      	push	{r4, r5, r6, lr}
 800100a:	bf18      	it	ne
 800100c:	eb00 0080 	addne.w	r0, r0, r0, lsl #2
  bufpg = pg;
 8001010:	4c53      	ldr	r4, [pc, #332]	; (8001160 <LCD_printbatlevel+0x15c>)
  bufcl = cl;
 8001012:	701a      	strb	r2, [r3, #0]
  LCD_setpagecolumn(pg, cl);
  LCD_senddata(battary_2[lvl], 20);
 8001014:	4b53      	ldr	r3, [pc, #332]	; (8001164 <LCD_printbatlevel+0x160>)
 8001016:	bf18      	it	ne
 8001018:	0080      	lslne	r0, r0, #2
 800101a:	0615      	lsls	r5, r2, #24
  bufpg = pg;
 800101c:	7021      	strb	r1, [r4, #0]
  LCD_senddata(battary_2[lvl], 20);
 800101e:	eb03 0e00 	add.w	lr, r3, r0
  for (uint8 i = 0; i < N; i++) {
 8001022:	d414      	bmi.n	800104e <LCD_printbatlevel+0x4a>
 8001024:	4b50      	ldr	r3, [pc, #320]	; (8001168 <LCD_printbatlevel+0x164>)
 8001026:	eb02 12c1 	add.w	r2, r2, r1, lsl #7
 800102a:	f10e 30ff 	add.w	r0, lr, #4294967295
 800102e:	441a      	add	r2, r3
 8001030:	f10e 0e13 	add.w	lr, lr, #19
    dispbuffer[bufpg][bufcl + i] |= byte[i];
 8001034:	f812 cf01 	ldrb.w	ip, [r2, #1]!
 8001038:	f810 3f01 	ldrb.w	r3, [r0, #1]!
    if (bufpg > 7) return;
 800103c:	2907      	cmp	r1, #7
    dispbuffer[bufpg][bufcl + i] |= byte[i];
 800103e:	ea43 030c 	orr.w	r3, r3, ip
 8001042:	7013      	strb	r3, [r2, #0]
    if (bufpg > 7) return;
 8001044:	f200 8081 	bhi.w	800114a <LCD_printbatlevel+0x146>
  for (uint8 i = 0; i < N; i++) {
 8001048:	4586      	cmp	lr, r0
 800104a:	d1f3      	bne.n	8001034 <LCD_printbatlevel+0x30>
}
 800104c:	bd70      	pop	{r4, r5, r6, pc}
    dispbuffer[bufpg][bufcl + i] |= byte[i];
 800104e:	f813 c000 	ldrb.w	ip, [r3, r0]
 8001052:	4b46      	ldr	r3, [pc, #280]	; (800116c <LCD_printbatlevel+0x168>)
    if (bufcl > 127) bufpg++;
 8001054:	1c48      	adds	r0, r1, #1
    dispbuffer[bufpg][bufcl + i] |= byte[i];
 8001056:	eb03 15c1 	add.w	r5, r3, r1, lsl #7
 800105a:	5cae      	ldrb	r6, [r5, r2]
    if (bufcl > 127) bufpg++;
 800105c:	b2c0      	uxtb	r0, r0
    dispbuffer[bufpg][bufcl + i] |= byte[i];
 800105e:	ea4c 0c06 	orr.w	ip, ip, r6
    if (bufpg > 7) return;
 8001062:	2807      	cmp	r0, #7
    dispbuffer[bufpg][bufcl + i] |= byte[i];
 8001064:	f805 c002 	strb.w	ip, [r5, r2]
    if (bufpg > 7) return;
 8001068:	d874      	bhi.n	8001154 <LCD_printbatlevel+0x150>
    dispbuffer[bufpg][bufcl + i] |= byte[i];
 800106a:	eb03 10c0 	add.w	r0, r3, r0, lsl #7
 800106e:	1c55      	adds	r5, r2, #1
 8001070:	f810 c005 	ldrb.w	ip, [r0, r5]
 8001074:	f89e 6001 	ldrb.w	r6, [lr, #1]
 8001078:	ea4c 0c06 	orr.w	ip, ip, r6
 800107c:	f800 c005 	strb.w	ip, [r0, r5]
    if (bufcl > 127) bufpg++;
 8001080:	1c88      	adds	r0, r1, #2
 8001082:	b2c0      	uxtb	r0, r0
    if (bufpg > 7) return;
 8001084:	2808      	cmp	r0, #8
 8001086:	d062      	beq.n	800114e <LCD_printbatlevel+0x14a>
    dispbuffer[bufpg][bufcl + i] |= byte[i];
 8001088:	eb03 10c0 	add.w	r0, r3, r0, lsl #7
 800108c:	1c95      	adds	r5, r2, #2
 800108e:	f810 c005 	ldrb.w	ip, [r0, r5]
 8001092:	f89e 6002 	ldrb.w	r6, [lr, #2]
 8001096:	ea4c 0c06 	orr.w	ip, ip, r6
 800109a:	f800 c005 	strb.w	ip, [r0, r5]
    if (bufcl > 127) bufpg++;
 800109e:	1cc8      	adds	r0, r1, #3
 80010a0:	b2c0      	uxtb	r0, r0
    if (bufpg > 7) return;
 80010a2:	2808      	cmp	r0, #8
 80010a4:	d053      	beq.n	800114e <LCD_printbatlevel+0x14a>
    dispbuffer[bufpg][bufcl + i] |= byte[i];
 80010a6:	eb03 10c0 	add.w	r0, r3, r0, lsl #7
 80010aa:	1cd5      	adds	r5, r2, #3
 80010ac:	f810 c005 	ldrb.w	ip, [r0, r5]
 80010b0:	f89e 6003 	ldrb.w	r6, [lr, #3]
 80010b4:	ea4c 0c06 	orr.w	ip, ip, r6
 80010b8:	f800 c005 	strb.w	ip, [r0, r5]
    if (bufcl > 127) bufpg++;
 80010bc:	1d08      	adds	r0, r1, #4
 80010be:	b2c0      	uxtb	r0, r0
    if (bufpg > 7) return;
 80010c0:	2808      	cmp	r0, #8
 80010c2:	d044      	beq.n	800114e <LCD_printbatlevel+0x14a>
    dispbuffer[bufpg][bufcl + i] |= byte[i];
 80010c4:	eb03 10c0 	add.w	r0, r3, r0, lsl #7
 80010c8:	1d15      	adds	r5, r2, #4
 80010ca:	f810 c005 	ldrb.w	ip, [r0, r5]
 80010ce:	f89e 6004 	ldrb.w	r6, [lr, #4]
 80010d2:	ea4c 0c06 	orr.w	ip, ip, r6
 80010d6:	f800 c005 	strb.w	ip, [r0, r5]
    if (bufcl > 127) bufpg++;
 80010da:	1d48      	adds	r0, r1, #5
 80010dc:	b2c0      	uxtb	r0, r0
    if (bufpg > 7) return;
 80010de:	2808      	cmp	r0, #8
 80010e0:	d038      	beq.n	8001154 <LCD_printbatlevel+0x150>
    dispbuffer[bufpg][bufcl + i] |= byte[i];
 80010e2:	eb03 10c0 	add.w	r0, r3, r0, lsl #7
 80010e6:	1d55      	adds	r5, r2, #5
 80010e8:	f810 c005 	ldrb.w	ip, [r0, r5]
 80010ec:	f89e 6005 	ldrb.w	r6, [lr, #5]
 80010f0:	ea4c 0c06 	orr.w	ip, ip, r6
 80010f4:	f800 c005 	strb.w	ip, [r0, r5]
    if (bufcl > 127) bufpg++;
 80010f8:	1d88      	adds	r0, r1, #6
 80010fa:	b2c0      	uxtb	r0, r0
    if (bufpg > 7) return;
 80010fc:	2808      	cmp	r0, #8
 80010fe:	d029      	beq.n	8001154 <LCD_printbatlevel+0x150>
    dispbuffer[bufpg][bufcl + i] |= byte[i];
 8001100:	eb03 10c0 	add.w	r0, r3, r0, lsl #7
 8001104:	f102 0c06 	add.w	ip, r2, #6
 8001108:	f810 500c 	ldrb.w	r5, [r0, ip]
 800110c:	f89e 6006 	ldrb.w	r6, [lr, #6]
 8001110:	4335      	orrs	r5, r6
 8001112:	f800 500c 	strb.w	r5, [r0, ip]
    if (bufcl > 127) bufpg++;
 8001116:	1dc8      	adds	r0, r1, #7
 8001118:	b2c0      	uxtb	r0, r0
    if (bufpg > 7) return;
 800111a:	2808      	cmp	r0, #8
 800111c:	d017      	beq.n	800114e <LCD_printbatlevel+0x14a>
    dispbuffer[bufpg][bufcl + i] |= byte[i];
 800111e:	eb03 10c0 	add.w	r0, r3, r0, lsl #7
 8001122:	f102 0c07 	add.w	ip, r2, #7
 8001126:	f810 500c 	ldrb.w	r5, [r0, ip]
 800112a:	f89e 6007 	ldrb.w	r6, [lr, #7]
 800112e:	4335      	orrs	r5, r6
 8001130:	f800 500c 	strb.w	r5, [r0, ip]
    if (bufpg > 7) return;
 8001134:	b159      	cbz	r1, 800114e <LCD_printbatlevel+0x14a>
    if (bufcl > 127) bufpg++;
 8001136:	2108      	movs	r1, #8
    dispbuffer[bufpg][bufcl + i] |= byte[i];
 8001138:	3208      	adds	r2, #8
 800113a:	441a      	add	r2, r3
 800113c:	f892 3380 	ldrb.w	r3, [r2, #896]	; 0x380
 8001140:	f89e 0008 	ldrb.w	r0, [lr, #8]
 8001144:	4303      	orrs	r3, r0
 8001146:	f882 3380 	strb.w	r3, [r2, #896]	; 0x380
    if (bufpg > 7) return;
 800114a:	7021      	strb	r1, [r4, #0]
}
 800114c:	bd70      	pop	{r4, r5, r6, pc}
    if (bufpg > 7) return;
 800114e:	2108      	movs	r1, #8
 8001150:	7021      	strb	r1, [r4, #0]
 8001152:	e7fb      	b.n	800114c <LCD_printbatlevel+0x148>
 8001154:	4601      	mov	r1, r0
 8001156:	7021      	strb	r1, [r4, #0]
 8001158:	e7f8      	b.n	800114c <LCD_printbatlevel+0x148>
 800115a:	bf00      	nop
 800115c:	20000150 	.word	0x20000150
 8001160:	20000151 	.word	0x20000151
 8001164:	080083cc 	.word	0x080083cc
 8001168:	20000153 	.word	0x20000153
 800116c:	20000154 	.word	0x20000154

08001170 <LCD_printmenucoursor>:
  bufcl = cl;
 8001170:	4b54      	ldr	r3, [pc, #336]	; (80012c4 <LCD_printmenucoursor+0x154>)
 8001172:	060a      	lsls	r2, r1, #24

void LCD_printmenucoursor(uint8 pg, uint8 cl) {
 8001174:	b510      	push	{r4, lr}
  bufcl = cl;
 8001176:	7019      	strb	r1, [r3, #0]
  bufpg = pg;
 8001178:	4c53      	ldr	r4, [pc, #332]	; (80012c8 <LCD_printmenucoursor+0x158>)
    dispbuffer[bufpg][bufcl + i] |= byte[i];
 800117a:	4b54      	ldr	r3, [pc, #336]	; (80012cc <LCD_printmenucoursor+0x15c>)
 800117c:	d438      	bmi.n	80011f0 <LCD_printmenucoursor+0x80>
 800117e:	22ff      	movs	r2, #255	; 0xff
 8001180:	eb03 13c0 	add.w	r3, r3, r0, lsl #7
    if (bufpg > 7) return;
 8001184:	2807      	cmp	r0, #7
    dispbuffer[bufpg][bufcl + i] |= byte[i];
 8001186:	eb03 0c01 	add.w	ip, r3, r1
 800118a:	545a      	strb	r2, [r3, r1]
    if (bufpg > 7) return;
 800118c:	d82e      	bhi.n	80011ec <LCD_printmenucoursor+0x7c>
    dispbuffer[bufpg][bufcl + i] |= byte[i];
 800118e:	f88c 2001 	strb.w	r2, [ip, #1]
 8001192:	f101 0c02 	add.w	ip, r1, #2
 8001196:	f813 200c 	ldrb.w	r2, [r3, ip]
 800119a:	f042 027e 	orr.w	r2, r2, #126	; 0x7e
 800119e:	f803 200c 	strb.w	r2, [r3, ip]
 80011a2:	f101 0c03 	add.w	ip, r1, #3
 80011a6:	f813 200c 	ldrb.w	r2, [r3, ip]
 80011aa:	f042 027e 	orr.w	r2, r2, #126	; 0x7e
 80011ae:	f803 200c 	strb.w	r2, [r3, ip]
 80011b2:	f101 0c04 	add.w	ip, r1, #4
 80011b6:	f813 200c 	ldrb.w	r2, [r3, ip]
 80011ba:	f042 023c 	orr.w	r2, r2, #60	; 0x3c
 80011be:	f803 200c 	strb.w	r2, [r3, ip]
 80011c2:	f101 0c05 	add.w	ip, r1, #5
 80011c6:	f813 200c 	ldrb.w	r2, [r3, ip]
 80011ca:	f042 023c 	orr.w	r2, r2, #60	; 0x3c
 80011ce:	f803 200c 	strb.w	r2, [r3, ip]
 80011d2:	f101 0c06 	add.w	ip, r1, #6
 80011d6:	f813 200c 	ldrb.w	r2, [r3, ip]
 80011da:	3107      	adds	r1, #7
 80011dc:	f042 0218 	orr.w	r2, r2, #24
 80011e0:	f803 200c 	strb.w	r2, [r3, ip]
 80011e4:	5c5a      	ldrb	r2, [r3, r1]
 80011e6:	f042 0218 	orr.w	r2, r2, #24
 80011ea:	545a      	strb	r2, [r3, r1]
    if (bufpg > 7) return;
 80011ec:	7020      	strb	r0, [r4, #0]
  LCD_setpagecolumn(pg, cl);
  LCD_senddata(menu_pointer, 8);
}
 80011ee:	bd10      	pop	{r4, pc}
    dispbuffer[bufpg][bufcl + i] |= byte[i];
 80011f0:	f04f 0cff 	mov.w	ip, #255	; 0xff
 80011f4:	eb03 12c0 	add.w	r2, r3, r0, lsl #7
 80011f8:	f802 c001 	strb.w	ip, [r2, r1]
    if (bufcl > 127) bufpg++;
 80011fc:	1c42      	adds	r2, r0, #1
 80011fe:	b2d2      	uxtb	r2, r2
    if (bufpg > 7) return;
 8001200:	2a07      	cmp	r2, #7
 8001202:	d85c      	bhi.n	80012be <LCD_printmenucoursor+0x14e>
    dispbuffer[bufpg][bufcl + i] |= byte[i];
 8001204:	eb03 12c2 	add.w	r2, r3, r2, lsl #7
 8001208:	440a      	add	r2, r1
 800120a:	f882 c001 	strb.w	ip, [r2, #1]
    if (bufcl > 127) bufpg++;
 800120e:	1c82      	adds	r2, r0, #2
 8001210:	b2d2      	uxtb	r2, r2
    if (bufpg > 7) return;
 8001212:	2a08      	cmp	r2, #8
 8001214:	d050      	beq.n	80012b8 <LCD_printmenucoursor+0x148>
    dispbuffer[bufpg][bufcl + i] |= byte[i];
 8001216:	eb03 12c2 	add.w	r2, r3, r2, lsl #7
 800121a:	f101 0e02 	add.w	lr, r1, #2
 800121e:	f812 c00e 	ldrb.w	ip, [r2, lr]
 8001222:	f04c 0c7e 	orr.w	ip, ip, #126	; 0x7e
 8001226:	f802 c00e 	strb.w	ip, [r2, lr]
    if (bufcl > 127) bufpg++;
 800122a:	1cc2      	adds	r2, r0, #3
 800122c:	b2d2      	uxtb	r2, r2
    if (bufpg > 7) return;
 800122e:	2a08      	cmp	r2, #8
 8001230:	d045      	beq.n	80012be <LCD_printmenucoursor+0x14e>
    dispbuffer[bufpg][bufcl + i] |= byte[i];
 8001232:	eb03 12c2 	add.w	r2, r3, r2, lsl #7
 8001236:	f101 0e03 	add.w	lr, r1, #3
 800123a:	f812 c00e 	ldrb.w	ip, [r2, lr]
 800123e:	f04c 0c7e 	orr.w	ip, ip, #126	; 0x7e
 8001242:	f802 c00e 	strb.w	ip, [r2, lr]
    if (bufcl > 127) bufpg++;
 8001246:	1d02      	adds	r2, r0, #4
 8001248:	b2d2      	uxtb	r2, r2
    if (bufpg > 7) return;
 800124a:	2a08      	cmp	r2, #8
 800124c:	d034      	beq.n	80012b8 <LCD_printmenucoursor+0x148>
    dispbuffer[bufpg][bufcl + i] |= byte[i];
 800124e:	eb03 12c2 	add.w	r2, r3, r2, lsl #7
 8001252:	f101 0e04 	add.w	lr, r1, #4
 8001256:	f812 c00e 	ldrb.w	ip, [r2, lr]
 800125a:	f04c 0c3c 	orr.w	ip, ip, #60	; 0x3c
 800125e:	f802 c00e 	strb.w	ip, [r2, lr]
    if (bufcl > 127) bufpg++;
 8001262:	1d42      	adds	r2, r0, #5
 8001264:	b2d2      	uxtb	r2, r2
    if (bufpg > 7) return;
 8001266:	2a08      	cmp	r2, #8
 8001268:	d026      	beq.n	80012b8 <LCD_printmenucoursor+0x148>
    dispbuffer[bufpg][bufcl + i] |= byte[i];
 800126a:	eb03 12c2 	add.w	r2, r3, r2, lsl #7
 800126e:	f101 0e05 	add.w	lr, r1, #5
 8001272:	f812 c00e 	ldrb.w	ip, [r2, lr]
 8001276:	f04c 0c3c 	orr.w	ip, ip, #60	; 0x3c
 800127a:	f802 c00e 	strb.w	ip, [r2, lr]
    if (bufcl > 127) bufpg++;
 800127e:	1d82      	adds	r2, r0, #6
 8001280:	b2d2      	uxtb	r2, r2
    if (bufpg > 7) return;
 8001282:	2a08      	cmp	r2, #8
 8001284:	d018      	beq.n	80012b8 <LCD_printmenucoursor+0x148>
    dispbuffer[bufpg][bufcl + i] |= byte[i];
 8001286:	eb03 12c2 	add.w	r2, r3, r2, lsl #7
 800128a:	f101 0e06 	add.w	lr, r1, #6
 800128e:	f812 c00e 	ldrb.w	ip, [r2, lr]
 8001292:	f04c 0c18 	orr.w	ip, ip, #24
 8001296:	f802 c00e 	strb.w	ip, [r2, lr]
    if (bufcl > 127) bufpg++;
 800129a:	1dc2      	adds	r2, r0, #7
 800129c:	b2d2      	uxtb	r2, r2
    if (bufpg > 7) return;
 800129e:	2a08      	cmp	r2, #8
 80012a0:	d00a      	beq.n	80012b8 <LCD_printmenucoursor+0x148>
    dispbuffer[bufpg][bufcl + i] |= byte[i];
 80012a2:	3107      	adds	r1, #7
 80012a4:	eb03 13c2 	add.w	r3, r3, r2, lsl #7
 80012a8:	5c5a      	ldrb	r2, [r3, r1]
 80012aa:	f042 0218 	orr.w	r2, r2, #24
 80012ae:	545a      	strb	r2, [r3, r1]
    if (bufpg > 7) return;
 80012b0:	b110      	cbz	r0, 80012b8 <LCD_printmenucoursor+0x148>
 80012b2:	2007      	movs	r0, #7
 80012b4:	7020      	strb	r0, [r4, #0]
}
 80012b6:	bd10      	pop	{r4, pc}
 80012b8:	2008      	movs	r0, #8
 80012ba:	7020      	strb	r0, [r4, #0]
 80012bc:	bd10      	pop	{r4, pc}
    if (bufpg > 7) return;
 80012be:	4610      	mov	r0, r2
 80012c0:	e794      	b.n	80011ec <LCD_printmenucoursor+0x7c>
 80012c2:	bf00      	nop
 80012c4:	20000150 	.word	0x20000150
 80012c8:	20000151 	.word	0x20000151
 80012cc:	20000154 	.word	0x20000154

080012d0 <LCD_printbutselhint>:

void LCD_printbutselhint(uint8 hintnum, uint8 pg, uint8 cl) {
 80012d0:	b5f0      	push	{r4, r5, r6, r7, lr}
 80012d2:	2500      	movs	r5, #0
 80012d4:	4614      	mov	r4, r2
 80012d6:	4b12      	ldr	r3, [pc, #72]	; (8001320 <LCD_printbutselhint+0x50>)
 80012d8:	4f12      	ldr	r7, [pc, #72]	; (8001324 <LCD_printbutselhint+0x54>)
 80012da:	460e      	mov	r6, r1
 80012dc:	eb03 11c0 	add.w	r1, r3, r0, lsl #7
  dispbuffer[bufpg][bufcl] |= byte;
 80012e0:	2300      	movs	r3, #0
 80012e2:	eb06 0e05 	add.w	lr, r6, r5
 80012e6:	fa5f fe8e 	uxtb.w	lr, lr
 80012ea:	eb07 1ece 	add.w	lr, r7, lr, lsl #7
 80012ee:	18e0      	adds	r0, r4, r3
 80012f0:	b2c0      	uxtb	r0, r0
 80012f2:	f811 c023 	ldrb.w	ip, [r1, r3, lsl #2]
 80012f6:	f81e 2000 	ldrb.w	r2, [lr, r0]
  for (uint8 j = 0; j < 4; j++) {
    LCD_setpagecolumn(pg + j, cl);
    for (uint8 i = 0; i < 32; i++) LCD_writebyte(but_sel_hint[hintnum][(i * 4 + j)]);
 80012fa:	3301      	adds	r3, #1
  dispbuffer[bufpg][bufcl] |= byte;
 80012fc:	ea4c 0c02 	orr.w	ip, ip, r2
    for (uint8 i = 0; i < 32; i++) LCD_writebyte(but_sel_hint[hintnum][(i * 4 + j)]);
 8001300:	2b20      	cmp	r3, #32
  dispbuffer[bufpg][bufcl] |= byte;
 8001302:	f80e c000 	strb.w	ip, [lr, r0]
    for (uint8 i = 0; i < 32; i++) LCD_writebyte(but_sel_hint[hintnum][(i * 4 + j)]);
 8001306:	d1f2      	bne.n	80012ee <LCD_printbutselhint+0x1e>
  for (uint8 j = 0; j < 4; j++) {
 8001308:	3501      	adds	r5, #1
 800130a:	2d04      	cmp	r5, #4
 800130c:	f101 0101 	add.w	r1, r1, #1
 8001310:	d1e6      	bne.n	80012e0 <LCD_printbutselhint+0x10>
 8001312:	4a05      	ldr	r2, [pc, #20]	; (8001328 <LCD_printbutselhint+0x58>)
 8001314:	4b05      	ldr	r3, [pc, #20]	; (800132c <LCD_printbutselhint+0x5c>)
  bufcl++;
 8001316:	3420      	adds	r4, #32
    LCD_setpagecolumn(pg + j, cl);
 8001318:	3603      	adds	r6, #3
 800131a:	7014      	strb	r4, [r2, #0]
 800131c:	701e      	strb	r6, [r3, #0]
  }
}
 800131e:	bdf0      	pop	{r4, r5, r6, r7, pc}
 8001320:	080084bc 	.word	0x080084bc
 8001324:	20000154 	.word	0x20000154
 8001328:	20000150 	.word	0x20000150
 800132c:	20000151 	.word	0x20000151

08001330 <LCD_printvertline>:

void LCD_printvertline(uint8 linelength, uint8 startline, uint8 cl) {
  if ((linelength - startline) > 63) return;
 8001330:	1a43      	subs	r3, r0, r1
 8001332:	2b3f      	cmp	r3, #63	; 0x3f
 8001334:	dd00      	ble.n	8001338 <LCD_printvertline+0x8>
 8001336:	4770      	bx	lr
void LCD_printvertline(uint8 linelength, uint8 startline, uint8 cl) {
 8001338:	e92d 43f0 	stmdb	sp!, {r4, r5, r6, r7, r8, r9, lr}
  uint8 startpg = startline / 8;
  uint8 bitshifting = (startline % 8);
  uint8 lengthinpages = (linelength - (8 - bitshifting)) / 8;
 800133c:	f001 0c07 	and.w	ip, r1, #7
 8001340:	4696      	mov	lr, r2
  uint8 temp = (uint8) (0xFF << bitshifting);
 8001342:	25ff      	movs	r5, #255	; 0xff
  uint8 lengthinpages = (linelength - (8 - bitshifting)) / 8;
 8001344:	f1cc 0408 	rsb	r4, ip, #8
 8001348:	1b04      	subs	r4, r0, r4
 800134a:	4620      	mov	r0, r4
    dispbuffer[bufpg][bufcl + i] |= byte[i];
 800134c:	4a3f      	ldr	r2, [pc, #252]	; (800144c <LCD_printvertline+0x11c>)
  uint8 startpg = startline / 8;
 800134e:	08cb      	lsrs	r3, r1, #3
    dispbuffer[bufpg][bufcl + i] |= byte[i];
 8001350:	eb02 18c3 	add.w	r8, r2, r3, lsl #7
  bufcl = cl;
 8001354:	493e      	ldr	r1, [pc, #248]	; (8001450 <LCD_printvertline+0x120>)
    dispbuffer[bufpg][bufcl + i] |= byte[i];
 8001356:	f818 900e 	ldrb.w	r9, [r8, lr]
  uint8 lengthinpages = (linelength - (8 - bitshifting)) / 8;
 800135a:	2c00      	cmp	r4, #0
  bufcl = cl;
 800135c:	f881 e000 	strb.w	lr, [r1]
    if (bufcl > 127) bufpg++;
 8001360:	fa4f f78e 	sxtb.w	r7, lr
  uint8 temp = (uint8) (0xFF << bitshifting);
 8001364:	fa05 f10c 	lsl.w	r1, r5, ip
  uint8 lengthinpages = (linelength - (8 - bitshifting)) / 8;
 8001368:	bfb8      	it	lt
 800136a:	1de0      	addlt	r0, r4, #7
    dispbuffer[bufpg][bufcl + i] |= byte[i];
 800136c:	ea41 0109 	orr.w	r1, r1, r9
    if (bufcl > 127) bufpg++;
 8001370:	2f00      	cmp	r7, #0
    dispbuffer[bufpg][bufcl + i] |= byte[i];
 8001372:	f808 100e 	strb.w	r1, [r8, lr]
  bufpg = pg;
 8001376:	4e37      	ldr	r6, [pc, #220]	; (8001454 <LCD_printvertline+0x124>)
  uint8 lengthinpages = (linelength - (8 - bitshifting)) / 8;
 8001378:	f3c0 00c7 	ubfx	r0, r0, #3, #8
    if (bufcl > 127) bufpg++;
 800137c:	f103 0101 	add.w	r1, r3, #1
 8001380:	db27      	blt.n	80013d2 <LCD_printvertline+0xa2>
  LCD_setpagecolumn(startpg, cl);
  LCD_senddata(&temp, 1);
  temp = 0xFF;
  for (uint8 i = 0; i < lengthinpages; i++) {
 8001382:	2800      	cmp	r0, #0
 8001384:	d04c      	beq.n	8001420 <LCD_printvertline+0xf0>
 8001386:	460b      	mov	r3, r1
 8001388:	eb00 0801 	add.w	r8, r0, r1
 800138c:	fa5f fc88 	uxtb.w	ip, r8
 8001390:	1c58      	adds	r0, r3, #1
    dispbuffer[bufpg][bufcl + i] |= byte[i];
 8001392:	eb02 11c3 	add.w	r1, r2, r3, lsl #7
  for (uint8 i = 0; i < lengthinpages; i++) {
 8001396:	b2c3      	uxtb	r3, r0
 8001398:	4563      	cmp	r3, ip
    dispbuffer[bufpg][bufcl + i] |= byte[i];
 800139a:	f801 500e 	strb.w	r5, [r1, lr]
  for (uint8 i = 0; i < lengthinpages; i++) {
 800139e:	d1f7      	bne.n	8001390 <LCD_printvertline+0x60>
    LCD_setpagecolumn(startpg + 1 + i, cl);
    LCD_senddata(&temp, 1);
  }
  temp = 0xFF >> (8 - (linelength - (8 - bitshifting)) % 8);
 80013a0:	20ff      	movs	r0, #255	; 0xff
 80013a2:	4265      	negs	r5, r4
  LCD_setpagecolumn(startpg + 1 + lengthinpages, cl);
 80013a4:	fa5f f188 	uxtb.w	r1, r8
  temp = 0xFF >> (8 - (linelength - (8 - bitshifting)) % 8);
 80013a8:	f005 0507 	and.w	r5, r5, #7
 80013ac:	f004 0407 	and.w	r4, r4, #7
    dispbuffer[bufpg][bufcl + i] |= byte[i];
 80013b0:	eb02 13c1 	add.w	r3, r2, r1, lsl #7
  temp = 0xFF >> (8 - (linelength - (8 - bitshifting)) % 8);
 80013b4:	bf58      	it	pl
 80013b6:	426c      	negpl	r4, r5
    dispbuffer[bufpg][bufcl + i] |= byte[i];
 80013b8:	f813 200e 	ldrb.w	r2, [r3, lr]
  temp = 0xFF >> (8 - (linelength - (8 - bitshifting)) % 8);
 80013bc:	f1c4 0408 	rsb	r4, r4, #8
 80013c0:	4120      	asrs	r0, r4
    dispbuffer[bufpg][bufcl + i] |= byte[i];
 80013c2:	4310      	orrs	r0, r2
    if (bufcl > 127) bufpg++;
 80013c4:	2f00      	cmp	r7, #0
  bufpg = pg;
 80013c6:	7031      	strb	r1, [r6, #0]
    dispbuffer[bufpg][bufcl + i] |= byte[i];
 80013c8:	f803 000e 	strb.w	r0, [r3, lr]
    if (bufcl > 127) bufpg++;
 80013cc:	db24      	blt.n	8001418 <LCD_printvertline+0xe8>
  LCD_senddata(&temp, 1);
}
 80013ce:	e8bd 83f0 	ldmia.w	sp!, {r4, r5, r6, r7, r8, r9, pc}
  for (uint8 i = 0; i < lengthinpages; i++) {
 80013d2:	b178      	cbz	r0, 80013f4 <LCD_printvertline+0xc4>
 80013d4:	eb00 0801 	add.w	r8, r0, r1
 80013d8:	460b      	mov	r3, r1
 80013da:	fa5f f188 	uxtb.w	r1, r8
 80013de:	f103 0c01 	add.w	ip, r3, #1
    dispbuffer[bufpg][bufcl + i] |= byte[i];
 80013e2:	eb02 10c3 	add.w	r0, r2, r3, lsl #7
  for (uint8 i = 0; i < lengthinpages; i++) {
 80013e6:	fa5f f38c 	uxtb.w	r3, ip
 80013ea:	428b      	cmp	r3, r1
    dispbuffer[bufpg][bufcl + i] |= byte[i];
 80013ec:	f800 500e 	strb.w	r5, [r0, lr]
  for (uint8 i = 0; i < lengthinpages; i++) {
 80013f0:	d1f5      	bne.n	80013de <LCD_printvertline+0xae>
 80013f2:	e7d5      	b.n	80013a0 <LCD_printvertline+0x70>
  temp = 0xFF >> (8 - (linelength - (8 - bitshifting)) % 8);
 80013f4:	4260      	negs	r0, r4
 80013f6:	f000 0007 	and.w	r0, r0, #7
    dispbuffer[bufpg][bufcl + i] |= byte[i];
 80013fa:	eb02 13c1 	add.w	r3, r2, r1, lsl #7
  temp = 0xFF >> (8 - (linelength - (8 - bitshifting)) % 8);
 80013fe:	f004 0407 	and.w	r4, r4, #7
 8001402:	bf58      	it	pl
 8001404:	4244      	negpl	r4, r0
    dispbuffer[bufpg][bufcl + i] |= byte[i];
 8001406:	f813 200e 	ldrb.w	r2, [r3, lr]
  temp = 0xFF >> (8 - (linelength - (8 - bitshifting)) % 8);
 800140a:	f1c4 0008 	rsb	r0, r4, #8
 800140e:	fa45 f000 	asr.w	r0, r5, r0
    dispbuffer[bufpg][bufcl + i] |= byte[i];
 8001412:	4310      	orrs	r0, r2
 8001414:	f803 000e 	strb.w	r0, [r3, lr]
    if (bufcl > 127) bufpg++;
 8001418:	1c4b      	adds	r3, r1, #1
 800141a:	7033      	strb	r3, [r6, #0]
}
 800141c:	e8bd 83f0 	ldmia.w	sp!, {r4, r5, r6, r7, r8, r9, pc}
  LCD_setpagecolumn(startpg + 1 + lengthinpages, cl);
 8001420:	b2cb      	uxtb	r3, r1
  bufpg = pg;
 8001422:	7033      	strb	r3, [r6, #0]
    dispbuffer[bufpg][bufcl + i] |= byte[i];
 8001424:	eb02 13c3 	add.w	r3, r2, r3, lsl #7
  temp = 0xFF >> (8 - (linelength - (8 - bitshifting)) % 8);
 8001428:	4262      	negs	r2, r4
 800142a:	f002 0207 	and.w	r2, r2, #7
 800142e:	f004 0407 	and.w	r4, r4, #7
 8001432:	bf58      	it	pl
 8001434:	4254      	negpl	r4, r2
 8001436:	f1c4 0108 	rsb	r1, r4, #8
    dispbuffer[bufpg][bufcl + i] |= byte[i];
 800143a:	f813 200e 	ldrb.w	r2, [r3, lr]
  temp = 0xFF >> (8 - (linelength - (8 - bitshifting)) % 8);
 800143e:	fa45 f101 	asr.w	r1, r5, r1
    dispbuffer[bufpg][bufcl + i] |= byte[i];
 8001442:	4311      	orrs	r1, r2
 8001444:	f803 100e 	strb.w	r1, [r3, lr]
    if (bufcl > 127) bufpg++;
 8001448:	e7c1      	b.n	80013ce <LCD_printvertline+0x9e>
 800144a:	bf00      	nop
 800144c:	20000154 	.word	0x20000154
 8001450:	20000150 	.word	0x20000150
 8001454:	20000151 	.word	0x20000151

08001458 <LCD_printhorline>:

void LCD_printhorline(uint8 linelength, uint8 startstring, uint8 cl) {
  if ((linelength - cl) > 127) return;
 8001458:	1a83      	subs	r3, r0, r2
 800145a:	2b7f      	cmp	r3, #127	; 0x7f
 800145c:	dc2b      	bgt.n	80014b6 <LCD_printhorline+0x5e>
void LCD_printhorline(uint8 linelength, uint8 startstring, uint8 cl) {
 800145e:	e92d 41f0 	stmdb	sp!, {r4, r5, r6, r7, r8, lr}
  uint8 startpg = startstring / 8;
  uint8 bitshifting = (startstring % 8);
  uint8 temp = (uint8) (0x1 << bitshifting);
 8001462:	2501      	movs	r5, #1
  bufpg = pg;
 8001464:	4f14      	ldr	r7, [pc, #80]	; (80014b8 <LCD_printhorline+0x60>)
  bufcl = cl;
 8001466:	4e15      	ldr	r6, [pc, #84]	; (80014bc <LCD_printhorline+0x64>)
  uint8 temp = (uint8) (0x1 << bitshifting);
 8001468:	f001 0307 	and.w	r3, r1, #7
  uint8 startpg = startstring / 8;
 800146c:	08cc      	lsrs	r4, r1, #3
  uint8 temp = (uint8) (0x1 << bitshifting);
 800146e:	409d      	lsls	r5, r3
  bufpg = pg;
 8001470:	703c      	strb	r4, [r7, #0]
  bufcl = cl;
 8001472:	7032      	strb	r2, [r6, #0]
  uint8 temp = (uint8) (0x1 << bitshifting);
 8001474:	b2ed      	uxtb	r5, r5
  LCD_setpagecolumn(startpg, cl);
  for (uint8 i = 0; i < linelength; i++) {
 8001476:	b1e0      	cbz	r0, 80014b2 <LCD_printhorline+0x5a>
    dispbuffer[bufpg][bufcl + i] |= byte[i];
 8001478:	4613      	mov	r3, r2
 800147a:	4911      	ldr	r1, [pc, #68]	; (80014c0 <LCD_printhorline+0x68>)
    if (bufcl > 127) bufpg++;
 800147c:	f104 0801 	add.w	r8, r4, #1
    dispbuffer[bufpg][bufcl + i] |= byte[i];
 8001480:	eb01 1ec4 	add.w	lr, r1, r4, lsl #7
 8001484:	1881      	adds	r1, r0, r2
 8001486:	b2c9      	uxtb	r1, r1
 8001488:	f81e c003 	ldrb.w	ip, [lr, r3]
    if (bufcl > 127) bufpg++;
 800148c:	f013 0f80 	tst.w	r3, #128	; 0x80
    dispbuffer[bufpg][bufcl + i] |= byte[i];
 8001490:	ea45 0c0c 	orr.w	ip, r5, ip
 8001494:	f80e c003 	strb.w	ip, [lr, r3]
  for (uint8 i = 0; i < linelength; i++) {
 8001498:	f103 0301 	add.w	r3, r3, #1
 800149c:	b2db      	uxtb	r3, r3
    if (bufcl > 127) bufpg++;
 800149e:	bf14      	ite	ne
 80014a0:	46c4      	movne	ip, r8
  bufpg = pg;
 80014a2:	46a4      	moveq	ip, r4
  for (uint8 i = 0; i < linelength; i++) {
 80014a4:	4299      	cmp	r1, r3
 80014a6:	d1ef      	bne.n	8001488 <LCD_printhorline+0x30>
    LCD_setpagecolumn(startpg, cl + i);
 80014a8:	3a01      	subs	r2, #1
 80014aa:	4402      	add	r2, r0
 80014ac:	f887 c000 	strb.w	ip, [r7]
 80014b0:	7032      	strb	r2, [r6, #0]
    LCD_senddata(&temp, 1);
  }
}
 80014b2:	e8bd 81f0 	ldmia.w	sp!, {r4, r5, r6, r7, r8, pc}
 80014b6:	4770      	bx	lr
 80014b8:	20000151 	.word	0x20000151
 80014bc:	20000150 	.word	0x20000150
 80014c0:	20000154 	.word	0x20000154

080014c4 <LCD_printsprite>:
/*----------------------------------------------------------------------------*/

/*------------------------------GAME OBJECTS----------------------------------*/
void LCD_printsprite(int8 startline, int8 startcolumn, const tSprite * const Sprite) {
 80014c4:	e92d 4ff0 	stmdb	sp!, {r4, r5, r6, r7, r8, r9, sl, fp, lr}
 80014c8:	4605      	mov	r5, r0
  uint16 m = 0, mprev = 0;
  uint8 column_shift = 0;
  uint8 line_shift = (uint8)startline % 8;
  int8 pages_max = (int8)Sprite->pages;
  uint8 page_shift = 0;
  bufpg = (uint8)startline / 8;
 80014ca:	4cad      	ldr	r4, [pc, #692]	; (8001780 <LCD_printsprite+0x2bc>)
void LCD_printsprite(int8 startline, int8 startcolumn, const tSprite * const Sprite) {
 80014cc:	b08d      	sub	sp, #52	; 0x34
  uint8 line_shift = (uint8)startline % 8;
 80014ce:	b2c3      	uxtb	r3, r0
  bufpg = (uint8)startline / 8;
 80014d0:	f3c0 00c4 	ubfx	r0, r0, #3, #5
  int8 pages_max = (int8)Sprite->pages;
 80014d4:	f992 c000 	ldrsb.w	ip, [r2]
  bufpg = (uint8)startline / 8;
 80014d8:	9005      	str	r0, [sp, #20]
 80014da:	7020      	strb	r0, [r4, #0]
  if (startcolumn < 0) {
 80014dc:	2900      	cmp	r1, #0
  uint8 line_shift = (uint8)startline % 8;
 80014de:	f005 0007 	and.w	r0, r5, #7
 80014e2:	9000      	str	r0, [sp, #0]
  if (startcolumn < 0) {
 80014e4:	f2c0 8170 	blt.w	80017c8 <LCD_printsprite+0x304>
      
      m = (uint16)(-startcolumn) * Sprite->pages + page_shift;
    }
  }
  else {
    if(startline >= 0){
 80014e8:	2d00      	cmp	r5, #0
      bufcl = (uint8)startcolumn;
      columns_max = (((int16)startcolumn + (int16)Sprite->columns) > 127) ? (127 - startcolumn) : Sprite->columns;
 80014ea:	f892 b001 	ldrb.w	fp, [r2, #1]
    if(startline >= 0){
 80014ee:	f2c0 8088 	blt.w	8001602 <LCD_printsprite+0x13e>
      bufcl = (uint8)startcolumn;
 80014f2:	4ba4      	ldr	r3, [pc, #656]	; (8001784 <LCD_printsprite+0x2c0>)
 80014f4:	fa5f f981 	uxtb.w	r9, r1
 80014f8:	f883 9000 	strb.w	r9, [r3]
      columns_max = (((int16)startcolumn + (int16)Sprite->columns) > 127) ? (127 - startcolumn) : Sprite->columns;
 80014fc:	eb01 030b 	add.w	r3, r1, fp
 8001500:	2b7f      	cmp	r3, #127	; 0x7f
 8001502:	f340 8174 	ble.w	80017ee <LCD_printsprite+0x32a>
 8001506:	2300      	movs	r3, #0
      page_shift = (uint8)-startline/8 + 1;
      m = page_shift;
    }
  }
  
  switch (Sprite->direct) {
 8001508:	7a14      	ldrb	r4, [r2, #8]
 800150a:	4618      	mov	r0, r3
  uint8 column_shift = 0;
 800150c:	469e      	mov	lr, r3
      columns_max = (((int16)startcolumn + (int16)Sprite->columns) > 127) ? (127 - startcolumn) : Sprite->columns;
 800150e:	f1c1 0b7f 	rsb	fp, r1, #127	; 0x7f
  switch (Sprite->direct) {
 8001512:	9306      	str	r3, [sp, #24]
 8001514:	2c00      	cmp	r4, #0
 8001516:	f040 80a0 	bne.w	800165a <LCD_printsprite+0x196>
 800151a:	9b00      	ldr	r3, [sp, #0]
 800151c:	2b00      	cmp	r3, #0
 800151e:	bf0c      	ite	eq
 8001520:	4663      	moveq	r3, ip
 8001522:	f10c 0301 	addne.w	r3, ip, #1
          }
        }
      }
      break;
    case LINES_FIRST:
      for (uint8 i = 0; i < (line_shift ? (pages_max + 1) : pages_max); i++) {
 8001526:	2b00      	cmp	r3, #0
 8001528:	9306      	str	r3, [sp, #24]
 800152a:	dd67      	ble.n	80015fc <LCD_printsprite+0x138>
        for (uint8 j = 0; j < columns_max; j++) {
          if (i == 0) {
            dispbuffer[bufpg + i][bufcl + j] |= Sprite->sprite[j + column_shift] << line_shift;
          }
          if ((i > 0) && (i < pages_max)) {
            dispbuffer[bufpg + i][bufcl + j] |= (Sprite->sprite[(i - 1) * Sprite->columns + j + column_shift] >> (8 - line_shift)) | 
 800152c:	9b00      	ldr	r3, [sp, #0]
            dispbuffer[bufpg + i][bufcl + j] |= Sprite->sprite[j + column_shift] << line_shift;
 800152e:	9905      	ldr	r1, [sp, #20]
            dispbuffer[bufpg + i][bufcl + j] |= (Sprite->sprite[(i - 1) * Sprite->columns + j + column_shift] >> (8 - line_shift)) | 
 8001530:	f1c3 0308 	rsb	r3, r3, #8
 8001534:	9302      	str	r3, [sp, #8]
                                                (Sprite->sprite[i * Sprite->columns + j + column_shift] << line_shift);
          }
          if (i == pages_max) {
            dispbuffer[bufpg + i][bufcl + j] |= Sprite->sprite[(i - 1) * Sprite->columns + j + column_shift] >> (8 - line_shift);
 8001536:	f10c 33ff 	add.w	r3, ip, #4294967295
 800153a:	9304      	str	r3, [sp, #16]
            dispbuffer[bufpg + i][bufcl + j] |= Sprite->sprite[j + column_shift] << line_shift;
 800153c:	4b92      	ldr	r3, [pc, #584]	; (8001788 <LCD_printsprite+0x2c4>)
      for (uint8 i = 0; i < (line_shift ? (pages_max + 1) : pages_max); i++) {
 800153e:	4626      	mov	r6, r4
            dispbuffer[bufpg + i][bufcl + j] |= Sprite->sprite[j + column_shift] << line_shift;
 8001540:	eb03 18c1 	add.w	r8, r3, r1, lsl #7
      for (uint8 i = 0; i < (line_shift ? (pages_max + 1) : pages_max); i++) {
 8001544:	46c2      	mov	sl, r8
        for (uint8 j = 0; j < columns_max; j++) {
 8001546:	f1bb 0f00 	cmp.w	fp, #0
 800154a:	d051      	beq.n	80015f0 <LCD_printsprite+0x12c>
 800154c:	2300      	movs	r3, #0
            dispbuffer[bufpg + i][bufcl + j] |= (Sprite->sprite[(i - 1) * Sprite->columns + j + column_shift] >> (8 - line_shift)) | 
 800154e:	9905      	ldr	r1, [sp, #20]
 8001550:	198f      	adds	r7, r1, r6
 8001552:	498d      	ldr	r1, [pc, #564]	; (8001788 <LCD_printsprite+0x2c4>)
 8001554:	eb01 17c7 	add.w	r7, r1, r7, lsl #7
 8001558:	1e71      	subs	r1, r6, #1
 800155a:	9103      	str	r1, [sp, #12]
        for (uint8 j = 0; j < columns_max; j++) {
 800155c:	46b8      	mov	r8, r7
 800155e:	4619      	mov	r1, r3
 8001560:	e020      	b.n	80015a4 <LCD_printsprite+0xe0>
            dispbuffer[bufpg + i][bufcl + j] |= Sprite->sprite[j + column_shift] << line_shift;
 8001562:	6850      	ldr	r0, [r2, #4]
 8001564:	9f00      	ldr	r7, [sp, #0]
 8001566:	4408      	add	r0, r1
 8001568:	f810 000e 	ldrb.w	r0, [r0, lr]
 800156c:	40b8      	lsls	r0, r7
 800156e:	f81a 7005 	ldrb.w	r7, [sl, r5]
 8001572:	4338      	orrs	r0, r7
 8001574:	f80a 0005 	strb.w	r0, [sl, r5]
          if (i == pages_max) {
 8001578:	45b4      	cmp	ip, r6
 800157a:	d10e      	bne.n	800159a <LCD_printsprite+0xd6>
            dispbuffer[bufpg + i][bufcl + j] |= Sprite->sprite[(i - 1) * Sprite->columns + j + column_shift] >> (8 - line_shift);
 800157c:	7855      	ldrb	r5, [r2, #1]
 800157e:	9804      	ldr	r0, [sp, #16]
 8001580:	fb05 e500 	mla	r5, r5, r0, lr
 8001584:	6850      	ldr	r0, [r2, #4]
 8001586:	4408      	add	r0, r1
 8001588:	5c28      	ldrb	r0, [r5, r0]
 800158a:	9d02      	ldr	r5, [sp, #8]
 800158c:	4449      	add	r1, r9
 800158e:	4128      	asrs	r0, r5
 8001590:	f818 5001 	ldrb.w	r5, [r8, r1]
 8001594:	4328      	orrs	r0, r5
 8001596:	f808 0001 	strb.w	r0, [r8, r1]
        for (uint8 j = 0; j < columns_max; j++) {
 800159a:	3301      	adds	r3, #1
 800159c:	b2db      	uxtb	r3, r3
 800159e:	455b      	cmp	r3, fp
 80015a0:	4619      	mov	r1, r3
 80015a2:	da25      	bge.n	80015f0 <LCD_printsprite+0x12c>
            dispbuffer[bufpg + i][bufcl + j] |= Sprite->sprite[j + column_shift] << line_shift;
 80015a4:	eb09 0501 	add.w	r5, r9, r1
          if (i == 0) {
 80015a8:	2c00      	cmp	r4, #0
 80015aa:	d0da      	beq.n	8001562 <LCD_printsprite+0x9e>
            dispbuffer[bufpg + i][bufcl + j] |= (Sprite->sprite[(i - 1) * Sprite->columns + j + column_shift] >> (8 - line_shift)) | 
 80015ac:	eb09 0001 	add.w	r0, r9, r1
          if ((i > 0) && (i < pages_max)) {
 80015b0:	45b4      	cmp	ip, r6
            dispbuffer[bufpg + i][bufcl + j] |= (Sprite->sprite[(i - 1) * Sprite->columns + j + column_shift] >> (8 - line_shift)) | 
 80015b2:	9001      	str	r0, [sp, #4]
          if ((i > 0) && (i < pages_max)) {
 80015b4:	dde0      	ble.n	8001578 <LCD_printsprite+0xb4>
            dispbuffer[bufpg + i][bufcl + j] |= (Sprite->sprite[(i - 1) * Sprite->columns + j + column_shift] >> (8 - line_shift)) | 
 80015b6:	7850      	ldrb	r0, [r2, #1]
 80015b8:	9f03      	ldr	r7, [sp, #12]
 80015ba:	6855      	ldr	r5, [r2, #4]
 80015bc:	fb00 f707 	mul.w	r7, r0, r7
                                                (Sprite->sprite[i * Sprite->columns + j + column_shift] << line_shift);
 80015c0:	4428      	add	r0, r5
 80015c2:	4438      	add	r0, r7
            dispbuffer[bufpg + i][bufcl + j] |= (Sprite->sprite[(i - 1) * Sprite->columns + j + column_shift] >> (8 - line_shift)) | 
 80015c4:	443d      	add	r5, r7
                                                (Sprite->sprite[i * Sprite->columns + j + column_shift] << line_shift);
 80015c6:	4470      	add	r0, lr
            dispbuffer[bufpg + i][bufcl + j] |= (Sprite->sprite[(i - 1) * Sprite->columns + j + column_shift] >> (8 - line_shift)) | 
 80015c8:	4475      	add	r5, lr
 80015ca:	5c6d      	ldrb	r5, [r5, r1]
                                                (Sprite->sprite[i * Sprite->columns + j + column_shift] << line_shift);
 80015cc:	5c41      	ldrb	r1, [r0, r1]
            dispbuffer[bufpg + i][bufcl + j] |= (Sprite->sprite[(i - 1) * Sprite->columns + j + column_shift] >> (8 - line_shift)) | 
 80015ce:	9802      	ldr	r0, [sp, #8]
        for (uint8 j = 0; j < columns_max; j++) {
 80015d0:	3301      	adds	r3, #1
            dispbuffer[bufpg + i][bufcl + j] |= (Sprite->sprite[(i - 1) * Sprite->columns + j + column_shift] >> (8 - line_shift)) | 
 80015d2:	4105      	asrs	r5, r0
                                                (Sprite->sprite[i * Sprite->columns + j + column_shift] << line_shift);
 80015d4:	9800      	ldr	r0, [sp, #0]
        for (uint8 j = 0; j < columns_max; j++) {
 80015d6:	b2db      	uxtb	r3, r3
                                                (Sprite->sprite[i * Sprite->columns + j + column_shift] << line_shift);
 80015d8:	4081      	lsls	r1, r0
            dispbuffer[bufpg + i][bufcl + j] |= (Sprite->sprite[(i - 1) * Sprite->columns + j + column_shift] >> (8 - line_shift)) | 
 80015da:	9801      	ldr	r0, [sp, #4]
 80015dc:	430d      	orrs	r5, r1
 80015de:	f818 1000 	ldrb.w	r1, [r8, r0]
        for (uint8 j = 0; j < columns_max; j++) {
 80015e2:	455b      	cmp	r3, fp
            dispbuffer[bufpg + i][bufcl + j] |= (Sprite->sprite[(i - 1) * Sprite->columns + j + column_shift] >> (8 - line_shift)) | 
 80015e4:	ea45 0501 	orr.w	r5, r5, r1
 80015e8:	f808 5000 	strb.w	r5, [r8, r0]
        for (uint8 j = 0; j < columns_max; j++) {
 80015ec:	4619      	mov	r1, r3
 80015ee:	dbd9      	blt.n	80015a4 <LCD_printsprite+0xe0>
      for (uint8 i = 0; i < (line_shift ? (pages_max + 1) : pages_max); i++) {
 80015f0:	9b06      	ldr	r3, [sp, #24]
 80015f2:	3401      	adds	r4, #1
 80015f4:	b2e4      	uxtb	r4, r4
 80015f6:	429c      	cmp	r4, r3
 80015f8:	4626      	mov	r6, r4
 80015fa:	dba4      	blt.n	8001546 <LCD_printsprite+0x82>
          }
        }
      }
      break;
  }
}
 80015fc:	b00d      	add	sp, #52	; 0x34
 80015fe:	e8bd 8ff0 	ldmia.w	sp!, {r4, r5, r6, r7, r8, r9, sl, fp, pc}
      bufcl = (uint8)startcolumn;
 8001602:	4860      	ldr	r0, [pc, #384]	; (8001784 <LCD_printsprite+0x2c0>)
 8001604:	fa5f f981 	uxtb.w	r9, r1
 8001608:	f880 9000 	strb.w	r9, [r0]
      columns_max = (((int16)startcolumn + (int16)Sprite->columns) > 127) ? (127 - startcolumn) : Sprite->columns;
 800160c:	eb01 000b 	add.w	r0, r1, fp
 8001610:	287f      	cmp	r0, #127	; 0x7f
 8001612:	bfc8      	it	gt
 8001614:	f1c1 0b7f 	rsbgt	fp, r1, #127	; 0x7f
      bufpg = 0;
 8001618:	2100      	movs	r1, #0
      line_shift = 8 - (uint8)-startline % 8;
 800161a:	425b      	negs	r3, r3
      bufpg = 0;
 800161c:	7021      	strb	r1, [r4, #0]
      line_shift = 8 - (uint8)-startline % 8;
 800161e:	f003 0107 	and.w	r1, r3, #7
 8001622:	b2db      	uxtb	r3, r3
      page_shift = (uint8)-startline/8 + 1;
 8001624:	08d8      	lsrs	r0, r3, #3
      m = page_shift;
 8001626:	2300      	movs	r3, #0
      line_shift = 8 - (uint8)-startline % 8;
 8001628:	f1c1 0108 	rsb	r1, r1, #8
 800162c:	b2c9      	uxtb	r1, r1
 800162e:	9100      	str	r1, [sp, #0]
      pages_max = (int8)Sprite->pages + startline/8 - 1;
 8001630:	4629      	mov	r1, r5
  uint8 column_shift = 0;
 8001632:	469e      	mov	lr, r3
      pages_max = (int8)Sprite->pages + startline/8 - 1;
 8001634:	f892 c000 	ldrb.w	ip, [r2]
 8001638:	2d00      	cmp	r5, #0
      m = page_shift;
 800163a:	f100 0001 	add.w	r0, r0, #1
      pages_max = (int8)Sprite->pages + startline/8 - 1;
 800163e:	f10c 3cff 	add.w	ip, ip, #4294967295
 8001642:	bfb8      	it	lt
 8001644:	1de9      	addlt	r1, r5, #7
      m = page_shift;
 8001646:	e9cd 3005 	strd	r3, r0, [sp, #20]
      pages_max = (int8)Sprite->pages + startline/8 - 1;
 800164a:	eb0c 0ce1 	add.w	ip, ip, r1, asr #3
 800164e:	fa4f fc8c 	sxtb.w	ip, ip
  switch (Sprite->direct) {
 8001652:	7a14      	ldrb	r4, [r2, #8]
 8001654:	2c00      	cmp	r4, #0
 8001656:	f43f af60 	beq.w	800151a <LCD_printsprite+0x56>
 800165a:	2c01      	cmp	r4, #1
 800165c:	d1ce      	bne.n	80015fc <LCD_printsprite+0x138>
      for (uint8 j = 0; j < columns_max; j++) {
 800165e:	f1bb 0f00 	cmp.w	fp, #0
 8001662:	d0cb      	beq.n	80015fc <LCD_printsprite+0x138>
 8001664:	f04f 0800 	mov.w	r8, #0
 8001668:	9c00      	ldr	r4, [sp, #0]
            if((bufpg + i) < 8 && (bufcl + j) <= 127) dispbuffer[bufpg + i][bufcl + j] |= Sprite->sprite[mprev + page_shift * j] >> (8 - line_shift);
 800166a:	9b05      	ldr	r3, [sp, #20]
 800166c:	4544      	cmp	r4, r8
 800166e:	bf0c      	ite	eq
 8001670:	4667      	moveq	r7, ip
 8001672:	f10c 0701 	addne.w	r7, ip, #1
 8001676:	4c44      	ldr	r4, [pc, #272]	; (8001788 <LCD_printsprite+0x2c4>)
 8001678:	eb03 010c 	add.w	r1, r3, ip
 800167c:	9102      	str	r1, [sp, #8]
 800167e:	eb04 11c1 	add.w	r1, r4, r1, lsl #7
 8001682:	9109      	str	r1, [sp, #36]	; 0x24
  uint16 m = 0, mprev = 0;
 8001684:	4646      	mov	r6, r8
              if((bufpg + i) < 8 && (bufcl + j) <= 127)  dispbuffer[bufpg + i][bufcl + j] |= (Sprite->sprite[mprev + page_shift * j] >> (8 - line_shift))|
 8001686:	eb04 11c3 	add.w	r1, r4, r3, lsl #7
 800168a:	469e      	mov	lr, r3
      for (uint8 j = 0; j < columns_max; j++) {
 800168c:	4644      	mov	r4, r8
 800168e:	e9cd 9b07 	strd	r9, fp, [sp, #28]
              if((bufpg + i) < 8 && (bufcl + j) <= 127)  dispbuffer[bufpg + i][bufcl + j] |= (Sprite->sprite[mprev + page_shift * j] >> (8 - line_shift))|
 8001692:	910a      	str	r1, [sp, #40]	; 0x28
            if((bufpg + i) < 8 && (bufcl + j) <= 127) dispbuffer[bufpg + i][bufcl + j] |= (Sprite->sprite[mprev + page_shift * j] >> (8 - line_shift))| 
 8001694:	9b06      	ldr	r3, [sp, #24]
        for (uint8 i = 0; i < (line_shift ? (pages_max + 1) : pages_max); i++) {
 8001696:	2f00      	cmp	r7, #0
            if((bufpg + i) < 8 && (bufcl + j) <= 127) dispbuffer[bufpg + i][bufcl + j] |= (Sprite->sprite[mprev + page_shift * j] >> (8 - line_shift))| 
 8001698:	fb03 f904 	mul.w	r9, r3, r4
 800169c:	9b07      	ldr	r3, [sp, #28]
 800169e:	441c      	add	r4, r3
 80016a0:	f109 33ff 	add.w	r3, r9, #4294967295
 80016a4:	9305      	str	r3, [sp, #20]
        for (uint8 i = 0; i < (line_shift ? (pages_max + 1) : pages_max); i++) {
 80016a6:	dd2b      	ble.n	8001700 <LCD_printsprite+0x23c>
 80016a8:	2300      	movs	r3, #0
            if((bufpg + i) < 8 && (bufcl + j) <= 127) dispbuffer[bufpg + i][bufcl + j] |= (Sprite->sprite[mprev + page_shift * j] >> (8 - line_shift))| 
 80016aa:	9900      	ldr	r1, [sp, #0]
        for (uint8 i = 0; i < (line_shift ? (pages_max + 1) : pages_max); i++) {
 80016ac:	46c2      	mov	sl, r8
            if((bufpg + i) < 8 && (bufcl + j) <= 127) dispbuffer[bufpg + i][bufcl + j] |= (Sprite->sprite[mprev + page_shift * j] >> (8 - line_shift))| 
 80016ae:	f1c1 0108 	rsb	r1, r1, #8
 80016b2:	9103      	str	r1, [sp, #12]
            if((bufpg + i) < 8 && (bufcl + j) <= 127) dispbuffer[bufpg + i][bufcl + j] |= Sprite->sprite[mprev + page_shift * j] >> (8 - line_shift);
 80016b4:	9909      	ldr	r1, [sp, #36]	; 0x24
        for (uint8 i = 0; i < (line_shift ? (pages_max + 1) : pages_max); i++) {
 80016b6:	9201      	str	r2, [sp, #4]
            if((bufpg + i) < 8 && (bufcl + j) <= 127) dispbuffer[bufpg + i][bufcl + j] |= Sprite->sprite[mprev + page_shift * j] >> (8 - line_shift);
 80016b8:	4421      	add	r1, r4
 80016ba:	9104      	str	r1, [sp, #16]
              if((bufpg + i) < 8 && (bufcl + j) <= 127)  dispbuffer[bufpg + i][bufcl + j] |= (Sprite->sprite[mprev + page_shift * j] >> (8 - line_shift))|
 80016bc:	990a      	ldr	r1, [sp, #40]	; 0x28
 80016be:	eb01 0b04 	add.w	fp, r1, r4
        for (uint8 i = 0; i < (line_shift ? (pages_max + 1) : pages_max); i++) {
 80016c2:	4619      	mov	r1, r3
          if (i == 0) {
 80016c4:	bb3b      	cbnz	r3, 8001716 <LCD_printsprite+0x252>
            if(startline >= 0){ 
 80016c6:	2d00      	cmp	r5, #0
 80016c8:	db60      	blt.n	800178c <LCD_printsprite+0x2c8>
              if((bufpg + i) < 8 && (bufcl + j) <= 127)  dispbuffer[bufpg + i][bufcl + j] |= Sprite->sprite[m] << line_shift;
 80016ca:	f1be 0f07 	cmp.w	lr, #7
 80016ce:	d80c      	bhi.n	80016ea <LCD_printsprite+0x226>
 80016d0:	2c7f      	cmp	r4, #127	; 0x7f
 80016d2:	d80a      	bhi.n	80016ea <LCD_printsprite+0x226>
 80016d4:	9a01      	ldr	r2, [sp, #4]
 80016d6:	f89b 8000 	ldrb.w	r8, [fp]
 80016da:	6856      	ldr	r6, [r2, #4]
 80016dc:	9a00      	ldr	r2, [sp, #0]
 80016de:	5c36      	ldrb	r6, [r6, r0]
 80016e0:	4096      	lsls	r6, r2
 80016e2:	ea46 0608 	orr.w	r6, r6, r8
 80016e6:	f88b 6000 	strb.w	r6, [fp]
              m++;
 80016ea:	4606      	mov	r6, r0
 80016ec:	3001      	adds	r0, #1
          if (i == pages_max) {
 80016ee:	458c      	cmp	ip, r1
 80016f0:	d033      	beq.n	800175a <LCD_printsprite+0x296>
        for (uint8 i = 0; i < (line_shift ? (pages_max + 1) : pages_max); i++) {
 80016f2:	3301      	adds	r3, #1
 80016f4:	b2db      	uxtb	r3, r3
 80016f6:	42bb      	cmp	r3, r7
 80016f8:	4619      	mov	r1, r3
 80016fa:	dbe3      	blt.n	80016c4 <LCD_printsprite+0x200>
 80016fc:	46d0      	mov	r8, sl
 80016fe:	9a01      	ldr	r2, [sp, #4]
      for (uint8 j = 0; j < columns_max; j++) {
 8001700:	9b08      	ldr	r3, [sp, #32]
 8001702:	f108 0801 	add.w	r8, r8, #1
 8001706:	fa5f f888 	uxtb.w	r8, r8
 800170a:	4598      	cmp	r8, r3
 800170c:	4644      	mov	r4, r8
 800170e:	dbc1      	blt.n	8001694 <LCD_printsprite+0x1d0>
}
 8001710:	b00d      	add	sp, #52	; 0x34
 8001712:	e8bd 8ff0 	ldmia.w	sp!, {r4, r5, r6, r7, r8, r9, sl, fp, pc}
          if ((i > 0) && (i < pages_max)) {
 8001716:	458c      	cmp	ip, r1
 8001718:	dde9      	ble.n	80016ee <LCD_printsprite+0x22a>
            if((bufpg + i) < 8 && (bufcl + j) <= 127) dispbuffer[bufpg + i][bufcl + j] |= (Sprite->sprite[mprev + page_shift * j] >> (8 - line_shift))| 
 800171a:	4471      	add	r1, lr
 800171c:	2907      	cmp	r1, #7
 800171e:	dc19      	bgt.n	8001754 <LCD_printsprite+0x290>
 8001720:	2c7f      	cmp	r4, #127	; 0x7f
 8001722:	d817      	bhi.n	8001754 <LCD_printsprite+0x290>
 8001724:	4a18      	ldr	r2, [pc, #96]	; (8001788 <LCD_printsprite+0x2c4>)
 8001726:	eb02 11c1 	add.w	r1, r2, r1, lsl #7
 800172a:	9a01      	ldr	r2, [sp, #4]
 800172c:	f8d2 8004 	ldr.w	r8, [r2, #4]
 8001730:	9a03      	ldr	r2, [sp, #12]
 8001732:	4446      	add	r6, r8
 8001734:	f816 6009 	ldrb.w	r6, [r6, r9]
                                                                                          (Sprite->sprite[m + page_shift * j] << line_shift);
 8001738:	4480      	add	r8, r0
 800173a:	f818 8009 	ldrb.w	r8, [r8, r9]
            if((bufpg + i) < 8 && (bufcl + j) <= 127) dispbuffer[bufpg + i][bufcl + j] |= (Sprite->sprite[mprev + page_shift * j] >> (8 - line_shift))| 
 800173e:	4116      	asrs	r6, r2
                                                                                          (Sprite->sprite[m + page_shift * j] << line_shift);
 8001740:	9a00      	ldr	r2, [sp, #0]
 8001742:	fa08 f802 	lsl.w	r8, r8, r2
            if((bufpg + i) < 8 && (bufcl + j) <= 127) dispbuffer[bufpg + i][bufcl + j] |= (Sprite->sprite[mprev + page_shift * j] >> (8 - line_shift))| 
 8001746:	ea46 0608 	orr.w	r6, r6, r8
 800174a:	f811 8004 	ldrb.w	r8, [r1, r4]
 800174e:	ea46 0608 	orr.w	r6, r6, r8
 8001752:	550e      	strb	r6, [r1, r4]
            m++;
 8001754:	4606      	mov	r6, r0
 8001756:	3001      	adds	r0, #1
 8001758:	e7cb      	b.n	80016f2 <LCD_printsprite+0x22e>
            if((bufpg + i) < 8 && (bufcl + j) <= 127) dispbuffer[bufpg + i][bufcl + j] |= Sprite->sprite[mprev + page_shift * j] >> (8 - line_shift);
 800175a:	9902      	ldr	r1, [sp, #8]
 800175c:	2907      	cmp	r1, #7
 800175e:	dcc8      	bgt.n	80016f2 <LCD_printsprite+0x22e>
 8001760:	2c7f      	cmp	r4, #127	; 0x7f
 8001762:	d8c6      	bhi.n	80016f2 <LCD_printsprite+0x22e>
 8001764:	9a01      	ldr	r2, [sp, #4]
 8001766:	6851      	ldr	r1, [r2, #4]
 8001768:	9a03      	ldr	r2, [sp, #12]
 800176a:	4431      	add	r1, r6
 800176c:	f811 1009 	ldrb.w	r1, [r1, r9]
 8001770:	4111      	asrs	r1, r2
 8001772:	9a04      	ldr	r2, [sp, #16]
 8001774:	f892 8000 	ldrb.w	r8, [r2]
 8001778:	ea41 0108 	orr.w	r1, r1, r8
 800177c:	7011      	strb	r1, [r2, #0]
 800177e:	e7b8      	b.n	80016f2 <LCD_printsprite+0x22e>
 8001780:	20000151 	.word	0x20000151
 8001784:	20000150 	.word	0x20000150
 8001788:	20000154 	.word	0x20000154
              if((bufpg + i) < 8 && (bufcl + j) <= 127)  dispbuffer[bufpg + i][bufcl + j] |= (Sprite->sprite[mprev + page_shift * j] >> (8 - line_shift))|
 800178c:	f1be 0f07 	cmp.w	lr, #7
 8001790:	d8ab      	bhi.n	80016ea <LCD_printsprite+0x226>
 8001792:	2c7f      	cmp	r4, #127	; 0x7f
 8001794:	d8a9      	bhi.n	80016ea <LCD_printsprite+0x226>
 8001796:	9a01      	ldr	r2, [sp, #4]
 8001798:	9e05      	ldr	r6, [sp, #20]
 800179a:	f8d2 8004 	ldr.w	r8, [r2, #4]
 800179e:	f89b 2000 	ldrb.w	r2, [fp]
 80017a2:	4446      	add	r6, r8
 80017a4:	5c36      	ldrb	r6, [r6, r0]
 80017a6:	920b      	str	r2, [sp, #44]	; 0x2c
 80017a8:	9a03      	ldr	r2, [sp, #12]
                                                                                             (Sprite->sprite[m + page_shift * j] << line_shift);
 80017aa:	4480      	add	r8, r0
 80017ac:	f818 8009 	ldrb.w	r8, [r8, r9]
              if((bufpg + i) < 8 && (bufcl + j) <= 127)  dispbuffer[bufpg + i][bufcl + j] |= (Sprite->sprite[mprev + page_shift * j] >> (8 - line_shift))|
 80017b0:	4116      	asrs	r6, r2
                                                                                             (Sprite->sprite[m + page_shift * j] << line_shift);
 80017b2:	9a00      	ldr	r2, [sp, #0]
 80017b4:	fa08 f802 	lsl.w	r8, r8, r2
              if((bufpg + i) < 8 && (bufcl + j) <= 127)  dispbuffer[bufpg + i][bufcl + j] |= (Sprite->sprite[mprev + page_shift * j] >> (8 - line_shift))|
 80017b8:	9a0b      	ldr	r2, [sp, #44]	; 0x2c
 80017ba:	ea46 0808 	orr.w	r8, r6, r8
 80017be:	ea48 0802 	orr.w	r8, r8, r2
 80017c2:	f88b 8000 	strb.w	r8, [fp]
 80017c6:	e790      	b.n	80016ea <LCD_printsprite+0x226>
    if(startline >= 0) {
 80017c8:	2d00      	cmp	r5, #0
 80017ca:	db15      	blt.n	80017f8 <LCD_printsprite+0x334>
      bufcl = 0;
 80017cc:	2300      	movs	r3, #0
 80017ce:	4699      	mov	r9, r3
 80017d0:	481b      	ldr	r0, [pc, #108]	; (8001840 <LCD_printsprite+0x37c>)
 80017d2:	f8cd 9018 	str.w	r9, [sp, #24]
 80017d6:	7003      	strb	r3, [r0, #0]
      columns_max = (int16)Sprite->columns + (int16)startcolumn;
 80017d8:	7853      	ldrb	r3, [r2, #1]
      m = (uint16)(-startcolumn) * Sprite->pages;
 80017da:	7810      	ldrb	r0, [r2, #0]
      columns_max = (int16)Sprite->columns + (int16)startcolumn;
 80017dc:	440b      	add	r3, r1
      m = (uint16)(-startcolumn) * Sprite->pages;
 80017de:	4249      	negs	r1, r1
 80017e0:	fb01 f000 	mul.w	r0, r1, r0
 80017e4:	ea23 7be3 	bic.w	fp, r3, r3, asr #31
      column_shift = (uint8)(-startcolumn);
 80017e8:	fa5f fe81 	uxtb.w	lr, r1
 80017ec:	e731      	b.n	8001652 <LCD_printsprite+0x18e>
 80017ee:	2300      	movs	r3, #0
 80017f0:	4618      	mov	r0, r3
  uint8 column_shift = 0;
 80017f2:	469e      	mov	lr, r3
 80017f4:	9306      	str	r3, [sp, #24]
 80017f6:	e72c      	b.n	8001652 <LCD_printsprite+0x18e>
      bufcl = 0;
 80017f8:	2000      	movs	r0, #0
      m = (uint16)(-startcolumn) * Sprite->pages + page_shift;
 80017fa:	4681      	mov	r9, r0
      bufpg = 0;
 80017fc:	7020      	strb	r0, [r4, #0]
      bufcl = 0;
 80017fe:	4c10      	ldr	r4, [pc, #64]	; (8001840 <LCD_printsprite+0x37c>)
      line_shift = 8 - (uint8)-startline % 8;
 8001800:	425b      	negs	r3, r3
      bufcl = 0;
 8001802:	7020      	strb	r0, [r4, #0]
      columns_max = (int16)Sprite->columns + (int16)startcolumn;
 8001804:	7854      	ldrb	r4, [r2, #1]
      pages_max = (int8)Sprite->pages + startline/8 - 1;
 8001806:	7810      	ldrb	r0, [r2, #0]
      columns_max = (int16)Sprite->columns + (int16)startcolumn;
 8001808:	440c      	add	r4, r1
      if (columns_max < 0) columns_max = 0;
 800180a:	ea24 7be4 	bic.w	fp, r4, r4, asr #31
      line_shift = 8 - (uint8)-startline % 8;
 800180e:	f003 0407 	and.w	r4, r3, #7
 8001812:	f1c4 0408 	rsb	r4, r4, #8
      page_shift = (uint8)-startline/8 + 1;
 8001816:	f3c3 03c4 	ubfx	r3, r3, #3, #5
      m = (uint16)(-startcolumn) * Sprite->pages + page_shift;
 800181a:	1c5e      	adds	r6, r3, #1
      line_shift = 8 - (uint8)-startline % 8;
 800181c:	b2e3      	uxtb	r3, r4
 800181e:	9300      	str	r3, [sp, #0]
      pages_max = (int8)Sprite->pages + startline/8 - 1;
 8001820:	f105 0c07 	add.w	ip, r5, #7
 8001824:	1e43      	subs	r3, r0, #1
      column_shift = (uint8)(-startcolumn);
 8001826:	4249      	negs	r1, r1
      pages_max = (int8)Sprite->pages + startline/8 - 1;
 8001828:	eb03 0cec 	add.w	ip, r3, ip, asr #3
      m = (uint16)(-startcolumn) * Sprite->pages + page_shift;
 800182c:	fb00 6001 	mla	r0, r0, r1, r6
 8001830:	9606      	str	r6, [sp, #24]
      column_shift = (uint8)(-startcolumn);
 8001832:	fa5f fe81 	uxtb.w	lr, r1
      pages_max = (int8)Sprite->pages + startline/8 - 1;
 8001836:	fa4f fc8c 	sxtb.w	ip, ip
      m = (uint16)(-startcolumn) * Sprite->pages + page_shift;
 800183a:	f8cd 9014 	str.w	r9, [sp, #20]
 800183e:	e708      	b.n	8001652 <LCD_printsprite+0x18e>
 8001840:	20000150 	.word	0x20000150

08001844 <LCD_printgamestatbar>:

void LCD_printgamestatbar(tGamer* gamer) {
 8001844:	b510      	push	{r4, lr}
 8001846:	4604      	mov	r4, r0
 8001848:	4a2c      	ldr	r2, [pc, #176]	; (80018fc <LCD_printgamestatbar+0xb8>)
 800184a:	492d      	ldr	r1, [pc, #180]	; (8001900 <LCD_printgamestatbar+0xbc>)
 800184c:	b084      	sub	sp, #16
 800184e:	f102 0c80 	add.w	ip, r2, #128	; 0x80
  for (uint8 i = 0; i < 128; i++) dispbuffer[0][i] |= GameStatusBar[i];
 8001852:	f852 0b04 	ldr.w	r0, [r2], #4
 8001856:	f851 3f04 	ldr.w	r3, [r1, #4]!
 800185a:	4562      	cmp	r2, ip
 800185c:	ea43 0300 	orr.w	r3, r3, r0
 8001860:	600b      	str	r3, [r1, #0]
 8001862:	d1f6      	bne.n	8001852 <LCD_printgamestatbar+0xe>
  for (uint8 i = 9; i < (9 + gamer->health); i++) dispbuffer[0][i] |= 0b00111100; // helth bar
 8001864:	f994 3000 	ldrsb.w	r3, [r4]
 8001868:	2b00      	cmp	r3, #0
 800186a:	dd45      	ble.n	80018f8 <LCD_printgamestatbar+0xb4>
 800186c:	2309      	movs	r3, #9
 800186e:	4618      	mov	r0, r3
 8001870:	4a24      	ldr	r2, [pc, #144]	; (8001904 <LCD_printgamestatbar+0xc0>)
 8001872:	5c11      	ldrb	r1, [r2, r0]
 8001874:	3301      	adds	r3, #1
 8001876:	f041 013c 	orr.w	r1, r1, #60	; 0x3c
 800187a:	5411      	strb	r1, [r2, r0]
 800187c:	f994 1000 	ldrsb.w	r1, [r4]
 8001880:	b2db      	uxtb	r3, r3
 8001882:	3108      	adds	r1, #8
 8001884:	4299      	cmp	r1, r3
 8001886:	4618      	mov	r0, r3
 8001888:	daf3      	bge.n	8001872 <LCD_printgamestatbar+0x2e>
  for (uint8 i = 102; i < (102 + gamer->energy); i++) dispbuffer[0][i] |= 0b00111100; // energy bar
 800188a:	f994 3001 	ldrsb.w	r3, [r4, #1]
 800188e:	2b00      	cmp	r3, #0
 8001890:	dd0d      	ble.n	80018ae <LCD_printgamestatbar+0x6a>
 8001892:	2366      	movs	r3, #102	; 0x66
 8001894:	4618      	mov	r0, r3
 8001896:	5c11      	ldrb	r1, [r2, r0]
 8001898:	3301      	adds	r3, #1
 800189a:	f041 013c 	orr.w	r1, r1, #60	; 0x3c
 800189e:	5411      	strb	r1, [r2, r0]
 80018a0:	f994 1001 	ldrsb.w	r1, [r4, #1]
 80018a4:	b2db      	uxtb	r3, r3
 80018a6:	3165      	adds	r1, #101	; 0x65
 80018a8:	4299      	cmp	r1, r3
 80018aa:	4618      	mov	r0, r3
 80018ac:	daf3      	bge.n	8001896 <LCD_printgamestatbar+0x52>
  dispbuffer[0][102 + gamer->energymax] |= 0b01111110;
  uint8 money[6];
  uint16 display_value = gamer->money;
  if(display_value > 999) display_value = 999;
  u16_to_str(money, display_value, 10);
 80018ae:	f240 31e7 	movw	r1, #999	; 0x3e7
  dispbuffer[0][102 + gamer->energymax] |= 0b01111110;
 80018b2:	f994 3002 	ldrsb.w	r3, [r4, #2]
 80018b6:	3366      	adds	r3, #102	; 0x66
 80018b8:	5cd0      	ldrb	r0, [r2, r3]
 80018ba:	f040 007e 	orr.w	r0, r0, #126	; 0x7e
 80018be:	54d0      	strb	r0, [r2, r3]
  uint16 display_value = gamer->money;
 80018c0:	68a3      	ldr	r3, [r4, #8]
  u16_to_str(money, display_value, 10);
 80018c2:	4668      	mov	r0, sp
 80018c4:	4299      	cmp	r1, r3
 80018c6:	bf28      	it	cs
 80018c8:	4619      	movcs	r1, r3
 80018ca:	220a      	movs	r2, #10
 80018cc:	f7fe fc56 	bl	800017c <u16_to_str>
  uint8 bombs[6];
  display_value = gamer->bombs;
 80018d0:	7921      	ldrb	r1, [r4, #4]
  if(display_value > 99) display_value = 99;
  u16_to_str(bombs, display_value, 10);
 80018d2:	a802      	add	r0, sp, #8
 80018d4:	2963      	cmp	r1, #99	; 0x63
 80018d6:	bf28      	it	cs
 80018d8:	2163      	movcs	r1, #99	; 0x63
 80018da:	220a      	movs	r2, #10
 80018dc:	f7fe fc4e 	bl	800017c <u16_to_str>
  LCD_printstr8x5(money, 0, 50);
 80018e0:	2232      	movs	r2, #50	; 0x32
 80018e2:	2100      	movs	r1, #0
 80018e4:	4668      	mov	r0, sp
 80018e6:	f7fe ffe5 	bl	80008b4 <LCD_printstr8x5>
  LCD_printstr8x5(bombs, 0, 81);
 80018ea:	2251      	movs	r2, #81	; 0x51
 80018ec:	2100      	movs	r1, #0
 80018ee:	a802      	add	r0, sp, #8
 80018f0:	f7fe ffe0 	bl	80008b4 <LCD_printstr8x5>
  //LCD_printstr8x5(money, 2, 10);
  //LCD_printstr8x5(bombs, 3, 10);
}
 80018f4:	b004      	add	sp, #16
 80018f6:	bd10      	pop	{r4, pc}
 80018f8:	4a02      	ldr	r2, [pc, #8]	; (8001904 <LCD_printgamestatbar+0xc0>)
 80018fa:	e7c6      	b.n	800188a <LCD_printgamestatbar+0x46>
 80018fc:	0800834c 	.word	0x0800834c
 8001900:	20000150 	.word	0x20000150
 8001904:	20000154 	.word	0x20000154

08001908 <_write>:

/* Private user code ---------------------------------------------------------*/
/* USER CODE BEGIN 0 */
int _write(int file, char *ptr, int len)
{
	for (int i = 0; i < len; i++)
 8001908:	1e10      	subs	r0, r2, #0
 800190a:	dd29      	ble.n	8001960 <_write+0x58>
  \param [in]     ch  Character to transmit.
  \returns            Character to transmit.
 */
__STATIC_INLINE uint32_t ITM_SendChar (uint32_t ch)
{
  if (((ITM->TCR & ITM_TCR_ITMENA_Msk) != 0UL) &&      /* ITM enabled */
 800190c:	f04f 4360 	mov.w	r3, #3758096384	; 0xe0000000
 8001910:	eb01 0c00 	add.w	ip, r1, r0
 8001914:	f8d3 2e80 	ldr.w	r2, [r3, #3712]	; 0xe80
	{
		ITM_SendChar(*ptr++);
 8001918:	3101      	adds	r1, #1
 800191a:	07d2      	lsls	r2, r2, #31
 800191c:	d51d      	bpl.n	800195a <_write+0x52>
      ((ITM->TER & 1UL               ) != 0UL)   )     /* ITM Port #0 enabled */
 800191e:	f8d3 2e00 	ldr.w	r2, [r3, #3584]	; 0xe00
  if (((ITM->TCR & ITM_TCR_ITMENA_Msk) != 0UL) &&      /* ITM enabled */
 8001922:	07d2      	lsls	r2, r2, #31
 8001924:	d519      	bpl.n	800195a <_write+0x52>
{
 8001926:	b500      	push	{lr}
  {
    while (ITM->PORT[0U].u32 == 0UL)
 8001928:	681a      	ldr	r2, [r3, #0]
		ITM_SendChar(*ptr++);
 800192a:	f811 ec01 	ldrb.w	lr, [r1, #-1]
 800192e:	b91a      	cbnz	r2, 8001938 <_write+0x30>
    {
      __NOP();
 8001930:	bf00      	nop
    while (ITM->PORT[0U].u32 == 0UL)
 8001932:	681a      	ldr	r2, [r3, #0]
 8001934:	2a00      	cmp	r2, #0
 8001936:	d0fb      	beq.n	8001930 <_write+0x28>
    }
    ITM->PORT[0U].u8 = (uint8_t)ch;
 8001938:	f883 e000 	strb.w	lr, [r3]
	for (int i = 0; i < len; i++)
 800193c:	4561      	cmp	r1, ip
 800193e:	d00a      	beq.n	8001956 <_write+0x4e>
  if (((ITM->TCR & ITM_TCR_ITMENA_Msk) != 0UL) &&      /* ITM enabled */
 8001940:	f8d3 2e80 	ldr.w	r2, [r3, #3712]	; 0xe80
		ITM_SendChar(*ptr++);
 8001944:	3101      	adds	r1, #1
 8001946:	07d2      	lsls	r2, r2, #31
 8001948:	d5f8      	bpl.n	800193c <_write+0x34>
      ((ITM->TER & 1UL               ) != 0UL)   )     /* ITM Port #0 enabled */
 800194a:	f8d3 2e00 	ldr.w	r2, [r3, #3584]	; 0xe00
  if (((ITM->TCR & ITM_TCR_ITMENA_Msk) != 0UL) &&      /* ITM enabled */
 800194e:	07d2      	lsls	r2, r2, #31
 8001950:	d4ea      	bmi.n	8001928 <_write+0x20>
	for (int i = 0; i < len; i++)
 8001952:	4561      	cmp	r1, ip
 8001954:	d1f4      	bne.n	8001940 <_write+0x38>
	}
	return len;
}
 8001956:	f85d fb04 	ldr.w	pc, [sp], #4
	for (int i = 0; i < len; i++)
 800195a:	4561      	cmp	r1, ip
 800195c:	d1da      	bne.n	8001914 <_write+0xc>
 800195e:	4770      	bx	lr
}
 8001960:	4770      	bx	lr
 8001962:	bf00      	nop

08001964 <SystemClock_Config>:
  * @brief System Clock Configuration
  * @retval None
  */
void SystemClock_Config(void)
{
  RCC_OscInitTypeDef RCC_OscInitStruct = {0};
 8001964:	2300      	movs	r3, #0
  RCC_PeriphCLKInitTypeDef PeriphClkInit = {0};

  /** Initializes the RCC Oscillators according to the specified parameters
  * in the RCC_OscInitTypeDef structure.
  */
  RCC_OscInitStruct.OscillatorType = RCC_OSCILLATORTYPE_HSE|RCC_OSCILLATORTYPE_LSE;
 8001966:	2005      	movs	r0, #5
 8001968:	f44f 3180 	mov.w	r1, #65536	; 0x10000
{
 800196c:	b530      	push	{r4, r5, lr}
 800196e:	b095      	sub	sp, #84	; 0x54
  RCC_OscInitStruct.OscillatorType = RCC_OSCILLATORTYPE_HSE|RCC_OSCILLATORTYPE_LSE;
 8001970:	e9cd 010a 	strd	r0, r1, [sp, #40]	; 0x28
  RCC_OscInitStruct.HSEState = RCC_HSE_ON;
  RCC_OscInitStruct.HSEPredivValue = RCC_HSE_PREDIV_DIV1;
  RCC_OscInitStruct.LSEState = RCC_LSE_ON;
 8001974:	2201      	movs	r2, #1
  RCC_OscInitStruct.HSIState = RCC_HSI_ON;
  RCC_OscInitStruct.PLL.PLLState = RCC_PLL_ON;
 8001976:	2402      	movs	r4, #2
  RCC_OscInitStruct.PLL.PLLSource = RCC_PLLSOURCE_HSE;
 8001978:	f44f 3180 	mov.w	r1, #65536	; 0x10000
  RCC_OscInitTypeDef RCC_OscInitStruct = {0};
 800197c:	e9cd 330f 	strd	r3, r3, [sp, #60]	; 0x3c
  RCC_ClkInitTypeDef RCC_ClkInitStruct = {0};
 8001980:	e9cd 3305 	strd	r3, r3, [sp, #20]
 8001984:	e9cd 3307 	strd	r3, r3, [sp, #28]
  RCC_PeriphCLKInitTypeDef PeriphClkInit = {0};
 8001988:	e9cd 3301 	strd	r3, r3, [sp, #4]
  RCC_OscInitTypeDef RCC_OscInitStruct = {0};
 800198c:	930c      	str	r3, [sp, #48]	; 0x30
  RCC_ClkInitTypeDef RCC_ClkInitStruct = {0};
 800198e:	9304      	str	r3, [sp, #16]
  RCC_PeriphCLKInitTypeDef PeriphClkInit = {0};
 8001990:	9300      	str	r3, [sp, #0]
 8001992:	9303      	str	r3, [sp, #12]
  RCC_OscInitStruct.PLL.PLLMUL = RCC_PLL_MUL9;
 8001994:	f44f 13e0 	mov.w	r3, #1835008	; 0x1c0000
  if (HAL_RCC_OscConfig(&RCC_OscInitStruct) != HAL_OK)
 8001998:	a80a      	add	r0, sp, #40	; 0x28
  RCC_OscInitStruct.HSIState = RCC_HSI_ON;
 800199a:	e9cd 220d 	strd	r2, r2, [sp, #52]	; 0x34
  RCC_OscInitStruct.PLL.PLLState = RCC_PLL_ON;
 800199e:	9411      	str	r4, [sp, #68]	; 0x44
  RCC_OscInitStruct.PLL.PLLSource = RCC_PLLSOURCE_HSE;
 80019a0:	9112      	str	r1, [sp, #72]	; 0x48
  RCC_OscInitStruct.PLL.PLLMUL = RCC_PLL_MUL9;
 80019a2:	9313      	str	r3, [sp, #76]	; 0x4c
  if (HAL_RCC_OscConfig(&RCC_OscInitStruct) != HAL_OK)
 80019a4:	f004 f8e0 	bl	8005b68 <HAL_RCC_OscConfig>
 80019a8:	b108      	cbz	r0, 80019ae <SystemClock_Config+0x4a>
  \details Disables IRQ interrupts by setting the I-bit in the CPSR.
           Can only be executed in Privileged modes.
 */
__STATIC_FORCEINLINE void __disable_irq(void)
{
  __ASM volatile ("cpsid i" : : : "memory");
 80019aa:	b672      	cpsid	i
void Error_Handler(void)
{
  /* USER CODE BEGIN Error_Handler_Debug */
  /* User can add his own implementation to report the HAL error return state */
  __disable_irq();
  while (1)
 80019ac:	e7fe      	b.n	80019ac <SystemClock_Config+0x48>
  RCC_ClkInitStruct.ClockType = RCC_CLOCKTYPE_HCLK|RCC_CLOCKTYPE_SYSCLK
 80019ae:	220f      	movs	r2, #15
 80019b0:	2302      	movs	r3, #2
 80019b2:	e9cd 2304 	strd	r2, r3, [sp, #16]
 80019b6:	2200      	movs	r2, #0
 80019b8:	f44f 6380 	mov.w	r3, #1024	; 0x400
  RCC_ClkInitStruct.APB2CLKDivider = RCC_HCLK_DIV1;
 80019bc:	9008      	str	r0, [sp, #32]
  if (HAL_RCC_ClockConfig(&RCC_ClkInitStruct, FLASH_LATENCY_2) != HAL_OK)
 80019be:	4621      	mov	r1, r4
 80019c0:	a804      	add	r0, sp, #16
  RCC_ClkInitStruct.ClockType = RCC_CLOCKTYPE_HCLK|RCC_CLOCKTYPE_SYSCLK
 80019c2:	e9cd 2306 	strd	r2, r3, [sp, #24]
  if (HAL_RCC_ClockConfig(&RCC_ClkInitStruct, FLASH_LATENCY_2) != HAL_OK)
 80019c6:	f004 fabf 	bl	8005f48 <HAL_RCC_ClockConfig>
 80019ca:	b108      	cbz	r0, 80019d0 <SystemClock_Config+0x6c>
 80019cc:	b672      	cpsid	i
  while (1)
 80019ce:	e7fe      	b.n	80019ce <SystemClock_Config+0x6a>
  PeriphClkInit.PeriphClockSelection = RCC_PERIPHCLK_RTC|RCC_PERIPHCLK_ADC;
 80019d0:	2403      	movs	r4, #3
 80019d2:	f44f 7580 	mov.w	r5, #256	; 0x100
  PeriphClkInit.AdcClockSelection = RCC_ADCPCLK2_DIV6;
 80019d6:	f44f 4300 	mov.w	r3, #32768	; 0x8000
  if (HAL_RCCEx_PeriphCLKConfig(&PeriphClkInit) != HAL_OK)
 80019da:	4668      	mov	r0, sp
  PeriphClkInit.PeriphClockSelection = RCC_PERIPHCLK_RTC|RCC_PERIPHCLK_ADC;
 80019dc:	e9cd 4500 	strd	r4, r5, [sp]
  PeriphClkInit.AdcClockSelection = RCC_ADCPCLK2_DIV6;
 80019e0:	9302      	str	r3, [sp, #8]
  if (HAL_RCCEx_PeriphCLKConfig(&PeriphClkInit) != HAL_OK)
 80019e2:	f004 fb91 	bl	8006108 <HAL_RCCEx_PeriphCLKConfig>
 80019e6:	b108      	cbz	r0, 80019ec <SystemClock_Config+0x88>
 80019e8:	b672      	cpsid	i
  while (1)
 80019ea:	e7fe      	b.n	80019ea <SystemClock_Config+0x86>
}
 80019ec:	b015      	add	sp, #84	; 0x54
 80019ee:	bd30      	pop	{r4, r5, pc}

080019f0 <main>:
  GPIO_InitTypeDef GPIO_InitStruct = {0};
 80019f0:	2500      	movs	r5, #0
{
 80019f2:	b580      	push	{r7, lr}
 80019f4:	b09c      	sub	sp, #112	; 0x70
  HAL_Init();
 80019f6:	f003 fb85 	bl	8005104 <HAL_Init>
  SystemClock_Config();
 80019fa:	f7ff ffb3 	bl	8001964 <SystemClock_Config>
  GPIO_InitTypeDef GPIO_InitStruct = {0};
 80019fe:	e9cd 5514 	strd	r5, r5, [sp, #80]	; 0x50
 8001a02:	e9cd 5516 	strd	r5, r5, [sp, #88]	; 0x58
  __HAL_RCC_GPIOC_CLK_ENABLE();
 8001a06:	4ca3      	ldr	r4, [pc, #652]	; (8001c94 <main+0x2a4>)
  HAL_GPIO_WritePin(SHUTDOWN_GPIO_Port, SHUTDOWN_Pin, GPIO_PIN_SET);
 8001a08:	2201      	movs	r2, #1
  __HAL_RCC_GPIOC_CLK_ENABLE();
 8001a0a:	69a3      	ldr	r3, [r4, #24]
  HAL_GPIO_WritePin(SHUTDOWN_GPIO_Port, SHUTDOWN_Pin, GPIO_PIN_SET);
 8001a0c:	f44f 5100 	mov.w	r1, #8192	; 0x2000
  __HAL_RCC_GPIOC_CLK_ENABLE();
 8001a10:	f043 0310 	orr.w	r3, r3, #16
 8001a14:	61a3      	str	r3, [r4, #24]
 8001a16:	69a3      	ldr	r3, [r4, #24]
  HAL_GPIO_WritePin(SHUTDOWN_GPIO_Port, SHUTDOWN_Pin, GPIO_PIN_SET);
 8001a18:	489f      	ldr	r0, [pc, #636]	; (8001c98 <main+0x2a8>)
  __HAL_RCC_GPIOC_CLK_ENABLE();
 8001a1a:	f003 0310 	and.w	r3, r3, #16
 8001a1e:	9302      	str	r3, [sp, #8]
 8001a20:	9b02      	ldr	r3, [sp, #8]
  __HAL_RCC_GPIOD_CLK_ENABLE();
 8001a22:	69a3      	ldr	r3, [r4, #24]
  GPIO_InitStruct.Pull = GPIO_PULLUP;
 8001a24:	4617      	mov	r7, r2
  __HAL_RCC_GPIOD_CLK_ENABLE();
 8001a26:	f043 0320 	orr.w	r3, r3, #32
 8001a2a:	61a3      	str	r3, [r4, #24]
 8001a2c:	69a3      	ldr	r3, [r4, #24]
  GPIO_InitStruct.Pin = SHUTDOWN_Pin;
 8001a2e:	f04f 0800 	mov.w	r8, #0
  __HAL_RCC_GPIOD_CLK_ENABLE();
 8001a32:	f003 0320 	and.w	r3, r3, #32
 8001a36:	9303      	str	r3, [sp, #12]
 8001a38:	9b03      	ldr	r3, [sp, #12]
  __HAL_RCC_GPIOA_CLK_ENABLE();
 8001a3a:	69a3      	ldr	r3, [r4, #24]
  GPIO_InitStruct.Pin = SHUTDOWN_Pin;
 8001a3c:	f04f 0902 	mov.w	r9, #2
  __HAL_RCC_GPIOA_CLK_ENABLE();
 8001a40:	f043 0304 	orr.w	r3, r3, #4
 8001a44:	61a3      	str	r3, [r4, #24]
 8001a46:	69a3      	ldr	r3, [r4, #24]
  hadc1.Instance = ADC1;
 8001a48:	4e94      	ldr	r6, [pc, #592]	; (8001c9c <main+0x2ac>)
  __HAL_RCC_GPIOA_CLK_ENABLE();
 8001a4a:	f003 0304 	and.w	r3, r3, #4
 8001a4e:	9304      	str	r3, [sp, #16]
 8001a50:	9b04      	ldr	r3, [sp, #16]
  __HAL_RCC_GPIOB_CLK_ENABLE();
 8001a52:	69a3      	ldr	r3, [r4, #24]
 8001a54:	f043 0308 	orr.w	r3, r3, #8
 8001a58:	61a3      	str	r3, [r4, #24]
 8001a5a:	69a3      	ldr	r3, [r4, #24]
 8001a5c:	f003 0308 	and.w	r3, r3, #8
 8001a60:	9305      	str	r3, [sp, #20]
 8001a62:	9b05      	ldr	r3, [sp, #20]
  HAL_GPIO_WritePin(SHUTDOWN_GPIO_Port, SHUTDOWN_Pin, GPIO_PIN_SET);
 8001a64:	f004 f876 	bl	8005b54 <HAL_GPIO_WritePin>
  HAL_GPIO_WritePin(GPIOA, DISP_RS_Pin|DISP_RSE_Pin|SOUND_OUT_Pin, GPIO_PIN_RESET);
 8001a68:	462a      	mov	r2, r5
 8001a6a:	2116      	movs	r1, #22
 8001a6c:	488c      	ldr	r0, [pc, #560]	; (8001ca0 <main+0x2b0>)
 8001a6e:	f004 f871 	bl	8005b54 <HAL_GPIO_WritePin>
  GPIO_InitStruct.Pin = SHUTDOWN_Pin;
 8001a72:	f44f 5200 	mov.w	r2, #8192	; 0x2000
 8001a76:	2311      	movs	r3, #17
  HAL_GPIO_Init(SHUTDOWN_GPIO_Port, &GPIO_InitStruct);
 8001a78:	4887      	ldr	r0, [pc, #540]	; (8001c98 <main+0x2a8>)
 8001a7a:	a914      	add	r1, sp, #80	; 0x50
  GPIO_InitStruct.Pin = SHUTDOWN_Pin;
 8001a7c:	e9cd 2314 	strd	r2, r3, [sp, #80]	; 0x50
 8001a80:	e9cd 8916 	strd	r8, r9, [sp, #88]	; 0x58
  HAL_GPIO_Init(SHUTDOWN_GPIO_Port, &GPIO_InitStruct);
 8001a84:	f003 ff52 	bl	800592c <HAL_GPIO_Init>
  GPIO_InitStruct.Pin = DISP_RS_Pin|DISP_RSE_Pin|SOUND_OUT_Pin;
 8001a88:	2216      	movs	r2, #22
 8001a8a:	2301      	movs	r3, #1
  HAL_GPIO_Init(GPIOA, &GPIO_InitStruct);
 8001a8c:	4884      	ldr	r0, [pc, #528]	; (8001ca0 <main+0x2b0>)
 8001a8e:	a914      	add	r1, sp, #80	; 0x50
  GPIO_InitStruct.Pin = DISP_RS_Pin|DISP_RSE_Pin|SOUND_OUT_Pin;
 8001a90:	e9cd 2314 	strd	r2, r3, [sp, #80]	; 0x50
 8001a94:	e9cd 8916 	strd	r8, r9, [sp, #88]	; 0x58
  HAL_GPIO_Init(GPIOA, &GPIO_InitStruct);
 8001a98:	f003 ff48 	bl	800592c <HAL_GPIO_Init>
  GPIO_InitStruct.Pin = JOYSTICK_BTN_Pin;
 8001a9c:	2208      	movs	r2, #8
 8001a9e:	2300      	movs	r3, #0
  HAL_GPIO_Init(JOYSTICK_BTN_GPIO_Port, &GPIO_InitStruct);
 8001aa0:	487f      	ldr	r0, [pc, #508]	; (8001ca0 <main+0x2b0>)
 8001aa2:	a914      	add	r1, sp, #80	; 0x50
  GPIO_InitStruct.Pin = JOYSTICK_BTN_Pin;
 8001aa4:	e9cd 2314 	strd	r2, r3, [sp, #80]	; 0x50
  GPIO_InitStruct.Pull = GPIO_PULLUP;
 8001aa8:	9716      	str	r7, [sp, #88]	; 0x58
  HAL_GPIO_Init(JOYSTICK_BTN_GPIO_Port, &GPIO_InitStruct);
 8001aaa:	f003 ff3f 	bl	800592c <HAL_GPIO_Init>
  GPIO_InitStruct.Pin = BTN_3_Pin|BTN_4_Pin|BTN_1_Pin|BTN_2_Pin;
 8001aae:	22f0      	movs	r2, #240	; 0xf0
 8001ab0:	2300      	movs	r3, #0
  HAL_GPIO_Init(GPIOB, &GPIO_InitStruct);
 8001ab2:	487c      	ldr	r0, [pc, #496]	; (8001ca4 <main+0x2b4>)
 8001ab4:	a914      	add	r1, sp, #80	; 0x50
  GPIO_InitStruct.Pin = BTN_3_Pin|BTN_4_Pin|BTN_1_Pin|BTN_2_Pin;
 8001ab6:	e9cd 2314 	strd	r2, r3, [sp, #80]	; 0x50
  GPIO_InitStruct.Pull = GPIO_PULLUP;
 8001aba:	9716      	str	r7, [sp, #88]	; 0x58
  HAL_GPIO_Init(GPIOB, &GPIO_InitStruct);
 8001abc:	f003 ff36 	bl	800592c <HAL_GPIO_Init>
  __HAL_RCC_DMA1_CLK_ENABLE();
 8001ac0:	6963      	ldr	r3, [r4, #20]
  HAL_NVIC_SetPriority(DMA1_Channel1_IRQn, 0, 0);
 8001ac2:	462a      	mov	r2, r5
  __HAL_RCC_DMA1_CLK_ENABLE();
 8001ac4:	433b      	orrs	r3, r7
 8001ac6:	6163      	str	r3, [r4, #20]
 8001ac8:	6963      	ldr	r3, [r4, #20]
  HAL_NVIC_SetPriority(DMA1_Channel1_IRQn, 0, 0);
 8001aca:	4629      	mov	r1, r5
  __HAL_RCC_DMA1_CLK_ENABLE();
 8001acc:	403b      	ands	r3, r7
  HAL_NVIC_SetPriority(DMA1_Channel1_IRQn, 0, 0);
 8001ace:	200b      	movs	r0, #11
  __HAL_RCC_DMA1_CLK_ENABLE();
 8001ad0:	9301      	str	r3, [sp, #4]
 8001ad2:	9b01      	ldr	r3, [sp, #4]
  HAL_NVIC_SetPriority(DMA1_Channel1_IRQn, 0, 0);
 8001ad4:	f003 fdb8 	bl	8005648 <HAL_NVIC_SetPriority>
  HAL_NVIC_EnableIRQ(DMA1_Channel1_IRQn);
 8001ad8:	200b      	movs	r0, #11
 8001ada:	f003 fdf3 	bl	80056c4 <HAL_NVIC_EnableIRQ>
  hadc1.Instance = ADC1;
 8001ade:	4b72      	ldr	r3, [pc, #456]	; (8001ca8 <main+0x2b8>)
  hadc1.Init.ScanConvMode = ADC_SCAN_ENABLE;
 8001ae0:	f44f 7180 	mov.w	r1, #256	; 0x100
  hadc1.Init.ExternalTrigConv = ADC_SOFTWARE_START;
 8001ae4:	f44f 2260 	mov.w	r2, #917504	; 0xe0000
  hadc1.Instance = ADC1;
 8001ae8:	6033      	str	r3, [r6, #0]
  hadc1.Init.NbrOfConversion = 3;
 8001aea:	2303      	movs	r3, #3
  if (HAL_ADC_Init(&hadc1) != HAL_OK)
 8001aec:	4630      	mov	r0, r6
  ADC_ChannelConfTypeDef sConfig = {0};
 8001aee:	e9cd 5514 	strd	r5, r5, [sp, #80]	; 0x50
 8001af2:	9516      	str	r5, [sp, #88]	; 0x58
  hadc1.Init.ContinuousConvMode = DISABLE;
 8001af4:	7335      	strb	r5, [r6, #12]
  hadc1.Init.DiscontinuousConvMode = DISABLE;
 8001af6:	7535      	strb	r5, [r6, #20]
  hadc1.Init.DataAlign = ADC_DATAALIGN_RIGHT;
 8001af8:	6075      	str	r5, [r6, #4]
  hadc1.Init.ScanConvMode = ADC_SCAN_ENABLE;
 8001afa:	60b1      	str	r1, [r6, #8]
  hadc1.Init.ExternalTrigConv = ADC_SOFTWARE_START;
 8001afc:	61f2      	str	r2, [r6, #28]
  hadc1.Init.NbrOfConversion = 3;
 8001afe:	6133      	str	r3, [r6, #16]
  if (HAL_ADC_Init(&hadc1) != HAL_OK)
 8001b00:	f003 fb2a 	bl	8005158 <HAL_ADC_Init>
 8001b04:	b108      	cbz	r0, 8001b0a <main+0x11a>
 8001b06:	b672      	cpsid	i
  while (1)
 8001b08:	e7fe      	b.n	8001b08 <main+0x118>
  sConfig.Channel = ADC_CHANNEL_0;
 8001b0a:	2400      	movs	r4, #0
 8001b0c:	2501      	movs	r5, #1
  sConfig.SamplingTime = ADC_SAMPLETIME_239CYCLES_5;
 8001b0e:	2307      	movs	r3, #7
  if (HAL_ADC_ConfigChannel(&hadc1, &sConfig) != HAL_OK)
 8001b10:	4630      	mov	r0, r6
 8001b12:	a914      	add	r1, sp, #80	; 0x50
  sConfig.Channel = ADC_CHANNEL_0;
 8001b14:	e9cd 4514 	strd	r4, r5, [sp, #80]	; 0x50
  sConfig.SamplingTime = ADC_SAMPLETIME_239CYCLES_5;
 8001b18:	9316      	str	r3, [sp, #88]	; 0x58
  if (HAL_ADC_ConfigChannel(&hadc1, &sConfig) != HAL_OK)
 8001b1a:	f003 fc1b 	bl	8005354 <HAL_ADC_ConfigChannel>
 8001b1e:	b108      	cbz	r0, 8001b24 <main+0x134>
 8001b20:	b672      	cpsid	i
  while (1)
 8001b22:	e7fe      	b.n	8001b22 <main+0x132>
  sConfig.Channel = ADC_CHANNEL_9;
 8001b24:	2209      	movs	r2, #9
 8001b26:	2302      	movs	r3, #2
  if (HAL_ADC_ConfigChannel(&hadc1, &sConfig) != HAL_OK)
 8001b28:	4630      	mov	r0, r6
 8001b2a:	a914      	add	r1, sp, #80	; 0x50
  sConfig.Channel = ADC_CHANNEL_9;
 8001b2c:	e9cd 2314 	strd	r2, r3, [sp, #80]	; 0x50
  if (HAL_ADC_ConfigChannel(&hadc1, &sConfig) != HAL_OK)
 8001b30:	f003 fc10 	bl	8005354 <HAL_ADC_ConfigChannel>
 8001b34:	b108      	cbz	r0, 8001b3a <main+0x14a>
 8001b36:	b672      	cpsid	i
  while (1)
 8001b38:	e7fe      	b.n	8001b38 <main+0x148>
  sConfig.Channel = ADC_CHANNEL_8;
 8001b3a:	2303      	movs	r3, #3
 8001b3c:	2208      	movs	r2, #8
  if (HAL_ADC_ConfigChannel(&hadc1, &sConfig) != HAL_OK)
 8001b3e:	4630      	mov	r0, r6
 8001b40:	a914      	add	r1, sp, #80	; 0x50
  sConfig.Channel = ADC_CHANNEL_8;
 8001b42:	e9cd 2314 	strd	r2, r3, [sp, #80]	; 0x50
  if (HAL_ADC_ConfigChannel(&hadc1, &sConfig) != HAL_OK)
 8001b46:	f003 fc05 	bl	8005354 <HAL_ADC_ConfigChannel>
 8001b4a:	4603      	mov	r3, r0
 8001b4c:	b108      	cbz	r0, 8001b52 <main+0x162>
 8001b4e:	b672      	cpsid	i
  while (1)
 8001b50:	e7fe      	b.n	8001b50 <main+0x160>
  hspi2.Instance = SPI2;
 8001b52:	4856      	ldr	r0, [pc, #344]	; (8001cac <main+0x2bc>)
  hspi2.Init.NSS = SPI_NSS_HARD_OUTPUT;
 8001b54:	f44f 2180 	mov.w	r1, #262144	; 0x40000
  hspi2.Init.BaudRatePrescaler = SPI_BAUDRATEPRESCALER_4;
 8001b58:	2208      	movs	r2, #8
  hspi2.Init.Mode = SPI_MODE_MASTER;
 8001b5a:	f44f 7482 	mov.w	r4, #260	; 0x104
  hspi2.Init.DataSize = SPI_DATASIZE_8BIT;
 8001b5e:	e9c0 3302 	strd	r3, r3, [r0, #8]
  hspi2.Init.CLKPhase = SPI_PHASE_1EDGE;
 8001b62:	e9c0 3304 	strd	r3, r3, [r0, #16]
  hspi2.Init.TIMode = SPI_TIMODE_DISABLE;
 8001b66:	e9c0 3308 	strd	r3, r3, [r0, #32]
  hspi2.Init.CRCCalculation = SPI_CRCCALCULATION_DISABLE;
 8001b6a:	6283      	str	r3, [r0, #40]	; 0x28
  hspi2.Init.CRCPolynomial = 10;
 8001b6c:	230a      	movs	r3, #10
  hspi2.Init.BaudRatePrescaler = SPI_BAUDRATEPRESCALER_4;
 8001b6e:	e9c0 1206 	strd	r1, r2, [r0, #24]
  hspi2.Instance = SPI2;
 8001b72:	4a4f      	ldr	r2, [pc, #316]	; (8001cb0 <main+0x2c0>)
  hspi2.Init.Mode = SPI_MODE_MASTER;
 8001b74:	6044      	str	r4, [r0, #4]
  hspi2.Instance = SPI2;
 8001b76:	6002      	str	r2, [r0, #0]
  hspi2.Init.CRCPolynomial = 10;
 8001b78:	62c3      	str	r3, [r0, #44]	; 0x2c
  if (HAL_SPI_Init(&hspi2) != HAL_OK)
 8001b7a:	f004 fe49 	bl	8006810 <HAL_SPI_Init>
 8001b7e:	4604      	mov	r4, r0
 8001b80:	b108      	cbz	r0, 8001b86 <main+0x196>
 8001b82:	b672      	cpsid	i
  while (1)
 8001b84:	e7fe      	b.n	8001b84 <main+0x194>
  TIM_BreakDeadTimeConfigTypeDef sBreakDeadTimeConfig = {0};
 8001b86:	4601      	mov	r1, r0
  TIM_ClockConfigTypeDef sClockSourceConfig = {0};
 8001b88:	e9cd 0009 	strd	r0, r0, [sp, #36]	; 0x24
  TIM_OC_InitTypeDef sConfigOC = {0};
 8001b8c:	e9cd 000d 	strd	r0, r0, [sp, #52]	; 0x34
 8001b90:	e9cd 000f 	strd	r0, r0, [sp, #60]	; 0x3c
 8001b94:	e9cd 0011 	strd	r0, r0, [sp, #68]	; 0x44
  TIM_ClockConfigTypeDef sClockSourceConfig = {0};
 8001b98:	9008      	str	r0, [sp, #32]
  TIM_MasterConfigTypeDef sMasterConfig = {0};
 8001b9a:	9006      	str	r0, [sp, #24]
  TIM_OC_InitTypeDef sConfigOC = {0};
 8001b9c:	900c      	str	r0, [sp, #48]	; 0x30
  TIM_ClockConfigTypeDef sClockSourceConfig = {0};
 8001b9e:	900b      	str	r0, [sp, #44]	; 0x2c
  TIM_MasterConfigTypeDef sMasterConfig = {0};
 8001ba0:	9007      	str	r0, [sp, #28]
  TIM_BreakDeadTimeConfigTypeDef sBreakDeadTimeConfig = {0};
 8001ba2:	2220      	movs	r2, #32
 8001ba4:	a814      	add	r0, sp, #80	; 0x50
 8001ba6:	f005 fb21 	bl	80071ec <memset>
  htim1.Init.Period = 65535;
 8001baa:	f64f 73ff 	movw	r3, #65535	; 0xffff
  htim1.Instance = TIM1;
 8001bae:	4d41      	ldr	r5, [pc, #260]	; (8001cb4 <main+0x2c4>)
  htim1.Init.Period = 65535;
 8001bb0:	60eb      	str	r3, [r5, #12]
  htim1.Instance = TIM1;
 8001bb2:	4b41      	ldr	r3, [pc, #260]	; (8001cb8 <main+0x2c8>)
  if (HAL_TIM_Base_Init(&htim1) != HAL_OK)
 8001bb4:	4628      	mov	r0, r5
  htim1.Init.CounterMode = TIM_COUNTERMODE_UP;
 8001bb6:	e9c5 4401 	strd	r4, r4, [r5, #4]
  htim1.Init.RepetitionCounter = 0;
 8001bba:	e9c5 4404 	strd	r4, r4, [r5, #16]
  htim1.Init.AutoReloadPreload = TIM_AUTORELOAD_PRELOAD_DISABLE;
 8001bbe:	61ac      	str	r4, [r5, #24]
  htim1.Instance = TIM1;
 8001bc0:	602b      	str	r3, [r5, #0]
  if (HAL_TIM_Base_Init(&htim1) != HAL_OK)
 8001bc2:	f004 ffb1 	bl	8006b28 <HAL_TIM_Base_Init>
 8001bc6:	b108      	cbz	r0, 8001bcc <main+0x1dc>
 8001bc8:	b672      	cpsid	i
  while (1)
 8001bca:	e7fe      	b.n	8001bca <main+0x1da>
  sClockSourceConfig.ClockSource = TIM_CLOCKSOURCE_INTERNAL;
 8001bcc:	f44f 5380 	mov.w	r3, #4096	; 0x1000
  if (HAL_TIM_ConfigClockSource(&htim1, &sClockSourceConfig) != HAL_OK)
 8001bd0:	4628      	mov	r0, r5
 8001bd2:	a908      	add	r1, sp, #32
  sClockSourceConfig.ClockSource = TIM_CLOCKSOURCE_INTERNAL;
 8001bd4:	9308      	str	r3, [sp, #32]
  if (HAL_TIM_ConfigClockSource(&htim1, &sClockSourceConfig) != HAL_OK)
 8001bd6:	f005 f9dd 	bl	8006f94 <HAL_TIM_ConfigClockSource>
 8001bda:	b108      	cbz	r0, 8001be0 <main+0x1f0>
 8001bdc:	b672      	cpsid	i
  while (1)
 8001bde:	e7fe      	b.n	8001bde <main+0x1ee>
  if (HAL_TIM_PWM_Init(&htim1) != HAL_OK)
 8001be0:	4628      	mov	r0, r5
 8001be2:	f005 f811 	bl	8006c08 <HAL_TIM_PWM_Init>
 8001be6:	b108      	cbz	r0, 8001bec <main+0x1fc>
 8001be8:	b672      	cpsid	i
  while (1)
 8001bea:	e7fe      	b.n	8001bea <main+0x1fa>
  sMasterConfig.MasterOutputTrigger = TIM_TRGO_RESET;
 8001bec:	2600      	movs	r6, #0
 8001bee:	2700      	movs	r7, #0
  if (HAL_TIMEx_MasterConfigSynchronization(&htim1, &sMasterConfig) != HAL_OK)
 8001bf0:	4628      	mov	r0, r5
 8001bf2:	a906      	add	r1, sp, #24
  sMasterConfig.MasterOutputTrigger = TIM_TRGO_RESET;
 8001bf4:	e9cd 6706 	strd	r6, r7, [sp, #24]
  if (HAL_TIMEx_MasterConfigSynchronization(&htim1, &sMasterConfig) != HAL_OK)
 8001bf8:	f005 fa72 	bl	80070e0 <HAL_TIMEx_MasterConfigSynchronization>
 8001bfc:	4602      	mov	r2, r0
 8001bfe:	b108      	cbz	r0, 8001c04 <main+0x214>
 8001c00:	b672      	cpsid	i
  while (1)
 8001c02:	e7fe      	b.n	8001c02 <main+0x212>
  if (HAL_TIM_PWM_ConfigChannel(&htim1, &sConfigOC, TIM_CHANNEL_1) != HAL_OK)
 8001c04:	4628      	mov	r0, r5
  sConfigOC.OCMode = TIM_OCMODE_PWM1;
 8001c06:	2460      	movs	r4, #96	; 0x60
 8001c08:	f64a 75c8 	movw	r5, #45000	; 0xafc8
  if (HAL_TIM_PWM_ConfigChannel(&htim1, &sConfigOC, TIM_CHANNEL_1) != HAL_OK)
 8001c0c:	a90c      	add	r1, sp, #48	; 0x30
  sConfigOC.OCMode = TIM_OCMODE_PWM1;
 8001c0e:	e9cd 670e 	strd	r6, r7, [sp, #56]	; 0x38
 8001c12:	e9cd 6710 	strd	r6, r7, [sp, #64]	; 0x40
 8001c16:	e9cd 450c 	strd	r4, r5, [sp, #48]	; 0x30
  sConfigOC.OCNIdleState = TIM_OCNIDLESTATE_RESET;
 8001c1a:	9212      	str	r2, [sp, #72]	; 0x48
  if (HAL_TIM_PWM_ConfigChannel(&htim1, &sConfigOC, TIM_CHANNEL_1) != HAL_OK)
 8001c1c:	f005 f8be 	bl	8006d9c <HAL_TIM_PWM_ConfigChannel>
 8001c20:	b108      	cbz	r0, 8001c26 <main+0x236>
 8001c22:	b672      	cpsid	i
  while (1)
 8001c24:	e7fe      	b.n	8001c24 <main+0x234>
  sBreakDeadTimeConfig.OffStateRunMode = TIM_OSSR_DISABLE;
 8001c26:	2000      	movs	r0, #0
 8001c28:	f44f 5100 	mov.w	r1, #8192	; 0x2000
 8001c2c:	2200      	movs	r2, #0
 8001c2e:	2300      	movs	r3, #0
  sBreakDeadTimeConfig.AutomaticOutput = TIM_AUTOMATICOUTPUT_DISABLE;
 8001c30:	2400      	movs	r4, #0
  sBreakDeadTimeConfig.OffStateRunMode = TIM_OSSR_DISABLE;
 8001c32:	e9cd 0118 	strd	r0, r1, [sp, #96]	; 0x60
  if (HAL_TIMEx_ConfigBreakDeadTime(&htim1, &sBreakDeadTimeConfig) != HAL_OK)
 8001c36:	481f      	ldr	r0, [pc, #124]	; (8001cb4 <main+0x2c4>)
 8001c38:	a914      	add	r1, sp, #80	; 0x50
  sBreakDeadTimeConfig.AutomaticOutput = TIM_AUTOMATICOUTPUT_DISABLE;
 8001c3a:	941b      	str	r4, [sp, #108]	; 0x6c
  sBreakDeadTimeConfig.OffStateRunMode = TIM_OSSR_DISABLE;
 8001c3c:	e9cd 2314 	strd	r2, r3, [sp, #80]	; 0x50
 8001c40:	e9cd 2316 	strd	r2, r3, [sp, #88]	; 0x58
  if (HAL_TIMEx_ConfigBreakDeadTime(&htim1, &sBreakDeadTimeConfig) != HAL_OK)
 8001c44:	f005 fa7e 	bl	8007144 <HAL_TIMEx_ConfigBreakDeadTime>
 8001c48:	4604      	mov	r4, r0
 8001c4a:	b108      	cbz	r0, 8001c50 <main+0x260>
 8001c4c:	b672      	cpsid	i
  while (1)
 8001c4e:	e7fe      	b.n	8001c4e <main+0x25e>
  HAL_TIM_MspPostInit(&htim1);
 8001c50:	4818      	ldr	r0, [pc, #96]	; (8001cb4 <main+0x2c4>)
 8001c52:	f001 f807 	bl	8002c64 <HAL_TIM_MspPostInit>
  hrtc.Instance = RTC;
 8001c56:	4d19      	ldr	r5, [pc, #100]	; (8001cbc <main+0x2cc>)
 8001c58:	4b19      	ldr	r3, [pc, #100]	; (8001cc0 <main+0x2d0>)
  if (HAL_RTC_Init(&hrtc) != HAL_OK)
 8001c5a:	4628      	mov	r0, r5
  hrtc.Instance = RTC;
 8001c5c:	602b      	str	r3, [r5, #0]
  hrtc.Init.AsynchPrediv = RTC_AUTO_1_SECOND;
 8001c5e:	f04f 33ff 	mov.w	r3, #4294967295
  RTC_TimeTypeDef sTime = {0};
 8001c62:	f8ad 4030 	strh.w	r4, [sp, #48]	; 0x30
 8001c66:	f88d 4032 	strb.w	r4, [sp, #50]	; 0x32
  RTC_DateTypeDef DateToUpdate = {0};
 8001c6a:	9414      	str	r4, [sp, #80]	; 0x50
  hrtc.Init.OutPut = RTC_OUTPUTSOURCE_NONE;
 8001c6c:	60ac      	str	r4, [r5, #8]
  hrtc.Init.AsynchPrediv = RTC_AUTO_1_SECOND;
 8001c6e:	606b      	str	r3, [r5, #4]
  if (HAL_RTC_Init(&hrtc) != HAL_OK)
 8001c70:	f004 fb76 	bl	8006360 <HAL_RTC_Init>
 8001c74:	b108      	cbz	r0, 8001c7a <main+0x28a>
 8001c76:	b672      	cpsid	i
  while (1)
 8001c78:	e7fe      	b.n	8001c78 <main+0x288>
  sTime.Hours = 0x0;
 8001c7a:	f8ad 0030 	strh.w	r0, [sp, #48]	; 0x30
  sTime.Seconds = 0x0;
 8001c7e:	f88d 0032 	strb.w	r0, [sp, #50]	; 0x32
  if (HAL_RTC_SetTime(&hrtc, &sTime, RTC_FORMAT_BCD) != HAL_OK)
 8001c82:	2201      	movs	r2, #1
 8001c84:	4628      	mov	r0, r5
 8001c86:	a90c      	add	r1, sp, #48	; 0x30
 8001c88:	f004 fbea 	bl	8006460 <HAL_RTC_SetTime>
 8001c8c:	b1d0      	cbz	r0, 8001cc4 <main+0x2d4>
 8001c8e:	b672      	cpsid	i
  while (1)
 8001c90:	e7fe      	b.n	8001c90 <main+0x2a0>
 8001c92:	bf00      	nop
 8001c94:	40021000 	.word	0x40021000
 8001c98:	40011000 	.word	0x40011000
 8001c9c:	2000055c 	.word	0x2000055c
 8001ca0:	40010800 	.word	0x40010800
 8001ca4:	40010c00 	.word	0x40010c00
 8001ca8:	40012400 	.word	0x40012400
 8001cac:	200005e4 	.word	0x200005e4
 8001cb0:	40003800 	.word	0x40003800
 8001cb4:	2000063c 	.word	0x2000063c
 8001cb8:	40012c00 	.word	0x40012c00
 8001cbc:	200005d0 	.word	0x200005d0
 8001cc0:	40002800 	.word	0x40002800
  DateToUpdate.WeekDay = RTC_WEEKDAY_MONDAY;
 8001cc4:	4b0d      	ldr	r3, [pc, #52]	; (8001cfc <main+0x30c>)
  if (HAL_RTC_SetDate(&hrtc, &DateToUpdate, RTC_FORMAT_BCD) != HAL_OK)
 8001cc6:	2201      	movs	r2, #1
 8001cc8:	4628      	mov	r0, r5
 8001cca:	a914      	add	r1, sp, #80	; 0x50
  DateToUpdate.WeekDay = RTC_WEEKDAY_MONDAY;
 8001ccc:	9314      	str	r3, [sp, #80]	; 0x50
  if (HAL_RTC_SetDate(&hrtc, &DateToUpdate, RTC_FORMAT_BCD) != HAL_OK)
 8001cce:	f004 fc53 	bl	8006578 <HAL_RTC_SetDate>
 8001cd2:	b108      	cbz	r0, 8001cd8 <main+0x2e8>
 8001cd4:	b672      	cpsid	i
  while (1)
 8001cd6:	e7fe      	b.n	8001cd6 <main+0x2e6>
  commoninit();
 8001cd8:	f7fe fade 	bl	8000298 <commoninit>
  randinit();
 8001cdc:	f7fe fa36 	bl	800014c <randinit>
  LCD_init();
 8001ce0:	f7fe fd7c 	bl	80007dc <LCD_init>
  LCD_bufupload_buferase();
 8001ce4:	f7fe fee8 	bl	8000ab8 <LCD_bufupload_buferase>
  initbuttons();
 8001ce8:	f7fe faf2 	bl	80002d0 <initbuttons>
  HAL_ADC_Start_DMA(&hadc1, (uint32_t*)ADC_data.array, 3);
 8001cec:	2203      	movs	r2, #3
 8001cee:	4904      	ldr	r1, [pc, #16]	; (8001d00 <main+0x310>)
 8001cf0:	4804      	ldr	r0, [pc, #16]	; (8001d04 <main+0x314>)
 8001cf2:	f003 fc0d 	bl	8005510 <HAL_ADC_Start_DMA>
    MainMenu();
 8001cf6:	f000 fc41 	bl	800257c <MainMenu>
  while (1)
 8001cfa:	e7fc      	b.n	8001cf6 <main+0x306>
 8001cfc:	00010101 	.word	0x00010101
 8001d00:	20000554 	.word	0x20000554
 8001d04:	2000055c 	.word	0x2000055c

08001d08 <HAL_IncTick>:
{
 8001d08:	b538      	push	{r3, r4, r5, lr}
  uwTick += uwTickFreq;
 8001d0a:	490f      	ldr	r1, [pc, #60]	; (8001d48 <HAL_IncTick+0x40>)
  timestamp++;
 8001d0c:	4c0f      	ldr	r4, [pc, #60]	; (8001d4c <HAL_IncTick+0x44>)
  uwTick += uwTickFreq;
 8001d0e:	4a10      	ldr	r2, [pc, #64]	; (8001d50 <HAL_IncTick+0x48>)
  timestamp++;
 8001d10:	6823      	ldr	r3, [r4, #0]
  uwTick += uwTickFreq;
 8001d12:	6808      	ldr	r0, [r1, #0]
 8001d14:	7812      	ldrb	r2, [r2, #0]
  if( ((timestamp - timer_adc) > 20) && adc_complete_fl )
 8001d16:	4d0f      	ldr	r5, [pc, #60]	; (8001d54 <HAL_IncTick+0x4c>)
  timestamp++;
 8001d18:	3301      	adds	r3, #1
  uwTick += uwTickFreq;
 8001d1a:	4402      	add	r2, r0
  timestamp++;
 8001d1c:	6023      	str	r3, [r4, #0]
  uwTick += uwTickFreq;
 8001d1e:	600a      	str	r2, [r1, #0]
  SchedPeriodIncr();
 8001d20:	f000 fe18 	bl	8002954 <SchedPeriodIncr>
  if( ((timestamp - timer_adc) > 20) && adc_complete_fl )
 8001d24:	6824      	ldr	r4, [r4, #0]
 8001d26:	682b      	ldr	r3, [r5, #0]
 8001d28:	1ae3      	subs	r3, r4, r3
 8001d2a:	2b14      	cmp	r3, #20
 8001d2c:	d902      	bls.n	8001d34 <HAL_IncTick+0x2c>
 8001d2e:	4b0a      	ldr	r3, [pc, #40]	; (8001d58 <HAL_IncTick+0x50>)
 8001d30:	781b      	ldrb	r3, [r3, #0]
 8001d32:	b903      	cbnz	r3, 8001d36 <HAL_IncTick+0x2e>
}
 8001d34:	bd38      	pop	{r3, r4, r5, pc}
    timer_adc = timestamp;
 8001d36:	602c      	str	r4, [r5, #0]
    HAL_ADC_Start_DMA(&hadc1, (uint32_t*)ADC_data.array, 3);
 8001d38:	2203      	movs	r2, #3
}
 8001d3a:	e8bd 4038 	ldmia.w	sp!, {r3, r4, r5, lr}
    HAL_ADC_Start_DMA(&hadc1, (uint32_t*)ADC_data.array, 3);
 8001d3e:	4907      	ldr	r1, [pc, #28]	; (8001d5c <HAL_IncTick+0x54>)
 8001d40:	4807      	ldr	r0, [pc, #28]	; (8001d60 <HAL_IncTick+0x58>)
 8001d42:	f003 bbe5 	b.w	8005510 <HAL_ADC_Start_DMA>
 8001d46:	bf00      	nop
 8001d48:	200008bc 	.word	0x200008bc
 8001d4c:	2000014c 	.word	0x2000014c
 8001d50:	2000004e 	.word	0x2000004e
 8001d54:	20000684 	.word	0x20000684
 8001d58:	2000055a 	.word	0x2000055a
 8001d5c:	20000554 	.word	0x20000554
 8001d60:	2000055c 	.word	0x2000055c

08001d64 <HAL_ADC_ConvCpltCallback>:
  if(hadc->Instance == ADC1)
 8001d64:	4b0b      	ldr	r3, [pc, #44]	; (8001d94 <HAL_ADC_ConvCpltCallback+0x30>)
 8001d66:	6802      	ldr	r2, [r0, #0]
 8001d68:	429a      	cmp	r2, r3
 8001d6a:	d000      	beq.n	8001d6e <HAL_ADC_ConvCpltCallback+0xa>
}
 8001d6c:	4770      	bx	lr
    adc_complete_fl = 1;
 8001d6e:	f04f 0c01 	mov.w	ip, #1
    joystick.ox = (uint8_t)(ADC_data.jox/16);
 8001d72:	4b09      	ldr	r3, [pc, #36]	; (8001d98 <HAL_ADC_ConvCpltCallback+0x34>)
 8001d74:	4809      	ldr	r0, [pc, #36]	; (8001d9c <HAL_ADC_ConvCpltCallback+0x38>)
 8001d76:	8859      	ldrh	r1, [r3, #2]
    joystick.oy = (uint8_t)(ADC_data.joy/16);
 8001d78:	889a      	ldrh	r2, [r3, #4]
    joystick.ox = (uint8_t)(ADC_data.jox/16);
 8001d7a:	0909      	lsrs	r1, r1, #4
    joystick.oy = (uint8_t)(ADC_data.joy/16);
 8001d7c:	0912      	lsrs	r2, r2, #4
    Ubat = (uint8_t)(ADC_data.batlvl/16);
 8001d7e:	881b      	ldrh	r3, [r3, #0]
    joystick.ox = (uint8_t)(ADC_data.jox/16);
 8001d80:	7041      	strb	r1, [r0, #1]
    joystick.oy = (uint8_t)(ADC_data.joy/16);
 8001d82:	7082      	strb	r2, [r0, #2]
    Ubat = (uint8_t)(ADC_data.batlvl/16);
 8001d84:	4906      	ldr	r1, [pc, #24]	; (8001da0 <HAL_ADC_ConvCpltCallback+0x3c>)
    adc_complete_fl = 1;
 8001d86:	4a07      	ldr	r2, [pc, #28]	; (8001da4 <HAL_ADC_ConvCpltCallback+0x40>)
    Ubat = (uint8_t)(ADC_data.batlvl/16);
 8001d88:	091b      	lsrs	r3, r3, #4
 8001d8a:	700b      	strb	r3, [r1, #0]
    adc_complete_fl = 1;
 8001d8c:	f882 c000 	strb.w	ip, [r2]
}
 8001d90:	4770      	bx	lr
 8001d92:	bf00      	nop
 8001d94:	40012400 	.word	0x40012400
 8001d98:	20000554 	.word	0x20000554
 8001d9c:	20000138 	.word	0x20000138
 8001da0:	20000134 	.word	0x20000134
 8001da4:	2000055a 	.word	0x2000055a

08001da8 <Error_Handler>:
 8001da8:	b672      	cpsid	i
  while (1)
 8001daa:	e7fe      	b.n	8001daa <Error_Handler+0x2>

08001dac <setdatetime>:
#include "ufo_battle.h"
#include "math.h"


void setdatetime(void)
{
 8001dac:	e92d 4ff0 	stmdb	sp!, {r4, r5, r6, r7, r8, r9, sl, fp, lr}
  uint8 selectpos = 0;
  RTCgetdata(rtcbcd.rtcdata);
  rtcbcdtoraw();
  uint8 displaingSaveFlag = 0;
  uint8 displaingSaveLatch = 0;
  uint32 tim = 0;
 8001db0:	2600      	movs	r6, #0
{
 8001db2:	b08b      	sub	sp, #44	; 0x2c
  RTCgetdata(rtcbcd.rtcdata);
 8001db4:	48ca      	ldr	r0, [pc, #808]	; (80020e0 <setdatetime+0x334>)
 8001db6:	f8df a32c 	ldr.w	sl, [pc, #812]	; 80020e4 <setdatetime+0x338>
 8001dba:	f8df 932c 	ldr.w	r9, [pc, #812]	; 80020e8 <setdatetime+0x33c>
  while(1)
  {  
    checkjoydir();
    TestBtn(&B1); TestBtn(&B2); TestBtn(&B3); TestBtn(&B4);
 8001dbe:	f8df b32c 	ldr.w	fp, [pc, #812]	; 80020ec <setdatetime+0x340>
  uint32 tim = 0;
 8001dc2:	9600      	str	r6, [sp, #0]
  RTCgetdata(rtcbcd.rtcdata);
 8001dc4:	f7fe fba4 	bl	8000510 <RTCgetdata>
  rtcbcdtoraw();
 8001dc8:	f7fe fc00 	bl	80005cc <rtcbcdtoraw>
  uint8 displaingSaveLatch = 0;
 8001dcc:	9601      	str	r6, [sp, #4]
    checkjoydir();
 8001dce:	f7fe fca9 	bl	8000724 <checkjoydir>
    TestBtn(&B1); TestBtn(&B2); TestBtn(&B3); TestBtn(&B4);
 8001dd2:	4648      	mov	r0, r9
 8001dd4:	f7fe fc4a 	bl	800066c <TestBtn>
 8001dd8:	4650      	mov	r0, sl
 8001dda:	f7fe fc47 	bl	800066c <TestBtn>
 8001dde:	4658      	mov	r0, fp
 8001de0:	f7fe fc44 	bl	800066c <TestBtn>
 8001de4:	48c2      	ldr	r0, [pc, #776]	; (80020f0 <setdatetime+0x344>)
 8001de6:	f7fe fc41 	bl	800066c <TestBtn>
    
    if(B2.BtnON){
 8001dea:	f89a 8011 	ldrb.w	r8, [sl, #17]
 8001dee:	f1b8 0f00 	cmp.w	r8, #0
 8001df2:	f040 8257 	bne.w	80022a4 <setdatetime+0x4f8>
      B2.BtnON = 0;
      RTCsenddata(rtcbcd.rtcdata);
      displaingSaveFlag = 1;
    }
    
    if(B1.BtnON){
 8001df6:	f899 1011 	ldrb.w	r1, [r9, #17]
 8001dfa:	2900      	cmp	r1, #0
 8001dfc:	f040 825f 	bne.w	80022be <setdatetime+0x512>
      B1.BtnON = 0;
      return;
    }
    
    if(joystick.right == 1)
 8001e00:	4abc      	ldr	r2, [pc, #752]	; (80020f4 <setdatetime+0x348>)
 8001e02:	7813      	ldrb	r3, [r2, #0]
 8001e04:	0718      	lsls	r0, r3, #28
 8001e06:	d508      	bpl.n	8001e1a <setdatetime+0x6e>
    {
      joystick.right = 0;
      selectpos++;
 8001e08:	3601      	adds	r6, #1
 8001e0a:	b2f6      	uxtb	r6, r6
      joystick.right = 0;
 8001e0c:	f361 03c3 	bfi	r3, r1, #3, #1
      if(selectpos == 7) selectpos = 0;
 8001e10:	2e07      	cmp	r6, #7
      joystick.right = 0;
 8001e12:	7013      	strb	r3, [r2, #0]
      if(selectpos == 7) selectpos = 0;
 8001e14:	f000 8259 	beq.w	80022ca <setdatetime+0x51e>
    }
    if(joystick.left == 1)
 8001e18:	b2db      	uxtb	r3, r3
 8001e1a:	075b      	lsls	r3, r3, #29
 8001e1c:	d508      	bpl.n	8001e30 <setdatetime+0x84>
    {
      joystick.left = 0;
      selectpos--;
 8001e1e:	3e01      	subs	r6, #1
 8001e20:	b2f6      	uxtb	r6, r6
      if(selectpos == 255) selectpos = 6;
 8001e22:	2eff      	cmp	r6, #255	; 0xff
 8001e24:	bf08      	it	eq
 8001e26:	2606      	moveq	r6, #6
      joystick.left = 0;
 8001e28:	7813      	ldrb	r3, [r2, #0]
 8001e2a:	f36f 0382 	bfc	r3, #2, #1
 8001e2e:	7013      	strb	r3, [r2, #0]
    }
        
    uint8 day[4] = {dig_to_smb((rtcbcd.day & 0x30) >> 4), dig_to_smb(rtcbcd.day & 0x0F), '.', '\0'};
 8001e30:	4dab      	ldr	r5, [pc, #684]	; (80020e0 <setdatetime+0x334>)
 8001e32:	2400      	movs	r4, #0
 8001e34:	78e8      	ldrb	r0, [r5, #3]
    uint8 min[4] = {dig_to_smb((rtcbcd.min & 0x70) >> 4), dig_to_smb(rtcbcd.min & 0x0F), ':', '\0'};
    uint8 sec[3] = {dig_to_smb((rtcbcd.sec & 0x70) >> 4), dig_to_smb(rtcbcd.sec & 0x0F), '\0'};
    LCD_printstr8x5(hour, 0, 62);
    LCD_printstr8x5(min, 0, 80);
    LCD_printstr8x5(sec, 0, 98);
    LCD_printweekday(rtcraw.weekday, 0, 115);
 8001e36:	4fb0      	ldr	r7, [pc, #704]	; (80020f8 <setdatetime+0x34c>)
    uint8 day[4] = {dig_to_smb((rtcbcd.day & 0x30) >> 4), dig_to_smb(rtcbcd.day & 0x0F), '.', '\0'};
 8001e38:	f3c0 1001 	ubfx	r0, r0, #4, #2
 8001e3c:	f7fe f998 	bl	8000170 <dig_to_smb>
 8001e40:	4603      	mov	r3, r0
 8001e42:	78e8      	ldrb	r0, [r5, #3]
 8001e44:	f88d 3010 	strb.w	r3, [sp, #16]
 8001e48:	f000 000f 	and.w	r0, r0, #15
 8001e4c:	f7fe f990 	bl	8000170 <dig_to_smb>
 8001e50:	f04f 032e 	mov.w	r3, #46	; 0x2e
 8001e54:	f88d 0011 	strb.w	r0, [sp, #17]
    uint8 month[4] = {dig_to_smb(((rtcbcd.month & 0x10) >> 4) * 10), dig_to_smb(rtcbcd.month & 0x0F), '.', '\0'};
 8001e58:	7968      	ldrb	r0, [r5, #5]
    uint8 day[4] = {dig_to_smb((rtcbcd.day & 0x30) >> 4), dig_to_smb(rtcbcd.day & 0x0F), '.', '\0'};
 8001e5a:	f88d 3012 	strb.w	r3, [sp, #18]
    uint8 month[4] = {dig_to_smb(((rtcbcd.month & 0x10) >> 4) * 10), dig_to_smb(rtcbcd.month & 0x0F), '.', '\0'};
 8001e5e:	f3c0 1000 	ubfx	r0, r0, #4, #1
 8001e62:	eb00 0080 	add.w	r0, r0, r0, lsl #2
 8001e66:	0040      	lsls	r0, r0, #1
    uint8 day[4] = {dig_to_smb((rtcbcd.day & 0x30) >> 4), dig_to_smb(rtcbcd.day & 0x0F), '.', '\0'};
 8001e68:	f88d 4013 	strb.w	r4, [sp, #19]
    uint8 month[4] = {dig_to_smb(((rtcbcd.month & 0x10) >> 4) * 10), dig_to_smb(rtcbcd.month & 0x0F), '.', '\0'};
 8001e6c:	f7fe f980 	bl	8000170 <dig_to_smb>
 8001e70:	4603      	mov	r3, r0
 8001e72:	7968      	ldrb	r0, [r5, #5]
 8001e74:	f88d 3014 	strb.w	r3, [sp, #20]
 8001e78:	f000 000f 	and.w	r0, r0, #15
 8001e7c:	f7fe f978 	bl	8000170 <dig_to_smb>
 8001e80:	f04f 032e 	mov.w	r3, #46	; 0x2e
 8001e84:	f88d 3016 	strb.w	r3, [sp, #22]
    uint8 year[5] = {'2', '0', dig_to_smb((rtcbcd.year & 0xF0) >> 4), dig_to_smb(rtcbcd.year & 0x0F), '\0'};
 8001e88:	f243 0332 	movw	r3, #12338	; 0x3032
    uint8 month[4] = {dig_to_smb(((rtcbcd.month & 0x10) >> 4) * 10), dig_to_smb(rtcbcd.month & 0x0F), '.', '\0'};
 8001e8c:	f88d 0015 	strb.w	r0, [sp, #21]
    uint8 year[5] = {'2', '0', dig_to_smb((rtcbcd.year & 0xF0) >> 4), dig_to_smb(rtcbcd.year & 0x0F), '\0'};
 8001e90:	79a8      	ldrb	r0, [r5, #6]
 8001e92:	f8ad 3020 	strh.w	r3, [sp, #32]
 8001e96:	0900      	lsrs	r0, r0, #4
    uint8 month[4] = {dig_to_smb(((rtcbcd.month & 0x10) >> 4) * 10), dig_to_smb(rtcbcd.month & 0x0F), '.', '\0'};
 8001e98:	f88d 4017 	strb.w	r4, [sp, #23]
    uint8 year[5] = {'2', '0', dig_to_smb((rtcbcd.year & 0xF0) >> 4), dig_to_smb(rtcbcd.year & 0x0F), '\0'};
 8001e9c:	f7fe f968 	bl	8000170 <dig_to_smb>
 8001ea0:	4603      	mov	r3, r0
 8001ea2:	79a8      	ldrb	r0, [r5, #6]
 8001ea4:	f88d 3022 	strb.w	r3, [sp, #34]	; 0x22
 8001ea8:	f000 000f 	and.w	r0, r0, #15
 8001eac:	f7fe f960 	bl	8000170 <dig_to_smb>
 8001eb0:	4603      	mov	r3, r0
    LCD_printstr8x5(day, 0, 2);
 8001eb2:	2202      	movs	r2, #2
 8001eb4:	4621      	mov	r1, r4
 8001eb6:	a804      	add	r0, sp, #16
    uint8 year[5] = {'2', '0', dig_to_smb((rtcbcd.year & 0xF0) >> 4), dig_to_smb(rtcbcd.year & 0x0F), '\0'};
 8001eb8:	f88d 3023 	strb.w	r3, [sp, #35]	; 0x23
 8001ebc:	f88d 4024 	strb.w	r4, [sp, #36]	; 0x24
    LCD_printstr8x5(day, 0, 2);
 8001ec0:	f7fe fcf8 	bl	80008b4 <LCD_printstr8x5>
    LCD_printstr8x5(month, 0, 18);
 8001ec4:	2212      	movs	r2, #18
 8001ec6:	4621      	mov	r1, r4
 8001ec8:	a805      	add	r0, sp, #20
 8001eca:	f7fe fcf3 	bl	80008b4 <LCD_printstr8x5>
    LCD_printstr8x5(year, 0, 34);
 8001ece:	4621      	mov	r1, r4
 8001ed0:	2222      	movs	r2, #34	; 0x22
 8001ed2:	a808      	add	r0, sp, #32
 8001ed4:	f7fe fcee 	bl	80008b4 <LCD_printstr8x5>
    uint8 hour[4] = {dig_to_smb((rtcbcd.hour & 0x30) >> 4), dig_to_smb(rtcbcd.hour & 0x0F), ':', '\0'};
 8001ed8:	78a8      	ldrb	r0, [r5, #2]
 8001eda:	f3c0 1001 	ubfx	r0, r0, #4, #2
 8001ede:	f7fe f947 	bl	8000170 <dig_to_smb>
 8001ee2:	4603      	mov	r3, r0
 8001ee4:	78a8      	ldrb	r0, [r5, #2]
 8001ee6:	f88d 3018 	strb.w	r3, [sp, #24]
 8001eea:	f000 000f 	and.w	r0, r0, #15
 8001eee:	f7fe f93f 	bl	8000170 <dig_to_smb>
 8001ef2:	f04f 023a 	mov.w	r2, #58	; 0x3a
 8001ef6:	4603      	mov	r3, r0
    uint8 min[4] = {dig_to_smb((rtcbcd.min & 0x70) >> 4), dig_to_smb(rtcbcd.min & 0x0F), ':', '\0'};
 8001ef8:	7868      	ldrb	r0, [r5, #1]
    uint8 hour[4] = {dig_to_smb((rtcbcd.hour & 0x30) >> 4), dig_to_smb(rtcbcd.hour & 0x0F), ':', '\0'};
 8001efa:	f88d 201a 	strb.w	r2, [sp, #26]
    uint8 min[4] = {dig_to_smb((rtcbcd.min & 0x70) >> 4), dig_to_smb(rtcbcd.min & 0x0F), ':', '\0'};
 8001efe:	f3c0 1002 	ubfx	r0, r0, #4, #3
    uint8 hour[4] = {dig_to_smb((rtcbcd.hour & 0x30) >> 4), dig_to_smb(rtcbcd.hour & 0x0F), ':', '\0'};
 8001f02:	f88d 3019 	strb.w	r3, [sp, #25]
 8001f06:	f88d 401b 	strb.w	r4, [sp, #27]
    uint8 min[4] = {dig_to_smb((rtcbcd.min & 0x70) >> 4), dig_to_smb(rtcbcd.min & 0x0F), ':', '\0'};
 8001f0a:	f7fe f931 	bl	8000170 <dig_to_smb>
 8001f0e:	4603      	mov	r3, r0
 8001f10:	7868      	ldrb	r0, [r5, #1]
 8001f12:	f88d 301c 	strb.w	r3, [sp, #28]
 8001f16:	f000 000f 	and.w	r0, r0, #15
 8001f1a:	f7fe f929 	bl	8000170 <dig_to_smb>
 8001f1e:	f04f 023a 	mov.w	r2, #58	; 0x3a
 8001f22:	4603      	mov	r3, r0
    uint8 sec[3] = {dig_to_smb((rtcbcd.sec & 0x70) >> 4), dig_to_smb(rtcbcd.sec & 0x0F), '\0'};
 8001f24:	7828      	ldrb	r0, [r5, #0]
    uint8 min[4] = {dig_to_smb((rtcbcd.min & 0x70) >> 4), dig_to_smb(rtcbcd.min & 0x0F), ':', '\0'};
 8001f26:	f88d 201e 	strb.w	r2, [sp, #30]
    uint8 sec[3] = {dig_to_smb((rtcbcd.sec & 0x70) >> 4), dig_to_smb(rtcbcd.sec & 0x0F), '\0'};
 8001f2a:	f3c0 1002 	ubfx	r0, r0, #4, #3
    uint8 min[4] = {dig_to_smb((rtcbcd.min & 0x70) >> 4), dig_to_smb(rtcbcd.min & 0x0F), ':', '\0'};
 8001f2e:	f88d 301d 	strb.w	r3, [sp, #29]
 8001f32:	f88d 401f 	strb.w	r4, [sp, #31]
    uint8 sec[3] = {dig_to_smb((rtcbcd.sec & 0x70) >> 4), dig_to_smb(rtcbcd.sec & 0x0F), '\0'};
 8001f36:	f7fe f91b 	bl	8000170 <dig_to_smb>
 8001f3a:	4603      	mov	r3, r0
 8001f3c:	7828      	ldrb	r0, [r5, #0]
 8001f3e:	f88d 300c 	strb.w	r3, [sp, #12]
 8001f42:	f000 000f 	and.w	r0, r0, #15
 8001f46:	f7fe f913 	bl	8000170 <dig_to_smb>
 8001f4a:	4603      	mov	r3, r0
    LCD_printstr8x5(hour, 0, 62);
 8001f4c:	223e      	movs	r2, #62	; 0x3e
 8001f4e:	4621      	mov	r1, r4
 8001f50:	a806      	add	r0, sp, #24
    uint8 sec[3] = {dig_to_smb((rtcbcd.sec & 0x70) >> 4), dig_to_smb(rtcbcd.sec & 0x0F), '\0'};
 8001f52:	f88d 300d 	strb.w	r3, [sp, #13]
 8001f56:	f88d 400e 	strb.w	r4, [sp, #14]
    LCD_printstr8x5(hour, 0, 62);
 8001f5a:	f7fe fcab 	bl	80008b4 <LCD_printstr8x5>
    LCD_printstr8x5(min, 0, 80);
 8001f5e:	2250      	movs	r2, #80	; 0x50
 8001f60:	4621      	mov	r1, r4
 8001f62:	a807      	add	r0, sp, #28
 8001f64:	f7fe fca6 	bl	80008b4 <LCD_printstr8x5>
    LCD_printstr8x5(sec, 0, 98);
 8001f68:	2262      	movs	r2, #98	; 0x62
 8001f6a:	4621      	mov	r1, r4
 8001f6c:	a803      	add	r0, sp, #12
 8001f6e:	f7fe fca1 	bl	80008b4 <LCD_printstr8x5>
    LCD_printweekday(rtcraw.weekday, 0, 115);
 8001f72:	2273      	movs	r2, #115	; 0x73
 8001f74:	4621      	mov	r1, r4
 8001f76:	7938      	ldrb	r0, [r7, #4]
 8001f78:	f7fe fdda 	bl	8000b30 <LCD_printweekday>
    
    switch(selectpos)
 8001f7c:	1e73      	subs	r3, r6, #1
 8001f7e:	2b05      	cmp	r3, #5
 8001f80:	f200 81b0 	bhi.w	80022e4 <setdatetime+0x538>
 8001f84:	e8df f013 	tbh	[pc, r3, lsl #1]
 8001f88:	011200c4 	.word	0x011200c4
 8001f8c:	008400ec 	.word	0x008400ec
 8001f90:	0006005d 	.word	0x0006005d
        LCD_printhorline(12, 8, 98);
        if(B3.BtnON || B3.HoldON || B3.StuckON){B3.BtnON = 0; rtcraw.sec--; if(rtcraw.sec > 59) rtcraw.sec = 59;}
        if(B4.BtnON || B4.HoldON || B4.StuckON){B4.BtnON = 0; rtcraw.sec++; if(rtcraw.sec > 59) rtcraw.sec = 0;}
      break;
      case 6: 
        LCD_erasestring(128, 1, 0);
 8001f94:	2200      	movs	r2, #0
 8001f96:	2101      	movs	r1, #1
 8001f98:	2080      	movs	r0, #128	; 0x80
 8001f9a:	f7fe fd7f 	bl	8000a9c <LCD_erasestring>
        LCD_printhorline(12, 8, 115);
 8001f9e:	2273      	movs	r2, #115	; 0x73
 8001fa0:	2108      	movs	r1, #8
 8001fa2:	200c      	movs	r0, #12
 8001fa4:	f7ff fa58 	bl	8001458 <LCD_printhorline>
        if(B3.BtnON || B3.HoldON || B3.StuckON){B3.BtnON = 0; rtcraw.weekday--; if(rtcraw.weekday > 6) rtcraw.weekday = 6;}
 8001fa8:	f8db 3010 	ldr.w	r3, [fp, #16]
 8001fac:	f013 2fff 	tst.w	r3, #4278255360	; 0xff00ff00
 8001fb0:	f040 814d 	bne.w	800224e <setdatetime+0x4a2>
 8001fb4:	f89b 3014 	ldrb.w	r3, [fp, #20]
 8001fb8:	2b00      	cmp	r3, #0
 8001fba:	f040 8148 	bne.w	800224e <setdatetime+0x4a2>
        if(B4.BtnON || B4.HoldON || B4.StuckON){B4.BtnON = 0; rtcraw.weekday++; if(rtcraw.weekday > 6) rtcraw.weekday = 0;}
 8001fbe:	4b4c      	ldr	r3, [pc, #304]	; (80020f0 <setdatetime+0x344>)
 8001fc0:	691a      	ldr	r2, [r3, #16]
 8001fc2:	f012 2fff 	tst.w	r2, #4278255360	; 0xff00ff00
 8001fc6:	f040 8152 	bne.w	800226e <setdatetime+0x4c2>
 8001fca:	7d1a      	ldrb	r2, [r3, #20]
 8001fcc:	2a00      	cmp	r2, #0
 8001fce:	f040 814e 	bne.w	800226e <setdatetime+0x4c2>
      break;
    }
    
    LCD_printbutselhint(7, 3, 40);
 8001fd2:	2228      	movs	r2, #40	; 0x28
 8001fd4:	2103      	movs	r1, #3
 8001fd6:	2007      	movs	r0, #7
 8001fd8:	f7ff f97a 	bl	80012d0 <LCD_printbutselhint>
    LCD_printbutselhint(6, 3, 89);
 8001fdc:	2259      	movs	r2, #89	; 0x59
 8001fde:	2103      	movs	r1, #3
 8001fe0:	2006      	movs	r0, #6
 8001fe2:	f7ff f975 	bl	80012d0 <LCD_printbutselhint>
    LCD_printstr8x5((uint8*)"вых", 7, 85);
 8001fe6:	2255      	movs	r2, #85	; 0x55
 8001fe8:	2107      	movs	r1, #7
 8001fea:	4844      	ldr	r0, [pc, #272]	; (80020fc <setdatetime+0x350>)
 8001fec:	f7fe fc62 	bl	80008b4 <LCD_printstr8x5>
    LCD_printstr8x5((uint8*)"ок", 7, 110);
 8001ff0:	226e      	movs	r2, #110	; 0x6e
 8001ff2:	2107      	movs	r1, #7
 8001ff4:	4842      	ldr	r0, [pc, #264]	; (8002100 <setdatetime+0x354>)
 8001ff6:	f7fe fc5d 	bl	80008b4 <LCD_printstr8x5>
    LCD_printstr8x5((uint8*)"-  +", 2, 93); 
 8001ffa:	225d      	movs	r2, #93	; 0x5d
 8001ffc:	2102      	movs	r1, #2
 8001ffe:	4841      	ldr	r0, [pc, #260]	; (8002104 <setdatetime+0x358>)
 8002000:	f7fe fc58 	bl	80008b4 <LCD_printstr8x5>
    
    if(displaingSaveFlag) {
 8002004:	f1b8 0f00 	cmp.w	r8, #0
 8002008:	f000 8146 	beq.w	8002298 <setdatetime+0x4ec>
      tim = timestamp;
 800200c:	4c3e      	ldr	r4, [pc, #248]	; (8002108 <setdatetime+0x35c>)
 800200e:	6823      	ldr	r3, [r4, #0]
 8002010:	9300      	str	r3, [sp, #0]
      displaingSaveFlag = 0;
      displaingSaveLatch = 1;
    }
    if(displaingSaveLatch) LCD_printstr8x5((uint8*)"СОХРАНЕНО", 7, 2);
 8002012:	2202      	movs	r2, #2
 8002014:	2107      	movs	r1, #7
 8002016:	483d      	ldr	r0, [pc, #244]	; (800210c <setdatetime+0x360>)
 8002018:	f7fe fc4c 	bl	80008b4 <LCD_printstr8x5>
    if(((timestamp - tim) > 2000) && displaingSaveLatch) {
 800201c:	6823      	ldr	r3, [r4, #0]
 800201e:	9a00      	ldr	r2, [sp, #0]
 8002020:	1a9b      	subs	r3, r3, r2
 8002022:	f5b3 6ffa 	cmp.w	r3, #2000	; 0x7d0
 8002026:	f240 815a 	bls.w	80022de <setdatetime+0x532>
      LCD_erasestring(128, 7, 0);
 800202a:	2200      	movs	r2, #0
 800202c:	2107      	movs	r1, #7
 800202e:	2080      	movs	r0, #128	; 0x80
 8002030:	f7fe fd34 	bl	8000a9c <LCD_erasestring>
      displaingSaveLatch = 0;
 8002034:	2300      	movs	r3, #0
 8002036:	9301      	str	r3, [sp, #4]
    }
    
    rtcrawtobcd();
 8002038:	f7fe fa6e 	bl	8000518 <rtcrawtobcd>
    LCD_bufupload_buferase();
 800203c:	f7fe fd3c 	bl	8000ab8 <LCD_bufupload_buferase>
  {  
 8002040:	e6c5      	b.n	8001dce <setdatetime+0x22>
        LCD_erasestring(128, 1, 0);
 8002042:	2200      	movs	r2, #0
 8002044:	2101      	movs	r1, #1
 8002046:	2080      	movs	r0, #128	; 0x80
 8002048:	f7fe fd28 	bl	8000a9c <LCD_erasestring>
        LCD_printhorline(12, 8, 98);
 800204c:	2262      	movs	r2, #98	; 0x62
 800204e:	2108      	movs	r1, #8
 8002050:	200c      	movs	r0, #12
 8002052:	f7ff fa01 	bl	8001458 <LCD_printhorline>
        if(B3.BtnON || B3.HoldON || B3.StuckON){B3.BtnON = 0; rtcraw.sec--; if(rtcraw.sec > 59) rtcraw.sec = 59;}
 8002056:	f8db 3010 	ldr.w	r3, [fp, #16]
 800205a:	f013 2fff 	tst.w	r3, #4278255360	; 0xff00ff00
 800205e:	f040 80d5 	bne.w	800220c <setdatetime+0x460>
 8002062:	f89b 3014 	ldrb.w	r3, [fp, #20]
 8002066:	2b00      	cmp	r3, #0
 8002068:	f040 80d0 	bne.w	800220c <setdatetime+0x460>
        if(B4.BtnON || B4.HoldON || B4.StuckON){B4.BtnON = 0; rtcraw.sec++; if(rtcraw.sec > 59) rtcraw.sec = 0;}
 800206c:	4b20      	ldr	r3, [pc, #128]	; (80020f0 <setdatetime+0x344>)
 800206e:	691a      	ldr	r2, [r3, #16]
 8002070:	f012 2fff 	tst.w	r2, #4278255360	; 0xff00ff00
 8002074:	d102      	bne.n	800207c <setdatetime+0x2d0>
 8002076:	7d1a      	ldrb	r2, [r3, #20]
 8002078:	2a00      	cmp	r2, #0
 800207a:	d0aa      	beq.n	8001fd2 <setdatetime+0x226>
 800207c:	2200      	movs	r2, #0
 800207e:	745a      	strb	r2, [r3, #17]
 8002080:	783b      	ldrb	r3, [r7, #0]
 8002082:	3301      	adds	r3, #1
 8002084:	b2db      	uxtb	r3, r3
 8002086:	2b3b      	cmp	r3, #59	; 0x3b
 8002088:	bf94      	ite	ls
 800208a:	703b      	strbls	r3, [r7, #0]
 800208c:	703a      	strbhi	r2, [r7, #0]
 800208e:	e7a0      	b.n	8001fd2 <setdatetime+0x226>
        LCD_erasestring(128, 1, 0); 
 8002090:	2200      	movs	r2, #0
 8002092:	2101      	movs	r1, #1
 8002094:	2080      	movs	r0, #128	; 0x80
 8002096:	f7fe fd01 	bl	8000a9c <LCD_erasestring>
        LCD_printhorline(12, 8, 80); 
 800209a:	2250      	movs	r2, #80	; 0x50
 800209c:	2108      	movs	r1, #8
 800209e:	200c      	movs	r0, #12
 80020a0:	f7ff f9da 	bl	8001458 <LCD_printhorline>
        if(B3.BtnON || B3.HoldON || B3.StuckON){B3.BtnON = 0; rtcraw.min--; if(rtcraw.min > 59) rtcraw.min = 59;}
 80020a4:	f8db 3010 	ldr.w	r3, [fp, #16]
 80020a8:	f013 2fff 	tst.w	r3, #4278255360	; 0xff00ff00
 80020ac:	f040 80c4 	bne.w	8002238 <setdatetime+0x48c>
 80020b0:	f89b 3014 	ldrb.w	r3, [fp, #20]
 80020b4:	2b00      	cmp	r3, #0
 80020b6:	f040 80bf 	bne.w	8002238 <setdatetime+0x48c>
        if(B4.BtnON || B4.HoldON || B4.StuckON){B4.BtnON = 0; rtcraw.min++; if(rtcraw.min > 59) rtcraw.min = 0;}
 80020ba:	4b0d      	ldr	r3, [pc, #52]	; (80020f0 <setdatetime+0x344>)
 80020bc:	691a      	ldr	r2, [r3, #16]
 80020be:	f012 2fff 	tst.w	r2, #4278255360	; 0xff00ff00
 80020c2:	d102      	bne.n	80020ca <setdatetime+0x31e>
 80020c4:	7d1a      	ldrb	r2, [r3, #20]
 80020c6:	2a00      	cmp	r2, #0
 80020c8:	d083      	beq.n	8001fd2 <setdatetime+0x226>
 80020ca:	2200      	movs	r2, #0
 80020cc:	745a      	strb	r2, [r3, #17]
 80020ce:	787b      	ldrb	r3, [r7, #1]
 80020d0:	3301      	adds	r3, #1
 80020d2:	b2db      	uxtb	r3, r3
 80020d4:	2b3b      	cmp	r3, #59	; 0x3b
 80020d6:	bf94      	ite	ls
 80020d8:	707b      	strbls	r3, [r7, #1]
 80020da:	707a      	strbhi	r2, [r7, #1]
 80020dc:	e779      	b.n	8001fd2 <setdatetime+0x226>
 80020de:	bf00      	nop
 80020e0:	2000013c 	.word	0x2000013c
 80020e4:	200000ec 	.word	0x200000ec
 80020e8:	200000d4 	.word	0x200000d4
 80020ec:	20000104 	.word	0x20000104
 80020f0:	2000011c 	.word	0x2000011c
 80020f4:	20000138 	.word	0x20000138
 80020f8:	20000144 	.word	0x20000144
 80020fc:	08008e04 	.word	0x08008e04
 8002100:	08008e08 	.word	0x08008e08
 8002104:	08008e0c 	.word	0x08008e0c
 8002108:	2000014c 	.word	0x2000014c
 800210c:	08008e14 	.word	0x08008e14
        LCD_erasestring(128, 1, 0); 
 8002110:	2200      	movs	r2, #0
 8002112:	2101      	movs	r1, #1
 8002114:	2080      	movs	r0, #128	; 0x80
 8002116:	f7fe fcc1 	bl	8000a9c <LCD_erasestring>
        LCD_printhorline(12, 8, 18);
 800211a:	2212      	movs	r2, #18
 800211c:	2108      	movs	r1, #8
 800211e:	200c      	movs	r0, #12
 8002120:	f7ff f99a 	bl	8001458 <LCD_printhorline>
        if(B3.BtnON || B3.HoldON || B3.StuckON){B3.BtnON = 0; rtcraw.month--; if(rtcraw.month > 12) rtcraw.month = 12;}
 8002124:	f8db 3010 	ldr.w	r3, [fp, #16]
 8002128:	f013 2fff 	tst.w	r3, #4278255360	; 0xff00ff00
 800212c:	f040 80a9 	bne.w	8002282 <setdatetime+0x4d6>
 8002130:	f89b 3014 	ldrb.w	r3, [fp, #20]
 8002134:	2b00      	cmp	r3, #0
 8002136:	f040 80a4 	bne.w	8002282 <setdatetime+0x4d6>
        if(B4.BtnON || B4.HoldON || B4.StuckON){B4.BtnON = 0; rtcraw.month++; if(rtcraw.month > 12) rtcraw.month = 0;}
 800213a:	4b83      	ldr	r3, [pc, #524]	; (8002348 <setdatetime+0x59c>)
 800213c:	691a      	ldr	r2, [r3, #16]
 800213e:	f012 2fff 	tst.w	r2, #4278255360	; 0xff00ff00
 8002142:	d103      	bne.n	800214c <setdatetime+0x3a0>
 8002144:	7d1a      	ldrb	r2, [r3, #20]
 8002146:	2a00      	cmp	r2, #0
 8002148:	f43f af43 	beq.w	8001fd2 <setdatetime+0x226>
 800214c:	2200      	movs	r2, #0
 800214e:	745a      	strb	r2, [r3, #17]
 8002150:	797b      	ldrb	r3, [r7, #5]
 8002152:	3301      	adds	r3, #1
 8002154:	b2db      	uxtb	r3, r3
 8002156:	2b0c      	cmp	r3, #12
 8002158:	bf94      	ite	ls
 800215a:	717b      	strbls	r3, [r7, #5]
 800215c:	717a      	strbhi	r2, [r7, #5]
 800215e:	e738      	b.n	8001fd2 <setdatetime+0x226>
        LCD_erasestring(128, 1, 0); 
 8002160:	2200      	movs	r2, #0
 8002162:	2101      	movs	r1, #1
 8002164:	2080      	movs	r0, #128	; 0x80
 8002166:	f7fe fc99 	bl	8000a9c <LCD_erasestring>
        LCD_printhorline(12, 8, 62);
 800216a:	223e      	movs	r2, #62	; 0x3e
 800216c:	2108      	movs	r1, #8
 800216e:	200c      	movs	r0, #12
 8002170:	f7ff f972 	bl	8001458 <LCD_printhorline>
        if(B3.BtnON || B3.HoldON || B3.StuckON){B3.BtnON = 0; rtcraw.hour--; if(rtcraw.hour > 23) rtcraw.hour = 23;}
 8002174:	f8db 3010 	ldr.w	r3, [fp, #16]
 8002178:	f013 2fff 	tst.w	r3, #4278255360	; 0xff00ff00
 800217c:	d151      	bne.n	8002222 <setdatetime+0x476>
 800217e:	f89b 3014 	ldrb.w	r3, [fp, #20]
 8002182:	2b00      	cmp	r3, #0
 8002184:	d14d      	bne.n	8002222 <setdatetime+0x476>
        if(B4.BtnON || B4.HoldON || B4.StuckON){B4.BtnON = 0; rtcraw.hour++; if(rtcraw.hour > 23) rtcraw.hour = 0;}
 8002186:	4b70      	ldr	r3, [pc, #448]	; (8002348 <setdatetime+0x59c>)
 8002188:	691a      	ldr	r2, [r3, #16]
 800218a:	f012 2fff 	tst.w	r2, #4278255360	; 0xff00ff00
 800218e:	d103      	bne.n	8002198 <setdatetime+0x3ec>
 8002190:	7d1a      	ldrb	r2, [r3, #20]
 8002192:	2a00      	cmp	r2, #0
 8002194:	f43f af1d 	beq.w	8001fd2 <setdatetime+0x226>
 8002198:	2200      	movs	r2, #0
 800219a:	745a      	strb	r2, [r3, #17]
 800219c:	78bb      	ldrb	r3, [r7, #2]
 800219e:	3301      	adds	r3, #1
 80021a0:	b2db      	uxtb	r3, r3
 80021a2:	2b17      	cmp	r3, #23
 80021a4:	bf94      	ite	ls
 80021a6:	70bb      	strbls	r3, [r7, #2]
 80021a8:	70ba      	strbhi	r2, [r7, #2]
 80021aa:	e712      	b.n	8001fd2 <setdatetime+0x226>
        LCD_erasestring(128, 1, 0); 
 80021ac:	2200      	movs	r2, #0
 80021ae:	2101      	movs	r1, #1
 80021b0:	2080      	movs	r0, #128	; 0x80
 80021b2:	f7fe fc73 	bl	8000a9c <LCD_erasestring>
        LCD_printhorline(24, 8, 34); 
 80021b6:	2222      	movs	r2, #34	; 0x22
 80021b8:	2108      	movs	r1, #8
 80021ba:	2018      	movs	r0, #24
 80021bc:	f7ff f94c 	bl	8001458 <LCD_printhorline>
        if(B3.BtnON || B3.HoldON || B3.StuckON){B3.BtnON = 0; rtcraw.year--; if(rtcraw.year > 99) rtcraw.year = 99;}
 80021c0:	f8db 3010 	ldr.w	r3, [fp, #16]
 80021c4:	f013 2fff 	tst.w	r3, #4278255360	; 0xff00ff00
 80021c8:	d115      	bne.n	80021f6 <setdatetime+0x44a>
 80021ca:	f89b 3014 	ldrb.w	r3, [fp, #20]
 80021ce:	b993      	cbnz	r3, 80021f6 <setdatetime+0x44a>
        if(B4.BtnON || B4.HoldON || B4.StuckON){B4.BtnON = 0; rtcraw.year++; if(rtcraw.year > 99) rtcraw.year = 0;}
 80021d0:	4b5d      	ldr	r3, [pc, #372]	; (8002348 <setdatetime+0x59c>)
 80021d2:	691a      	ldr	r2, [r3, #16]
 80021d4:	f012 2fff 	tst.w	r2, #4278255360	; 0xff00ff00
 80021d8:	d103      	bne.n	80021e2 <setdatetime+0x436>
 80021da:	7d1a      	ldrb	r2, [r3, #20]
 80021dc:	2a00      	cmp	r2, #0
 80021de:	f43f aef8 	beq.w	8001fd2 <setdatetime+0x226>
 80021e2:	2200      	movs	r2, #0
 80021e4:	745a      	strb	r2, [r3, #17]
 80021e6:	79bb      	ldrb	r3, [r7, #6]
 80021e8:	3301      	adds	r3, #1
 80021ea:	b2db      	uxtb	r3, r3
 80021ec:	2b63      	cmp	r3, #99	; 0x63
 80021ee:	bf94      	ite	ls
 80021f0:	71bb      	strbls	r3, [r7, #6]
 80021f2:	71ba      	strbhi	r2, [r7, #6]
 80021f4:	e6ed      	b.n	8001fd2 <setdatetime+0x226>
        if(B3.BtnON || B3.HoldON || B3.StuckON){B3.BtnON = 0; rtcraw.year--; if(rtcraw.year > 99) rtcraw.year = 99;}
 80021f6:	2300      	movs	r3, #0
 80021f8:	f88b 3011 	strb.w	r3, [fp, #17]
 80021fc:	79bb      	ldrb	r3, [r7, #6]
 80021fe:	3b01      	subs	r3, #1
 8002200:	b2db      	uxtb	r3, r3
 8002202:	2b63      	cmp	r3, #99	; 0x63
 8002204:	bf88      	it	hi
 8002206:	2363      	movhi	r3, #99	; 0x63
 8002208:	71bb      	strb	r3, [r7, #6]
 800220a:	e7e1      	b.n	80021d0 <setdatetime+0x424>
        if(B3.BtnON || B3.HoldON || B3.StuckON){B3.BtnON = 0; rtcraw.sec--; if(rtcraw.sec > 59) rtcraw.sec = 59;}
 800220c:	2300      	movs	r3, #0
 800220e:	f88b 3011 	strb.w	r3, [fp, #17]
 8002212:	783b      	ldrb	r3, [r7, #0]
 8002214:	3b01      	subs	r3, #1
 8002216:	b2db      	uxtb	r3, r3
 8002218:	2b3b      	cmp	r3, #59	; 0x3b
 800221a:	bf88      	it	hi
 800221c:	233b      	movhi	r3, #59	; 0x3b
 800221e:	703b      	strb	r3, [r7, #0]
 8002220:	e724      	b.n	800206c <setdatetime+0x2c0>
        if(B3.BtnON || B3.HoldON || B3.StuckON){B3.BtnON = 0; rtcraw.hour--; if(rtcraw.hour > 23) rtcraw.hour = 23;}
 8002222:	2300      	movs	r3, #0
 8002224:	f88b 3011 	strb.w	r3, [fp, #17]
 8002228:	78bb      	ldrb	r3, [r7, #2]
 800222a:	3b01      	subs	r3, #1
 800222c:	b2db      	uxtb	r3, r3
 800222e:	2b17      	cmp	r3, #23
 8002230:	bf88      	it	hi
 8002232:	2317      	movhi	r3, #23
 8002234:	70bb      	strb	r3, [r7, #2]
 8002236:	e7a6      	b.n	8002186 <setdatetime+0x3da>
        if(B3.BtnON || B3.HoldON || B3.StuckON){B3.BtnON = 0; rtcraw.min--; if(rtcraw.min > 59) rtcraw.min = 59;}
 8002238:	2300      	movs	r3, #0
 800223a:	f88b 3011 	strb.w	r3, [fp, #17]
 800223e:	787b      	ldrb	r3, [r7, #1]
 8002240:	3b01      	subs	r3, #1
 8002242:	b2db      	uxtb	r3, r3
 8002244:	2b3b      	cmp	r3, #59	; 0x3b
 8002246:	bf88      	it	hi
 8002248:	233b      	movhi	r3, #59	; 0x3b
 800224a:	707b      	strb	r3, [r7, #1]
 800224c:	e735      	b.n	80020ba <setdatetime+0x30e>
        if(B3.BtnON || B3.HoldON || B3.StuckON){B3.BtnON = 0; rtcraw.weekday--; if(rtcraw.weekday > 6) rtcraw.weekday = 6;}
 800224e:	2300      	movs	r3, #0
 8002250:	f88b 3011 	strb.w	r3, [fp, #17]
 8002254:	793b      	ldrb	r3, [r7, #4]
 8002256:	3b01      	subs	r3, #1
 8002258:	b2db      	uxtb	r3, r3
 800225a:	2b06      	cmp	r3, #6
 800225c:	bf88      	it	hi
 800225e:	2306      	movhi	r3, #6
 8002260:	713b      	strb	r3, [r7, #4]
        if(B4.BtnON || B4.HoldON || B4.StuckON){B4.BtnON = 0; rtcraw.weekday++; if(rtcraw.weekday > 6) rtcraw.weekday = 0;}
 8002262:	4b39      	ldr	r3, [pc, #228]	; (8002348 <setdatetime+0x59c>)
 8002264:	691a      	ldr	r2, [r3, #16]
 8002266:	f012 2fff 	tst.w	r2, #4278255360	; 0xff00ff00
 800226a:	f43f aeae 	beq.w	8001fca <setdatetime+0x21e>
 800226e:	2200      	movs	r2, #0
 8002270:	745a      	strb	r2, [r3, #17]
 8002272:	793b      	ldrb	r3, [r7, #4]
 8002274:	3301      	adds	r3, #1
 8002276:	b2db      	uxtb	r3, r3
 8002278:	2b06      	cmp	r3, #6
 800227a:	bf94      	ite	ls
 800227c:	713b      	strbls	r3, [r7, #4]
 800227e:	713a      	strbhi	r2, [r7, #4]
 8002280:	e6a7      	b.n	8001fd2 <setdatetime+0x226>
        if(B3.BtnON || B3.HoldON || B3.StuckON){B3.BtnON = 0; rtcraw.month--; if(rtcraw.month > 12) rtcraw.month = 12;}
 8002282:	2300      	movs	r3, #0
 8002284:	f88b 3011 	strb.w	r3, [fp, #17]
 8002288:	797b      	ldrb	r3, [r7, #5]
 800228a:	3b01      	subs	r3, #1
 800228c:	b2db      	uxtb	r3, r3
 800228e:	2b0c      	cmp	r3, #12
 8002290:	bf88      	it	hi
 8002292:	230c      	movhi	r3, #12
 8002294:	717b      	strb	r3, [r7, #5]
 8002296:	e750      	b.n	800213a <setdatetime+0x38e>
    if(displaingSaveLatch) LCD_printstr8x5((uint8*)"СОХРАНЕНО", 7, 2);
 8002298:	9b01      	ldr	r3, [sp, #4]
 800229a:	2b00      	cmp	r3, #0
 800229c:	f43f aecc 	beq.w	8002038 <setdatetime+0x28c>
 80022a0:	4c2a      	ldr	r4, [pc, #168]	; (800234c <setdatetime+0x5a0>)
 80022a2:	e6b6      	b.n	8002012 <setdatetime+0x266>
      B2.BtnON = 0;
 80022a4:	2300      	movs	r3, #0
      RTCsenddata(rtcbcd.rtcdata);
 80022a6:	482a      	ldr	r0, [pc, #168]	; (8002350 <setdatetime+0x5a4>)
      B2.BtnON = 0;
 80022a8:	f88a 3011 	strb.w	r3, [sl, #17]
      RTCsenddata(rtcbcd.rtcdata);
 80022ac:	f7fe f932 	bl	8000514 <RTCsenddata>
    if(B1.BtnON){
 80022b0:	f899 1011 	ldrb.w	r1, [r9, #17]
      displaingSaveFlag = 1;
 80022b4:	f04f 0801 	mov.w	r8, #1
    if(B1.BtnON){
 80022b8:	2900      	cmp	r1, #0
 80022ba:	f43f ada1 	beq.w	8001e00 <setdatetime+0x54>
      B1.BtnON = 0;
 80022be:	2300      	movs	r3, #0
 80022c0:	f889 3011 	strb.w	r3, [r9, #17]
  }
}
 80022c4:	b00b      	add	sp, #44	; 0x2c
 80022c6:	e8bd 8ff0 	ldmia.w	sp!, {r4, r5, r6, r7, r8, r9, sl, fp, pc}
    if(joystick.left == 1)
 80022ca:	7813      	ldrb	r3, [r2, #0]
 80022cc:	f013 0604 	ands.w	r6, r3, #4
 80022d0:	f43f adae 	beq.w	8001e30 <setdatetime+0x84>
      joystick.left = 0;
 80022d4:	f361 0382 	bfi	r3, r1, #2, #1
      if(selectpos == 255) selectpos = 6;
 80022d8:	2606      	movs	r6, #6
      joystick.left = 0;
 80022da:	7013      	strb	r3, [r2, #0]
      if(selectpos == 255) selectpos = 6;
 80022dc:	e5a8      	b.n	8001e30 <setdatetime+0x84>
    if(((timestamp - tim) > 2000) && displaingSaveLatch) {
 80022de:	2301      	movs	r3, #1
 80022e0:	9301      	str	r3, [sp, #4]
 80022e2:	e6a9      	b.n	8002038 <setdatetime+0x28c>
        LCD_erasestring(128, 1, 0); 
 80022e4:	2200      	movs	r2, #0
 80022e6:	2101      	movs	r1, #1
 80022e8:	2080      	movs	r0, #128	; 0x80
 80022ea:	f7fe fbd7 	bl	8000a9c <LCD_erasestring>
        LCD_printhorline(12, 8, 2); 
 80022ee:	2202      	movs	r2, #2
 80022f0:	2108      	movs	r1, #8
 80022f2:	200c      	movs	r0, #12
 80022f4:	f7ff f8b0 	bl	8001458 <LCD_printhorline>
        if(B3.BtnON || B3.HoldON || B3.StuckON){B3.BtnON = 0; rtcraw.day--; if(rtcraw.day > 31) rtcraw.day = 31;}
 80022f8:	f8db 3010 	ldr.w	r3, [fp, #16]
 80022fc:	f013 2fff 	tst.w	r3, #4278255360	; 0xff00ff00
 8002300:	d018      	beq.n	8002334 <setdatetime+0x588>
 8002302:	2300      	movs	r3, #0
 8002304:	f88b 3011 	strb.w	r3, [fp, #17]
 8002308:	78fb      	ldrb	r3, [r7, #3]
 800230a:	3b01      	subs	r3, #1
 800230c:	b2db      	uxtb	r3, r3
 800230e:	2b1f      	cmp	r3, #31
 8002310:	bf88      	it	hi
 8002312:	231f      	movhi	r3, #31
 8002314:	70fb      	strb	r3, [r7, #3]
        if(B4.BtnON || B4.HoldON || B4.StuckON){B4.BtnON = 0; rtcraw.day++; if(rtcraw.day > 31) rtcraw.day = 0;}
 8002316:	4b0c      	ldr	r3, [pc, #48]	; (8002348 <setdatetime+0x59c>)
 8002318:	691a      	ldr	r2, [r3, #16]
 800231a:	f012 2fff 	tst.w	r2, #4278255360	; 0xff00ff00
 800231e:	d00e      	beq.n	800233e <setdatetime+0x592>
 8002320:	2200      	movs	r2, #0
 8002322:	745a      	strb	r2, [r3, #17]
 8002324:	78fb      	ldrb	r3, [r7, #3]
 8002326:	3301      	adds	r3, #1
 8002328:	b2db      	uxtb	r3, r3
 800232a:	2b1f      	cmp	r3, #31
 800232c:	bf94      	ite	ls
 800232e:	70fb      	strbls	r3, [r7, #3]
 8002330:	70fa      	strbhi	r2, [r7, #3]
 8002332:	e64e      	b.n	8001fd2 <setdatetime+0x226>
        if(B3.BtnON || B3.HoldON || B3.StuckON){B3.BtnON = 0; rtcraw.day--; if(rtcraw.day > 31) rtcraw.day = 31;}
 8002334:	f89b 3014 	ldrb.w	r3, [fp, #20]
 8002338:	2b00      	cmp	r3, #0
 800233a:	d0ec      	beq.n	8002316 <setdatetime+0x56a>
 800233c:	e7e1      	b.n	8002302 <setdatetime+0x556>
        if(B4.BtnON || B4.HoldON || B4.StuckON){B4.BtnON = 0; rtcraw.day++; if(rtcraw.day > 31) rtcraw.day = 0;}
 800233e:	7d1a      	ldrb	r2, [r3, #20]
 8002340:	2a00      	cmp	r2, #0
 8002342:	f43f ae46 	beq.w	8001fd2 <setdatetime+0x226>
 8002346:	e7eb      	b.n	8002320 <setdatetime+0x574>
 8002348:	2000011c 	.word	0x2000011c
 800234c:	2000014c 	.word	0x2000014c
 8002350:	2000013c 	.word	0x2000013c

08002354 <testscreen>:

void testscreen(void)
{
 8002354:	e92d 4ff0 	stmdb	sp!, {r4, r5, r6, r7, r8, r9, sl, fp, lr}
 8002358:	4d7d      	ldr	r5, [pc, #500]	; (8002550 <testscreen+0x1fc>)
 800235a:	f8df a1f8 	ldr.w	sl, [pc, #504]	; 8002554 <testscreen+0x200>
 800235e:	f8df 91f8 	ldr.w	r9, [pc, #504]	; 8002558 <testscreen+0x204>
 8002362:	4e7e      	ldr	r6, [pc, #504]	; (800255c <testscreen+0x208>)
 8002364:	4f7e      	ldr	r7, [pc, #504]	; (8002560 <testscreen+0x20c>)
 8002366:	b08b      	sub	sp, #44	; 0x2c
 8002368:	e001      	b.n	800236e <testscreen+0x1a>
  
    LCD_printbutselhint(1, 2, 89);
    LCD_printstr8x5((uint8*)"выход", 6, 86);
    TestBtn(&B1);
    if(B1.BtnON) {B1.BtnON = 0; return;}
    LCD_bufupload_buferase();
 800236a:	f7fe fba5 	bl	8000ab8 <LCD_bufupload_buferase>
    RTCgetdata(rtcbcd.rtcdata);
 800236e:	4878      	ldr	r0, [pc, #480]	; (8002550 <testscreen+0x1fc>)
 8002370:	f7fe f8ce 	bl	8000510 <RTCgetdata>
    rtcbcdtoraw();    
 8002374:	f7fe f92a 	bl	80005cc <rtcbcdtoraw>
    uint8 day[4] = {dig_to_smb((rtcbcd.day & 0x30) >> 4), dig_to_smb(rtcbcd.day & 0x0F), '.', '\0'};
 8002378:	78e8      	ldrb	r0, [r5, #3]
 800237a:	2400      	movs	r4, #0
 800237c:	f3c0 1001 	ubfx	r0, r0, #4, #2
 8002380:	f7fd fef6 	bl	8000170 <dig_to_smb>
 8002384:	f88d 0008 	strb.w	r0, [sp, #8]
 8002388:	78e8      	ldrb	r0, [r5, #3]
 800238a:	f04f 082e 	mov.w	r8, #46	; 0x2e
 800238e:	f000 000f 	and.w	r0, r0, #15
 8002392:	f7fd feed 	bl	8000170 <dig_to_smb>
 8002396:	f88d 0009 	strb.w	r0, [sp, #9]
    uint8 month[4] = {dig_to_smb(((rtcbcd.month & 0x10) >> 4) * 10), dig_to_smb(rtcbcd.month & 0x0F), '.', '\0'};
 800239a:	7968      	ldrb	r0, [r5, #5]
    uint8 day[4] = {dig_to_smb((rtcbcd.day & 0x30) >> 4), dig_to_smb(rtcbcd.day & 0x0F), '.', '\0'};
 800239c:	f88d 400b 	strb.w	r4, [sp, #11]
    uint8 month[4] = {dig_to_smb(((rtcbcd.month & 0x10) >> 4) * 10), dig_to_smb(rtcbcd.month & 0x0F), '.', '\0'};
 80023a0:	f3c0 1000 	ubfx	r0, r0, #4, #1
 80023a4:	eb00 0080 	add.w	r0, r0, r0, lsl #2
 80023a8:	0040      	lsls	r0, r0, #1
    uint8 day[4] = {dig_to_smb((rtcbcd.day & 0x30) >> 4), dig_to_smb(rtcbcd.day & 0x0F), '.', '\0'};
 80023aa:	f88d 800a 	strb.w	r8, [sp, #10]
    uint8 month[4] = {dig_to_smb(((rtcbcd.month & 0x10) >> 4) * 10), dig_to_smb(rtcbcd.month & 0x0F), '.', '\0'};
 80023ae:	f7fd fedf 	bl	8000170 <dig_to_smb>
 80023b2:	f88d 000c 	strb.w	r0, [sp, #12]
 80023b6:	7968      	ldrb	r0, [r5, #5]
    uint8 hour[4] = {dig_to_smb((rtcbcd.hour & 0x30) >> 4), dig_to_smb(rtcbcd.hour & 0x0F), ':', '\0'};
 80023b8:	f04f 0b3a 	mov.w	fp, #58	; 0x3a
    uint8 month[4] = {dig_to_smb(((rtcbcd.month & 0x10) >> 4) * 10), dig_to_smb(rtcbcd.month & 0x0F), '.', '\0'};
 80023bc:	f000 000f 	and.w	r0, r0, #15
 80023c0:	f7fd fed6 	bl	8000170 <dig_to_smb>
    uint8 year[5] = {'2', '0', dig_to_smb((rtcbcd.year & 0xF0) >> 4), dig_to_smb(rtcbcd.year & 0x0F), '\0'};
 80023c4:	f243 0332 	movw	r3, #12338	; 0x3032
    uint8 month[4] = {dig_to_smb(((rtcbcd.month & 0x10) >> 4) * 10), dig_to_smb(rtcbcd.month & 0x0F), '.', '\0'};
 80023c8:	f88d 000d 	strb.w	r0, [sp, #13]
    uint8 year[5] = {'2', '0', dig_to_smb((rtcbcd.year & 0xF0) >> 4), dig_to_smb(rtcbcd.year & 0x0F), '\0'};
 80023cc:	79a8      	ldrb	r0, [r5, #6]
 80023ce:	f8ad 3018 	strh.w	r3, [sp, #24]
 80023d2:	0900      	lsrs	r0, r0, #4
    uint8 month[4] = {dig_to_smb(((rtcbcd.month & 0x10) >> 4) * 10), dig_to_smb(rtcbcd.month & 0x0F), '.', '\0'};
 80023d4:	f88d 800e 	strb.w	r8, [sp, #14]
 80023d8:	f88d 400f 	strb.w	r4, [sp, #15]
    uint8 year[5] = {'2', '0', dig_to_smb((rtcbcd.year & 0xF0) >> 4), dig_to_smb(rtcbcd.year & 0x0F), '\0'};
 80023dc:	f7fd fec8 	bl	8000170 <dig_to_smb>
 80023e0:	f88d 001a 	strb.w	r0, [sp, #26]
 80023e4:	79a8      	ldrb	r0, [r5, #6]
 80023e6:	f000 000f 	and.w	r0, r0, #15
 80023ea:	f7fd fec1 	bl	8000170 <dig_to_smb>
    LCD_printstr8x5(day, 0, 2);
 80023ee:	2202      	movs	r2, #2
 80023f0:	4621      	mov	r1, r4
    uint8 year[5] = {'2', '0', dig_to_smb((rtcbcd.year & 0xF0) >> 4), dig_to_smb(rtcbcd.year & 0x0F), '\0'};
 80023f2:	f88d 001b 	strb.w	r0, [sp, #27]
    LCD_printstr8x5(day, 0, 2);
 80023f6:	a802      	add	r0, sp, #8
    uint8 year[5] = {'2', '0', dig_to_smb((rtcbcd.year & 0xF0) >> 4), dig_to_smb(rtcbcd.year & 0x0F), '\0'};
 80023f8:	f88d 401c 	strb.w	r4, [sp, #28]
    LCD_printstr8x5(day, 0, 2);
 80023fc:	f7fe fa5a 	bl	80008b4 <LCD_printstr8x5>
    LCD_printstr8x5(month, 0, 18);
 8002400:	2212      	movs	r2, #18
 8002402:	4621      	mov	r1, r4
 8002404:	a803      	add	r0, sp, #12
 8002406:	f7fe fa55 	bl	80008b4 <LCD_printstr8x5>
    LCD_printstr8x5(year, 0, 34);
 800240a:	2222      	movs	r2, #34	; 0x22
 800240c:	4621      	mov	r1, r4
 800240e:	a806      	add	r0, sp, #24
 8002410:	f7fe fa50 	bl	80008b4 <LCD_printstr8x5>
    uint8 hour[4] = {dig_to_smb((rtcbcd.hour & 0x30) >> 4), dig_to_smb(rtcbcd.hour & 0x0F), ':', '\0'};
 8002414:	78a8      	ldrb	r0, [r5, #2]
 8002416:	f3c0 1001 	ubfx	r0, r0, #4, #2
 800241a:	f7fd fea9 	bl	8000170 <dig_to_smb>
 800241e:	f88d 0010 	strb.w	r0, [sp, #16]
 8002422:	78a8      	ldrb	r0, [r5, #2]
 8002424:	f000 000f 	and.w	r0, r0, #15
 8002428:	f7fd fea2 	bl	8000170 <dig_to_smb>
 800242c:	f88d 0011 	strb.w	r0, [sp, #17]
    uint8 min[4] = {dig_to_smb((rtcbcd.min & 0x70) >> 4), dig_to_smb(rtcbcd.min & 0x0F), ':', '\0'};
 8002430:	7868      	ldrb	r0, [r5, #1]
    uint8 hour[4] = {dig_to_smb((rtcbcd.hour & 0x30) >> 4), dig_to_smb(rtcbcd.hour & 0x0F), ':', '\0'};
 8002432:	f88d b012 	strb.w	fp, [sp, #18]
    uint8 min[4] = {dig_to_smb((rtcbcd.min & 0x70) >> 4), dig_to_smb(rtcbcd.min & 0x0F), ':', '\0'};
 8002436:	f3c0 1002 	ubfx	r0, r0, #4, #3
    uint8 hour[4] = {dig_to_smb((rtcbcd.hour & 0x30) >> 4), dig_to_smb(rtcbcd.hour & 0x0F), ':', '\0'};
 800243a:	f88d 4013 	strb.w	r4, [sp, #19]
    uint8 min[4] = {dig_to_smb((rtcbcd.min & 0x70) >> 4), dig_to_smb(rtcbcd.min & 0x0F), ':', '\0'};
 800243e:	f7fd fe97 	bl	8000170 <dig_to_smb>
 8002442:	f88d 0014 	strb.w	r0, [sp, #20]
 8002446:	7868      	ldrb	r0, [r5, #1]
 8002448:	f000 000f 	and.w	r0, r0, #15
 800244c:	f7fd fe90 	bl	8000170 <dig_to_smb>
 8002450:	f88d 0015 	strb.w	r0, [sp, #21]
    uint8 sec[3] = {dig_to_smb((rtcbcd.sec & 0x70) >> 4), dig_to_smb(rtcbcd.sec & 0x0F), '\0'};
 8002454:	7828      	ldrb	r0, [r5, #0]
    uint8 min[4] = {dig_to_smb((rtcbcd.min & 0x70) >> 4), dig_to_smb(rtcbcd.min & 0x0F), ':', '\0'};
 8002456:	f88d b016 	strb.w	fp, [sp, #22]
    uint8 sec[3] = {dig_to_smb((rtcbcd.sec & 0x70) >> 4), dig_to_smb(rtcbcd.sec & 0x0F), '\0'};
 800245a:	f3c0 1002 	ubfx	r0, r0, #4, #3
    uint8 min[4] = {dig_to_smb((rtcbcd.min & 0x70) >> 4), dig_to_smb(rtcbcd.min & 0x0F), ':', '\0'};
 800245e:	f88d 4017 	strb.w	r4, [sp, #23]
    uint8 sec[3] = {dig_to_smb((rtcbcd.sec & 0x70) >> 4), dig_to_smb(rtcbcd.sec & 0x0F), '\0'};
 8002462:	f7fd fe85 	bl	8000170 <dig_to_smb>
 8002466:	f88d 0004 	strb.w	r0, [sp, #4]
 800246a:	7828      	ldrb	r0, [r5, #0]
 800246c:	f000 000f 	and.w	r0, r0, #15
 8002470:	f7fd fe7e 	bl	8000170 <dig_to_smb>
    LCD_printstr8x5(hour, 0, 62);
 8002474:	223e      	movs	r2, #62	; 0x3e
 8002476:	4621      	mov	r1, r4
    uint8 sec[3] = {dig_to_smb((rtcbcd.sec & 0x70) >> 4), dig_to_smb(rtcbcd.sec & 0x0F), '\0'};
 8002478:	f88d 0005 	strb.w	r0, [sp, #5]
    LCD_printstr8x5(hour, 0, 62);
 800247c:	a804      	add	r0, sp, #16
    uint8 sec[3] = {dig_to_smb((rtcbcd.sec & 0x70) >> 4), dig_to_smb(rtcbcd.sec & 0x0F), '\0'};
 800247e:	f88d 4006 	strb.w	r4, [sp, #6]
    LCD_printstr8x5(hour, 0, 62);
 8002482:	f7fe fa17 	bl	80008b4 <LCD_printstr8x5>
    LCD_printstr8x5(min, 0, 80);
 8002486:	2250      	movs	r2, #80	; 0x50
 8002488:	4621      	mov	r1, r4
 800248a:	a805      	add	r0, sp, #20
 800248c:	f7fe fa12 	bl	80008b4 <LCD_printstr8x5>
    LCD_printstr8x5(sec, 0, 98);
 8002490:	2262      	movs	r2, #98	; 0x62
 8002492:	4621      	mov	r1, r4
 8002494:	a801      	add	r0, sp, #4
 8002496:	f7fe fa0d 	bl	80008b4 <LCD_printstr8x5>
    LCD_printweekday(rtcraw.weekday, 0, 115);
 800249a:	2273      	movs	r2, #115	; 0x73
 800249c:	4621      	mov	r1, r4
 800249e:	f89a 0004 	ldrb.w	r0, [sl, #4]
 80024a2:	f7fe fb45 	bl	8000b30 <LCD_printweekday>
    batcheck();
 80024a6:	f7fd ff69 	bl	800037c <batcheck>
    LCD_printstr8x5((uint8*)"Бат. = ", 2, 2);
 80024aa:	2202      	movs	r2, #2
 80024ac:	482d      	ldr	r0, [pc, #180]	; (8002564 <testscreen+0x210>)
 80024ae:	4611      	mov	r1, r2
 80024b0:	f7fe fa00 	bl	80008b4 <LCD_printstr8x5>
    u16_to_str(temp, Ubat, DISABLE);
 80024b4:	4622      	mov	r2, r4
 80024b6:	f899 1000 	ldrb.w	r1, [r9]
 80024ba:	a808      	add	r0, sp, #32
 80024bc:	f7fd fe5e 	bl	800017c <u16_to_str>
    LCD_printstr8x5(temp, 2, 44);
 80024c0:	222c      	movs	r2, #44	; 0x2c
 80024c2:	2102      	movs	r1, #2
 80024c4:	a808      	add	r0, sp, #32
 80024c6:	f7fe f9f5 	bl	80008b4 <LCD_printstr8x5>
    LCD_printstr8x5((uint8*)"Ярк. = ", 3, 2);
 80024ca:	2103      	movs	r1, #3
 80024cc:	2202      	movs	r2, #2
 80024ce:	4826      	ldr	r0, [pc, #152]	; (8002568 <testscreen+0x214>)
 80024d0:	f7fe f9f0 	bl	80008b4 <LCD_printstr8x5>
    u16_to_str(temp, brightPWM, DISABLE);
 80024d4:	4b25      	ldr	r3, [pc, #148]	; (800256c <testscreen+0x218>)
 80024d6:	4622      	mov	r2, r4
 80024d8:	7819      	ldrb	r1, [r3, #0]
 80024da:	a808      	add	r0, sp, #32
 80024dc:	f7fd fe4e 	bl	800017c <u16_to_str>
    LCD_printstr8x5(temp, 3, 44);
 80024e0:	222c      	movs	r2, #44	; 0x2c
 80024e2:	2103      	movs	r1, #3
 80024e4:	a808      	add	r0, sp, #32
 80024e6:	f7fe f9e5 	bl	80008b4 <LCD_printstr8x5>
    LCD_printstr8x5((uint8*)"Дж.X = ", 5, 2);
 80024ea:	2105      	movs	r1, #5
 80024ec:	2202      	movs	r2, #2
 80024ee:	4820      	ldr	r0, [pc, #128]	; (8002570 <testscreen+0x21c>)
 80024f0:	f7fe f9e0 	bl	80008b4 <LCD_printstr8x5>
    u16_to_str(temp, joystick.ox, DISABLE);
 80024f4:	4622      	mov	r2, r4
 80024f6:	7871      	ldrb	r1, [r6, #1]
 80024f8:	a808      	add	r0, sp, #32
 80024fa:	f7fd fe3f 	bl	800017c <u16_to_str>
    LCD_printstr8x5(temp, 5, 44);
 80024fe:	222c      	movs	r2, #44	; 0x2c
 8002500:	2105      	movs	r1, #5
 8002502:	a808      	add	r0, sp, #32
 8002504:	f7fe f9d6 	bl	80008b4 <LCD_printstr8x5>
    LCD_printstr8x5((uint8*)"Дж.Y = ", 6, 2);
 8002508:	2106      	movs	r1, #6
 800250a:	2202      	movs	r2, #2
 800250c:	4819      	ldr	r0, [pc, #100]	; (8002574 <testscreen+0x220>)
 800250e:	f7fe f9d1 	bl	80008b4 <LCD_printstr8x5>
    u16_to_str(temp, joystick.oy, DISABLE);
 8002512:	4622      	mov	r2, r4
 8002514:	78b1      	ldrb	r1, [r6, #2]
 8002516:	a808      	add	r0, sp, #32
 8002518:	f7fd fe30 	bl	800017c <u16_to_str>
    LCD_printstr8x5(temp, 6, 44);
 800251c:	222c      	movs	r2, #44	; 0x2c
 800251e:	2106      	movs	r1, #6
 8002520:	a808      	add	r0, sp, #32
 8002522:	f7fe f9c7 	bl	80008b4 <LCD_printstr8x5>
    LCD_printbutselhint(1, 2, 89);
 8002526:	2259      	movs	r2, #89	; 0x59
 8002528:	2102      	movs	r1, #2
 800252a:	2001      	movs	r0, #1
 800252c:	f7fe fed0 	bl	80012d0 <LCD_printbutselhint>
    LCD_printstr8x5((uint8*)"выход", 6, 86);
 8002530:	2256      	movs	r2, #86	; 0x56
 8002532:	2106      	movs	r1, #6
 8002534:	4810      	ldr	r0, [pc, #64]	; (8002578 <testscreen+0x224>)
 8002536:	f7fe f9bd 	bl	80008b4 <LCD_printstr8x5>
    TestBtn(&B1);
 800253a:	4809      	ldr	r0, [pc, #36]	; (8002560 <testscreen+0x20c>)
 800253c:	f7fe f896 	bl	800066c <TestBtn>
    if(B1.BtnON) {B1.BtnON = 0; return;}
 8002540:	7c7b      	ldrb	r3, [r7, #17]
 8002542:	2b00      	cmp	r3, #0
 8002544:	f43f af11 	beq.w	800236a <testscreen+0x16>
 8002548:	747c      	strb	r4, [r7, #17]
  }
}
 800254a:	b00b      	add	sp, #44	; 0x2c
 800254c:	e8bd 8ff0 	ldmia.w	sp!, {r4, r5, r6, r7, r8, r9, sl, fp, pc}
 8002550:	2000013c 	.word	0x2000013c
 8002554:	20000144 	.word	0x20000144
 8002558:	20000134 	.word	0x20000134
 800255c:	20000138 	.word	0x20000138
 8002560:	200000d4 	.word	0x200000d4
 8002564:	08008e20 	.word	0x08008e20
 8002568:	08008e28 	.word	0x08008e28
 800256c:	20000006 	.word	0x20000006
 8002570:	08008e30 	.word	0x08008e30
 8002574:	08008e38 	.word	0x08008e38
 8002578:	08008e40 	.word	0x08008e40

0800257c <MainMenu>:
  
void MainMenu(void)
{
 800257c:	b538      	push	{r3, r4, r5, lr}
  //--------------------START MENU-------------------
  if(CFlags.MenuFl)
 800257e:	4cba      	ldr	r4, [pc, #744]	; (8002868 <MainMenu+0x2ec>)
 8002580:	7823      	ldrb	r3, [r4, #0]
 8002582:	07d8      	lsls	r0, r3, #31
 8002584:	d436      	bmi.n	80025f4 <MainMenu+0x78>
    LCD_printstr8x5((uint8*)"вход", 6, 93);
  }  
  //-------------------------------------------------
  
  //--------------------SETTINGS---------------------
  if(CFlags.MenuSettingsFl)
 8002586:	075d      	lsls	r5, r3, #29
 8002588:	f100 808e 	bmi.w	80026a8 <MainMenu+0x12c>
    LCD_printstr8x5((uint8*)"ДАТА/ВРЕМЯ", 4, 19);
    LCD_printstr8x5((uint8*)"ТЕСТ", 6, 19);
  }
  //-------------------------------------------------
  
  batcheck();
 800258c:	f7fd fef6 	bl	800037c <batcheck>
  BrightPWMgen(brightPWM);
 8002590:	4bb6      	ldr	r3, [pc, #728]	; (800286c <MainMenu+0x2f0>)
 8002592:	7818      	ldrb	r0, [r3, #0]
 8002594:	f7fd ff96 	bl	80004c4 <BrightPWMgen>
  getbrightlvl();
 8002598:	f7fd ff68 	bl	800046c <getbrightlvl>
  RTCgetdata(rtcbcd.rtcdata);
 800259c:	48b4      	ldr	r0, [pc, #720]	; (8002870 <MainMenu+0x2f4>)
 800259e:	f7fd ffb7 	bl	8000510 <RTCgetdata>
  rtcbcdtoraw();
 80025a2:	f7fe f813 	bl	80005cc <rtcbcdtoraw>
  
  LCD_printclockanddate(0, 26);
 80025a6:	211a      	movs	r1, #26
 80025a8:	2000      	movs	r0, #0
 80025aa:	f7fe fac9 	bl	8000b40 <LCD_printclockanddate>
  LCD_printbatlevel(batlvl, 0, 105);
 80025ae:	4bb1      	ldr	r3, [pc, #708]	; (8002874 <MainMenu+0x2f8>)
 80025b0:	2269      	movs	r2, #105	; 0x69
 80025b2:	7818      	ldrb	r0, [r3, #0]
 80025b4:	2100      	movs	r1, #0
 80025b6:	f7fe fd25 	bl	8001004 <LCD_printbatlevel>
  LCD_printbrightnes(0, 0);
 80025ba:	2100      	movs	r1, #0
 80025bc:	4608      	mov	r0, r1
 80025be:	f7fe fb71 	bl	8000ca4 <LCD_printbrightnes>
  LCD_printvertline(55, 8, 80);
 80025c2:	2250      	movs	r2, #80	; 0x50
 80025c4:	2108      	movs	r1, #8
 80025c6:	2037      	movs	r0, #55	; 0x37
 80025c8:	f7fe feb2 	bl	8001330 <LCD_printvertline>
  LCD_printvertline(55, 8, 0);
 80025cc:	2200      	movs	r2, #0
 80025ce:	2108      	movs	r1, #8
 80025d0:	2037      	movs	r0, #55	; 0x37
 80025d2:	f7fe fead 	bl	8001330 <LCD_printvertline>
  LCD_printvertline(55, 8, 126);
 80025d6:	227e      	movs	r2, #126	; 0x7e
 80025d8:	2108      	movs	r1, #8
 80025da:	2037      	movs	r0, #55	; 0x37
 80025dc:	f7fe fea8 	bl	8001330 <LCD_printvertline>

  LCD_bufupload_buferase();
 80025e0:	f7fe fa6a 	bl	8000ab8 <LCD_bufupload_buferase>
  HAL_Delay(50);
 80025e4:	2032      	movs	r0, #50	; 0x32
 80025e6:	f002 fda5 	bl	8005134 <HAL_Delay>
  
  //----------------------GAME-----------------------
  if(CFlags.RunGameFl)
 80025ea:	7823      	ldrb	r3, [r4, #0]
 80025ec:	079b      	lsls	r3, r3, #30
 80025ee:	f100 80ac 	bmi.w	800274a <MainMenu+0x1ce>
  {
    ufobattle();
  }
  //-------------------------------------------------
  
}
 80025f2:	bd38      	pop	{r3, r4, r5, pc}
    TestBtn(&B2);
 80025f4:	4da0      	ldr	r5, [pc, #640]	; (8002878 <MainMenu+0x2fc>)
    checkjoydir();
 80025f6:	f7fe f895 	bl	8000724 <checkjoydir>
    TestBtn(&B2);
 80025fa:	4628      	mov	r0, r5
 80025fc:	f7fe f836 	bl	800066c <TestBtn>
    if(B2.BtnON) 
 8002600:	7c6b      	ldrb	r3, [r5, #17]
 8002602:	b183      	cbz	r3, 8002626 <MainMenu+0xaa>
      B2.BtnON = 0;
 8002604:	2100      	movs	r1, #0
      switch(CFlags.coursorpos) { 
 8002606:	7823      	ldrb	r3, [r4, #0]
      B2.BtnON = 0;
 8002608:	7469      	strb	r1, [r5, #17]
      switch(CFlags.coursorpos) { 
 800260a:	095a      	lsrs	r2, r3, #5
 800260c:	2a02      	cmp	r2, #2
 800260e:	f000 8151 	beq.w	80028b4 <MainMenu+0x338>
 8002612:	2a03      	cmp	r2, #3
 8002614:	f000 8154 	beq.w	80028c0 <MainMenu+0x344>
 8002618:	2a01      	cmp	r2, #1
 800261a:	d104      	bne.n	8002626 <MainMenu+0xaa>
        case 1: CFlags.MenuFl = 0; CFlags.RunGameFl = 1; CFlags.coursorpos = 1; break;
 800261c:	f003 031c 	and.w	r3, r3, #28
 8002620:	f043 0322 	orr.w	r3, r3, #34	; 0x22
 8002624:	7023      	strb	r3, [r4, #0]
    if(joystick.down == 1)
 8002626:	4a95      	ldr	r2, [pc, #596]	; (800287c <MainMenu+0x300>)
 8002628:	7813      	ldrb	r3, [r2, #0]
 800262a:	0799      	lsls	r1, r3, #30
 800262c:	d510      	bpl.n	8002650 <MainMenu+0xd4>
      CFlags.coursorpos++;
 800262e:	2501      	movs	r5, #1
 8002630:	7821      	ldrb	r1, [r4, #0]
      joystick.down = 0;
 8002632:	f36f 0341 	bfc	r3, #1, #1
      CFlags.coursorpos++;
 8002636:	3120      	adds	r1, #32
      if(CFlags.coursorpos == 4) CFlags.coursorpos = 1;
 8002638:	f001 00e0 	and.w	r0, r1, #224	; 0xe0
      CFlags.coursorpos++;
 800263c:	7021      	strb	r1, [r4, #0]
      if(CFlags.coursorpos == 4) CFlags.coursorpos = 1;
 800263e:	2880      	cmp	r0, #128	; 0x80
 8002640:	b2c9      	uxtb	r1, r1
      joystick.down = 0;
 8002642:	7013      	strb	r3, [r2, #0]
      if(CFlags.coursorpos == 4) CFlags.coursorpos = 1;
 8002644:	bf05      	ittet	eq
 8002646:	f365 1147 	bfieq	r1, r5, #5, #3
    if(joystick.up == 1)
 800264a:	7813      	ldrbeq	r3, [r2, #0]
 800264c:	b2db      	uxtbne	r3, r3
      if(CFlags.coursorpos == 4) CFlags.coursorpos = 1;
 800264e:	7021      	strbeq	r1, [r4, #0]
    if(joystick.up == 1)
 8002650:	07db      	lsls	r3, r3, #31
 8002652:	f100 809c 	bmi.w	800278e <MainMenu+0x212>
    if(CFlags.coursorpos == 1) LCD_printmenucoursor(2, 4);
 8002656:	7823      	ldrb	r3, [r4, #0]
 8002658:	f003 03e0 	and.w	r3, r3, #224	; 0xe0
 800265c:	2b20      	cmp	r3, #32
 800265e:	f000 80f8 	beq.w	8002852 <MainMenu+0x2d6>
    if(CFlags.coursorpos == 2) LCD_printmenucoursor(4, 4);
 8002662:	2b40      	cmp	r3, #64	; 0x40
 8002664:	f000 80ed 	beq.w	8002842 <MainMenu+0x2c6>
    if(CFlags.coursorpos == 3) LCD_printmenucoursor(6, 4);
 8002668:	2b60      	cmp	r3, #96	; 0x60
 800266a:	f000 80a0 	beq.w	80027ae <MainMenu+0x232>
    LCD_printstr8x5((uint8*)"ИГРА", 2, 19);
 800266e:	2213      	movs	r2, #19
 8002670:	2102      	movs	r1, #2
 8002672:	4883      	ldr	r0, [pc, #524]	; (8002880 <MainMenu+0x304>)
 8002674:	f7fe f91e 	bl	80008b4 <LCD_printstr8x5>
    LCD_printstr8x5((uint8*)"НАСТРОЙКА", 4, 19);
 8002678:	2213      	movs	r2, #19
 800267a:	2104      	movs	r1, #4
 800267c:	4881      	ldr	r0, [pc, #516]	; (8002884 <MainMenu+0x308>)
 800267e:	f7fe f919 	bl	80008b4 <LCD_printstr8x5>
    LCD_printstr8x5((uint8*)"ВЫКЛЮЧИТЬ", 6, 19);
 8002682:	2213      	movs	r2, #19
 8002684:	2106      	movs	r1, #6
 8002686:	4880      	ldr	r0, [pc, #512]	; (8002888 <MainMenu+0x30c>)
 8002688:	f7fe f914 	bl	80008b4 <LCD_printstr8x5>
    LCD_printbutselhint(0, 2, 89);
 800268c:	2259      	movs	r2, #89	; 0x59
 800268e:	2102      	movs	r1, #2
 8002690:	2000      	movs	r0, #0
 8002692:	f7fe fe1d 	bl	80012d0 <LCD_printbutselhint>
    LCD_printstr8x5((uint8*)"вход", 6, 93);
 8002696:	225d      	movs	r2, #93	; 0x5d
 8002698:	2106      	movs	r1, #6
 800269a:	487c      	ldr	r0, [pc, #496]	; (800288c <MainMenu+0x310>)
 800269c:	f7fe f90a 	bl	80008b4 <LCD_printstr8x5>
  if(CFlags.MenuSettingsFl)
 80026a0:	7823      	ldrb	r3, [r4, #0]
 80026a2:	075d      	lsls	r5, r3, #29
 80026a4:	f57f af72 	bpl.w	800258c <MainMenu+0x10>
    TestBtn(&B1); TestBtn(&B2);
 80026a8:	4d73      	ldr	r5, [pc, #460]	; (8002878 <MainMenu+0x2fc>)
    checkjoydir();
 80026aa:	f7fe f83b 	bl	8000724 <checkjoydir>
    TestBtn(&B1); TestBtn(&B2);
 80026ae:	4878      	ldr	r0, [pc, #480]	; (8002890 <MainMenu+0x314>)
 80026b0:	f7fd ffdc 	bl	800066c <TestBtn>
 80026b4:	4628      	mov	r0, r5
 80026b6:	f7fd ffd9 	bl	800066c <TestBtn>
    if(B2.BtnON) 
 80026ba:	7c6b      	ldrb	r3, [r5, #17]
 80026bc:	b153      	cbz	r3, 80026d4 <MainMenu+0x158>
      B2.BtnON = 0;
 80026be:	2200      	movs	r2, #0
      switch(CFlags.coursorpos) { 
 80026c0:	7823      	ldrb	r3, [r4, #0]
      B2.BtnON = 0;
 80026c2:	746a      	strb	r2, [r5, #17]
      switch(CFlags.coursorpos) { 
 80026c4:	095b      	lsrs	r3, r3, #5
 80026c6:	2b02      	cmp	r3, #2
 80026c8:	f000 80cb 	beq.w	8002862 <MainMenu+0x2e6>
 80026cc:	2b03      	cmp	r3, #3
 80026ce:	d101      	bne.n	80026d4 <MainMenu+0x158>
        case 3: testscreen(); break;
 80026d0:	f7ff fe40 	bl	8002354 <testscreen>
    if(B1.BtnON) 
 80026d4:	4a6e      	ldr	r2, [pc, #440]	; (8002890 <MainMenu+0x314>)
 80026d6:	7c53      	ldrb	r3, [r2, #17]
 80026d8:	b13b      	cbz	r3, 80026ea <MainMenu+0x16e>
      B1.BtnON = 0;
 80026da:	2100      	movs	r1, #0
      CFlags.MenuFl = 1;
 80026dc:	7823      	ldrb	r3, [r4, #0]
      B1.BtnON = 0;
 80026de:	7451      	strb	r1, [r2, #17]
      CFlags.MenuFl = 1;
 80026e0:	f003 031a 	and.w	r3, r3, #26
 80026e4:	f043 0341 	orr.w	r3, r3, #65	; 0x41
 80026e8:	7023      	strb	r3, [r4, #0]
    if(joystick.down == 1)
 80026ea:	4a64      	ldr	r2, [pc, #400]	; (800287c <MainMenu+0x300>)
 80026ec:	7813      	ldrb	r3, [r2, #0]
 80026ee:	0798      	lsls	r0, r3, #30
 80026f0:	d510      	bpl.n	8002714 <MainMenu+0x198>
      CFlags.coursorpos++;
 80026f2:	2501      	movs	r5, #1
 80026f4:	7821      	ldrb	r1, [r4, #0]
      joystick.down = 0;
 80026f6:	f36f 0341 	bfc	r3, #1, #1
      CFlags.coursorpos++;
 80026fa:	3120      	adds	r1, #32
      if(CFlags.coursorpos == 4) CFlags.coursorpos = 1;
 80026fc:	f001 00e0 	and.w	r0, r1, #224	; 0xe0
      CFlags.coursorpos++;
 8002700:	7021      	strb	r1, [r4, #0]
      if(CFlags.coursorpos == 4) CFlags.coursorpos = 1;
 8002702:	2880      	cmp	r0, #128	; 0x80
 8002704:	b2c9      	uxtb	r1, r1
      joystick.down = 0;
 8002706:	7013      	strb	r3, [r2, #0]
      if(CFlags.coursorpos == 4) CFlags.coursorpos = 1;
 8002708:	bf05      	ittet	eq
 800270a:	f365 1147 	bfieq	r1, r5, #5, #3
    if(joystick.up == 1)
 800270e:	7813      	ldrbeq	r3, [r2, #0]
 8002710:	b2db      	uxtbne	r3, r3
      if(CFlags.coursorpos == 4) CFlags.coursorpos = 1;
 8002712:	7021      	strbeq	r1, [r4, #0]
    if(joystick.up == 1)
 8002714:	07d9      	lsls	r1, r3, #31
 8002716:	d41c      	bmi.n	8002752 <MainMenu+0x1d6>
    if(CFlags.coursorpos == 1) {
 8002718:	7823      	ldrb	r3, [r4, #0]
 800271a:	f003 03e0 	and.w	r3, r3, #224	; 0xe0
 800271e:	2b20      	cmp	r3, #32
 8002720:	d05c      	beq.n	80027dc <MainMenu+0x260>
    if(CFlags.coursorpos == 2) {
 8002722:	2b40      	cmp	r3, #64	; 0x40
 8002724:	d048      	beq.n	80027b8 <MainMenu+0x23c>
    if(CFlags.coursorpos == 3) {
 8002726:	2b60      	cmp	r3, #96	; 0x60
 8002728:	d022      	beq.n	8002770 <MainMenu+0x1f4>
    LCD_printstr8x5((uint8*)"ЯРКОСТЬ", 2, 19);
 800272a:	2213      	movs	r2, #19
 800272c:	2102      	movs	r1, #2
 800272e:	4859      	ldr	r0, [pc, #356]	; (8002894 <MainMenu+0x318>)
 8002730:	f7fe f8c0 	bl	80008b4 <LCD_printstr8x5>
    LCD_printstr8x5((uint8*)"ДАТА/ВРЕМЯ", 4, 19);
 8002734:	2213      	movs	r2, #19
 8002736:	2104      	movs	r1, #4
 8002738:	4857      	ldr	r0, [pc, #348]	; (8002898 <MainMenu+0x31c>)
 800273a:	f7fe f8bb 	bl	80008b4 <LCD_printstr8x5>
    LCD_printstr8x5((uint8*)"ТЕСТ", 6, 19);
 800273e:	2213      	movs	r2, #19
 8002740:	2106      	movs	r1, #6
 8002742:	4856      	ldr	r0, [pc, #344]	; (800289c <MainMenu+0x320>)
 8002744:	f7fe f8b6 	bl	80008b4 <LCD_printstr8x5>
 8002748:	e720      	b.n	800258c <MainMenu+0x10>
}
 800274a:	e8bd 4038 	ldmia.w	sp!, {r3, r4, r5, lr}
    ufobattle();
 800274e:	f002 bc5b 	b.w	8005008 <ufobattle>
      joystick.up = 0;
 8002752:	7811      	ldrb	r1, [r2, #0]
      CFlags.coursorpos--;
 8002754:	7823      	ldrb	r3, [r4, #0]
      joystick.up = 0;
 8002756:	f36f 0100 	bfc	r1, #0, #1
      CFlags.coursorpos--;
 800275a:	33e0      	adds	r3, #224	; 0xe0
      joystick.up = 0;
 800275c:	7011      	strb	r1, [r2, #0]
      CFlags.coursorpos--;
 800275e:	7023      	strb	r3, [r4, #0]
      if(CFlags.coursorpos == 0) CFlags.coursorpos = 3;
 8002760:	b2da      	uxtb	r2, r3
 8002762:	f013 03e0 	ands.w	r3, r3, #224	; 0xe0
 8002766:	d1da      	bne.n	800271e <MainMenu+0x1a2>
 8002768:	2303      	movs	r3, #3
 800276a:	f363 1247 	bfi	r2, r3, #5, #3
 800276e:	7022      	strb	r2, [r4, #0]
      LCD_printmenucoursor(6, 4);
 8002770:	2104      	movs	r1, #4
 8002772:	2006      	movs	r0, #6
 8002774:	f7fe fcfc 	bl	8001170 <LCD_printmenucoursor>
      LCD_printbutselhint(5, 2, 89);
 8002778:	2259      	movs	r2, #89	; 0x59
 800277a:	2102      	movs	r1, #2
 800277c:	2005      	movs	r0, #5
 800277e:	f7fe fda7 	bl	80012d0 <LCD_printbutselhint>
      LCD_printstr8x5((uint8*)"вых.вх.", 6, 86);
 8002782:	2256      	movs	r2, #86	; 0x56
 8002784:	2106      	movs	r1, #6
 8002786:	4846      	ldr	r0, [pc, #280]	; (80028a0 <MainMenu+0x324>)
 8002788:	f7fe f894 	bl	80008b4 <LCD_printstr8x5>
 800278c:	e7cd      	b.n	800272a <MainMenu+0x1ae>
      joystick.up = 0;
 800278e:	7811      	ldrb	r1, [r2, #0]
      CFlags.coursorpos--;
 8002790:	7823      	ldrb	r3, [r4, #0]
      joystick.up = 0;
 8002792:	f36f 0100 	bfc	r1, #0, #1
      CFlags.coursorpos--;
 8002796:	33e0      	adds	r3, #224	; 0xe0
      joystick.up = 0;
 8002798:	7011      	strb	r1, [r2, #0]
      CFlags.coursorpos--;
 800279a:	7023      	strb	r3, [r4, #0]
      if(CFlags.coursorpos == 0) CFlags.coursorpos = 3;
 800279c:	b2da      	uxtb	r2, r3
 800279e:	f013 03e0 	ands.w	r3, r3, #224	; 0xe0
 80027a2:	f47f af5b 	bne.w	800265c <MainMenu+0xe0>
 80027a6:	2303      	movs	r3, #3
 80027a8:	f363 1247 	bfi	r2, r3, #5, #3
 80027ac:	7022      	strb	r2, [r4, #0]
    if(CFlags.coursorpos == 3) LCD_printmenucoursor(6, 4);
 80027ae:	2104      	movs	r1, #4
 80027b0:	2006      	movs	r0, #6
 80027b2:	f7fe fcdd 	bl	8001170 <LCD_printmenucoursor>
 80027b6:	e75a      	b.n	800266e <MainMenu+0xf2>
      LCD_printmenucoursor(4, 4);
 80027b8:	2104      	movs	r1, #4
 80027ba:	4608      	mov	r0, r1
 80027bc:	f7fe fcd8 	bl	8001170 <LCD_printmenucoursor>
      LCD_printbutselhint(5, 2, 89);
 80027c0:	2259      	movs	r2, #89	; 0x59
 80027c2:	2102      	movs	r1, #2
 80027c4:	2005      	movs	r0, #5
 80027c6:	f7fe fd83 	bl	80012d0 <LCD_printbutselhint>
      LCD_printstr8x5((uint8*)"вых.вх.", 6, 86);
 80027ca:	2256      	movs	r2, #86	; 0x56
 80027cc:	2106      	movs	r1, #6
 80027ce:	4834      	ldr	r0, [pc, #208]	; (80028a0 <MainMenu+0x324>)
 80027d0:	f7fe f870 	bl	80008b4 <LCD_printstr8x5>
    if(CFlags.coursorpos == 3) {
 80027d4:	7823      	ldrb	r3, [r4, #0]
 80027d6:	f003 03e0 	and.w	r3, r3, #224	; 0xe0
 80027da:	e7a4      	b.n	8002726 <MainMenu+0x1aa>
      TestBtn(&B3); TestBtn(&B4);
 80027dc:	4d31      	ldr	r5, [pc, #196]	; (80028a4 <MainMenu+0x328>)
 80027de:	4628      	mov	r0, r5
 80027e0:	f7fd ff44 	bl	800066c <TestBtn>
 80027e4:	4830      	ldr	r0, [pc, #192]	; (80028a8 <MainMenu+0x32c>)
 80027e6:	f7fd ff41 	bl	800066c <TestBtn>
      if(B3.BtnON || B3.HoldON || B3.StuckON) {B3.BtnON = 0; decbright();}
 80027ea:	692b      	ldr	r3, [r5, #16]
 80027ec:	f013 2fff 	tst.w	r3, #4278255360	; 0xff00ff00
 80027f0:	d101      	bne.n	80027f6 <MainMenu+0x27a>
 80027f2:	7d2b      	ldrb	r3, [r5, #20]
 80027f4:	b11b      	cbz	r3, 80027fe <MainMenu+0x282>
 80027f6:	2300      	movs	r3, #0
 80027f8:	746b      	strb	r3, [r5, #17]
 80027fa:	f7fd fe4b 	bl	8000494 <decbright>
      if(B4.BtnON || B4.HoldON || B4.StuckON) {B4.BtnON = 0; incbright();}      
 80027fe:	4b2a      	ldr	r3, [pc, #168]	; (80028a8 <MainMenu+0x32c>)
 8002800:	691a      	ldr	r2, [r3, #16]
 8002802:	f012 2fff 	tst.w	r2, #4278255360	; 0xff00ff00
 8002806:	d101      	bne.n	800280c <MainMenu+0x290>
 8002808:	7d1a      	ldrb	r2, [r3, #20]
 800280a:	b11a      	cbz	r2, 8002814 <MainMenu+0x298>
 800280c:	2200      	movs	r2, #0
 800280e:	745a      	strb	r2, [r3, #17]
 8002810:	f7fd fe4c 	bl	80004ac <incbright>
      LCD_printmenucoursor(2, 4);
 8002814:	2104      	movs	r1, #4
 8002816:	2002      	movs	r0, #2
 8002818:	f7fe fcaa 	bl	8001170 <LCD_printmenucoursor>
      LCD_printbutselhint(4, 2, 89);
 800281c:	2259      	movs	r2, #89	; 0x59
 800281e:	2102      	movs	r1, #2
 8002820:	2004      	movs	r0, #4
 8002822:	f7fe fd55 	bl	80012d0 <LCD_printbutselhint>
      LCD_printstr8x5((uint8*)"вых.", 6, 86);
 8002826:	2256      	movs	r2, #86	; 0x56
 8002828:	2106      	movs	r1, #6
 800282a:	4820      	ldr	r0, [pc, #128]	; (80028ac <MainMenu+0x330>)
 800282c:	f7fe f842 	bl	80008b4 <LCD_printstr8x5>
      LCD_printstr8x5((uint8*)"-  +", 1, 93);
 8002830:	225d      	movs	r2, #93	; 0x5d
 8002832:	2101      	movs	r1, #1
 8002834:	481e      	ldr	r0, [pc, #120]	; (80028b0 <MainMenu+0x334>)
 8002836:	f7fe f83d 	bl	80008b4 <LCD_printstr8x5>
    if(CFlags.coursorpos == 2) {
 800283a:	7823      	ldrb	r3, [r4, #0]
 800283c:	f003 03e0 	and.w	r3, r3, #224	; 0xe0
 8002840:	e76f      	b.n	8002722 <MainMenu+0x1a6>
    if(CFlags.coursorpos == 2) LCD_printmenucoursor(4, 4);
 8002842:	2104      	movs	r1, #4
 8002844:	4608      	mov	r0, r1
 8002846:	f7fe fc93 	bl	8001170 <LCD_printmenucoursor>
    if(CFlags.coursorpos == 3) LCD_printmenucoursor(6, 4);
 800284a:	7823      	ldrb	r3, [r4, #0]
 800284c:	f003 03e0 	and.w	r3, r3, #224	; 0xe0
 8002850:	e70a      	b.n	8002668 <MainMenu+0xec>
    if(CFlags.coursorpos == 1) LCD_printmenucoursor(2, 4);
 8002852:	2104      	movs	r1, #4
 8002854:	2002      	movs	r0, #2
 8002856:	f7fe fc8b 	bl	8001170 <LCD_printmenucoursor>
    if(CFlags.coursorpos == 2) LCD_printmenucoursor(4, 4);
 800285a:	7823      	ldrb	r3, [r4, #0]
 800285c:	f003 03e0 	and.w	r3, r3, #224	; 0xe0
 8002860:	e6ff      	b.n	8002662 <MainMenu+0xe6>
        case 2: setdatetime(); break;
 8002862:	f7ff faa3 	bl	8001dac <setdatetime>
 8002866:	e735      	b.n	80026d4 <MainMenu+0x158>
 8002868:	20000000 	.word	0x20000000
 800286c:	20000006 	.word	0x20000006
 8002870:	2000013c 	.word	0x2000013c
 8002874:	20000135 	.word	0x20000135
 8002878:	200000ec 	.word	0x200000ec
 800287c:	20000138 	.word	0x20000138
 8002880:	08008e48 	.word	0x08008e48
 8002884:	08008e50 	.word	0x08008e50
 8002888:	08008e5c 	.word	0x08008e5c
 800288c:	08008e68 	.word	0x08008e68
 8002890:	200000d4 	.word	0x200000d4
 8002894:	08008e80 	.word	0x08008e80
 8002898:	08008e88 	.word	0x08008e88
 800289c:	08008e94 	.word	0x08008e94
 80028a0:	08008e78 	.word	0x08008e78
 80028a4:	20000104 	.word	0x20000104
 80028a8:	2000011c 	.word	0x2000011c
 80028ac:	08008e70 	.word	0x08008e70
 80028b0:	08008e0c 	.word	0x08008e0c
        case 2: CFlags.MenuFl = 0; CFlags.MenuSettingsFl = 1; CFlags.coursorpos = 1; break;
 80028b4:	f003 031a 	and.w	r3, r3, #26
 80028b8:	f043 0324 	orr.w	r3, r3, #36	; 0x24
 80028bc:	7023      	strb	r3, [r4, #0]
 80028be:	e6b2      	b.n	8002626 <MainMenu+0xaa>
        case 3: ShutDown(); break;
 80028c0:	f7fd fdbe 	bl	8000440 <ShutDown>
 80028c4:	e6af      	b.n	8002626 <MainMenu+0xaa>
 80028c6:	bf00      	nop

080028c8 <SchedAddEvent>:

static uint8 SchedulerRegistredEvents = 0;
tEvent SchedulerEvent[MAX_EVENT];

uint8 SchedAddEvent(void (*func)(void), uint16 period)
{
 80028c8:	b510      	push	{r4, lr}
  SchedulerEvent[SchedulerRegistredEvents].callfunc = func;
  SchedulerEvent[SchedulerRegistredEvents].period = period;
  SchedulerEvent[SchedulerRegistredEvents].run_flag = ON;
 80028ca:	f04f 0e01 	mov.w	lr, #1
{
 80028ce:	4604      	mov	r4, r0
  SchedulerEvent[SchedulerRegistredEvents].callfunc = func;
 80028d0:	4b07      	ldr	r3, [pc, #28]	; (80028f0 <SchedAddEvent+0x28>)
 80028d2:	4a08      	ldr	r2, [pc, #32]	; (80028f4 <SchedAddEvent+0x2c>)
 80028d4:	7818      	ldrb	r0, [r3, #0]
 80028d6:	eb02 1c00 	add.w	ip, r2, r0, lsl #4
  SchedulerEvent[SchedulerRegistredEvents].period = period;
 80028da:	f8cc 1004 	str.w	r1, [ip, #4]
  return SchedulerRegistredEvents++;
 80028de:	eb00 010e 	add.w	r1, r0, lr
 80028e2:	7019      	strb	r1, [r3, #0]
  SchedulerEvent[SchedulerRegistredEvents].run_flag = ON;
 80028e4:	f88c e00c 	strb.w	lr, [ip, #12]
  SchedulerEvent[SchedulerRegistredEvents].callfunc = func;
 80028e8:	0103      	lsls	r3, r0, #4
 80028ea:	50d4      	str	r4, [r2, r3]
}
 80028ec:	bd10      	pop	{r4, pc}
 80028ee:	bf00      	nop
 80028f0:	200007c8 	.word	0x200007c8
 80028f4:	20000688 	.word	0x20000688

080028f8 <SchedRemoveAllEvents>:

void SchedRemoveAllEvents(void)
{
  SchedulerRegistredEvents = 0;
 80028f8:	2200      	movs	r2, #0
 80028fa:	4b01      	ldr	r3, [pc, #4]	; (8002900 <SchedRemoveAllEvents+0x8>)
 80028fc:	701a      	strb	r2, [r3, #0]
}
 80028fe:	4770      	bx	lr
 8002900:	200007c8 	.word	0x200007c8

08002904 <SchedEventProcess>:

void SchedEventProcess(void)
{
 8002904:	e92d 41f0 	stmdb	sp!, {r4, r5, r6, r7, r8, lr}
  for(uint8 i = 0; i < SchedulerRegistredEvents; i++)
 8002908:	4d10      	ldr	r5, [pc, #64]	; (800294c <SchedEventProcess+0x48>)
 800290a:	782f      	ldrb	r7, [r5, #0]
 800290c:	b1af      	cbz	r7, 800293a <SchedEventProcess+0x36>
 800290e:	2400      	movs	r4, #0
 8002910:	4623      	mov	r3, r4
  {
    if(SchedulerEvent[i].eventcounter >= SchedulerEvent[i].period)
    {
      SchedulerEvent[i].eventcounter = 0;
 8002912:	4626      	mov	r6, r4
 8002914:	f8df 8038 	ldr.w	r8, [pc, #56]	; 8002950 <SchedEventProcess+0x4c>
    if(SchedulerEvent[i].eventcounter >= SchedulerEvent[i].period)
 8002918:	eb08 1203 	add.w	r2, r8, r3, lsl #4
 800291c:	e9d2 1001 	ldrd	r1, r0, [r2, #4]
 8002920:	4288      	cmp	r0, r1
 8002922:	ea4f 1303 	mov.w	r3, r3, lsl #4
 8002926:	d30a      	bcc.n	800293e <SchedEventProcess+0x3a>
      SchedulerEvent[i].callfunc();
 8002928:	f858 3003 	ldr.w	r3, [r8, r3]
      SchedulerEvent[i].eventcounter = 0;
 800292c:	6096      	str	r6, [r2, #8]
      SchedulerEvent[i].callfunc();
 800292e:	4798      	blx	r3
  for(uint8 i = 0; i < SchedulerRegistredEvents; i++)
 8002930:	3401      	adds	r4, #1
 8002932:	782f      	ldrb	r7, [r5, #0]
 8002934:	b2e3      	uxtb	r3, r4
 8002936:	429f      	cmp	r7, r3
 8002938:	d8ee      	bhi.n	8002918 <SchedEventProcess+0x14>
    }
  }
}
 800293a:	e8bd 81f0 	ldmia.w	sp!, {r4, r5, r6, r7, r8, pc}
  for(uint8 i = 0; i < SchedulerRegistredEvents; i++)
 800293e:	3401      	adds	r4, #1
 8002940:	b2e3      	uxtb	r3, r4
 8002942:	42bb      	cmp	r3, r7
 8002944:	d3e8      	bcc.n	8002918 <SchedEventProcess+0x14>
}
 8002946:	e8bd 81f0 	ldmia.w	sp!, {r4, r5, r6, r7, r8, pc}
 800294a:	bf00      	nop
 800294c:	200007c8 	.word	0x200007c8
 8002950:	20000688 	.word	0x20000688

08002954 <SchedPeriodIncr>:

void SchedPeriodIncr(void)
{
  for(uint8 i = 0; i < SchedulerRegistredEvents; i++) {
 8002954:	4b09      	ldr	r3, [pc, #36]	; (800297c <SchedPeriodIncr+0x28>)
 8002956:	7819      	ldrb	r1, [r3, #0]
 8002958:	b171      	cbz	r1, 8002978 <SchedPeriodIncr+0x24>
 800295a:	4b09      	ldr	r3, [pc, #36]	; (8002980 <SchedPeriodIncr+0x2c>)
 800295c:	3901      	subs	r1, #1
 800295e:	b2ca      	uxtb	r2, r1
 8002960:	f103 0110 	add.w	r1, r3, #16
 8002964:	eb01 1102 	add.w	r1, r1, r2, lsl #4
    if(SchedulerEvent[i].run_flag) 
 8002968:	7b1a      	ldrb	r2, [r3, #12]
 800296a:	b112      	cbz	r2, 8002972 <SchedPeriodIncr+0x1e>
      SchedulerEvent[i].eventcounter++;
 800296c:	689a      	ldr	r2, [r3, #8]
 800296e:	3201      	adds	r2, #1
 8002970:	609a      	str	r2, [r3, #8]
  for(uint8 i = 0; i < SchedulerRegistredEvents; i++) {
 8002972:	3310      	adds	r3, #16
 8002974:	428b      	cmp	r3, r1
 8002976:	d1f7      	bne.n	8002968 <SchedPeriodIncr+0x14>
  }
}
 8002978:	4770      	bx	lr
 800297a:	bf00      	nop
 800297c:	200007c8 	.word	0x200007c8
 8002980:	20000688 	.word	0x20000688

08002984 <SchedRemoveEvent>:

void  SchedRemoveEvent(void (*func)(void))
{
 8002984:	b570      	push	{r4, r5, r6, lr}
    uint8 temp_fl = 0;
    for(uint8 i = 0; i < SchedulerRegistredEvents; i++){
 8002986:	4d19      	ldr	r5, [pc, #100]	; (80029ec <SchedRemoveEvent+0x68>)
 8002988:	782b      	ldrb	r3, [r5, #0]
 800298a:	b353      	cbz	r3, 80029e2 <SchedRemoveEvent+0x5e>
 800298c:	4918      	ldr	r1, [pc, #96]	; (80029f0 <SchedRemoveEvent+0x6c>)
 800298e:	3b01      	subs	r3, #1
 8002990:	b2dc      	uxtb	r4, r3
        if(SchedulerEvent[i].callfunc == func || temp_fl) {
 8002992:	680b      	ldr	r3, [r1, #0]
 8002994:	f101 0c10 	add.w	ip, r1, #16
 8002998:	4283      	cmp	r3, r0
 800299a:	eb0c 1c04 	add.w	ip, ip, r4, lsl #4
 800299e:	d021      	beq.n	80029e4 <SchedRemoveEvent+0x60>
    for(uint8 i = 0; i < SchedulerRegistredEvents; i++){
 80029a0:	f101 0210 	add.w	r2, r1, #16
 80029a4:	4562      	cmp	r2, ip
 80029a6:	d01c      	beq.n	80029e2 <SchedRemoveEvent+0x5e>
        if(SchedulerEvent[i].callfunc == func || temp_fl) {
 80029a8:	690e      	ldr	r6, [r1, #16]
 80029aa:	4613      	mov	r3, r2
 80029ac:	4286      	cmp	r6, r0
    for(uint8 i = 0; i < SchedulerRegistredEvents; i++){
 80029ae:	f101 0120 	add.w	r1, r1, #32
        if(SchedulerEvent[i].callfunc == func || temp_fl) {
 80029b2:	d008      	beq.n	80029c6 <SchedRemoveEvent+0x42>
    for(uint8 i = 0; i < SchedulerRegistredEvents; i++){
 80029b4:	4561      	cmp	r1, ip
 80029b6:	d014      	beq.n	80029e2 <SchedRemoveEvent+0x5e>
        if(SchedulerEvent[i].callfunc == func || temp_fl) {
 80029b8:	680a      	ldr	r2, [r1, #0]
 80029ba:	460b      	mov	r3, r1
 80029bc:	4282      	cmp	r2, r0
 80029be:	d1ef      	bne.n	80029a0 <SchedRemoveEvent+0x1c>
    for(uint8 i = 0; i < SchedulerRegistredEvents; i++){
 80029c0:	461a      	mov	r2, r3
 80029c2:	e000      	b.n	80029c6 <SchedRemoveEvent+0x42>
 80029c4:	4613      	mov	r3, r2
            temp_fl = 1;
            SchedulerEvent[i].callfunc = SchedulerEvent[i+1].callfunc;
            SchedulerEvent[i].period = SchedulerEvent[i+1].period;
 80029c6:	e9d3 0105 	ldrd	r0, r1, [r3, #20]
            SchedulerEvent[i].run_flag = SchedulerEvent[i+1].run_flag;
 80029ca:	f893 e01c 	ldrb.w	lr, [r3, #28]
            SchedulerEvent[i].callfunc = SchedulerEvent[i+1].callfunc;
 80029ce:	691e      	ldr	r6, [r3, #16]
    for(uint8 i = 0; i < SchedulerRegistredEvents; i++){
 80029d0:	3210      	adds	r2, #16
 80029d2:	4562      	cmp	r2, ip
            SchedulerEvent[i].period = SchedulerEvent[i+1].period;
 80029d4:	e9c3 0101 	strd	r0, r1, [r3, #4]
            SchedulerEvent[i].callfunc = SchedulerEvent[i+1].callfunc;
 80029d8:	601e      	str	r6, [r3, #0]
            SchedulerEvent[i].run_flag = SchedulerEvent[i+1].run_flag;
 80029da:	f883 e00c 	strb.w	lr, [r3, #12]
    for(uint8 i = 0; i < SchedulerRegistredEvents; i++){
 80029de:	d1f1      	bne.n	80029c4 <SchedRemoveEvent+0x40>
            SchedulerEvent[i].eventcounter = SchedulerEvent[i+1].eventcounter;
        }
    }
    if(temp_fl) SchedulerRegistredEvents--;
 80029e0:	702c      	strb	r4, [r5, #0]
}
 80029e2:	bd70      	pop	{r4, r5, r6, pc}
 80029e4:	460a      	mov	r2, r1
 80029e6:	460b      	mov	r3, r1
 80029e8:	e7ed      	b.n	80029c6 <SchedRemoveEvent+0x42>
 80029ea:	bf00      	nop
 80029ec:	200007c8 	.word	0x200007c8
 80029f0:	20000688 	.word	0x20000688

080029f4 <SchedPauseEvent>:

void  SchedPauseEvent(void (*func)(void))
{
    for(uint8 i = 0; i < SchedulerRegistredEvents; i ++){
 80029f4:	4b0a      	ldr	r3, [pc, #40]	; (8002a20 <SchedPauseEvent+0x2c>)
 80029f6:	7819      	ldrb	r1, [r3, #0]
 80029f8:	b181      	cbz	r1, 8002a1c <SchedPauseEvent+0x28>
        if(SchedulerEvent[i].callfunc == func){
            SchedulerEvent[i].run_flag = OFF;
 80029fa:	f04f 0c00 	mov.w	ip, #0
 80029fe:	4b09      	ldr	r3, [pc, #36]	; (8002a24 <SchedPauseEvent+0x30>)
 8002a00:	3901      	subs	r1, #1
 8002a02:	b2ca      	uxtb	r2, r1
 8002a04:	f103 0110 	add.w	r1, r3, #16
 8002a08:	eb01 1102 	add.w	r1, r1, r2, lsl #4
        if(SchedulerEvent[i].callfunc == func){
 8002a0c:	681a      	ldr	r2, [r3, #0]
    for(uint8 i = 0; i < SchedulerRegistredEvents; i ++){
 8002a0e:	3310      	adds	r3, #16
        if(SchedulerEvent[i].callfunc == func){
 8002a10:	4290      	cmp	r0, r2
            SchedulerEvent[i].run_flag = OFF;
 8002a12:	bf08      	it	eq
 8002a14:	f803 cc04 	strbeq.w	ip, [r3, #-4]
    for(uint8 i = 0; i < SchedulerRegistredEvents; i ++){
 8002a18:	428b      	cmp	r3, r1
 8002a1a:	d1f7      	bne.n	8002a0c <SchedPauseEvent+0x18>
        }
    }
}
 8002a1c:	4770      	bx	lr
 8002a1e:	bf00      	nop
 8002a20:	200007c8 	.word	0x200007c8
 8002a24:	20000688 	.word	0x20000688

08002a28 <SchedResumeEvent>:
void  SchedResumeEvent(void (*func)(void))
{
    for(uint8 i = 0; i < SchedulerRegistredEvents; i ++){
 8002a28:	4b0a      	ldr	r3, [pc, #40]	; (8002a54 <SchedResumeEvent+0x2c>)
 8002a2a:	7819      	ldrb	r1, [r3, #0]
 8002a2c:	b181      	cbz	r1, 8002a50 <SchedResumeEvent+0x28>
        if(SchedulerEvent[i].callfunc == func){
            SchedulerEvent[i].run_flag = ON;
 8002a2e:	f04f 0c01 	mov.w	ip, #1
 8002a32:	4b09      	ldr	r3, [pc, #36]	; (8002a58 <SchedResumeEvent+0x30>)
 8002a34:	3901      	subs	r1, #1
 8002a36:	b2ca      	uxtb	r2, r1
 8002a38:	f103 0110 	add.w	r1, r3, #16
 8002a3c:	eb01 1102 	add.w	r1, r1, r2, lsl #4
        if(SchedulerEvent[i].callfunc == func){
 8002a40:	681a      	ldr	r2, [r3, #0]
    for(uint8 i = 0; i < SchedulerRegistredEvents; i ++){
 8002a42:	3310      	adds	r3, #16
        if(SchedulerEvent[i].callfunc == func){
 8002a44:	4290      	cmp	r0, r2
            SchedulerEvent[i].run_flag = ON;
 8002a46:	bf08      	it	eq
 8002a48:	f803 cc04 	strbeq.w	ip, [r3, #-4]
    for(uint8 i = 0; i < SchedulerRegistredEvents; i ++){
 8002a4c:	428b      	cmp	r3, r1
 8002a4e:	d1f7      	bne.n	8002a40 <SchedResumeEvent+0x18>
        }
    }
}
 8002a50:	4770      	bx	lr
 8002a52:	bf00      	nop
 8002a54:	200007c8 	.word	0x200007c8
 8002a58:	20000688 	.word	0x20000688

08002a5c <SchedEventSetPeriod>:

void  SchedEventSetPeriod(void (*func)(void), uint16 period)
{
    for(uint8 i = 0; i < SchedulerRegistredEvents; i ++){
 8002a5c:	4b09      	ldr	r3, [pc, #36]	; (8002a84 <SchedEventSetPeriod+0x28>)
 8002a5e:	781a      	ldrb	r2, [r3, #0]
 8002a60:	b172      	cbz	r2, 8002a80 <SchedEventSetPeriod+0x24>
 8002a62:	4b09      	ldr	r3, [pc, #36]	; (8002a88 <SchedEventSetPeriod+0x2c>)
 8002a64:	3a01      	subs	r2, #1
 8002a66:	b2d2      	uxtb	r2, r2
 8002a68:	f103 0c10 	add.w	ip, r3, #16
 8002a6c:	eb0c 1c02 	add.w	ip, ip, r2, lsl #4
        if(SchedulerEvent[i].callfunc == func){
 8002a70:	681a      	ldr	r2, [r3, #0]
    for(uint8 i = 0; i < SchedulerRegistredEvents; i ++){
 8002a72:	3310      	adds	r3, #16
        if(SchedulerEvent[i].callfunc == func){
 8002a74:	4290      	cmp	r0, r2
            SchedulerEvent[i].period = period;
 8002a76:	bf08      	it	eq
 8002a78:	f843 1c0c 	streq.w	r1, [r3, #-12]
    for(uint8 i = 0; i < SchedulerRegistredEvents; i ++){
 8002a7c:	4563      	cmp	r3, ip
 8002a7e:	d1f7      	bne.n	8002a70 <SchedEventSetPeriod+0x14>
        }
    }
}
 8002a80:	4770      	bx	lr
 8002a82:	bf00      	nop
 8002a84:	200007c8 	.word	0x200007c8
 8002a88:	20000688 	.word	0x20000688

08002a8c <HAL_MspInit>:
{
  /* USER CODE BEGIN MspInit 0 */

  /* USER CODE END MspInit 0 */

  __HAL_RCC_AFIO_CLK_ENABLE();
 8002a8c:	4b0e      	ldr	r3, [pc, #56]	; (8002ac8 <HAL_MspInit+0x3c>)
{
 8002a8e:	b082      	sub	sp, #8
  __HAL_RCC_AFIO_CLK_ENABLE();
 8002a90:	699a      	ldr	r2, [r3, #24]

  /* System interrupt init*/

  /** NOJTAG: JTAG-DP Disabled and SW-DP Enabled
  */
  __HAL_AFIO_REMAP_SWJ_NOJTAG();
 8002a92:	490e      	ldr	r1, [pc, #56]	; (8002acc <HAL_MspInit+0x40>)
  __HAL_RCC_AFIO_CLK_ENABLE();
 8002a94:	f042 0201 	orr.w	r2, r2, #1
 8002a98:	619a      	str	r2, [r3, #24]
 8002a9a:	699a      	ldr	r2, [r3, #24]
 8002a9c:	f002 0201 	and.w	r2, r2, #1
 8002aa0:	9200      	str	r2, [sp, #0]
 8002aa2:	9a00      	ldr	r2, [sp, #0]
  __HAL_RCC_PWR_CLK_ENABLE();
 8002aa4:	69da      	ldr	r2, [r3, #28]
 8002aa6:	f042 5280 	orr.w	r2, r2, #268435456	; 0x10000000
 8002aaa:	61da      	str	r2, [r3, #28]
 8002aac:	69db      	ldr	r3, [r3, #28]
 8002aae:	f003 5380 	and.w	r3, r3, #268435456	; 0x10000000
 8002ab2:	9301      	str	r3, [sp, #4]
 8002ab4:	9b01      	ldr	r3, [sp, #4]
  __HAL_AFIO_REMAP_SWJ_NOJTAG();
 8002ab6:	684b      	ldr	r3, [r1, #4]
 8002ab8:	f023 63e0 	bic.w	r3, r3, #117440512	; 0x7000000
 8002abc:	f043 7300 	orr.w	r3, r3, #33554432	; 0x2000000
 8002ac0:	604b      	str	r3, [r1, #4]

  /* USER CODE BEGIN MspInit 1 */

  /* USER CODE END MspInit 1 */
}
 8002ac2:	b002      	add	sp, #8
 8002ac4:	4770      	bx	lr
 8002ac6:	bf00      	nop
 8002ac8:	40021000 	.word	0x40021000
 8002acc:	40010000 	.word	0x40010000

08002ad0 <HAL_ADC_MspInit>:
* This function configures the hardware resources used in this example
* @param hadc: ADC handle pointer
* @retval None
*/
void HAL_ADC_MspInit(ADC_HandleTypeDef* hadc)
{
 8002ad0:	b570      	push	{r4, r5, r6, lr}
  GPIO_InitTypeDef GPIO_InitStruct = {0};
 8002ad2:	2400      	movs	r4, #0
  if(hadc->Instance==ADC1)
 8002ad4:	4b29      	ldr	r3, [pc, #164]	; (8002b7c <HAL_ADC_MspInit+0xac>)
 8002ad6:	6802      	ldr	r2, [r0, #0]
{
 8002ad8:	b088      	sub	sp, #32
  if(hadc->Instance==ADC1)
 8002ada:	429a      	cmp	r2, r3
  GPIO_InitTypeDef GPIO_InitStruct = {0};
 8002adc:	e9cd 4404 	strd	r4, r4, [sp, #16]
 8002ae0:	e9cd 4406 	strd	r4, r4, [sp, #24]
  if(hadc->Instance==ADC1)
 8002ae4:	d001      	beq.n	8002aea <HAL_ADC_MspInit+0x1a>
  /* USER CODE BEGIN ADC1_MspInit 1 */

  /* USER CODE END ADC1_MspInit 1 */
  }

}
 8002ae6:	b008      	add	sp, #32
 8002ae8:	bd70      	pop	{r4, r5, r6, pc}
    __HAL_RCC_ADC1_CLK_ENABLE();
 8002aea:	f503 436c 	add.w	r3, r3, #60416	; 0xec00
 8002aee:	699a      	ldr	r2, [r3, #24]
 8002af0:	4605      	mov	r5, r0
 8002af2:	f442 7200 	orr.w	r2, r2, #512	; 0x200
 8002af6:	619a      	str	r2, [r3, #24]
 8002af8:	699a      	ldr	r2, [r3, #24]
    HAL_GPIO_Init(BAT_LVL_CTRL_GPIO_Port, &GPIO_InitStruct);
 8002afa:	4821      	ldr	r0, [pc, #132]	; (8002b80 <HAL_ADC_MspInit+0xb0>)
    __HAL_RCC_ADC1_CLK_ENABLE();
 8002afc:	f402 7200 	and.w	r2, r2, #512	; 0x200
 8002b00:	9201      	str	r2, [sp, #4]
 8002b02:	9a01      	ldr	r2, [sp, #4]
    __HAL_RCC_GPIOA_CLK_ENABLE();
 8002b04:	699a      	ldr	r2, [r3, #24]
    hdma_adc1.Instance = DMA1_Channel1;
 8002b06:	4e1f      	ldr	r6, [pc, #124]	; (8002b84 <HAL_ADC_MspInit+0xb4>)
    __HAL_RCC_GPIOA_CLK_ENABLE();
 8002b08:	f042 0204 	orr.w	r2, r2, #4
 8002b0c:	619a      	str	r2, [r3, #24]
 8002b0e:	699a      	ldr	r2, [r3, #24]
 8002b10:	f002 0204 	and.w	r2, r2, #4
 8002b14:	9202      	str	r2, [sp, #8]
 8002b16:	9a02      	ldr	r2, [sp, #8]
    __HAL_RCC_GPIOB_CLK_ENABLE();
 8002b18:	699a      	ldr	r2, [r3, #24]
 8002b1a:	f042 0208 	orr.w	r2, r2, #8
 8002b1e:	619a      	str	r2, [r3, #24]
 8002b20:	699b      	ldr	r3, [r3, #24]
    GPIO_InitStruct.Pin = BAT_LVL_CTRL_Pin;
 8002b22:	2201      	movs	r2, #1
    __HAL_RCC_GPIOB_CLK_ENABLE();
 8002b24:	f003 0308 	and.w	r3, r3, #8
 8002b28:	9303      	str	r3, [sp, #12]
    GPIO_InitStruct.Pin = BAT_LVL_CTRL_Pin;
 8002b2a:	2303      	movs	r3, #3
    __HAL_RCC_GPIOB_CLK_ENABLE();
 8002b2c:	9903      	ldr	r1, [sp, #12]
    HAL_GPIO_Init(BAT_LVL_CTRL_GPIO_Port, &GPIO_InitStruct);
 8002b2e:	a904      	add	r1, sp, #16
    GPIO_InitStruct.Pin = BAT_LVL_CTRL_Pin;
 8002b30:	e9cd 2304 	strd	r2, r3, [sp, #16]
    HAL_GPIO_Init(BAT_LVL_CTRL_GPIO_Port, &GPIO_InitStruct);
 8002b34:	f002 fefa 	bl	800592c <HAL_GPIO_Init>
    GPIO_InitStruct.Pin = JOYSTICK_OX_Pin|JOYSTICK_OY_Pin;
 8002b38:	2203      	movs	r2, #3
 8002b3a:	2303      	movs	r3, #3
    HAL_GPIO_Init(GPIOB, &GPIO_InitStruct);
 8002b3c:	4812      	ldr	r0, [pc, #72]	; (8002b88 <HAL_ADC_MspInit+0xb8>)
 8002b3e:	a904      	add	r1, sp, #16
    GPIO_InitStruct.Pin = JOYSTICK_OX_Pin|JOYSTICK_OY_Pin;
 8002b40:	e9cd 2304 	strd	r2, r3, [sp, #16]
    HAL_GPIO_Init(GPIOB, &GPIO_InitStruct);
 8002b44:	f002 fef2 	bl	800592c <HAL_GPIO_Init>
    hdma_adc1.Instance = DMA1_Channel1;
 8002b48:	4910      	ldr	r1, [pc, #64]	; (8002b8c <HAL_ADC_MspInit+0xbc>)
    hdma_adc1.Init.MemInc = DMA_MINC_ENABLE;
 8002b4a:	2280      	movs	r2, #128	; 0x80
    hdma_adc1.Init.PeriphDataAlignment = DMA_PDATAALIGN_HALFWORD;
 8002b4c:	f44f 7380 	mov.w	r3, #256	; 0x100
    hdma_adc1.Init.Direction = DMA_PERIPH_TO_MEMORY;
 8002b50:	e9c6 1400 	strd	r1, r4, [r6]
    hdma_adc1.Init.MemDataAlignment = DMA_MDATAALIGN_HALFWORD;
 8002b54:	f44f 6180 	mov.w	r1, #1024	; 0x400
    if (HAL_DMA_Init(&hdma_adc1) != HAL_OK)
 8002b58:	4630      	mov	r0, r6
    hdma_adc1.Init.Priority = DMA_PRIORITY_LOW;
 8002b5a:	e9c6 4406 	strd	r4, r4, [r6, #24]
    hdma_adc1.Init.PeriphDataAlignment = DMA_PDATAALIGN_HALFWORD;
 8002b5e:	e9c6 2303 	strd	r2, r3, [r6, #12]
    hdma_adc1.Init.PeriphInc = DMA_PINC_DISABLE;
 8002b62:	60b4      	str	r4, [r6, #8]
    hdma_adc1.Init.MemDataAlignment = DMA_MDATAALIGN_HALFWORD;
 8002b64:	6171      	str	r1, [r6, #20]
    if (HAL_DMA_Init(&hdma_adc1) != HAL_OK)
 8002b66:	f002 fdd3 	bl	8005710 <HAL_DMA_Init>
 8002b6a:	b918      	cbnz	r0, 8002b74 <HAL_ADC_MspInit+0xa4>
    __HAL_LINKDMA(hadc,DMA_Handle,hdma_adc1);
 8002b6c:	622e      	str	r6, [r5, #32]
 8002b6e:	6275      	str	r5, [r6, #36]	; 0x24
}
 8002b70:	b008      	add	sp, #32
 8002b72:	bd70      	pop	{r4, r5, r6, pc}
      Error_Handler();
 8002b74:	f7ff f918 	bl	8001da8 <Error_Handler>
 8002b78:	e7f8      	b.n	8002b6c <HAL_ADC_MspInit+0x9c>
 8002b7a:	bf00      	nop
 8002b7c:	40012400 	.word	0x40012400
 8002b80:	40010800 	.word	0x40010800
 8002b84:	2000058c 	.word	0x2000058c
 8002b88:	40010c00 	.word	0x40010c00
 8002b8c:	40020008 	.word	0x40020008

08002b90 <HAL_RTC_MspInit>:
* @param hrtc: RTC handle pointer
* @retval None
*/
void HAL_RTC_MspInit(RTC_HandleTypeDef* hrtc)
{
  if(hrtc->Instance==RTC)
 8002b90:	4b0c      	ldr	r3, [pc, #48]	; (8002bc4 <HAL_RTC_MspInit+0x34>)
 8002b92:	6802      	ldr	r2, [r0, #0]
 8002b94:	429a      	cmp	r2, r3
 8002b96:	d000      	beq.n	8002b9a <HAL_RTC_MspInit+0xa>
 8002b98:	4770      	bx	lr
{
 8002b9a:	b500      	push	{lr}
 8002b9c:	b083      	sub	sp, #12
  {
  /* USER CODE BEGIN RTC_MspInit 0 */

  /* USER CODE END RTC_MspInit 0 */
    HAL_PWR_EnableBkUpAccess();
 8002b9e:	f002 ffdd 	bl	8005b5c <HAL_PWR_EnableBkUpAccess>
    /* Enable BKP CLK enable for backup registers */
    __HAL_RCC_BKP_CLK_ENABLE();
    /* Peripheral clock enable */
    __HAL_RCC_RTC_ENABLE();
 8002ba2:	2001      	movs	r0, #1
    __HAL_RCC_BKP_CLK_ENABLE();
 8002ba4:	4b08      	ldr	r3, [pc, #32]	; (8002bc8 <HAL_RTC_MspInit+0x38>)
    __HAL_RCC_RTC_ENABLE();
 8002ba6:	4909      	ldr	r1, [pc, #36]	; (8002bcc <HAL_RTC_MspInit+0x3c>)
    __HAL_RCC_BKP_CLK_ENABLE();
 8002ba8:	69da      	ldr	r2, [r3, #28]
 8002baa:	f042 6200 	orr.w	r2, r2, #134217728	; 0x8000000
 8002bae:	61da      	str	r2, [r3, #28]
 8002bb0:	69db      	ldr	r3, [r3, #28]
 8002bb2:	f003 6300 	and.w	r3, r3, #134217728	; 0x8000000
 8002bb6:	9301      	str	r3, [sp, #4]
 8002bb8:	9b01      	ldr	r3, [sp, #4]
    __HAL_RCC_RTC_ENABLE();
 8002bba:	f8c1 043c 	str.w	r0, [r1, #1084]	; 0x43c
  /* USER CODE BEGIN RTC_MspInit 1 */

  /* USER CODE END RTC_MspInit 1 */
  }

}
 8002bbe:	b003      	add	sp, #12
 8002bc0:	f85d fb04 	ldr.w	pc, [sp], #4
 8002bc4:	40002800 	.word	0x40002800
 8002bc8:	40021000 	.word	0x40021000
 8002bcc:	42420000 	.word	0x42420000

08002bd0 <HAL_SPI_MspInit>:
* @param hspi: SPI handle pointer
* @retval None
*/
void HAL_SPI_MspInit(SPI_HandleTypeDef* hspi)
{
  GPIO_InitTypeDef GPIO_InitStruct = {0};
 8002bd0:	2300      	movs	r3, #0
{
 8002bd2:	b570      	push	{r4, r5, r6, lr}
  if(hspi->Instance==SPI2)
 8002bd4:	4a16      	ldr	r2, [pc, #88]	; (8002c30 <HAL_SPI_MspInit+0x60>)
 8002bd6:	6801      	ldr	r1, [r0, #0]
{
 8002bd8:	b086      	sub	sp, #24
  if(hspi->Instance==SPI2)
 8002bda:	4291      	cmp	r1, r2
  GPIO_InitTypeDef GPIO_InitStruct = {0};
 8002bdc:	e9cd 3302 	strd	r3, r3, [sp, #8]
 8002be0:	e9cd 3304 	strd	r3, r3, [sp, #16]
  if(hspi->Instance==SPI2)
 8002be4:	d001      	beq.n	8002bea <HAL_SPI_MspInit+0x1a>
  /* USER CODE BEGIN SPI2_MspInit 1 */

  /* USER CODE END SPI2_MspInit 1 */
  }

}
 8002be6:	b006      	add	sp, #24
 8002be8:	bd70      	pop	{r4, r5, r6, pc}
    GPIO_InitStruct.Pin = DISP_SPI_CS_Pin|DISP_SPI_SCK_Pin|DISP_SPI_MOSI_Pin;
 8002bea:	f44f 4430 	mov.w	r4, #45056	; 0xb000
 8002bee:	2502      	movs	r5, #2
    GPIO_InitStruct.Speed = GPIO_SPEED_FREQ_HIGH;
 8002bf0:	2603      	movs	r6, #3
    __HAL_RCC_SPI2_CLK_ENABLE();
 8002bf2:	f103 4380 	add.w	r3, r3, #1073741824	; 0x40000000
 8002bf6:	f503 3304 	add.w	r3, r3, #135168	; 0x21000
 8002bfa:	69da      	ldr	r2, [r3, #28]
    HAL_GPIO_Init(GPIOB, &GPIO_InitStruct);
 8002bfc:	480d      	ldr	r0, [pc, #52]	; (8002c34 <HAL_SPI_MspInit+0x64>)
    __HAL_RCC_SPI2_CLK_ENABLE();
 8002bfe:	f442 4280 	orr.w	r2, r2, #16384	; 0x4000
 8002c02:	61da      	str	r2, [r3, #28]
 8002c04:	69da      	ldr	r2, [r3, #28]
    HAL_GPIO_Init(GPIOB, &GPIO_InitStruct);
 8002c06:	a902      	add	r1, sp, #8
    __HAL_RCC_SPI2_CLK_ENABLE();
 8002c08:	f402 4280 	and.w	r2, r2, #16384	; 0x4000
 8002c0c:	9200      	str	r2, [sp, #0]
 8002c0e:	9a00      	ldr	r2, [sp, #0]
    __HAL_RCC_GPIOB_CLK_ENABLE();
 8002c10:	699a      	ldr	r2, [r3, #24]
 8002c12:	f042 0208 	orr.w	r2, r2, #8
 8002c16:	619a      	str	r2, [r3, #24]
 8002c18:	699b      	ldr	r3, [r3, #24]
    GPIO_InitStruct.Pin = DISP_SPI_CS_Pin|DISP_SPI_SCK_Pin|DISP_SPI_MOSI_Pin;
 8002c1a:	e9cd 4502 	strd	r4, r5, [sp, #8]
    __HAL_RCC_GPIOB_CLK_ENABLE();
 8002c1e:	f003 0308 	and.w	r3, r3, #8
 8002c22:	9301      	str	r3, [sp, #4]
 8002c24:	9b01      	ldr	r3, [sp, #4]
    GPIO_InitStruct.Speed = GPIO_SPEED_FREQ_HIGH;
 8002c26:	9605      	str	r6, [sp, #20]
    HAL_GPIO_Init(GPIOB, &GPIO_InitStruct);
 8002c28:	f002 fe80 	bl	800592c <HAL_GPIO_Init>
}
 8002c2c:	b006      	add	sp, #24
 8002c2e:	bd70      	pop	{r4, r5, r6, pc}
 8002c30:	40003800 	.word	0x40003800
 8002c34:	40010c00 	.word	0x40010c00

08002c38 <HAL_TIM_Base_MspInit>:
* @param htim_base: TIM_Base handle pointer
* @retval None
*/
void HAL_TIM_Base_MspInit(TIM_HandleTypeDef* htim_base)
{
  if(htim_base->Instance==TIM1)
 8002c38:	4b09      	ldr	r3, [pc, #36]	; (8002c60 <HAL_TIM_Base_MspInit+0x28>)
 8002c3a:	6802      	ldr	r2, [r0, #0]
 8002c3c:	429a      	cmp	r2, r3
 8002c3e:	d000      	beq.n	8002c42 <HAL_TIM_Base_MspInit+0xa>
 8002c40:	4770      	bx	lr
  {
  /* USER CODE BEGIN TIM1_MspInit 0 */

  /* USER CODE END TIM1_MspInit 0 */
    /* Peripheral clock enable */
    __HAL_RCC_TIM1_CLK_ENABLE();
 8002c42:	f503 4364 	add.w	r3, r3, #58368	; 0xe400
 8002c46:	699a      	ldr	r2, [r3, #24]
{
 8002c48:	b082      	sub	sp, #8
    __HAL_RCC_TIM1_CLK_ENABLE();
 8002c4a:	f442 6200 	orr.w	r2, r2, #2048	; 0x800
 8002c4e:	619a      	str	r2, [r3, #24]
 8002c50:	699b      	ldr	r3, [r3, #24]
 8002c52:	f403 6300 	and.w	r3, r3, #2048	; 0x800
 8002c56:	9301      	str	r3, [sp, #4]
 8002c58:	9b01      	ldr	r3, [sp, #4]
  /* USER CODE BEGIN TIM1_MspInit 1 */

  /* USER CODE END TIM1_MspInit 1 */
  }

}
 8002c5a:	b002      	add	sp, #8
 8002c5c:	4770      	bx	lr
 8002c5e:	bf00      	nop
 8002c60:	40012c00 	.word	0x40012c00

08002c64 <HAL_TIM_MspPostInit>:

void HAL_TIM_MspPostInit(TIM_HandleTypeDef* htim)
{
  GPIO_InitTypeDef GPIO_InitStruct = {0};
 8002c64:	2300      	movs	r3, #0
{
 8002c66:	b570      	push	{r4, r5, r6, lr}
  if(htim->Instance==TIM1)
 8002c68:	4a12      	ldr	r2, [pc, #72]	; (8002cb4 <HAL_TIM_MspPostInit+0x50>)
 8002c6a:	6801      	ldr	r1, [r0, #0]
{
 8002c6c:	b086      	sub	sp, #24
  if(htim->Instance==TIM1)
 8002c6e:	4291      	cmp	r1, r2
  GPIO_InitTypeDef GPIO_InitStruct = {0};
 8002c70:	e9cd 3302 	strd	r3, r3, [sp, #8]
 8002c74:	e9cd 3304 	strd	r3, r3, [sp, #16]
  if(htim->Instance==TIM1)
 8002c78:	d001      	beq.n	8002c7e <HAL_TIM_MspPostInit+0x1a>
  /* USER CODE BEGIN TIM1_MspPostInit 1 */

  /* USER CODE END TIM1_MspPostInit 1 */
  }

}
 8002c7a:	b006      	add	sp, #24
 8002c7c:	bd70      	pop	{r4, r5, r6, pc}
    GPIO_InitStruct.Pin = GPIO_PIN_8;
 8002c7e:	f44f 7480 	mov.w	r4, #256	; 0x100
 8002c82:	2502      	movs	r5, #2
    GPIO_InitStruct.Speed = GPIO_SPEED_FREQ_LOW;
 8002c84:	2602      	movs	r6, #2
    __HAL_RCC_GPIOA_CLK_ENABLE();
 8002c86:	f103 4380 	add.w	r3, r3, #1073741824	; 0x40000000
 8002c8a:	f503 3304 	add.w	r3, r3, #135168	; 0x21000
 8002c8e:	699a      	ldr	r2, [r3, #24]
    HAL_GPIO_Init(GPIOA, &GPIO_InitStruct);
 8002c90:	4809      	ldr	r0, [pc, #36]	; (8002cb8 <HAL_TIM_MspPostInit+0x54>)
    __HAL_RCC_GPIOA_CLK_ENABLE();
 8002c92:	f042 0204 	orr.w	r2, r2, #4
 8002c96:	619a      	str	r2, [r3, #24]
 8002c98:	699b      	ldr	r3, [r3, #24]
    HAL_GPIO_Init(GPIOA, &GPIO_InitStruct);
 8002c9a:	a902      	add	r1, sp, #8
    __HAL_RCC_GPIOA_CLK_ENABLE();
 8002c9c:	f003 0304 	and.w	r3, r3, #4
 8002ca0:	9301      	str	r3, [sp, #4]
    GPIO_InitStruct.Pin = GPIO_PIN_8;
 8002ca2:	e9cd 4502 	strd	r4, r5, [sp, #8]
    __HAL_RCC_GPIOA_CLK_ENABLE();
 8002ca6:	9b01      	ldr	r3, [sp, #4]
    GPIO_InitStruct.Speed = GPIO_SPEED_FREQ_LOW;
 8002ca8:	9605      	str	r6, [sp, #20]
    HAL_GPIO_Init(GPIOA, &GPIO_InitStruct);
 8002caa:	f002 fe3f 	bl	800592c <HAL_GPIO_Init>
}
 8002cae:	b006      	add	sp, #24
 8002cb0:	bd70      	pop	{r4, r5, r6, pc}
 8002cb2:	bf00      	nop
 8002cb4:	40012c00 	.word	0x40012c00
 8002cb8:	40010800 	.word	0x40010800

08002cbc <NMI_Handler>:
{
  /* USER CODE BEGIN NonMaskableInt_IRQn 0 */

  /* USER CODE END NonMaskableInt_IRQn 0 */
  /* USER CODE BEGIN NonMaskableInt_IRQn 1 */
  while (1)
 8002cbc:	e7fe      	b.n	8002cbc <NMI_Handler>
 8002cbe:	bf00      	nop

08002cc0 <HardFault_Handler>:
  {
    /* USER CODE BEGIN W1_HardFault_IRQn 0 */
  	return;
    /* USER CODE END W1_HardFault_IRQn 0 */
  }
}
 8002cc0:	4770      	bx	lr
 8002cc2:	bf00      	nop

08002cc4 <MemManage_Handler>:
void MemManage_Handler(void)
{
  /* USER CODE BEGIN MemoryManagement_IRQn 0 */

  /* USER CODE END MemoryManagement_IRQn 0 */
  while (1)
 8002cc4:	e7fe      	b.n	8002cc4 <MemManage_Handler>
 8002cc6:	bf00      	nop

08002cc8 <BusFault_Handler>:
void BusFault_Handler(void)
{
  /* USER CODE BEGIN BusFault_IRQn 0 */

  /* USER CODE END BusFault_IRQn 0 */
  while (1)
 8002cc8:	e7fe      	b.n	8002cc8 <BusFault_Handler>
 8002cca:	bf00      	nop

08002ccc <UsageFault_Handler>:
void UsageFault_Handler(void)
{
  /* USER CODE BEGIN UsageFault_IRQn 0 */

  /* USER CODE END UsageFault_IRQn 0 */
  while (1)
 8002ccc:	e7fe      	b.n	8002ccc <UsageFault_Handler>
 8002cce:	bf00      	nop

08002cd0 <SVC_Handler>:
 8002cd0:	4770      	bx	lr
 8002cd2:	bf00      	nop

08002cd4 <DebugMon_Handler>:
 8002cd4:	4770      	bx	lr
 8002cd6:	bf00      	nop

08002cd8 <PendSV_Handler>:
 8002cd8:	4770      	bx	lr
 8002cda:	bf00      	nop

08002cdc <SysTick_Handler>:
void SysTick_Handler(void)
{
  /* USER CODE BEGIN SysTick_IRQn 0 */

  /* USER CODE END SysTick_IRQn 0 */
  HAL_IncTick();
 8002cdc:	f7ff b814 	b.w	8001d08 <HAL_IncTick>

08002ce0 <DMA1_Channel1_IRQHandler>:
void DMA1_Channel1_IRQHandler(void)
{
  /* USER CODE BEGIN DMA1_Channel1_IRQn 0 */

  /* USER CODE END DMA1_Channel1_IRQn 0 */
  HAL_DMA_IRQHandler(&hdma_adc1);
 8002ce0:	4801      	ldr	r0, [pc, #4]	; (8002ce8 <DMA1_Channel1_IRQHandler+0x8>)
 8002ce2:	f002 bd8f 	b.w	8005804 <HAL_DMA_IRQHandler>
 8002ce6:	bf00      	nop
 8002ce8:	2000058c 	.word	0x2000058c

08002cec <_getpid>:
}

int _getpid(void)
{
	return 1;
}
 8002cec:	2001      	movs	r0, #1
 8002cee:	4770      	bx	lr

08002cf0 <_kill>:

int _kill(int pid, int sig)
{
 8002cf0:	b508      	push	{r3, lr}
	errno = EINVAL;
 8002cf2:	f004 fa51 	bl	8007198 <__errno>
 8002cf6:	2216      	movs	r2, #22
 8002cf8:	4603      	mov	r3, r0
	return -1;
}
 8002cfa:	f04f 30ff 	mov.w	r0, #4294967295
	errno = EINVAL;
 8002cfe:	601a      	str	r2, [r3, #0]
}
 8002d00:	bd08      	pop	{r3, pc}
 8002d02:	bf00      	nop

08002d04 <_exit>:

void _exit (int status)
{
 8002d04:	b508      	push	{r3, lr}
	errno = EINVAL;
 8002d06:	f004 fa47 	bl	8007198 <__errno>
 8002d0a:	2316      	movs	r3, #22
 8002d0c:	6003      	str	r3, [r0, #0]
	_kill(status, -1);
	while (1) {}		/* Make sure we hang here */
 8002d0e:	e7fe      	b.n	8002d0e <_exit+0xa>

08002d10 <_read>:
}

__attribute__((weak)) int _read(int file, char *ptr, int len)
{
 8002d10:	b570      	push	{r4, r5, r6, lr}
	int DataIdx;

	for (DataIdx = 0; DataIdx < len; DataIdx++)
 8002d12:	1e16      	subs	r6, r2, #0
 8002d14:	dd07      	ble.n	8002d26 <_read+0x16>
 8002d16:	460c      	mov	r4, r1
 8002d18:	198d      	adds	r5, r1, r6
	{
		*ptr++ = __io_getchar();
 8002d1a:	f3af 8000 	nop.w
 8002d1e:	f804 0b01 	strb.w	r0, [r4], #1
	for (DataIdx = 0; DataIdx < len; DataIdx++)
 8002d22:	42a5      	cmp	r5, r4
 8002d24:	d1f9      	bne.n	8002d1a <_read+0xa>
	}

return len;
}
 8002d26:	4630      	mov	r0, r6
 8002d28:	bd70      	pop	{r4, r5, r6, pc}
 8002d2a:	bf00      	nop

08002d2c <_close>:
}

int _close(int file)
{
	return -1;
}
 8002d2c:	f04f 30ff 	mov.w	r0, #4294967295
 8002d30:	4770      	bx	lr
 8002d32:	bf00      	nop

08002d34 <_fstat>:


int _fstat(int file, struct stat *st)
{
	st->st_mode = S_IFCHR;
 8002d34:	f44f 5300 	mov.w	r3, #8192	; 0x2000
	return 0;
}
 8002d38:	2000      	movs	r0, #0
	st->st_mode = S_IFCHR;
 8002d3a:	604b      	str	r3, [r1, #4]
}
 8002d3c:	4770      	bx	lr
 8002d3e:	bf00      	nop

08002d40 <_isatty>:

int _isatty(int file)
{
	return 1;
}
 8002d40:	2001      	movs	r0, #1
 8002d42:	4770      	bx	lr

08002d44 <_lseek>:

int _lseek(int file, int ptr, int dir)
{
	return 0;
}
 8002d44:	2000      	movs	r0, #0
 8002d46:	4770      	bx	lr

08002d48 <_sbrk>:
  const uint32_t stack_limit = (uint32_t)&_estack - (uint32_t)&_Min_Stack_Size;
  const uint8_t *max_heap = (uint8_t *)stack_limit;
  uint8_t *prev_heap_end;

  /* Initialize heap end at first call */
  if (NULL == __sbrk_heap_end)
 8002d48:	490d      	ldr	r1, [pc, #52]	; (8002d80 <_sbrk+0x38>)
{
 8002d4a:	4603      	mov	r3, r0
 8002d4c:	b510      	push	{r4, lr}
  const uint32_t stack_limit = (uint32_t)&_estack - (uint32_t)&_Min_Stack_Size;
 8002d4e:	4a0d      	ldr	r2, [pc, #52]	; (8002d84 <_sbrk+0x3c>)
 8002d50:	4c0d      	ldr	r4, [pc, #52]	; (8002d88 <_sbrk+0x40>)
  if (NULL == __sbrk_heap_end)
 8002d52:	6808      	ldr	r0, [r1, #0]
  const uint32_t stack_limit = (uint32_t)&_estack - (uint32_t)&_Min_Stack_Size;
 8002d54:	1b12      	subs	r2, r2, r4
  if (NULL == __sbrk_heap_end)
 8002d56:	b120      	cbz	r0, 8002d62 <_sbrk+0x1a>
  {
    __sbrk_heap_end = &_end;
  }

  /* Protect heap from growing into the reserved MSP stack */
  if (__sbrk_heap_end + incr > max_heap)
 8002d58:	4403      	add	r3, r0
 8002d5a:	4293      	cmp	r3, r2
 8002d5c:	d807      	bhi.n	8002d6e <_sbrk+0x26>
    errno = ENOMEM;
    return (void *)-1;
  }

  prev_heap_end = __sbrk_heap_end;
  __sbrk_heap_end += incr;
 8002d5e:	600b      	str	r3, [r1, #0]

  return (void *)prev_heap_end;
}
 8002d60:	bd10      	pop	{r4, pc}
    __sbrk_heap_end = &_end;
 8002d62:	4c0a      	ldr	r4, [pc, #40]	; (8002d8c <_sbrk+0x44>)
 8002d64:	4620      	mov	r0, r4
  if (__sbrk_heap_end + incr > max_heap)
 8002d66:	4403      	add	r3, r0
 8002d68:	4293      	cmp	r3, r2
    __sbrk_heap_end = &_end;
 8002d6a:	600c      	str	r4, [r1, #0]
  if (__sbrk_heap_end + incr > max_heap)
 8002d6c:	d9f7      	bls.n	8002d5e <_sbrk+0x16>
    errno = ENOMEM;
 8002d6e:	f004 fa13 	bl	8007198 <__errno>
 8002d72:	220c      	movs	r2, #12
 8002d74:	4603      	mov	r3, r0
    return (void *)-1;
 8002d76:	f04f 30ff 	mov.w	r0, #4294967295
    errno = ENOMEM;
 8002d7a:	601a      	str	r2, [r3, #0]
}
 8002d7c:	bd10      	pop	{r4, pc}
 8002d7e:	bf00      	nop
 8002d80:	200007cc 	.word	0x200007cc
 8002d84:	20005000 	.word	0x20005000
 8002d88:	00000400 	.word	0x00000400
 8002d8c:	200008d0 	.word	0x200008d0

08002d90 <SystemInit>:

  /* Configure the Vector Table location -------------------------------------*/
#if defined(USER_VECT_TAB_ADDRESS)
  SCB->VTOR = VECT_TAB_BASE_ADDRESS | VECT_TAB_OFFSET; /* Vector Table Relocation in Internal SRAM. */
#endif /* USER_VECT_TAB_ADDRESS */
}
 8002d90:	4770      	bx	lr
 8002d92:	bf00      	nop

08002d94 <movbullet>:
      Bullet[i].cl += 2;
      if (Bullet[i].cl > 126 || Bullet[i].cl <= 0) {
        Bullet[i].state = 0;
        Bullet[i].cl = 0;
      }
      if(GameFlags.WinTheGame) Bullet[i].state = 0; 
 8002d94:	4b1e      	ldr	r3, [pc, #120]	; (8002e10 <movbullet+0x7c>)
void movbullet(void) {
 8002d96:	b500      	push	{lr}
      if(GameFlags.WinTheGame) Bullet[i].state = 0; 
 8002d98:	f893 e000 	ldrb.w	lr, [r3]
 8002d9c:	f01e 0e10 	ands.w	lr, lr, #16
 8002da0:	d119      	bne.n	8002dd6 <movbullet+0x42>
 8002da2:	4b1c      	ldr	r3, [pc, #112]	; (8002e14 <movbullet+0x80>)
 8002da4:	1c9a      	adds	r2, r3, #2
 8002da6:	f103 0c36 	add.w	ip, r3, #54	; 0x36
    if (Bullet[i].state) {
 8002daa:	f812 1c02 	ldrb.w	r1, [r2, #-2]
 8002dae:	b159      	cbz	r1, 8002dc8 <movbullet+0x34>
      Bullet[i].cl += 2;
 8002db0:	7899      	ldrb	r1, [r3, #2]
      if (Bullet[i].cl > 126 || Bullet[i].cl <= 0) {
 8002db2:	1c48      	adds	r0, r1, #1
 8002db4:	b2c0      	uxtb	r0, r0
 8002db6:	287d      	cmp	r0, #125	; 0x7d
      Bullet[i].cl += 2;
 8002db8:	f101 0102 	add.w	r1, r1, #2
 8002dbc:	7099      	strb	r1, [r3, #2]
        Bullet[i].state = 0;
 8002dbe:	bf84      	itt	hi
 8002dc0:	f802 ec02 	strbhi.w	lr, [r2, #-2]
        Bullet[i].cl = 0;
 8002dc4:	f883 e002 	strbhi.w	lr, [r3, #2]
  for (uint8 i = 0; i < BULLET_MAX; i++) {
 8002dc8:	3303      	adds	r3, #3
 8002dca:	459c      	cmp	ip, r3
 8002dcc:	f102 0203 	add.w	r2, r2, #3
 8002dd0:	d1eb      	bne.n	8002daa <movbullet+0x16>
    }
  }
}
 8002dd2:	f85d fb04 	ldr.w	pc, [sp], #4
      if(GameFlags.WinTheGame) Bullet[i].state = 0; 
 8002dd6:	f04f 0e00 	mov.w	lr, #0
 8002dda:	4b0e      	ldr	r3, [pc, #56]	; (8002e14 <movbullet+0x80>)
 8002ddc:	1c9a      	adds	r2, r3, #2
 8002dde:	f103 0c36 	add.w	ip, r3, #54	; 0x36
    if (Bullet[i].state) {
 8002de2:	f812 1c02 	ldrb.w	r1, [r2, #-2]
 8002de6:	b159      	cbz	r1, 8002e00 <movbullet+0x6c>
      Bullet[i].cl += 2;
 8002de8:	7899      	ldrb	r1, [r3, #2]
      if (Bullet[i].cl > 126 || Bullet[i].cl <= 0) {
 8002dea:	1c48      	adds	r0, r1, #1
 8002dec:	b2c0      	uxtb	r0, r0
        Bullet[i].cl = 0;
 8002dee:	287e      	cmp	r0, #126	; 0x7e
      Bullet[i].cl += 2;
 8002df0:	f101 0102 	add.w	r1, r1, #2
        Bullet[i].cl = 0;
 8002df4:	bf34      	ite	cc
 8002df6:	4608      	movcc	r0, r1
 8002df8:	4670      	movcs	r0, lr
 8002dfa:	7098      	strb	r0, [r3, #2]
      if(GameFlags.WinTheGame) Bullet[i].state = 0; 
 8002dfc:	f802 ec02 	strb.w	lr, [r2, #-2]
  for (uint8 i = 0; i < BULLET_MAX; i++) {
 8002e00:	3303      	adds	r3, #3
 8002e02:	459c      	cmp	ip, r3
 8002e04:	f102 0203 	add.w	r2, r2, #3
 8002e08:	d1eb      	bne.n	8002de2 <movbullet+0x4e>
}
 8002e0a:	f85d fb04 	ldr.w	pc, [sp], #4
 8002e0e:	bf00      	nop
 8002e10:	2000086c 	.word	0x2000086c
 8002e14:	200007d8 	.word	0x200007d8

08002e18 <statehandler_gamesave>:
  if(gameevent == EVENT_SELPOS_3) coursorpos = COURS_POS_1; // coursor position when returning to the pause menu in "SAVE"
}

void statehandler_gamesave(void)
{
  gameevent = EVENT_NONE;
 8002e18:	2200      	movs	r2, #0
 8002e1a:	4b01      	ldr	r3, [pc, #4]	; (8002e20 <statehandler_gamesave+0x8>)
 8002e1c:	701a      	strb	r2, [r3, #0]
}
 8002e1e:	4770      	bx	lr
 8002e20:	200008a7 	.word	0x200008a7

08002e24 <magaz_buybomb>:

//------------------magazin buygoods functions----------------------
void magaz_buybomb(void)
{
  if(Gamer.money >= BOMB_MONEY_COST && Gamer.bombs < 99){
 8002e24:	4b07      	ldr	r3, [pc, #28]	; (8002e44 <magaz_buybomb+0x20>)
 8002e26:	689a      	ldr	r2, [r3, #8]
 8002e28:	2a04      	cmp	r2, #4
 8002e2a:	d906      	bls.n	8002e3a <magaz_buybomb+0x16>
 8002e2c:	7919      	ldrb	r1, [r3, #4]
 8002e2e:	2962      	cmp	r1, #98	; 0x62
 8002e30:	d803      	bhi.n	8002e3a <magaz_buybomb+0x16>
    Gamer.money -= BOMB_MONEY_COST;
 8002e32:	3a05      	subs	r2, #5
    Gamer.bombs++;
 8002e34:	3101      	adds	r1, #1
    Gamer.money -= BOMB_MONEY_COST;
 8002e36:	609a      	str	r2, [r3, #8]
    Gamer.bombs++;
 8002e38:	7119      	strb	r1, [r3, #4]
  }
  gameevent = EVENT_NONE;
 8002e3a:	2200      	movs	r2, #0
 8002e3c:	4b02      	ldr	r3, [pc, #8]	; (8002e48 <magaz_buybomb+0x24>)
 8002e3e:	701a      	strb	r2, [r3, #0]
}
 8002e40:	4770      	bx	lr
 8002e42:	bf00      	nop
 8002e44:	20000870 	.word	0x20000870
 8002e48:	200008a7 	.word	0x200008a7

08002e4c <magaz_buygasmask>:
void magaz_buygasmask(void)
{
  if(Gamer.money >= GASMASK_MONEY_COST && Gamer.gasmask_health <= 0){
 8002e4c:	4b09      	ldr	r3, [pc, #36]	; (8002e74 <magaz_buygasmask+0x28>)
 8002e4e:	689a      	ldr	r2, [r3, #8]
 8002e50:	2a0e      	cmp	r2, #14
 8002e52:	d903      	bls.n	8002e5c <magaz_buygasmask+0x10>
 8002e54:	f993 1003 	ldrsb.w	r1, [r3, #3]
 8002e58:	2900      	cmp	r1, #0
 8002e5a:	dd03      	ble.n	8002e64 <magaz_buygasmask+0x18>
    Gamer.money -= GASMASK_MONEY_COST;
    Gamer.gasmask_health = 12;
  }
  gameevent = EVENT_NONE;
 8002e5c:	2200      	movs	r2, #0
 8002e5e:	4b06      	ldr	r3, [pc, #24]	; (8002e78 <magaz_buygasmask+0x2c>)
 8002e60:	701a      	strb	r2, [r3, #0]
}
 8002e62:	4770      	bx	lr
    Gamer.gasmask_health = 12;
 8002e64:	210c      	movs	r1, #12
    Gamer.money -= GASMASK_MONEY_COST;
 8002e66:	3a0f      	subs	r2, #15
 8002e68:	609a      	str	r2, [r3, #8]
  gameevent = EVENT_NONE;
 8002e6a:	2200      	movs	r2, #0
    Gamer.gasmask_health = 12;
 8002e6c:	70d9      	strb	r1, [r3, #3]
  gameevent = EVENT_NONE;
 8002e6e:	4b02      	ldr	r3, [pc, #8]	; (8002e78 <magaz_buygasmask+0x2c>)
 8002e70:	701a      	strb	r2, [r3, #0]
}
 8002e72:	4770      	bx	lr
 8002e74:	20000870 	.word	0x20000870
 8002e78:	200008a7 	.word	0x200008a7

08002e7c <magaz_buyenergy>:
void magaz_buyenergy(void)
{
  if(Gamer.money >= BATTERY_MONEY_COST && Gamer.energymax < GAMER_ENERGY_MAX){
 8002e7c:	4b0e      	ldr	r3, [pc, #56]	; (8002eb8 <magaz_buyenergy+0x3c>)
 8002e7e:	6899      	ldr	r1, [r3, #8]
 8002e80:	2931      	cmp	r1, #49	; 0x31
 8002e82:	d915      	bls.n	8002eb0 <magaz_buyenergy+0x34>
 8002e84:	f993 2002 	ldrsb.w	r2, [r3, #2]
 8002e88:	2a17      	cmp	r2, #23
 8002e8a:	dc11      	bgt.n	8002eb0 <magaz_buyenergy+0x34>
    Gamer.money -= BATTERY_MONEY_COST;
    Gamer.energymax += BATTERY_ENERGY_BUST;
    Gamer.energy = Gamer.energymax;
 8002e8c:	f04f 0000 	mov.w	r0, #0
    Gamer.energymax += BATTERY_ENERGY_BUST;
 8002e90:	3204      	adds	r2, #4
 8002e92:	b252      	sxtb	r2, r2
    Gamer.energy = Gamer.energymax;
 8002e94:	f362 0007 	bfi	r0, r2, #0, #8
    if(Gamer.energymax > GAMER_ENERGY_MAX) Gamer.energymax = GAMER_ENERGY_MAX;
 8002e98:	2a18      	cmp	r2, #24
    Gamer.energy = Gamer.energymax;
 8002e9a:	f362 200f 	bfi	r0, r2, #8, #8
    if(Gamer.energymax > GAMER_ENERGY_MAX) Gamer.energymax = GAMER_ENERGY_MAX;
 8002e9e:	bfc8      	it	gt
 8002ea0:	2218      	movgt	r2, #24
    Gamer.money -= BATTERY_MONEY_COST;
 8002ea2:	f1a1 0132 	sub.w	r1, r1, #50	; 0x32
    Gamer.energy = Gamer.energymax;
 8002ea6:	f8a3 0001 	strh.w	r0, [r3, #1]
    Gamer.money -= BATTERY_MONEY_COST;
 8002eaa:	6099      	str	r1, [r3, #8]
    if(Gamer.energymax > GAMER_ENERGY_MAX) Gamer.energymax = GAMER_ENERGY_MAX;
 8002eac:	bfc8      	it	gt
 8002eae:	709a      	strbgt	r2, [r3, #2]
  }
  gameevent = EVENT_NONE;
 8002eb0:	2200      	movs	r2, #0
 8002eb2:	4b02      	ldr	r3, [pc, #8]	; (8002ebc <magaz_buyenergy+0x40>)
 8002eb4:	701a      	strb	r2, [r3, #0]
}
 8002eb6:	4770      	bx	lr
 8002eb8:	20000870 	.word	0x20000870
 8002ebc:	200008a7 	.word	0x200008a7

08002ec0 <magaz_buyhealth>:
void magaz_buyhealth(void)
{
  if(Gamer.money >= HEALTH_MONEY_COST && Gamer.health < GAMER_HEALTH_MAX){
 8002ec0:	4b0a      	ldr	r3, [pc, #40]	; (8002eec <magaz_buyhealth+0x2c>)
 8002ec2:	689a      	ldr	r2, [r3, #8]
 8002ec4:	2a04      	cmp	r2, #4
 8002ec6:	d90c      	bls.n	8002ee2 <magaz_buyhealth+0x22>
 8002ec8:	f993 1000 	ldrsb.w	r1, [r3]
 8002ecc:	2917      	cmp	r1, #23
 8002ece:	dc08      	bgt.n	8002ee2 <magaz_buyhealth+0x22>
    Gamer.money -= HEALTH_MONEY_COST;
    Gamer.health += HEALTH_REGEN; 
 8002ed0:	3104      	adds	r1, #4
 8002ed2:	b249      	sxtb	r1, r1
    Gamer.money -= HEALTH_MONEY_COST;
 8002ed4:	3a05      	subs	r2, #5
    if(Gamer.health > GAMER_HEALTH_MAX) Gamer.health = GAMER_HEALTH_MAX;
 8002ed6:	2918      	cmp	r1, #24
    Gamer.money -= HEALTH_MONEY_COST;
 8002ed8:	609a      	str	r2, [r3, #8]
    if(Gamer.health > GAMER_HEALTH_MAX) Gamer.health = GAMER_HEALTH_MAX;
 8002eda:	bfca      	itet	gt
 8002edc:	2218      	movgt	r2, #24
    Gamer.health += HEALTH_REGEN; 
 8002ede:	7019      	strble	r1, [r3, #0]
    if(Gamer.health > GAMER_HEALTH_MAX) Gamer.health = GAMER_HEALTH_MAX;
 8002ee0:	701a      	strbgt	r2, [r3, #0]
  }
  gameevent = EVENT_NONE;
 8002ee2:	2200      	movs	r2, #0
 8002ee4:	4b02      	ldr	r3, [pc, #8]	; (8002ef0 <magaz_buyhealth+0x30>)
 8002ee6:	701a      	strb	r2, [r3, #0]
}
 8002ee8:	4770      	bx	lr
 8002eea:	bf00      	nop
 8002eec:	20000870 	.word	0x20000870
 8002ef0:	200008a7 	.word	0x200008a7

08002ef4 <gamestatesprocess>:
  screenupdate();
}

void gamestatesprocess(void)
{
  gamestate_transition_table[gamestate][gameevent]();
 8002ef4:	4b05      	ldr	r3, [pc, #20]	; (8002f0c <gamestatesprocess+0x18>)
 8002ef6:	4a06      	ldr	r2, [pc, #24]	; (8002f10 <gamestatesprocess+0x1c>)
 8002ef8:	781b      	ldrb	r3, [r3, #0]
 8002efa:	7812      	ldrb	r2, [r2, #0]
 8002efc:	4905      	ldr	r1, [pc, #20]	; (8002f14 <gamestatesprocess+0x20>)
 8002efe:	eb03 0383 	add.w	r3, r3, r3, lsl #2
 8002f02:	eb02 0343 	add.w	r3, r2, r3, lsl #1
 8002f06:	f851 3023 	ldr.w	r3, [r1, r3, lsl #2]
 8002f0a:	4718      	bx	r3
 8002f0c:	200008a8 	.word	0x200008a8
 8002f10:	200008a7 	.word	0x200008a7
 8002f14:	08009680 	.word	0x08009680

08002f18 <createevilstar>:
void createevilstar(void) {
 8002f18:	b538      	push	{r3, r4, r5, lr}
  if (EvilStar[i].state == 0) {
 8002f1a:	4d0e      	ldr	r5, [pc, #56]	; (8002f54 <createevilstar+0x3c>)
 8002f1c:	4c0e      	ldr	r4, [pc, #56]	; (8002f58 <createevilstar+0x40>)
 8002f1e:	782b      	ldrb	r3, [r5, #0]
 8002f20:	f814 2023 	ldrb.w	r2, [r4, r3, lsl #2]
 8002f24:	b132      	cbz	r2, 8002f34 <createevilstar+0x1c>
  i++;
 8002f26:	3301      	adds	r3, #1
 8002f28:	b2db      	uxtb	r3, r3
  if (i >= EVILSTAR_MAX) i = 0;
 8002f2a:	2b09      	cmp	r3, #9
 8002f2c:	bf88      	it	hi
 8002f2e:	2300      	movhi	r3, #0
 8002f30:	702b      	strb	r3, [r5, #0]
}
 8002f32:	bd38      	pop	{r3, r4, r5, pc}
    EvilStar[i].state = 1;
 8002f34:	2201      	movs	r2, #1
    EvilStar[i].cl = 127;
 8002f36:	207f      	movs	r0, #127	; 0x7f
 8002f38:	eb04 0183 	add.w	r1, r4, r3, lsl #2
    EvilStar[i].state = 1;
 8002f3c:	f804 2023 	strb.w	r2, [r4, r3, lsl #2]
    EvilStar[i].cl = 127;
 8002f40:	7088      	strb	r0, [r1, #2]
    EvilStar[i].ln = (int8)getrand(40) + 8;
 8002f42:	2028      	movs	r0, #40	; 0x28
 8002f44:	f7fd f908 	bl	8000158 <getrand>
 8002f48:	782b      	ldrb	r3, [r5, #0]
 8002f4a:	3008      	adds	r0, #8
 8002f4c:	eb04 0483 	add.w	r4, r4, r3, lsl #2
 8002f50:	7060      	strb	r0, [r4, #1]
 8002f52:	e7e8      	b.n	8002f26 <createevilstar+0xe>
 8002f54:	200008ab 	.word	0x200008ab
 8002f58:	20000838 	.word	0x20000838

08002f5c <stateinit_gamestop>:
{
 8002f5c:	b510      	push	{r4, lr}
  SchedRemoveEvent(createevilstar);
 8002f5e:	481c      	ldr	r0, [pc, #112]	; (8002fd0 <stateinit_gamestop+0x74>)
 8002f60:	f7ff fd10 	bl	8002984 <SchedRemoveEvent>
  SchedRemoveEvent(movbullet);
 8002f64:	481b      	ldr	r0, [pc, #108]	; (8002fd4 <stateinit_gamestop+0x78>)
 8002f66:	f7ff fd0d 	bl	8002984 <SchedRemoveEvent>
  SchedRemoveEvent(move_enemy_objects);
 8002f6a:	481b      	ldr	r0, [pc, #108]	; (8002fd8 <stateinit_gamestop+0x7c>)
 8002f6c:	f7ff fd0a 	bl	8002984 <SchedRemoveEvent>
  SchedRemoveEvent(gameprogress);
 8002f70:	481a      	ldr	r0, [pc, #104]	; (8002fdc <stateinit_gamestop+0x80>)
 8002f72:	f7ff fd07 	bl	8002984 <SchedRemoveEvent>
  for(uint8 i = 0; i < EVILSTAR_MAX; i++) EvilStar[i].state = 0;
 8002f76:	2200      	movs	r2, #0
 8002f78:	4c19      	ldr	r4, [pc, #100]	; (8002fe0 <stateinit_gamestop+0x84>)
  for(uint8 i = 0; i < COIN_MAX; i++) Coin[i].state = 0;
 8002f7a:	481a      	ldr	r0, [pc, #104]	; (8002fe4 <stateinit_gamestop+0x88>)
 8002f7c:	4b1a      	ldr	r3, [pc, #104]	; (8002fe8 <stateinit_gamestop+0x8c>)
  for(uint8 i = 0; i < EVILSTAR_MAX; i++) EvilStar[i].state = 0;
 8002f7e:	7022      	strb	r2, [r4, #0]
 8002f80:	f103 0136 	add.w	r1, r3, #54	; 0x36
 8002f84:	7122      	strb	r2, [r4, #4]
 8002f86:	7222      	strb	r2, [r4, #8]
 8002f88:	7322      	strb	r2, [r4, #12]
 8002f8a:	7422      	strb	r2, [r4, #16]
 8002f8c:	7522      	strb	r2, [r4, #20]
 8002f8e:	7622      	strb	r2, [r4, #24]
 8002f90:	7722      	strb	r2, [r4, #28]
 8002f92:	f884 2020 	strb.w	r2, [r4, #32]
 8002f96:	f884 2024 	strb.w	r2, [r4, #36]	; 0x24
  for(uint8 i = 0; i < COIN_MAX; i++) Coin[i].state = 0;
 8002f9a:	7002      	strb	r2, [r0, #0]
 8002f9c:	7102      	strb	r2, [r0, #4]
 8002f9e:	7202      	strb	r2, [r0, #8]
 8002fa0:	7302      	strb	r2, [r0, #12]
 8002fa2:	7402      	strb	r2, [r0, #16]
 8002fa4:	7502      	strb	r2, [r0, #20]
 8002fa6:	7602      	strb	r2, [r0, #24]
 8002fa8:	7702      	strb	r2, [r0, #28]
 8002faa:	f880 2020 	strb.w	r2, [r0, #32]
 8002fae:	f880 2024 	strb.w	r2, [r0, #36]	; 0x24
  for(uint8 i = 0; i < BULLET_MAX; i++) Bullet[i].state = 0;
 8002fb2:	f803 2b03 	strb.w	r2, [r3], #3
 8002fb6:	428b      	cmp	r3, r1
 8002fb8:	d1fb      	bne.n	8002fb2 <stateinit_gamestop+0x56>
  Game.level_progress = 0;
 8002fba:	4b0c      	ldr	r3, [pc, #48]	; (8002fec <stateinit_gamestop+0x90>)
  GAME_STORY_STRING_NUM = 0;
 8002fbc:	4c0c      	ldr	r4, [pc, #48]	; (8002ff0 <stateinit_gamestop+0x94>)
  gamestate = STATE_MAINMENU;
 8002fbe:	480d      	ldr	r0, [pc, #52]	; (8002ff4 <stateinit_gamestop+0x98>)
  gameevent = EVENT_NONE;
 8002fc0:	490d      	ldr	r1, [pc, #52]	; (8002ff8 <stateinit_gamestop+0x9c>)
  Game.level_progress = 0;
 8002fc2:	705a      	strb	r2, [r3, #1]
  coursorpos = COURS_POS_1;
 8002fc4:	4b0d      	ldr	r3, [pc, #52]	; (8002ffc <stateinit_gamestop+0xa0>)
  GAME_STORY_STRING_NUM = 0;
 8002fc6:	7022      	strb	r2, [r4, #0]
  gamestate = STATE_MAINMENU;
 8002fc8:	7002      	strb	r2, [r0, #0]
  gameevent = EVENT_NONE;
 8002fca:	700a      	strb	r2, [r1, #0]
  coursorpos = COURS_POS_1;
 8002fcc:	701a      	strb	r2, [r3, #0]
}
 8002fce:	bd10      	pop	{r4, pc}
 8002fd0:	08002f19 	.word	0x08002f19
 8002fd4:	08002d95 	.word	0x08002d95
 8002fd8:	08003461 	.word	0x08003461
 8002fdc:	0800301d 	.word	0x0800301d
 8002fe0:	20000838 	.word	0x20000838
 8002fe4:	20000810 	.word	0x20000810
 8002fe8:	200007d8 	.word	0x200007d8
 8002fec:	20000864 	.word	0x20000864
 8002ff0:	20000860 	.word	0x20000860
 8002ff4:	200008a8 	.word	0x200008a8
 8002ff8:	200008a7 	.word	0x200008a7
 8002ffc:	200008a6 	.word	0x200008a6

08003000 <stateinit_gameexit>:
  CFlags.MenuFl = 1;
 8003000:	4a04      	ldr	r2, [pc, #16]	; (8003014 <stateinit_gameexit+0x14>)
 8003002:	7813      	ldrb	r3, [r2, #0]
 8003004:	f023 0303 	bic.w	r3, r3, #3
 8003008:	f043 0301 	orr.w	r3, r3, #1
 800300c:	7013      	strb	r3, [r2, #0]
  SchedRemoveAllEvents();
 800300e:	f7ff bc73 	b.w	80028f8 <SchedRemoveAllEvents>
 8003012:	bf00      	nop
 8003014:	20000000 	.word	0x20000000

08003018 <system_events_period50ms>:
  check_btn_jstk();
 8003018:	f7fd bbc6 	b.w	80007a8 <check_btn_jstk>

0800301c <gameprogress>:
{
 800301c:	b538      	push	{r3, r4, r5, lr}
  if(Gamer.health > 0)
 800301e:	4b39      	ldr	r3, [pc, #228]	; (8003104 <gameprogress+0xe8>)
 8003020:	f993 3000 	ldrsb.w	r3, [r3]
 8003024:	2b00      	cmp	r3, #0
 8003026:	dd2e      	ble.n	8003086 <gameprogress+0x6a>
    if(counter == GAME_PROGRESS_PERIOD)
 8003028:	4c37      	ldr	r4, [pc, #220]	; (8003108 <gameprogress+0xec>)
 800302a:	7821      	ldrb	r1, [r4, #0]
 800302c:	2914      	cmp	r1, #20
 800302e:	d02b      	beq.n	8003088 <gameprogress+0x6c>
    if((Game.level_progress % 45 == 0) && counter == 0 && Game.level_progress){
 8003030:	4d36      	ldr	r5, [pc, #216]	; (800310c <gameprogress+0xf0>)
 8003032:	4b37      	ldr	r3, [pc, #220]	; (8003110 <gameprogress+0xf4>)
 8003034:	786a      	ldrb	r2, [r5, #1]
 8003036:	fba3 0302 	umull	r0, r3, r3, r2
 800303a:	1ad0      	subs	r0, r2, r3
 800303c:	eb03 0350 	add.w	r3, r3, r0, lsr #1
 8003040:	095b      	lsrs	r3, r3, #5
 8003042:	eb03 0343 	add.w	r3, r3, r3, lsl #1
 8003046:	ebc3 1303 	rsb	r3, r3, r3, lsl #4
 800304a:	1ad3      	subs	r3, r2, r3
 800304c:	430b      	orrs	r3, r1
 800304e:	b2db      	uxtb	r3, r3
 8003050:	b343      	cbz	r3, 80030a4 <gameprogress+0x88>
    if(Game.level_progress >= 50 && Game.level_progress < 100){
 8003052:	f1a2 0332 	sub.w	r3, r2, #50	; 0x32
 8003056:	2b31      	cmp	r3, #49	; 0x31
 8003058:	d833      	bhi.n	80030c2 <gameprogress+0xa6>
      PRD_EVILSTAR_CREATE = 1200;
 800305a:	f44f 6196 	mov.w	r1, #1200	; 0x4b0
      PRD_ENEMY_MOVE = 22;}
 800305e:	2516      	movs	r5, #22
      PRD_EVILSTAR_CREATE = 1200;
 8003060:	4b2c      	ldr	r3, [pc, #176]	; (8003114 <gameprogress+0xf8>)
      PRD_ENEMY_MOVE = 22;}
 8003062:	482d      	ldr	r0, [pc, #180]	; (8003118 <gameprogress+0xfc>)
      PRD_EVILSTAR_CREATE = 1200;
 8003064:	6019      	str	r1, [r3, #0]
      PRD_ENEMY_MOVE = 22;}
 8003066:	7005      	strb	r5, [r0, #0]
    if(Game.level_progress >= 200 && Game.level_progress < 255){
 8003068:	f102 0338 	add.w	r3, r2, #56	; 0x38
 800306c:	b2db      	uxtb	r3, r3
 800306e:	2b36      	cmp	r3, #54	; 0x36
 8003070:	d840      	bhi.n	80030f4 <gameprogress+0xd8>
      PRD_EVILSTAR_CREATE = 600;
 8003072:	f44f 7016 	mov.w	r0, #600	; 0x258
      PRD_ENEMY_MOVE = 16;
 8003076:	2210      	movs	r2, #16
      PRD_EVILSTAR_CREATE = 600;
 8003078:	4926      	ldr	r1, [pc, #152]	; (8003114 <gameprogress+0xf8>)
      PRD_ENEMY_MOVE = 16;
 800307a:	4b27      	ldr	r3, [pc, #156]	; (8003118 <gameprogress+0xfc>)
      PRD_EVILSTAR_CREATE = 600;
 800307c:	6008      	str	r0, [r1, #0]
      PRD_ENEMY_MOVE = 16;
 800307e:	701a      	strb	r2, [r3, #0]
    counter++;
 8003080:	7823      	ldrb	r3, [r4, #0]
 8003082:	3301      	adds	r3, #1
 8003084:	7023      	strb	r3, [r4, #0]
}
 8003086:	bd38      	pop	{r3, r4, r5, pc}
      counter = 0;
 8003088:	2100      	movs	r1, #0
      Game.level_progress++;
 800308a:	4d20      	ldr	r5, [pc, #128]	; (800310c <gameprogress+0xf0>)
      counter = 0;
 800308c:	7021      	strb	r1, [r4, #0]
      Game.level_progress++;
 800308e:	786a      	ldrb	r2, [r5, #1]
 8003090:	3201      	adds	r2, #1
 8003092:	b2d2      	uxtb	r2, r2
      counter = 0;
 8003094:	eb02 0382 	add.w	r3, r2, r2, lsl #2
 8003098:	eb03 1343 	add.w	r3, r3, r3, lsl #5
    if((Game.level_progress % 45 == 0) && counter == 0 && Game.level_progress){
 800309c:	b2db      	uxtb	r3, r3
 800309e:	2b05      	cmp	r3, #5
      Game.level_progress++;
 80030a0:	706a      	strb	r2, [r5, #1]
    if((Game.level_progress % 45 == 0) && counter == 0 && Game.level_progress){
 80030a2:	d8d6      	bhi.n	8003052 <gameprogress+0x36>
 80030a4:	2a00      	cmp	r2, #0
 80030a6:	d0eb      	beq.n	8003080 <gameprogress+0x64>
      MinMagaz.cl = 127;
 80030a8:	227f      	movs	r2, #127	; 0x7f
      MinMagaz.state = 1;
 80030aa:	2101      	movs	r1, #1
 80030ac:	4b1b      	ldr	r3, [pc, #108]	; (800311c <gameprogress+0x100>)
      SchedPauseEvent(createevilstar);
 80030ae:	481c      	ldr	r0, [pc, #112]	; (8003120 <gameprogress+0x104>)
      MinMagaz.cl = 127;
 80030b0:	709a      	strb	r2, [r3, #2]
      MinMagaz.state = 1;
 80030b2:	7019      	strb	r1, [r3, #0]
      SchedPauseEvent(createevilstar);
 80030b4:	f7ff fc9e 	bl	80029f4 <SchedPauseEvent>
      SchedPauseEvent(gameprogress);
 80030b8:	481a      	ldr	r0, [pc, #104]	; (8003124 <gameprogress+0x108>)
 80030ba:	f7ff fc9b 	bl	80029f4 <SchedPauseEvent>
    if(Game.level_progress >= 50 && Game.level_progress < 100){
 80030be:	786a      	ldrb	r2, [r5, #1]
 80030c0:	e7c7      	b.n	8003052 <gameprogress+0x36>
    if(Game.level_progress >= 100 && Game.level_progress < 150){
 80030c2:	f1a2 0364 	sub.w	r3, r2, #100	; 0x64
 80030c6:	2b31      	cmp	r3, #49	; 0x31
 80030c8:	d807      	bhi.n	80030da <gameprogress+0xbe>
      PRD_EVILSTAR_CREATE = 1000;
 80030ca:	f44f 707a 	mov.w	r0, #1000	; 0x3e8
      PRD_ENEMY_MOVE = 20;}
 80030ce:	2214      	movs	r2, #20
      PRD_EVILSTAR_CREATE = 1000;
 80030d0:	4910      	ldr	r1, [pc, #64]	; (8003114 <gameprogress+0xf8>)
      PRD_ENEMY_MOVE = 20;}
 80030d2:	4b11      	ldr	r3, [pc, #68]	; (8003118 <gameprogress+0xfc>)
      PRD_EVILSTAR_CREATE = 1000;
 80030d4:	6008      	str	r0, [r1, #0]
      PRD_ENEMY_MOVE = 20;}
 80030d6:	701a      	strb	r2, [r3, #0]
    if(Game.level_progress >= 200 && Game.level_progress < 255){
 80030d8:	e7d2      	b.n	8003080 <gameprogress+0x64>
    if(Game.level_progress >= 150 && Game.level_progress < 200){
 80030da:	f102 036a 	add.w	r3, r2, #106	; 0x6a
 80030de:	b2db      	uxtb	r3, r3
 80030e0:	2b31      	cmp	r3, #49	; 0x31
 80030e2:	d8c1      	bhi.n	8003068 <gameprogress+0x4c>
      PRD_EVILSTAR_CREATE = 800;
 80030e4:	f44f 7048 	mov.w	r0, #800	; 0x320
      PRD_ENEMY_MOVE = 18;}
 80030e8:	2212      	movs	r2, #18
      PRD_EVILSTAR_CREATE = 800;
 80030ea:	490a      	ldr	r1, [pc, #40]	; (8003114 <gameprogress+0xf8>)
      PRD_ENEMY_MOVE = 18;}
 80030ec:	4b0a      	ldr	r3, [pc, #40]	; (8003118 <gameprogress+0xfc>)
      PRD_EVILSTAR_CREATE = 800;
 80030ee:	6008      	str	r0, [r1, #0]
      PRD_ENEMY_MOVE = 18;}
 80030f0:	701a      	strb	r2, [r3, #0]
    if(Game.level_progress >= 200 && Game.level_progress < 255){
 80030f2:	e7c5      	b.n	8003080 <gameprogress+0x64>
    if(Game.level_progress == 255){
 80030f4:	2aff      	cmp	r2, #255	; 0xff
 80030f6:	d1c3      	bne.n	8003080 <gameprogress+0x64>
      GameFlags.WinTheGame = 1;
 80030f8:	4a0b      	ldr	r2, [pc, #44]	; (8003128 <gameprogress+0x10c>)
 80030fa:	7813      	ldrb	r3, [r2, #0]
 80030fc:	f043 0310 	orr.w	r3, r3, #16
 8003100:	7013      	strb	r3, [r2, #0]
 8003102:	e7bd      	b.n	8003080 <gameprogress+0x64>
 8003104:	20000870 	.word	0x20000870
 8003108:	200008a5 	.word	0x200008a5
 800310c:	20000864 	.word	0x20000864
 8003110:	6c16c16d 	.word	0x6c16c16d
 8003114:	20000014 	.word	0x20000014
 8003118:	2000000f 	.word	0x2000000f
 800311c:	2000000c 	.word	0x2000000c
 8003120:	08002f19 	.word	0x08002f19
 8003124:	0800301d 	.word	0x0800301d
 8003128:	2000086c 	.word	0x2000086c

0800312c <statehandler_gameinitnew>:
{
 800312c:	b5f8      	push	{r3, r4, r5, r6, r7, lr}
  gamestate = STATE_STARTGAME;
 800312e:	2706      	movs	r7, #6
  gameevent = EVENT_NONE;
 8003130:	2400      	movs	r4, #0
  if(GAME_STORY_STRING_NUM < 4)
 8003132:	4d26      	ldr	r5, [pc, #152]	; (80031cc <statehandler_gameinitnew+0xa0>)
  gamestate = STATE_STARTGAME;
 8003134:	4a26      	ldr	r2, [pc, #152]	; (80031d0 <statehandler_gameinitnew+0xa4>)
  if(GAME_STORY_STRING_NUM < 4)
 8003136:	782b      	ldrb	r3, [r5, #0]
  gameevent = EVENT_NONE;
 8003138:	4e26      	ldr	r6, [pc, #152]	; (80031d4 <statehandler_gameinitnew+0xa8>)
  if(GAME_STORY_STRING_NUM < 4)
 800313a:	2b03      	cmp	r3, #3
  gamestate = STATE_STARTGAME;
 800313c:	7017      	strb	r7, [r2, #0]
  gameevent = EVENT_NONE;
 800313e:	7034      	strb	r4, [r6, #0]
  if(GAME_STORY_STRING_NUM < 4)
 8003140:	d820      	bhi.n	8003184 <statehandler_gameinitnew+0x58>
    LCD_printstr8x5(gamestory_string[GAME_STORY_STRING_NUM], 0, 0);
 8003142:	2096      	movs	r0, #150	; 0x96
 8003144:	4a24      	ldr	r2, [pc, #144]	; (80031d8 <statehandler_gameinitnew+0xac>)
 8003146:	4621      	mov	r1, r4
 8003148:	fb00 2003 	mla	r0, r0, r3, r2
 800314c:	4622      	mov	r2, r4
 800314e:	f7fd fbb1 	bl	80008b4 <LCD_printstr8x5>
    LCD_printstr8x5((uint8*)"далее...", 7, 78);
 8003152:	224e      	movs	r2, #78	; 0x4e
 8003154:	2107      	movs	r1, #7
 8003156:	4821      	ldr	r0, [pc, #132]	; (80031dc <statehandler_gameinitnew+0xb0>)
 8003158:	f7fd fbac 	bl	80008b4 <LCD_printstr8x5>
    if(B1.BtnON || B2.BtnON || B3.BtnON || B4.BtnON)
 800315c:	4e20      	ldr	r6, [pc, #128]	; (80031e0 <statehandler_gameinitnew+0xb4>)
 800315e:	4821      	ldr	r0, [pc, #132]	; (80031e4 <statehandler_gameinitnew+0xb8>)
 8003160:	7c73      	ldrb	r3, [r6, #17]
 8003162:	7c42      	ldrb	r2, [r0, #17]
 8003164:	4920      	ldr	r1, [pc, #128]	; (80031e8 <statehandler_gameinitnew+0xbc>)
 8003166:	4313      	orrs	r3, r2
 8003168:	7c4f      	ldrb	r7, [r1, #17]
 800316a:	4a20      	ldr	r2, [pc, #128]	; (80031ec <statehandler_gameinitnew+0xc0>)
 800316c:	433b      	orrs	r3, r7
 800316e:	7c57      	ldrb	r7, [r2, #17]
 8003170:	433b      	orrs	r3, r7
 8003172:	d006      	beq.n	8003182 <statehandler_gameinitnew+0x56>
      GAME_STORY_STRING_NUM++;
 8003174:	782b      	ldrb	r3, [r5, #0]
      B1.BtnON = 0;
 8003176:	7474      	strb	r4, [r6, #17]
      GAME_STORY_STRING_NUM++;
 8003178:	3301      	adds	r3, #1
      B2.BtnON = 0;
 800317a:	7444      	strb	r4, [r0, #17]
      B3.BtnON = 0;
 800317c:	744c      	strb	r4, [r1, #17]
      B4.BtnON = 0;
 800317e:	7454      	strb	r4, [r2, #17]
      GAME_STORY_STRING_NUM++;
 8003180:	702b      	strb	r3, [r5, #0]
}
 8003182:	bdf8      	pop	{r3, r4, r5, r6, r7, pc}
    Gamer.health = 24;
 8003184:	4b1a      	ldr	r3, [pc, #104]	; (80031f0 <statehandler_gameinitnew+0xc4>)
 8003186:	4a1b      	ldr	r2, [pc, #108]	; (80031f4 <statehandler_gameinitnew+0xc8>)
    Gamer.money = 50;
 8003188:	2132      	movs	r1, #50	; 0x32
    Gamer.health = 24;
 800318a:	601a      	str	r2, [r3, #0]
    Gamer.bombs = 15;
 800318c:	220f      	movs	r2, #15
 800318e:	711a      	strb	r2, [r3, #4]
    Gamer.ln = 16;
 8003190:	2210      	movs	r2, #16
    GameFlags.gameflagsreg = 0b00001101;
 8003192:	250d      	movs	r5, #13
    Gamer.ln = 16;
 8003194:	819a      	strh	r2, [r3, #12]
    Game.Const1 = 2;
 8003196:	2202      	movs	r2, #2
    Gamer.money = 50;
 8003198:	6099      	str	r1, [r3, #8]
    GameFlags.gameflagsreg = 0b00001101;
 800319a:	4817      	ldr	r0, [pc, #92]	; (80031f8 <statehandler_gameinitnew+0xcc>)
    SchedAddEvent(createevilstar, PRD_EVILSTAR_CREATE);
 800319c:	4917      	ldr	r1, [pc, #92]	; (80031fc <statehandler_gameinitnew+0xd0>)
    Game.level_progress = 0;
 800319e:	4b18      	ldr	r3, [pc, #96]	; (8003200 <statehandler_gameinitnew+0xd4>)
    SchedAddEvent(createevilstar, PRD_EVILSTAR_CREATE);
 80031a0:	6809      	ldr	r1, [r1, #0]
    GameFlags.gameflagsreg = 0b00001101;
 80031a2:	7005      	strb	r5, [r0, #0]
    SchedAddEvent(createevilstar, PRD_EVILSTAR_CREATE);
 80031a4:	4817      	ldr	r0, [pc, #92]	; (8003204 <statehandler_gameinitnew+0xd8>)
    Game.Const1 = 2;
 80031a6:	70da      	strb	r2, [r3, #3]
    Game.level_progress = 0;
 80031a8:	705c      	strb	r4, [r3, #1]
    SchedAddEvent(createevilstar, PRD_EVILSTAR_CREATE);
 80031aa:	f7ff fb8d 	bl	80028c8 <SchedAddEvent>
    SchedAddEvent(movbullet, BULLET_MOVE_PERIOD);
 80031ae:	4629      	mov	r1, r5
 80031b0:	4815      	ldr	r0, [pc, #84]	; (8003208 <statehandler_gameinitnew+0xdc>)
 80031b2:	f7ff fb89 	bl	80028c8 <SchedAddEvent>
    SchedAddEvent(move_enemy_objects, PRD_ENEMY_MOVE);
 80031b6:	4b15      	ldr	r3, [pc, #84]	; (800320c <statehandler_gameinitnew+0xe0>)
 80031b8:	4815      	ldr	r0, [pc, #84]	; (8003210 <statehandler_gameinitnew+0xe4>)
 80031ba:	7819      	ldrb	r1, [r3, #0]
 80031bc:	f7ff fb84 	bl	80028c8 <SchedAddEvent>
    SchedAddEvent(gameprogress, 75);
 80031c0:	214b      	movs	r1, #75	; 0x4b
 80031c2:	4814      	ldr	r0, [pc, #80]	; (8003214 <statehandler_gameinitnew+0xe8>)
 80031c4:	f7ff fb80 	bl	80028c8 <SchedAddEvent>
    gameevent = EVENT_EXIT; 
 80031c8:	7037      	strb	r7, [r6, #0]
}
 80031ca:	bdf8      	pop	{r3, r4, r5, r6, r7, pc}
 80031cc:	20000860 	.word	0x20000860
 80031d0:	200008a8 	.word	0x200008a8
 80031d4:	200008a7 	.word	0x200008a7
 80031d8:	080097e8 	.word	0x080097e8
 80031dc:	08008eb4 	.word	0x08008eb4
 80031e0:	200000d4 	.word	0x200000d4
 80031e4:	200000ec 	.word	0x200000ec
 80031e8:	20000104 	.word	0x20000104
 80031ec:	2000011c 	.word	0x2000011c
 80031f0:	20000870 	.word	0x20000870
 80031f4:	00040418 	.word	0x00040418
 80031f8:	2000086c 	.word	0x2000086c
 80031fc:	20000014 	.word	0x20000014
 8003200:	20000864 	.word	0x20000864
 8003204:	08002f19 	.word	0x08002f19
 8003208:	08002d95 	.word	0x08002d95
 800320c:	2000000f 	.word	0x2000000f
 8003210:	08003461 	.word	0x08003461
 8003214:	0800301d 	.word	0x0800301d

08003218 <movgamer.part.0>:
    if (joystick.oy > 140 && joystick.oy <= 210){Gamer.ln -= 1; if(Gamer.ln < 8) Gamer.ln = 8;}
 8003218:	4864      	ldr	r0, [pc, #400]	; (80033ac <movgamer.part.0+0x194>)
 800321a:	7882      	ldrb	r2, [r0, #2]
 800321c:	f102 0373 	add.w	r3, r2, #115	; 0x73
 8003220:	b2db      	uxtb	r3, r3
 8003222:	2b45      	cmp	r3, #69	; 0x45
 8003224:	d835      	bhi.n	8003292 <movgamer.part.0+0x7a>
 8003226:	4962      	ldr	r1, [pc, #392]	; (80033b0 <movgamer.part.0+0x198>)
 8003228:	7b0b      	ldrb	r3, [r1, #12]
 800322a:	3b01      	subs	r3, #1
 800322c:	b25b      	sxtb	r3, r3
 800322e:	2b07      	cmp	r3, #7
 8003230:	f300 80b5 	bgt.w	800339e <movgamer.part.0+0x186>
 8003234:	2308      	movs	r3, #8
 8003236:	730b      	strb	r3, [r1, #12]
    if (joystick.oy < 50 && joystick.oy >= 10){Gamer.ln += 2; if(Gamer.ln > 48)Gamer.ln = 48;}
 8003238:	f1a2 030a 	sub.w	r3, r2, #10
 800323c:	2b27      	cmp	r3, #39	; 0x27
 800323e:	d959      	bls.n	80032f4 <movgamer.part.0+0xdc>
    if (joystick.oy < 10){Gamer.ln += 5; if(Gamer.ln > 48)Gamer.ln = 48;}
 8003240:	2a09      	cmp	r2, #9
 8003242:	d806      	bhi.n	8003252 <movgamer.part.0+0x3a>
 8003244:	4b5a      	ldr	r3, [pc, #360]	; (80033b0 <movgamer.part.0+0x198>)
 8003246:	7b1a      	ldrb	r2, [r3, #12]
 8003248:	3205      	adds	r2, #5
 800324a:	b252      	sxtb	r2, r2
 800324c:	2a30      	cmp	r2, #48	; 0x30
 800324e:	731a      	strb	r2, [r3, #12]
 8003250:	dc57      	bgt.n	8003302 <movgamer.part.0+0xea>
    if (joystick.ox > 140 && joystick.ox <= 210){Gamer.cl += 1; if(Gamer.cl > 94)Gamer.cl = 94;}
 8003252:	7842      	ldrb	r2, [r0, #1]
 8003254:	f102 0373 	add.w	r3, r2, #115	; 0x73
 8003258:	b2db      	uxtb	r3, r3
 800325a:	2b45      	cmp	r3, #69	; 0x45
 800325c:	d835      	bhi.n	80032ca <movgamer.part.0+0xb2>
 800325e:	4954      	ldr	r1, [pc, #336]	; (80033b0 <movgamer.part.0+0x198>)
 8003260:	7b4b      	ldrb	r3, [r1, #13]
 8003262:	3301      	adds	r3, #1
 8003264:	b25b      	sxtb	r3, r3
 8003266:	2b5e      	cmp	r3, #94	; 0x5e
 8003268:	f340 8093 	ble.w	8003392 <movgamer.part.0+0x17a>
 800326c:	235e      	movs	r3, #94	; 0x5e
 800326e:	734b      	strb	r3, [r1, #13]
    if (joystick.ox < 50 && joystick.ox >= 10){Gamer.cl -= 2; if(Gamer.cl < -8) Gamer.cl = -8;}
 8003270:	f1a2 030a 	sub.w	r3, r2, #10
 8003274:	2b27      	cmp	r3, #39	; 0x27
 8003276:	d947      	bls.n	8003308 <movgamer.part.0+0xf0>
    if (joystick.ox < 10){Gamer.cl -= 5; if(Gamer.cl < -8)Gamer.cl = -8;}
 8003278:	2a09      	cmp	r2, #9
 800327a:	d84c      	bhi.n	8003316 <movgamer.part.0+0xfe>
 800327c:	4b4c      	ldr	r3, [pc, #304]	; (80033b0 <movgamer.part.0+0x198>)
 800327e:	7b5a      	ldrb	r2, [r3, #13]
 8003280:	3a05      	subs	r2, #5
 8003282:	b252      	sxtb	r2, r2
 8003284:	735a      	strb	r2, [r3, #13]
 8003286:	3208      	adds	r2, #8
 8003288:	f280 8082 	bge.w	8003390 <movgamer.part.0+0x178>
    if (joystick.ox < 50 && joystick.ox >= 10){Gamer.cl -= 2; if(Gamer.cl < -8) Gamer.cl = -8;}
 800328c:	22f8      	movs	r2, #248	; 0xf8
 800328e:	735a      	strb	r2, [r3, #13]
 8003290:	4770      	bx	lr
    if (joystick.oy > 210 && joystick.oy <= 250){Gamer.ln -= 2;if(Gamer.ln < 8) Gamer.ln = 8;}
 8003292:	f102 032d 	add.w	r3, r2, #45	; 0x2d
 8003296:	b2db      	uxtb	r3, r3
 8003298:	2b27      	cmp	r3, #39	; 0x27
 800329a:	d847      	bhi.n	800332c <movgamer.part.0+0x114>
 800329c:	4b44      	ldr	r3, [pc, #272]	; (80033b0 <movgamer.part.0+0x198>)
 800329e:	7b19      	ldrb	r1, [r3, #12]
 80032a0:	3902      	subs	r1, #2
 80032a2:	b249      	sxtb	r1, r1
 80032a4:	2907      	cmp	r1, #7
 80032a6:	7319      	strb	r1, [r3, #12]
 80032a8:	dcd3      	bgt.n	8003252 <movgamer.part.0+0x3a>
 80032aa:	f04f 0c08 	mov.w	ip, #8
    if (joystick.oy < 50 && joystick.oy >= 10){Gamer.ln += 2; if(Gamer.ln > 48)Gamer.ln = 48;}
 80032ae:	f1a2 010a 	sub.w	r1, r2, #10
 80032b2:	2927      	cmp	r1, #39	; 0x27
    if (joystick.oy > 210 && joystick.oy <= 250){Gamer.ln -= 2;if(Gamer.ln < 8) Gamer.ln = 8;}
 80032b4:	f883 c00c 	strb.w	ip, [r3, #12]
    if (joystick.oy < 50 && joystick.oy >= 10){Gamer.ln += 2; if(Gamer.ln > 48)Gamer.ln = 48;}
 80032b8:	d8c2      	bhi.n	8003240 <movgamer.part.0+0x28>
 80032ba:	220a      	movs	r2, #10
 80032bc:	731a      	strb	r2, [r3, #12]
    if (joystick.ox > 140 && joystick.ox <= 210){Gamer.cl += 1; if(Gamer.cl > 94)Gamer.cl = 94;}
 80032be:	7842      	ldrb	r2, [r0, #1]
 80032c0:	f102 0373 	add.w	r3, r2, #115	; 0x73
 80032c4:	b2db      	uxtb	r3, r3
 80032c6:	2b45      	cmp	r3, #69	; 0x45
 80032c8:	d9c9      	bls.n	800325e <movgamer.part.0+0x46>
    if (joystick.ox > 210 && joystick.ox <= 250){Gamer.cl += 2; if(Gamer.cl > 94)Gamer.cl = 94;}
 80032ca:	f102 032d 	add.w	r3, r2, #45	; 0x2d
 80032ce:	b2db      	uxtb	r3, r3
 80032d0:	2b27      	cmp	r3, #39	; 0x27
 80032d2:	d821      	bhi.n	8003318 <movgamer.part.0+0x100>
 80032d4:	4b36      	ldr	r3, [pc, #216]	; (80033b0 <movgamer.part.0+0x198>)
 80032d6:	7b59      	ldrb	r1, [r3, #13]
 80032d8:	3102      	adds	r1, #2
 80032da:	b249      	sxtb	r1, r1
 80032dc:	295e      	cmp	r1, #94	; 0x5e
 80032de:	7359      	strb	r1, [r3, #13]
 80032e0:	dd19      	ble.n	8003316 <movgamer.part.0+0xfe>
 80032e2:	205e      	movs	r0, #94	; 0x5e
    if (joystick.ox < 50 && joystick.ox >= 10){Gamer.cl -= 2; if(Gamer.cl < -8) Gamer.cl = -8;}
 80032e4:	f1a2 010a 	sub.w	r1, r2, #10
 80032e8:	2927      	cmp	r1, #39	; 0x27
    if (joystick.ox > 210 && joystick.ox <= 250){Gamer.cl += 2; if(Gamer.cl > 94)Gamer.cl = 94;}
 80032ea:	7358      	strb	r0, [r3, #13]
    if (joystick.ox < 50 && joystick.ox >= 10){Gamer.cl -= 2; if(Gamer.cl < -8) Gamer.cl = -8;}
 80032ec:	d8c4      	bhi.n	8003278 <movgamer.part.0+0x60>
 80032ee:	225c      	movs	r2, #92	; 0x5c
 80032f0:	735a      	strb	r2, [r3, #13]
 80032f2:	4770      	bx	lr
    if (joystick.oy < 50 && joystick.oy >= 10){Gamer.ln += 2; if(Gamer.ln > 48)Gamer.ln = 48;}
 80032f4:	4b2e      	ldr	r3, [pc, #184]	; (80033b0 <movgamer.part.0+0x198>)
 80032f6:	7b1a      	ldrb	r2, [r3, #12]
 80032f8:	3202      	adds	r2, #2
 80032fa:	b252      	sxtb	r2, r2
 80032fc:	2a30      	cmp	r2, #48	; 0x30
 80032fe:	731a      	strb	r2, [r3, #12]
 8003300:	dda7      	ble.n	8003252 <movgamer.part.0+0x3a>
 8003302:	2230      	movs	r2, #48	; 0x30
 8003304:	731a      	strb	r2, [r3, #12]
 8003306:	e7a4      	b.n	8003252 <movgamer.part.0+0x3a>
    if (joystick.ox < 50 && joystick.ox >= 10){Gamer.cl -= 2; if(Gamer.cl < -8) Gamer.cl = -8;}
 8003308:	4b29      	ldr	r3, [pc, #164]	; (80033b0 <movgamer.part.0+0x198>)
 800330a:	7b5a      	ldrb	r2, [r3, #13]
 800330c:	3a02      	subs	r2, #2
 800330e:	b252      	sxtb	r2, r2
 8003310:	735a      	strb	r2, [r3, #13]
 8003312:	3208      	adds	r2, #8
 8003314:	dbba      	blt.n	800328c <movgamer.part.0+0x74>
}
 8003316:	4770      	bx	lr
    if (joystick.ox > 250){Gamer.cl += 5; if(Gamer.cl > 94)Gamer.cl = 94;}
 8003318:	2afa      	cmp	r2, #250	; 0xfa
 800331a:	d919      	bls.n	8003350 <movgamer.part.0+0x138>
 800331c:	4b24      	ldr	r3, [pc, #144]	; (80033b0 <movgamer.part.0+0x198>)
 800331e:	7b59      	ldrb	r1, [r3, #13]
 8003320:	3105      	adds	r1, #5
 8003322:	b249      	sxtb	r1, r1
 8003324:	295e      	cmp	r1, #94	; 0x5e
 8003326:	7359      	strb	r1, [r3, #13]
 8003328:	dcdb      	bgt.n	80032e2 <movgamer.part.0+0xca>
 800332a:	4770      	bx	lr
    if (joystick.oy > 250){Gamer.ln -= 5; if(Gamer.ln < 8)Gamer.ln = 8;}
 800332c:	2afa      	cmp	r2, #250	; 0xfa
 800332e:	d91d      	bls.n	800336c <movgamer.part.0+0x154>
 8003330:	4b1f      	ldr	r3, [pc, #124]	; (80033b0 <movgamer.part.0+0x198>)
 8003332:	7b19      	ldrb	r1, [r3, #12]
 8003334:	3905      	subs	r1, #5
 8003336:	b249      	sxtb	r1, r1
 8003338:	2907      	cmp	r1, #7
 800333a:	7319      	strb	r1, [r3, #12]
 800333c:	dc89      	bgt.n	8003252 <movgamer.part.0+0x3a>
    if (joystick.oy > 210 && joystick.oy <= 250){Gamer.ln -= 2;if(Gamer.ln < 8) Gamer.ln = 8;}
 800333e:	f04f 0c08 	mov.w	ip, #8
    if (joystick.oy < 50 && joystick.oy >= 10){Gamer.ln += 2; if(Gamer.ln > 48)Gamer.ln = 48;}
 8003342:	f1a2 010a 	sub.w	r1, r2, #10
 8003346:	2927      	cmp	r1, #39	; 0x27
    if (joystick.oy > 210 && joystick.oy <= 250){Gamer.ln -= 2;if(Gamer.ln < 8) Gamer.ln = 8;}
 8003348:	f883 c00c 	strb.w	ip, [r3, #12]
    if (joystick.oy < 50 && joystick.oy >= 10){Gamer.ln += 2; if(Gamer.ln > 48)Gamer.ln = 48;}
 800334c:	d9b5      	bls.n	80032ba <movgamer.part.0+0xa2>
 800334e:	e777      	b.n	8003240 <movgamer.part.0+0x28>
    if (joystick.ox < 120 && joystick.ox >= 50){Gamer.cl -= 1; if(Gamer.cl < -8)Gamer.cl = -8;}
 8003350:	f1a2 0332 	sub.w	r3, r2, #50	; 0x32
 8003354:	2b45      	cmp	r3, #69	; 0x45
 8003356:	d88b      	bhi.n	8003270 <movgamer.part.0+0x58>
 8003358:	4a15      	ldr	r2, [pc, #84]	; (80033b0 <movgamer.part.0+0x198>)
 800335a:	7b53      	ldrb	r3, [r2, #13]
 800335c:	3b01      	subs	r3, #1
 800335e:	b25b      	sxtb	r3, r3
 8003360:	f113 0f08 	cmn.w	r3, #8
 8003364:	da12      	bge.n	800338c <movgamer.part.0+0x174>
 8003366:	23f8      	movs	r3, #248	; 0xf8
 8003368:	7353      	strb	r3, [r2, #13]
 800336a:	4770      	bx	lr
    if (joystick.oy < 120 && joystick.oy >= 50){Gamer.ln += 1; if(Gamer.ln > 48)Gamer.ln = 48;}
 800336c:	f1a2 0332 	sub.w	r3, r2, #50	; 0x32
 8003370:	2b45      	cmp	r3, #69	; 0x45
 8003372:	f63f af61 	bhi.w	8003238 <movgamer.part.0+0x20>
 8003376:	4a0e      	ldr	r2, [pc, #56]	; (80033b0 <movgamer.part.0+0x198>)
 8003378:	7b13      	ldrb	r3, [r2, #12]
 800337a:	3301      	adds	r3, #1
 800337c:	b25b      	sxtb	r3, r3
 800337e:	2b30      	cmp	r3, #48	; 0x30
 8003380:	dd02      	ble.n	8003388 <movgamer.part.0+0x170>
 8003382:	2330      	movs	r3, #48	; 0x30
 8003384:	7313      	strb	r3, [r2, #12]
 8003386:	e764      	b.n	8003252 <movgamer.part.0+0x3a>
 8003388:	7313      	strb	r3, [r2, #12]
    if (joystick.oy < 50 && joystick.oy >= 10){Gamer.ln += 2; if(Gamer.ln > 48)Gamer.ln = 48;}
 800338a:	e762      	b.n	8003252 <movgamer.part.0+0x3a>
    if (joystick.ox < 120 && joystick.ox >= 50){Gamer.cl -= 1; if(Gamer.cl < -8)Gamer.cl = -8;}
 800338c:	7353      	strb	r3, [r2, #13]
    if (joystick.ox < 50 && joystick.ox >= 10){Gamer.cl -= 2; if(Gamer.cl < -8) Gamer.cl = -8;}
 800338e:	4770      	bx	lr
 8003390:	4770      	bx	lr
    if (joystick.ox > 140 && joystick.ox <= 210){Gamer.cl += 1; if(Gamer.cl > 94)Gamer.cl = 94;}
 8003392:	734b      	strb	r3, [r1, #13]
    if (joystick.ox < 50 && joystick.ox >= 10){Gamer.cl -= 2; if(Gamer.cl < -8) Gamer.cl = -8;}
 8003394:	f1a2 030a 	sub.w	r3, r2, #10
 8003398:	2b27      	cmp	r3, #39	; 0x27
 800339a:	d9b5      	bls.n	8003308 <movgamer.part.0+0xf0>
 800339c:	e76c      	b.n	8003278 <movgamer.part.0+0x60>
    if (joystick.oy > 140 && joystick.oy <= 210){Gamer.ln -= 1; if(Gamer.ln < 8) Gamer.ln = 8;}
 800339e:	730b      	strb	r3, [r1, #12]
    if (joystick.oy < 50 && joystick.oy >= 10){Gamer.ln += 2; if(Gamer.ln > 48)Gamer.ln = 48;}
 80033a0:	f1a2 030a 	sub.w	r3, r2, #10
 80033a4:	2b27      	cmp	r3, #39	; 0x27
 80033a6:	d9a5      	bls.n	80032f4 <movgamer.part.0+0xdc>
 80033a8:	e74a      	b.n	8003240 <movgamer.part.0+0x28>
 80033aa:	bf00      	nop
 80033ac:	20000138 	.word	0x20000138
 80033b0:	20000870 	.word	0x20000870

080033b4 <bomb_evilstar_collision.part.0>:
void bomb_evilstar_collision(void) {
 80033b4:	b5f8      	push	{r3, r4, r5, r6, r7, lr}
          EvilStar[i].state = 2;
 80033b6:	2702      	movs	r7, #2
 80033b8:	4c27      	ldr	r4, [pc, #156]	; (8003458 <bomb_evilstar_collision.part.0+0xa4>)
 80033ba:	4d28      	ldr	r5, [pc, #160]	; (800345c <bomb_evilstar_collision.part.0+0xa8>)
 80033bc:	f104 0628 	add.w	r6, r4, #40	; 0x28
      if(Bomb.state == 1){
 80033c0:	782b      	ldrb	r3, [r5, #0]
 80033c2:	2b01      	cmp	r3, #1
 80033c4:	d01e      	beq.n	8003404 <bomb_evilstar_collision.part.0+0x50>
      if(Bomb.state > 1){
 80033c6:	2b01      	cmp	r3, #1
 80033c8:	d918      	bls.n	80033fc <bomb_evilstar_collision.part.0+0x48>
        if (((EvilStar[i].cl + 27) >= Bomb.cl) && (EvilStar[i].cl <= (Bomb.cl + 39)) && (EvilStar[i].ln <= (Bomb.ln + 39)) &&
 80033ca:	f994 2002 	ldrsb.w	r2, [r4, #2]
 80033ce:	f995 3002 	ldrsb.w	r3, [r5, #2]
 80033d2:	f102 011b 	add.w	r1, r2, #27
 80033d6:	4299      	cmp	r1, r3
 80033d8:	db10      	blt.n	80033fc <bomb_evilstar_collision.part.0+0x48>
 80033da:	3327      	adds	r3, #39	; 0x27
 80033dc:	429a      	cmp	r2, r3
 80033de:	dc0d      	bgt.n	80033fc <bomb_evilstar_collision.part.0+0x48>
 80033e0:	f995 2001 	ldrsb.w	r2, [r5, #1]
 80033e4:	f994 3001 	ldrsb.w	r3, [r4, #1]
 80033e8:	f102 0127 	add.w	r1, r2, #39	; 0x27
 80033ec:	428b      	cmp	r3, r1
 80033ee:	dc05      	bgt.n	80033fc <bomb_evilstar_collision.part.0+0x48>
                ((EvilStar[i].ln + 15) > Bomb.ln) && EvilStar[i].state == 1) {
 80033f0:	330e      	adds	r3, #14
        if (((EvilStar[i].cl + 27) >= Bomb.cl) && (EvilStar[i].cl <= (Bomb.cl + 39)) && (EvilStar[i].ln <= (Bomb.ln + 39)) &&
 80033f2:	429a      	cmp	r2, r3
 80033f4:	dc02      	bgt.n	80033fc <bomb_evilstar_collision.part.0+0x48>
                ((EvilStar[i].ln + 15) > Bomb.ln) && EvilStar[i].state == 1) {
 80033f6:	7823      	ldrb	r3, [r4, #0]
 80033f8:	2b01      	cmp	r3, #1
 80033fa:	d026      	beq.n	800344a <bomb_evilstar_collision.part.0+0x96>
    for (uint8 i = 0; i < EVILSTAR_MAX; i++) {
 80033fc:	3404      	adds	r4, #4
 80033fe:	42a6      	cmp	r6, r4
 8003400:	d1de      	bne.n	80033c0 <bomb_evilstar_collision.part.0+0xc>
}
 8003402:	bdf8      	pop	{r3, r4, r5, r6, r7, pc}
        if(((EvilStar[i].cl + 27) >= Bomb.cl) && (EvilStar[i].cl <= (Bomb.cl + 7)) && (EvilStar[i].ln <= (Bomb.ln + 7)) &&
 8003404:	f994 2002 	ldrsb.w	r2, [r4, #2]
 8003408:	f995 3002 	ldrsb.w	r3, [r5, #2]
 800340c:	f102 011b 	add.w	r1, r2, #27
 8003410:	4299      	cmp	r1, r3
 8003412:	dbf3      	blt.n	80033fc <bomb_evilstar_collision.part.0+0x48>
 8003414:	1dd9      	adds	r1, r3, #7
 8003416:	428a      	cmp	r2, r1
 8003418:	dcf0      	bgt.n	80033fc <bomb_evilstar_collision.part.0+0x48>
 800341a:	f995 1001 	ldrsb.w	r1, [r5, #1]
 800341e:	f994 2001 	ldrsb.w	r2, [r4, #1]
 8003422:	1dc8      	adds	r0, r1, #7
 8003424:	4282      	cmp	r2, r0
 8003426:	dce9      	bgt.n	80033fc <bomb_evilstar_collision.part.0+0x48>
              ((EvilStar[i].ln + 15) > Bomb.ln) && EvilStar[i].state == 1){
 8003428:	320e      	adds	r2, #14
        if(((EvilStar[i].cl + 27) >= Bomb.cl) && (EvilStar[i].cl <= (Bomb.cl + 7)) && (EvilStar[i].ln <= (Bomb.ln + 7)) &&
 800342a:	4291      	cmp	r1, r2
 800342c:	dce6      	bgt.n	80033fc <bomb_evilstar_collision.part.0+0x48>
              ((EvilStar[i].ln + 15) > Bomb.ln) && EvilStar[i].state == 1){
 800342e:	7822      	ldrb	r2, [r4, #0]
 8003430:	2a01      	cmp	r2, #1
 8003432:	d1e3      	bne.n	80033fc <bomb_evilstar_collision.part.0+0x48>
          Bomb.cl -= 16;
 8003434:	3b10      	subs	r3, #16
          Bomb.ln -= 16;
 8003436:	3910      	subs	r1, #16
          Sounds(1200);
 8003438:	f44f 6096 	mov.w	r0, #1200	; 0x4b0
          Bomb.cl -= 16;
 800343c:	70ab      	strb	r3, [r5, #2]
          Bomb.state = 2;
 800343e:	702f      	strb	r7, [r5, #0]
          Bomb.ln -= 16;
 8003440:	7069      	strb	r1, [r5, #1]
          Sounds(1200);
 8003442:	f7fd f84b 	bl	80004dc <Sounds>
      if(Bomb.state > 1){
 8003446:	782b      	ldrb	r3, [r5, #0]
 8003448:	e7bd      	b.n	80033c6 <bomb_evilstar_collision.part.0+0x12>
          Sounds(500);
 800344a:	f44f 70fa 	mov.w	r0, #500	; 0x1f4
          EvilStar[i].state = 2;
 800344e:	7027      	strb	r7, [r4, #0]
          Sounds(500);
 8003450:	f7fd f844 	bl	80004dc <Sounds>
 8003454:	e7d2      	b.n	80033fc <bomb_evilstar_collision.part.0+0x48>
 8003456:	bf00      	nop
 8003458:	20000838 	.word	0x20000838
 800345c:	200007d0 	.word	0x200007d0

08003460 <move_enemy_objects>:
      if(GameFlags.WinTheGame) EvilStar[i].state = 2; 
 8003460:	4b6d      	ldr	r3, [pc, #436]	; (8003618 <move_enemy_objects+0x1b8>)
 8003462:	781b      	ldrb	r3, [r3, #0]
 8003464:	f013 0210 	ands.w	r2, r3, #16
    if (EvilStar[i].state == 1) {
 8003468:	4b6c      	ldr	r3, [pc, #432]	; (800361c <move_enemy_objects+0x1bc>)
 800346a:	f040 80a2 	bne.w	80035b2 <move_enemy_objects+0x152>
 800346e:	7819      	ldrb	r1, [r3, #0]
 8003470:	2901      	cmp	r1, #1
 8003472:	f000 80d7 	beq.w	8003624 <move_enemy_objects+0x1c4>
 8003476:	791a      	ldrb	r2, [r3, #4]
 8003478:	2a01      	cmp	r2, #1
 800347a:	f000 80de 	beq.w	800363a <move_enemy_objects+0x1da>
 800347e:	7a1a      	ldrb	r2, [r3, #8]
 8003480:	2a01      	cmp	r2, #1
 8003482:	f000 80e6 	beq.w	8003652 <move_enemy_objects+0x1f2>
 8003486:	7b1a      	ldrb	r2, [r3, #12]
 8003488:	2a01      	cmp	r2, #1
 800348a:	f000 80ee 	beq.w	800366a <move_enemy_objects+0x20a>
 800348e:	7c1a      	ldrb	r2, [r3, #16]
 8003490:	2a01      	cmp	r2, #1
 8003492:	f000 80f6 	beq.w	8003682 <move_enemy_objects+0x222>
 8003496:	7d1a      	ldrb	r2, [r3, #20]
 8003498:	2a01      	cmp	r2, #1
 800349a:	f000 80fe 	beq.w	800369a <move_enemy_objects+0x23a>
 800349e:	7e1a      	ldrb	r2, [r3, #24]
 80034a0:	2a01      	cmp	r2, #1
 80034a2:	f000 8106 	beq.w	80036b2 <move_enemy_objects+0x252>
 80034a6:	7f1a      	ldrb	r2, [r3, #28]
 80034a8:	2a01      	cmp	r2, #1
 80034aa:	f000 810e 	beq.w	80036ca <move_enemy_objects+0x26a>
 80034ae:	f893 2020 	ldrb.w	r2, [r3, #32]
 80034b2:	2a01      	cmp	r2, #1
 80034b4:	f000 8116 	beq.w	80036e4 <move_enemy_objects+0x284>
 80034b8:	f893 2024 	ldrb.w	r2, [r3, #36]	; 0x24
 80034bc:	2a01      	cmp	r2, #1
 80034be:	f000 8121 	beq.w	8003704 <move_enemy_objects+0x2a4>
    if (Coin[i].state == 1) {
 80034c2:	4b57      	ldr	r3, [pc, #348]	; (8003620 <move_enemy_objects+0x1c0>)
 80034c4:	781a      	ldrb	r2, [r3, #0]
 80034c6:	2a01      	cmp	r2, #1
 80034c8:	d107      	bne.n	80034da <move_enemy_objects+0x7a>
      Coin[i].cl -= 1;
 80034ca:	789a      	ldrb	r2, [r3, #2]
 80034cc:	3a01      	subs	r2, #1
 80034ce:	b252      	sxtb	r2, r2
 80034d0:	709a      	strb	r2, [r3, #2]
      if (Coin[i].cl < -9) Coin[i].state = 0;
 80034d2:	3209      	adds	r2, #9
 80034d4:	bfbc      	itt	lt
 80034d6:	2200      	movlt	r2, #0
 80034d8:	701a      	strblt	r2, [r3, #0]
    if (Coin[i].state == 1) {
 80034da:	791a      	ldrb	r2, [r3, #4]
 80034dc:	2a01      	cmp	r2, #1
 80034de:	d107      	bne.n	80034f0 <move_enemy_objects+0x90>
      Coin[i].cl -= 1;
 80034e0:	799a      	ldrb	r2, [r3, #6]
 80034e2:	3a01      	subs	r2, #1
 80034e4:	b252      	sxtb	r2, r2
 80034e6:	719a      	strb	r2, [r3, #6]
      if (Coin[i].cl < -9) Coin[i].state = 0;
 80034e8:	3209      	adds	r2, #9
 80034ea:	bfbc      	itt	lt
 80034ec:	2200      	movlt	r2, #0
 80034ee:	711a      	strblt	r2, [r3, #4]
    if (Coin[i].state == 1) {
 80034f0:	7a1a      	ldrb	r2, [r3, #8]
 80034f2:	2a01      	cmp	r2, #1
 80034f4:	d107      	bne.n	8003506 <move_enemy_objects+0xa6>
      Coin[i].cl -= 1;
 80034f6:	7a9a      	ldrb	r2, [r3, #10]
 80034f8:	3a01      	subs	r2, #1
 80034fa:	b252      	sxtb	r2, r2
 80034fc:	729a      	strb	r2, [r3, #10]
      if (Coin[i].cl < -9) Coin[i].state = 0;
 80034fe:	3209      	adds	r2, #9
 8003500:	bfbc      	itt	lt
 8003502:	2200      	movlt	r2, #0
 8003504:	721a      	strblt	r2, [r3, #8]
    if (Coin[i].state == 1) {
 8003506:	7b1a      	ldrb	r2, [r3, #12]
 8003508:	2a01      	cmp	r2, #1
 800350a:	d107      	bne.n	800351c <move_enemy_objects+0xbc>
      Coin[i].cl -= 1;
 800350c:	7b9a      	ldrb	r2, [r3, #14]
 800350e:	3a01      	subs	r2, #1
 8003510:	b252      	sxtb	r2, r2
 8003512:	739a      	strb	r2, [r3, #14]
      if (Coin[i].cl < -9) Coin[i].state = 0;
 8003514:	3209      	adds	r2, #9
 8003516:	bfbc      	itt	lt
 8003518:	2200      	movlt	r2, #0
 800351a:	731a      	strblt	r2, [r3, #12]
    if (Coin[i].state == 1) {
 800351c:	7c1a      	ldrb	r2, [r3, #16]
 800351e:	2a01      	cmp	r2, #1
 8003520:	d107      	bne.n	8003532 <move_enemy_objects+0xd2>
      Coin[i].cl -= 1;
 8003522:	7c9a      	ldrb	r2, [r3, #18]
 8003524:	3a01      	subs	r2, #1
 8003526:	b252      	sxtb	r2, r2
 8003528:	749a      	strb	r2, [r3, #18]
      if (Coin[i].cl < -9) Coin[i].state = 0;
 800352a:	3209      	adds	r2, #9
 800352c:	bfbc      	itt	lt
 800352e:	2200      	movlt	r2, #0
 8003530:	741a      	strblt	r2, [r3, #16]
    if (Coin[i].state == 1) {
 8003532:	7d1a      	ldrb	r2, [r3, #20]
 8003534:	2a01      	cmp	r2, #1
 8003536:	d107      	bne.n	8003548 <move_enemy_objects+0xe8>
      Coin[i].cl -= 1;
 8003538:	7d9a      	ldrb	r2, [r3, #22]
 800353a:	3a01      	subs	r2, #1
 800353c:	b252      	sxtb	r2, r2
 800353e:	759a      	strb	r2, [r3, #22]
      if (Coin[i].cl < -9) Coin[i].state = 0;
 8003540:	3209      	adds	r2, #9
 8003542:	bfbc      	itt	lt
 8003544:	2200      	movlt	r2, #0
 8003546:	751a      	strblt	r2, [r3, #20]
    if (Coin[i].state == 1) {
 8003548:	7e1a      	ldrb	r2, [r3, #24]
 800354a:	2a01      	cmp	r2, #1
 800354c:	d107      	bne.n	800355e <move_enemy_objects+0xfe>
      Coin[i].cl -= 1;
 800354e:	7e9a      	ldrb	r2, [r3, #26]
 8003550:	3a01      	subs	r2, #1
 8003552:	b252      	sxtb	r2, r2
 8003554:	769a      	strb	r2, [r3, #26]
      if (Coin[i].cl < -9) Coin[i].state = 0;
 8003556:	3209      	adds	r2, #9
 8003558:	bfbc      	itt	lt
 800355a:	2200      	movlt	r2, #0
 800355c:	761a      	strblt	r2, [r3, #24]
    if (Coin[i].state == 1) {
 800355e:	7f1a      	ldrb	r2, [r3, #28]
 8003560:	2a01      	cmp	r2, #1
 8003562:	d107      	bne.n	8003574 <move_enemy_objects+0x114>
      Coin[i].cl -= 1;
 8003564:	7f9a      	ldrb	r2, [r3, #30]
 8003566:	3a01      	subs	r2, #1
 8003568:	b252      	sxtb	r2, r2
 800356a:	779a      	strb	r2, [r3, #30]
      if (Coin[i].cl < -9) Coin[i].state = 0;
 800356c:	3209      	adds	r2, #9
 800356e:	bfbc      	itt	lt
 8003570:	2200      	movlt	r2, #0
 8003572:	771a      	strblt	r2, [r3, #28]
    if (Coin[i].state == 1) {
 8003574:	f893 2020 	ldrb.w	r2, [r3, #32]
 8003578:	2a01      	cmp	r2, #1
 800357a:	d10a      	bne.n	8003592 <move_enemy_objects+0x132>
      Coin[i].cl -= 1;
 800357c:	f893 2022 	ldrb.w	r2, [r3, #34]	; 0x22
 8003580:	3a01      	subs	r2, #1
 8003582:	b252      	sxtb	r2, r2
 8003584:	f883 2022 	strb.w	r2, [r3, #34]	; 0x22
      if (Coin[i].cl < -9) Coin[i].state = 0;
 8003588:	3209      	adds	r2, #9
 800358a:	bfbc      	itt	lt
 800358c:	2200      	movlt	r2, #0
 800358e:	f883 2020 	strblt.w	r2, [r3, #32]
    if (Coin[i].state == 1) {
 8003592:	f893 2024 	ldrb.w	r2, [r3, #36]	; 0x24
 8003596:	2a01      	cmp	r2, #1
 8003598:	d10a      	bne.n	80035b0 <move_enemy_objects+0x150>
      Coin[i].cl -= 1;
 800359a:	f893 2026 	ldrb.w	r2, [r3, #38]	; 0x26
 800359e:	3a01      	subs	r2, #1
 80035a0:	b252      	sxtb	r2, r2
 80035a2:	f883 2026 	strb.w	r2, [r3, #38]	; 0x26
      if (Coin[i].cl < -9) Coin[i].state = 0;
 80035a6:	3209      	adds	r2, #9
 80035a8:	bfbc      	itt	lt
 80035aa:	2200      	movlt	r2, #0
 80035ac:	f883 2024 	strblt.w	r2, [r3, #36]	; 0x24
}
 80035b0:	4770      	bx	lr
    if (EvilStar[i].state == 1) {
 80035b2:	781a      	ldrb	r2, [r3, #0]
 80035b4:	2a01      	cmp	r2, #1
 80035b6:	f000 80b2 	beq.w	800371e <move_enemy_objects+0x2be>
 80035ba:	791a      	ldrb	r2, [r3, #4]
 80035bc:	2a01      	cmp	r2, #1
 80035be:	f000 80b7 	beq.w	8003730 <move_enemy_objects+0x2d0>
 80035c2:	7a1a      	ldrb	r2, [r3, #8]
 80035c4:	2a01      	cmp	r2, #1
 80035c6:	f000 80bc 	beq.w	8003742 <move_enemy_objects+0x2e2>
 80035ca:	7b1a      	ldrb	r2, [r3, #12]
 80035cc:	2a01      	cmp	r2, #1
 80035ce:	f000 80c1 	beq.w	8003754 <move_enemy_objects+0x2f4>
 80035d2:	7c1a      	ldrb	r2, [r3, #16]
 80035d4:	2a01      	cmp	r2, #1
 80035d6:	f000 80c6 	beq.w	8003766 <move_enemy_objects+0x306>
 80035da:	7d1a      	ldrb	r2, [r3, #20]
 80035dc:	2a01      	cmp	r2, #1
 80035de:	f000 80cb 	beq.w	8003778 <move_enemy_objects+0x318>
 80035e2:	7e1a      	ldrb	r2, [r3, #24]
 80035e4:	2a01      	cmp	r2, #1
 80035e6:	f000 80d0 	beq.w	800378a <move_enemy_objects+0x32a>
 80035ea:	7f1a      	ldrb	r2, [r3, #28]
 80035ec:	2a01      	cmp	r2, #1
 80035ee:	f000 80d5 	beq.w	800379c <move_enemy_objects+0x33c>
 80035f2:	f893 2020 	ldrb.w	r2, [r3, #32]
 80035f6:	2a01      	cmp	r2, #1
 80035f8:	f000 80da 	beq.w	80037b0 <move_enemy_objects+0x350>
 80035fc:	f893 2024 	ldrb.w	r2, [r3, #36]	; 0x24
 8003600:	2a01      	cmp	r2, #1
 8003602:	f47f af5e 	bne.w	80034c2 <move_enemy_objects+0x62>
      if(GameFlags.WinTheGame) EvilStar[i].state = 2; 
 8003606:	2102      	movs	r1, #2
      EvilStar[i].cl--;
 8003608:	f893 2026 	ldrb.w	r2, [r3, #38]	; 0x26
      if(GameFlags.WinTheGame) EvilStar[i].state = 2; 
 800360c:	f883 1024 	strb.w	r1, [r3, #36]	; 0x24
      EvilStar[i].cl--;
 8003610:	3a01      	subs	r2, #1
 8003612:	f883 2026 	strb.w	r2, [r3, #38]	; 0x26
  for (uint8 i = 0; i < EVILSTAR_MAX; i++) {
 8003616:	e754      	b.n	80034c2 <move_enemy_objects+0x62>
 8003618:	2000086c 	.word	0x2000086c
 800361c:	20000838 	.word	0x20000838
 8003620:	20000810 	.word	0x20000810
      EvilStar[i].cl--;
 8003624:	7899      	ldrb	r1, [r3, #2]
 8003626:	3901      	subs	r1, #1
 8003628:	b249      	sxtb	r1, r1
 800362a:	7099      	strb	r1, [r3, #2]
      if ((EvilStar[i].cl < -29)) EvilStar[i].state = 0;
 800362c:	311d      	adds	r1, #29
 800362e:	bfb8      	it	lt
 8003630:	701a      	strblt	r2, [r3, #0]
    if (EvilStar[i].state == 1) {
 8003632:	791a      	ldrb	r2, [r3, #4]
 8003634:	2a01      	cmp	r2, #1
 8003636:	f47f af22 	bne.w	800347e <move_enemy_objects+0x1e>
      EvilStar[i].cl--;
 800363a:	799a      	ldrb	r2, [r3, #6]
 800363c:	3a01      	subs	r2, #1
 800363e:	b252      	sxtb	r2, r2
 8003640:	719a      	strb	r2, [r3, #6]
      if ((EvilStar[i].cl < -29)) EvilStar[i].state = 0;
 8003642:	321d      	adds	r2, #29
 8003644:	bfbc      	itt	lt
 8003646:	2200      	movlt	r2, #0
 8003648:	711a      	strblt	r2, [r3, #4]
    if (EvilStar[i].state == 1) {
 800364a:	7a1a      	ldrb	r2, [r3, #8]
 800364c:	2a01      	cmp	r2, #1
 800364e:	f47f af1a 	bne.w	8003486 <move_enemy_objects+0x26>
      EvilStar[i].cl--;
 8003652:	7a9a      	ldrb	r2, [r3, #10]
 8003654:	3a01      	subs	r2, #1
 8003656:	b252      	sxtb	r2, r2
 8003658:	729a      	strb	r2, [r3, #10]
      if ((EvilStar[i].cl < -29)) EvilStar[i].state = 0;
 800365a:	321d      	adds	r2, #29
 800365c:	bfbc      	itt	lt
 800365e:	2200      	movlt	r2, #0
 8003660:	721a      	strblt	r2, [r3, #8]
    if (EvilStar[i].state == 1) {
 8003662:	7b1a      	ldrb	r2, [r3, #12]
 8003664:	2a01      	cmp	r2, #1
 8003666:	f47f af12 	bne.w	800348e <move_enemy_objects+0x2e>
      EvilStar[i].cl--;
 800366a:	7b9a      	ldrb	r2, [r3, #14]
 800366c:	3a01      	subs	r2, #1
 800366e:	b252      	sxtb	r2, r2
 8003670:	739a      	strb	r2, [r3, #14]
      if ((EvilStar[i].cl < -29)) EvilStar[i].state = 0;
 8003672:	321d      	adds	r2, #29
 8003674:	bfbc      	itt	lt
 8003676:	2200      	movlt	r2, #0
 8003678:	731a      	strblt	r2, [r3, #12]
    if (EvilStar[i].state == 1) {
 800367a:	7c1a      	ldrb	r2, [r3, #16]
 800367c:	2a01      	cmp	r2, #1
 800367e:	f47f af0a 	bne.w	8003496 <move_enemy_objects+0x36>
      EvilStar[i].cl--;
 8003682:	7c9a      	ldrb	r2, [r3, #18]
 8003684:	3a01      	subs	r2, #1
 8003686:	b252      	sxtb	r2, r2
 8003688:	749a      	strb	r2, [r3, #18]
      if ((EvilStar[i].cl < -29)) EvilStar[i].state = 0;
 800368a:	321d      	adds	r2, #29
 800368c:	bfbc      	itt	lt
 800368e:	2200      	movlt	r2, #0
 8003690:	741a      	strblt	r2, [r3, #16]
    if (EvilStar[i].state == 1) {
 8003692:	7d1a      	ldrb	r2, [r3, #20]
 8003694:	2a01      	cmp	r2, #1
 8003696:	f47f af02 	bne.w	800349e <move_enemy_objects+0x3e>
      EvilStar[i].cl--;
 800369a:	7d9a      	ldrb	r2, [r3, #22]
 800369c:	3a01      	subs	r2, #1
 800369e:	b252      	sxtb	r2, r2
 80036a0:	759a      	strb	r2, [r3, #22]
      if ((EvilStar[i].cl < -29)) EvilStar[i].state = 0;
 80036a2:	321d      	adds	r2, #29
 80036a4:	bfbc      	itt	lt
 80036a6:	2200      	movlt	r2, #0
 80036a8:	751a      	strblt	r2, [r3, #20]
    if (EvilStar[i].state == 1) {
 80036aa:	7e1a      	ldrb	r2, [r3, #24]
 80036ac:	2a01      	cmp	r2, #1
 80036ae:	f47f aefa 	bne.w	80034a6 <move_enemy_objects+0x46>
      EvilStar[i].cl--;
 80036b2:	7e9a      	ldrb	r2, [r3, #26]
 80036b4:	3a01      	subs	r2, #1
 80036b6:	b252      	sxtb	r2, r2
 80036b8:	769a      	strb	r2, [r3, #26]
      if ((EvilStar[i].cl < -29)) EvilStar[i].state = 0;
 80036ba:	321d      	adds	r2, #29
 80036bc:	bfbc      	itt	lt
 80036be:	2200      	movlt	r2, #0
 80036c0:	761a      	strblt	r2, [r3, #24]
    if (EvilStar[i].state == 1) {
 80036c2:	7f1a      	ldrb	r2, [r3, #28]
 80036c4:	2a01      	cmp	r2, #1
 80036c6:	f47f aef2 	bne.w	80034ae <move_enemy_objects+0x4e>
      EvilStar[i].cl--;
 80036ca:	7f9a      	ldrb	r2, [r3, #30]
 80036cc:	3a01      	subs	r2, #1
 80036ce:	b252      	sxtb	r2, r2
 80036d0:	779a      	strb	r2, [r3, #30]
      if ((EvilStar[i].cl < -29)) EvilStar[i].state = 0;
 80036d2:	321d      	adds	r2, #29
 80036d4:	bfbc      	itt	lt
 80036d6:	2200      	movlt	r2, #0
 80036d8:	771a      	strblt	r2, [r3, #28]
    if (EvilStar[i].state == 1) {
 80036da:	f893 2020 	ldrb.w	r2, [r3, #32]
 80036de:	2a01      	cmp	r2, #1
 80036e0:	f47f aeea 	bne.w	80034b8 <move_enemy_objects+0x58>
      EvilStar[i].cl--;
 80036e4:	f893 2022 	ldrb.w	r2, [r3, #34]	; 0x22
 80036e8:	3a01      	subs	r2, #1
 80036ea:	b252      	sxtb	r2, r2
 80036ec:	f883 2022 	strb.w	r2, [r3, #34]	; 0x22
      if ((EvilStar[i].cl < -29)) EvilStar[i].state = 0;
 80036f0:	321d      	adds	r2, #29
 80036f2:	bfbc      	itt	lt
 80036f4:	2200      	movlt	r2, #0
 80036f6:	f883 2020 	strblt.w	r2, [r3, #32]
    if (EvilStar[i].state == 1) {
 80036fa:	f893 2024 	ldrb.w	r2, [r3, #36]	; 0x24
 80036fe:	2a01      	cmp	r2, #1
 8003700:	f47f aedf 	bne.w	80034c2 <move_enemy_objects+0x62>
      EvilStar[i].cl--;
 8003704:	f893 2026 	ldrb.w	r2, [r3, #38]	; 0x26
 8003708:	3a01      	subs	r2, #1
 800370a:	b252      	sxtb	r2, r2
 800370c:	f883 2026 	strb.w	r2, [r3, #38]	; 0x26
      if ((EvilStar[i].cl < -29)) EvilStar[i].state = 0;
 8003710:	321d      	adds	r2, #29
 8003712:	f6bf aed6 	bge.w	80034c2 <move_enemy_objects+0x62>
 8003716:	2200      	movs	r2, #0
 8003718:	f883 2024 	strb.w	r2, [r3, #36]	; 0x24
 800371c:	e6d1      	b.n	80034c2 <move_enemy_objects+0x62>
      if(GameFlags.WinTheGame) EvilStar[i].state = 2; 
 800371e:	2102      	movs	r1, #2
      EvilStar[i].cl--;
 8003720:	789a      	ldrb	r2, [r3, #2]
      if(GameFlags.WinTheGame) EvilStar[i].state = 2; 
 8003722:	7019      	strb	r1, [r3, #0]
      EvilStar[i].cl--;
 8003724:	3a01      	subs	r2, #1
 8003726:	709a      	strb	r2, [r3, #2]
    if (EvilStar[i].state == 1) {
 8003728:	791a      	ldrb	r2, [r3, #4]
 800372a:	2a01      	cmp	r2, #1
 800372c:	f47f af49 	bne.w	80035c2 <move_enemy_objects+0x162>
      if(GameFlags.WinTheGame) EvilStar[i].state = 2; 
 8003730:	2102      	movs	r1, #2
      EvilStar[i].cl--;
 8003732:	799a      	ldrb	r2, [r3, #6]
      if(GameFlags.WinTheGame) EvilStar[i].state = 2; 
 8003734:	7119      	strb	r1, [r3, #4]
      EvilStar[i].cl--;
 8003736:	3a01      	subs	r2, #1
 8003738:	719a      	strb	r2, [r3, #6]
    if (EvilStar[i].state == 1) {
 800373a:	7a1a      	ldrb	r2, [r3, #8]
 800373c:	2a01      	cmp	r2, #1
 800373e:	f47f af44 	bne.w	80035ca <move_enemy_objects+0x16a>
      if(GameFlags.WinTheGame) EvilStar[i].state = 2; 
 8003742:	2102      	movs	r1, #2
      EvilStar[i].cl--;
 8003744:	7a9a      	ldrb	r2, [r3, #10]
      if(GameFlags.WinTheGame) EvilStar[i].state = 2; 
 8003746:	7219      	strb	r1, [r3, #8]
      EvilStar[i].cl--;
 8003748:	3a01      	subs	r2, #1
 800374a:	729a      	strb	r2, [r3, #10]
    if (EvilStar[i].state == 1) {
 800374c:	7b1a      	ldrb	r2, [r3, #12]
 800374e:	2a01      	cmp	r2, #1
 8003750:	f47f af3f 	bne.w	80035d2 <move_enemy_objects+0x172>
      if(GameFlags.WinTheGame) EvilStar[i].state = 2; 
 8003754:	2102      	movs	r1, #2
      EvilStar[i].cl--;
 8003756:	7b9a      	ldrb	r2, [r3, #14]
      if(GameFlags.WinTheGame) EvilStar[i].state = 2; 
 8003758:	7319      	strb	r1, [r3, #12]
      EvilStar[i].cl--;
 800375a:	3a01      	subs	r2, #1
 800375c:	739a      	strb	r2, [r3, #14]
    if (EvilStar[i].state == 1) {
 800375e:	7c1a      	ldrb	r2, [r3, #16]
 8003760:	2a01      	cmp	r2, #1
 8003762:	f47f af3a 	bne.w	80035da <move_enemy_objects+0x17a>
      if(GameFlags.WinTheGame) EvilStar[i].state = 2; 
 8003766:	2102      	movs	r1, #2
      EvilStar[i].cl--;
 8003768:	7c9a      	ldrb	r2, [r3, #18]
      if(GameFlags.WinTheGame) EvilStar[i].state = 2; 
 800376a:	7419      	strb	r1, [r3, #16]
      EvilStar[i].cl--;
 800376c:	3a01      	subs	r2, #1
 800376e:	749a      	strb	r2, [r3, #18]
    if (EvilStar[i].state == 1) {
 8003770:	7d1a      	ldrb	r2, [r3, #20]
 8003772:	2a01      	cmp	r2, #1
 8003774:	f47f af35 	bne.w	80035e2 <move_enemy_objects+0x182>
      if(GameFlags.WinTheGame) EvilStar[i].state = 2; 
 8003778:	2102      	movs	r1, #2
      EvilStar[i].cl--;
 800377a:	7d9a      	ldrb	r2, [r3, #22]
      if(GameFlags.WinTheGame) EvilStar[i].state = 2; 
 800377c:	7519      	strb	r1, [r3, #20]
      EvilStar[i].cl--;
 800377e:	3a01      	subs	r2, #1
 8003780:	759a      	strb	r2, [r3, #22]
    if (EvilStar[i].state == 1) {
 8003782:	7e1a      	ldrb	r2, [r3, #24]
 8003784:	2a01      	cmp	r2, #1
 8003786:	f47f af30 	bne.w	80035ea <move_enemy_objects+0x18a>
      if(GameFlags.WinTheGame) EvilStar[i].state = 2; 
 800378a:	2102      	movs	r1, #2
      EvilStar[i].cl--;
 800378c:	7e9a      	ldrb	r2, [r3, #26]
      if(GameFlags.WinTheGame) EvilStar[i].state = 2; 
 800378e:	7619      	strb	r1, [r3, #24]
      EvilStar[i].cl--;
 8003790:	3a01      	subs	r2, #1
 8003792:	769a      	strb	r2, [r3, #26]
    if (EvilStar[i].state == 1) {
 8003794:	7f1a      	ldrb	r2, [r3, #28]
 8003796:	2a01      	cmp	r2, #1
 8003798:	f47f af2b 	bne.w	80035f2 <move_enemy_objects+0x192>
      if(GameFlags.WinTheGame) EvilStar[i].state = 2; 
 800379c:	2102      	movs	r1, #2
      EvilStar[i].cl--;
 800379e:	7f9a      	ldrb	r2, [r3, #30]
      if(GameFlags.WinTheGame) EvilStar[i].state = 2; 
 80037a0:	7719      	strb	r1, [r3, #28]
      EvilStar[i].cl--;
 80037a2:	3a01      	subs	r2, #1
 80037a4:	779a      	strb	r2, [r3, #30]
    if (EvilStar[i].state == 1) {
 80037a6:	f893 2020 	ldrb.w	r2, [r3, #32]
 80037aa:	2a01      	cmp	r2, #1
 80037ac:	f47f af26 	bne.w	80035fc <move_enemy_objects+0x19c>
      if(GameFlags.WinTheGame) EvilStar[i].state = 2; 
 80037b0:	2102      	movs	r1, #2
      EvilStar[i].cl--;
 80037b2:	f893 2022 	ldrb.w	r2, [r3, #34]	; 0x22
      if(GameFlags.WinTheGame) EvilStar[i].state = 2; 
 80037b6:	f883 1020 	strb.w	r1, [r3, #32]
      EvilStar[i].cl--;
 80037ba:	3a01      	subs	r2, #1
 80037bc:	f883 2022 	strb.w	r2, [r3, #34]	; 0x22
    if (EvilStar[i].state == 1) {
 80037c0:	f893 2024 	ldrb.w	r2, [r3, #36]	; 0x24
 80037c4:	2a01      	cmp	r2, #1
 80037c6:	f47f ae7c 	bne.w	80034c2 <move_enemy_objects+0x62>
 80037ca:	e71c      	b.n	8003606 <move_enemy_objects+0x1a6>

080037cc <system_events_period25ms>:
  if(l == 0) l = move_period;
 80037cc:	4a55      	ldr	r2, [pc, #340]	; (8003924 <system_events_period25ms+0x158>)
 80037ce:	7813      	ldrb	r3, [r2, #0]
 80037d0:	2b00      	cmp	r3, #0
 80037d2:	f040 8085 	bne.w	80038e0 <system_events_period25ms+0x114>
      if(SmallStar[i].state != 0) {
 80037d6:	4b54      	ldr	r3, [pc, #336]	; (8003928 <system_events_period25ms+0x15c>)
 80037d8:	7819      	ldrb	r1, [r3, #0]
 80037da:	b139      	cbz	r1, 80037ec <system_events_period25ms+0x20>
      SmallStar[i].cl -= 1;
 80037dc:	7899      	ldrb	r1, [r3, #2]
 80037de:	3901      	subs	r1, #1
 80037e0:	b249      	sxtb	r1, r1
 80037e2:	7099      	strb	r1, [r3, #2]
      if(SmallStar[i].cl < -2) SmallStar[i].state = 0;
 80037e4:	3102      	adds	r1, #2
 80037e6:	bfbc      	itt	lt
 80037e8:	2100      	movlt	r1, #0
 80037ea:	7019      	strblt	r1, [r3, #0]
      if(SmallStar[i].state != 0) {
 80037ec:	78d9      	ldrb	r1, [r3, #3]
 80037ee:	b139      	cbz	r1, 8003800 <system_events_period25ms+0x34>
      SmallStar[i].cl -= 1;
 80037f0:	7959      	ldrb	r1, [r3, #5]
 80037f2:	3901      	subs	r1, #1
 80037f4:	b249      	sxtb	r1, r1
 80037f6:	7159      	strb	r1, [r3, #5]
      if(SmallStar[i].cl < -2) SmallStar[i].state = 0;
 80037f8:	3102      	adds	r1, #2
 80037fa:	bfbc      	itt	lt
 80037fc:	2100      	movlt	r1, #0
 80037fe:	70d9      	strblt	r1, [r3, #3]
      if(SmallStar[i].state != 0) {
 8003800:	7999      	ldrb	r1, [r3, #6]
 8003802:	b139      	cbz	r1, 8003814 <system_events_period25ms+0x48>
      SmallStar[i].cl -= 1;
 8003804:	7a19      	ldrb	r1, [r3, #8]
 8003806:	3901      	subs	r1, #1
 8003808:	b249      	sxtb	r1, r1
 800380a:	7219      	strb	r1, [r3, #8]
      if(SmallStar[i].cl < -2) SmallStar[i].state = 0;
 800380c:	3102      	adds	r1, #2
 800380e:	bfbc      	itt	lt
 8003810:	2100      	movlt	r1, #0
 8003812:	7199      	strblt	r1, [r3, #6]
      if(SmallStar[i].state != 0) {
 8003814:	7a59      	ldrb	r1, [r3, #9]
 8003816:	b139      	cbz	r1, 8003828 <system_events_period25ms+0x5c>
      SmallStar[i].cl -= 1;
 8003818:	7ad9      	ldrb	r1, [r3, #11]
 800381a:	3901      	subs	r1, #1
 800381c:	b249      	sxtb	r1, r1
 800381e:	72d9      	strb	r1, [r3, #11]
      if(SmallStar[i].cl < -2) SmallStar[i].state = 0;
 8003820:	3102      	adds	r1, #2
 8003822:	bfbc      	itt	lt
 8003824:	2100      	movlt	r1, #0
 8003826:	7259      	strblt	r1, [r3, #9]
      if(SmallStar[i].state != 0) {
 8003828:	7b19      	ldrb	r1, [r3, #12]
 800382a:	b139      	cbz	r1, 800383c <system_events_period25ms+0x70>
      SmallStar[i].cl -= 1;
 800382c:	7b99      	ldrb	r1, [r3, #14]
 800382e:	3901      	subs	r1, #1
 8003830:	b249      	sxtb	r1, r1
 8003832:	7399      	strb	r1, [r3, #14]
      if(SmallStar[i].cl < -2) SmallStar[i].state = 0;
 8003834:	3102      	adds	r1, #2
 8003836:	bfbc      	itt	lt
 8003838:	2100      	movlt	r1, #0
 800383a:	7319      	strblt	r1, [r3, #12]
      if(SmallStar[i].state != 0) {
 800383c:	7bd9      	ldrb	r1, [r3, #15]
 800383e:	b139      	cbz	r1, 8003850 <system_events_period25ms+0x84>
      SmallStar[i].cl -= 1;
 8003840:	7c59      	ldrb	r1, [r3, #17]
 8003842:	3901      	subs	r1, #1
 8003844:	b249      	sxtb	r1, r1
 8003846:	7459      	strb	r1, [r3, #17]
      if(SmallStar[i].cl < -2) SmallStar[i].state = 0;
 8003848:	3102      	adds	r1, #2
 800384a:	bfbc      	itt	lt
 800384c:	2100      	movlt	r1, #0
 800384e:	73d9      	strblt	r1, [r3, #15]
      if(SmallStar[i].state != 0) {
 8003850:	7c99      	ldrb	r1, [r3, #18]
 8003852:	b139      	cbz	r1, 8003864 <system_events_period25ms+0x98>
      SmallStar[i].cl -= 1;
 8003854:	7d19      	ldrb	r1, [r3, #20]
 8003856:	3901      	subs	r1, #1
 8003858:	b249      	sxtb	r1, r1
 800385a:	7519      	strb	r1, [r3, #20]
      if(SmallStar[i].cl < -2) SmallStar[i].state = 0;
 800385c:	3102      	adds	r1, #2
 800385e:	bfbc      	itt	lt
 8003860:	2100      	movlt	r1, #0
 8003862:	7499      	strblt	r1, [r3, #18]
      if(SmallStar[i].state != 0) {
 8003864:	7d59      	ldrb	r1, [r3, #21]
 8003866:	b139      	cbz	r1, 8003878 <system_events_period25ms+0xac>
      SmallStar[i].cl -= 1;
 8003868:	7dd9      	ldrb	r1, [r3, #23]
 800386a:	3901      	subs	r1, #1
 800386c:	b249      	sxtb	r1, r1
 800386e:	75d9      	strb	r1, [r3, #23]
      if(SmallStar[i].cl < -2) SmallStar[i].state = 0;
 8003870:	3102      	adds	r1, #2
 8003872:	bfbc      	itt	lt
 8003874:	2100      	movlt	r1, #0
 8003876:	7559      	strblt	r1, [r3, #21]
      if(SmallStar[i].state != 0) {
 8003878:	7e19      	ldrb	r1, [r3, #24]
 800387a:	b139      	cbz	r1, 800388c <system_events_period25ms+0xc0>
      SmallStar[i].cl -= 1;
 800387c:	7e99      	ldrb	r1, [r3, #26]
 800387e:	3901      	subs	r1, #1
 8003880:	b249      	sxtb	r1, r1
 8003882:	7699      	strb	r1, [r3, #26]
      if(SmallStar[i].cl < -2) SmallStar[i].state = 0;
 8003884:	3102      	adds	r1, #2
 8003886:	bfbc      	itt	lt
 8003888:	2100      	movlt	r1, #0
 800388a:	7619      	strblt	r1, [r3, #24]
      if(SmallStar[i].state != 0) {
 800388c:	7ed9      	ldrb	r1, [r3, #27]
 800388e:	b139      	cbz	r1, 80038a0 <system_events_period25ms+0xd4>
      SmallStar[i].cl -= 1;
 8003890:	7f59      	ldrb	r1, [r3, #29]
 8003892:	3901      	subs	r1, #1
 8003894:	b249      	sxtb	r1, r1
 8003896:	7759      	strb	r1, [r3, #29]
      if(SmallStar[i].cl < -2) SmallStar[i].state = 0;
 8003898:	3102      	adds	r1, #2
 800389a:	bfbc      	itt	lt
 800389c:	2100      	movlt	r1, #0
 800389e:	76d9      	strblt	r1, [r3, #27]
      if(SmallStar[i].state != 0) {
 80038a0:	7f99      	ldrb	r1, [r3, #30]
 80038a2:	b149      	cbz	r1, 80038b8 <system_events_period25ms+0xec>
      SmallStar[i].cl -= 1;
 80038a4:	f893 1020 	ldrb.w	r1, [r3, #32]
 80038a8:	3901      	subs	r1, #1
 80038aa:	b249      	sxtb	r1, r1
 80038ac:	f883 1020 	strb.w	r1, [r3, #32]
      if(SmallStar[i].cl < -2) SmallStar[i].state = 0;
 80038b0:	3102      	adds	r1, #2
 80038b2:	bfbc      	itt	lt
 80038b4:	2100      	movlt	r1, #0
 80038b6:	7799      	strblt	r1, [r3, #30]
      if(SmallStar[i].state != 0) {
 80038b8:	f893 1021 	ldrb.w	r1, [r3, #33]	; 0x21
 80038bc:	b151      	cbz	r1, 80038d4 <system_events_period25ms+0x108>
      SmallStar[i].cl -= 1;
 80038be:	f893 1023 	ldrb.w	r1, [r3, #35]	; 0x23
 80038c2:	3901      	subs	r1, #1
 80038c4:	b249      	sxtb	r1, r1
 80038c6:	f883 1023 	strb.w	r1, [r3, #35]	; 0x23
      if(SmallStar[i].cl < -2) SmallStar[i].state = 0;
 80038ca:	3102      	adds	r1, #2
 80038cc:	bfbc      	itt	lt
 80038ce:	2100      	movlt	r1, #0
 80038d0:	f883 1021 	strblt.w	r1, [r3, #33]	; 0x21
{
 80038d4:	2301      	movs	r3, #1
  if(MinMagaz.state){
 80038d6:	4915      	ldr	r1, [pc, #84]	; (800392c <system_events_period25ms+0x160>)
  l--;
 80038d8:	7013      	strb	r3, [r2, #0]
  if(MinMagaz.state){
 80038da:	780b      	ldrb	r3, [r1, #0]
 80038dc:	b953      	cbnz	r3, 80038f4 <system_events_period25ms+0x128>
}
 80038de:	4770      	bx	lr
  if(l == move_period) {
 80038e0:	2b02      	cmp	r3, #2
 80038e2:	f43f af78 	beq.w	80037d6 <system_events_period25ms+0xa>
  if(MinMagaz.state){
 80038e6:	4911      	ldr	r1, [pc, #68]	; (800392c <system_events_period25ms+0x160>)
  l--;
 80038e8:	3b01      	subs	r3, #1
 80038ea:	b2db      	uxtb	r3, r3
 80038ec:	7013      	strb	r3, [r2, #0]
  if(MinMagaz.state){
 80038ee:	780b      	ldrb	r3, [r1, #0]
 80038f0:	2b00      	cmp	r3, #0
 80038f2:	d0f4      	beq.n	80038de <system_events_period25ms+0x112>
    if(++prd == period)
 80038f4:	4a0e      	ldr	r2, [pc, #56]	; (8003930 <system_events_period25ms+0x164>)
 80038f6:	7813      	ldrb	r3, [r2, #0]
 80038f8:	3301      	adds	r3, #1
 80038fa:	b2db      	uxtb	r3, r3
 80038fc:	2b0a      	cmp	r3, #10
 80038fe:	d001      	beq.n	8003904 <system_events_period25ms+0x138>
 8003900:	7013      	strb	r3, [r2, #0]
 8003902:	4770      	bx	lr
      prd = 0;
 8003904:	f04f 0c00 	mov.w	ip, #0
      MinMagaz.cl -= 6;
 8003908:	788b      	ldrb	r3, [r1, #2]
      prd = 0;
 800390a:	f882 c000 	strb.w	ip, [r2]
      MinMagaz.cl -= 6;
 800390e:	3b06      	subs	r3, #6
 8003910:	b25b      	sxtb	r3, r3
      if(MinMagaz.cl < 4) {
 8003912:	2b03      	cmp	r3, #3
      MinMagaz.cl -= 6;
 8003914:	708b      	strb	r3, [r1, #2]
      if(MinMagaz.cl < 4) {
 8003916:	dce2      	bgt.n	80038de <system_events_period25ms+0x112>
        SchedResumeEvent(createevilstar);
 8003918:	4806      	ldr	r0, [pc, #24]	; (8003934 <system_events_period25ms+0x168>)
        MinMagaz.state = 0;
 800391a:	f881 c000 	strb.w	ip, [r1]
        SchedResumeEvent(createevilstar);
 800391e:	f7ff b883 	b.w	8002a28 <SchedResumeEvent>
 8003922:	bf00      	nop
 8003924:	200008ad 	.word	0x200008ad
 8003928:	20000880 	.word	0x20000880
 800392c:	2000000c 	.word	0x2000000c
 8003930:	200008b6 	.word	0x200008b6
 8003934:	08002f19 	.word	0x08002f19

08003938 <stateinit_exitmagazin>:
{
 8003938:	b510      	push	{r4, lr}
  if(++counter < 15) LCD_printsprite((int8)(8 + counter * 4), 64, &magazin_sprite);
 800393a:	4a1d      	ldr	r2, [pc, #116]	; (80039b0 <stateinit_exitmagazin+0x78>)
 800393c:	7810      	ldrb	r0, [r2, #0]
 800393e:	1c43      	adds	r3, r0, #1
 8003940:	b2db      	uxtb	r3, r3
 8003942:	2b0e      	cmp	r3, #14
 8003944:	7013      	strb	r3, [r2, #0]
 8003946:	d81c      	bhi.n	8003982 <stateinit_exitmagazin+0x4a>
 8003948:	3003      	adds	r0, #3
 800394a:	0080      	lsls	r0, r0, #2
 800394c:	2140      	movs	r1, #64	; 0x40
 800394e:	4a19      	ldr	r2, [pc, #100]	; (80039b4 <stateinit_exitmagazin+0x7c>)
 8003950:	b240      	sxtb	r0, r0
 8003952:	f7fd fdb7 	bl	80014c4 <LCD_printsprite>
  if ((Gamer.health > 0)) {
 8003956:	4b18      	ldr	r3, [pc, #96]	; (80039b8 <stateinit_exitmagazin+0x80>)
 8003958:	f993 2000 	ldrsb.w	r2, [r3]
 800395c:	2a00      	cmp	r2, #0
 800395e:	dd0b      	ble.n	8003978 <stateinit_exitmagazin+0x40>
    if (Gamer.gasmask_health > 0) LCD_printsprite(Gamer.ln, Gamer.cl, &gamer_gas_sprite);
 8003960:	f993 2003 	ldrsb.w	r2, [r3, #3]
    else LCD_printsprite(Gamer.ln, Gamer.cl, &gamer_sprite);
 8003964:	f993 100d 	ldrsb.w	r1, [r3, #13]
    if (Gamer.gasmask_health > 0) LCD_printsprite(Gamer.ln, Gamer.cl, &gamer_gas_sprite);
 8003968:	2a00      	cmp	r2, #0
 800396a:	bfcc      	ite	gt
 800396c:	4a13      	ldrgt	r2, [pc, #76]	; (80039bc <stateinit_exitmagazin+0x84>)
    else LCD_printsprite(Gamer.ln, Gamer.cl, &gamer_sprite);
 800396e:	4a14      	ldrle	r2, [pc, #80]	; (80039c0 <stateinit_exitmagazin+0x88>)
 8003970:	f993 000c 	ldrsb.w	r0, [r3, #12]
 8003974:	f7fd fda6 	bl	80014c4 <LCD_printsprite>
}
 8003978:	e8bd 4010 	ldmia.w	sp!, {r4, lr}
  LCD_printgamestatbar(&Gamer);
 800397c:	480e      	ldr	r0, [pc, #56]	; (80039b8 <stateinit_exitmagazin+0x80>)
 800397e:	f7fd bf61 	b.w	8001844 <LCD_printgamestatbar>
    counter = 0;
 8003982:	2300      	movs	r3, #0
    gamestate = STATE_RUNGAME;
 8003984:	f04f 0c07 	mov.w	ip, #7
    gameevent = EVENT_NONE;
 8003988:	490e      	ldr	r1, [pc, #56]	; (80039c4 <stateinit_exitmagazin+0x8c>)
    gamestate = STATE_RUNGAME;
 800398a:	4c0f      	ldr	r4, [pc, #60]	; (80039c8 <stateinit_exitmagazin+0x90>)
    SchedResumeEvent(createevilstar);
 800398c:	480f      	ldr	r0, [pc, #60]	; (80039cc <stateinit_exitmagazin+0x94>)
    counter = 0;
 800398e:	7013      	strb	r3, [r2, #0]
    gamestate = STATE_RUNGAME;
 8003990:	f884 c000 	strb.w	ip, [r4]
    gameevent = EVENT_NONE;
 8003994:	700b      	strb	r3, [r1, #0]
    SchedResumeEvent(createevilstar);
 8003996:	f7ff f847 	bl	8002a28 <SchedResumeEvent>
    SchedResumeEvent(movbullet);
 800399a:	480d      	ldr	r0, [pc, #52]	; (80039d0 <stateinit_exitmagazin+0x98>)
 800399c:	f7ff f844 	bl	8002a28 <SchedResumeEvent>
    SchedResumeEvent(move_enemy_objects);
 80039a0:	480c      	ldr	r0, [pc, #48]	; (80039d4 <stateinit_exitmagazin+0x9c>)
 80039a2:	f7ff f841 	bl	8002a28 <SchedResumeEvent>
    SchedResumeEvent(gameprogress);
 80039a6:	480c      	ldr	r0, [pc, #48]	; (80039d8 <stateinit_exitmagazin+0xa0>)
 80039a8:	f7ff f83e 	bl	8002a28 <SchedResumeEvent>
 80039ac:	e7d3      	b.n	8003956 <stateinit_exitmagazin+0x1e>
 80039ae:	bf00      	nop
 80039b0:	200008a4 	.word	0x200008a4
 80039b4:	08009ef0 	.word	0x08009ef0
 80039b8:	20000870 	.word	0x20000870
 80039bc:	08009624 	.word	0x08009624
 80039c0:	08009674 	.word	0x08009674
 80039c4:	200008a7 	.word	0x200008a7
 80039c8:	200008a8 	.word	0x200008a8
 80039cc:	08002f19 	.word	0x08002f19
 80039d0:	08002d95 	.word	0x08002d95
 80039d4:	08003461 	.word	0x08003461
 80039d8:	0800301d 	.word	0x0800301d

080039dc <system_events_period100ms>:
{
 80039dc:	b570      	push	{r4, r5, r6, lr}
  if(k == 0) k = create_period;
 80039de:	4dad      	ldr	r5, [pc, #692]	; (8003c94 <system_events_period100ms+0x2b8>)
  batcheck();
 80039e0:	f7fc fccc 	bl	800037c <batcheck>
  if(k == 0) k = create_period;
 80039e4:	782b      	ldrb	r3, [r5, #0]
 80039e6:	2b00      	cmp	r3, #0
 80039e8:	f040 80f9 	bne.w	8003bde <system_events_period100ms+0x202>
 80039ec:	2305      	movs	r3, #5
 80039ee:	702b      	strb	r3, [r5, #0]
      if(SmallStar[i].state == 0){
 80039f0:	4ca9      	ldr	r4, [pc, #676]	; (8003c98 <system_events_period100ms+0x2bc>)
 80039f2:	7826      	ldrb	r6, [r4, #0]
 80039f4:	2e00      	cmp	r6, #0
 80039f6:	f000 812a 	beq.w	8003c4e <system_events_period100ms+0x272>
 80039fa:	78e3      	ldrb	r3, [r4, #3]
 80039fc:	2b00      	cmp	r3, #0
 80039fe:	f000 8125 	beq.w	8003c4c <system_events_period100ms+0x270>
 8003a02:	79a3      	ldrb	r3, [r4, #6]
 8003a04:	2b00      	cmp	r3, #0
 8003a06:	f000 8135 	beq.w	8003c74 <system_events_period100ms+0x298>
 8003a0a:	7a63      	ldrb	r3, [r4, #9]
 8003a0c:	2b00      	cmp	r3, #0
 8003a0e:	f000 8133 	beq.w	8003c78 <system_events_period100ms+0x29c>
 8003a12:	7b23      	ldrb	r3, [r4, #12]
 8003a14:	2b00      	cmp	r3, #0
 8003a16:	f000 8133 	beq.w	8003c80 <system_events_period100ms+0x2a4>
 8003a1a:	7be3      	ldrb	r3, [r4, #15]
 8003a1c:	2b00      	cmp	r3, #0
 8003a1e:	f000 812d 	beq.w	8003c7c <system_events_period100ms+0x2a0>
 8003a22:	7ca3      	ldrb	r3, [r4, #18]
 8003a24:	2b00      	cmp	r3, #0
 8003a26:	f000 812f 	beq.w	8003c88 <system_events_period100ms+0x2ac>
 8003a2a:	7d63      	ldrb	r3, [r4, #21]
 8003a2c:	2b00      	cmp	r3, #0
 8003a2e:	f000 8129 	beq.w	8003c84 <system_events_period100ms+0x2a8>
 8003a32:	7e23      	ldrb	r3, [r4, #24]
 8003a34:	2b00      	cmp	r3, #0
 8003a36:	f000 8129 	beq.w	8003c8c <system_events_period100ms+0x2b0>
 8003a3a:	7ee3      	ldrb	r3, [r4, #27]
 8003a3c:	2b00      	cmp	r3, #0
 8003a3e:	f000 8117 	beq.w	8003c70 <system_events_period100ms+0x294>
 8003a42:	7fa3      	ldrb	r3, [r4, #30]
 8003a44:	2b00      	cmp	r3, #0
 8003a46:	f000 8123 	beq.w	8003c90 <system_events_period100ms+0x2b4>
 8003a4a:	f894 3021 	ldrb.w	r3, [r4, #33]	; 0x21
    for(int i = 0; i < SMALLSTAR_MAX; i++)
 8003a4e:	260b      	movs	r6, #11
      if(SmallStar[i].state == 0){
 8003a50:	2b00      	cmp	r3, #0
 8003a52:	f000 80fc 	beq.w	8003c4e <system_events_period100ms+0x272>
  k--;
 8003a56:	782b      	ldrb	r3, [r5, #0]
    if(SmallStar[i].state) {
 8003a58:	7821      	ldrb	r1, [r4, #0]
  k--;
 8003a5a:	3b01      	subs	r3, #1
 8003a5c:	702b      	strb	r3, [r5, #0]
    if(SmallStar[i].state) {
 8003a5e:	2900      	cmp	r1, #0
 8003a60:	f000 80c7 	beq.w	8003bf2 <system_events_period100ms+0x216>
      LCD_printsprite(SmallStar[i].ln, SmallStar[i].cl, &smallstar_sprite[SmallStar[i].state - 1]);
 8003a64:	4b8d      	ldr	r3, [pc, #564]	; (8003c9c <system_events_period100ms+0x2c0>)
 8003a66:	3901      	subs	r1, #1
 8003a68:	eb01 0241 	add.w	r2, r1, r1, lsl #1
 8003a6c:	eb03 0282 	add.w	r2, r3, r2, lsl #2
 8003a70:	f994 1002 	ldrsb.w	r1, [r4, #2]
 8003a74:	f994 0001 	ldrsb.w	r0, [r4, #1]
 8003a78:	f7fd fd24 	bl	80014c4 <LCD_printsprite>
    if(SmallStar[i].state) {
 8003a7c:	78e3      	ldrb	r3, [r4, #3]
 8003a7e:	2b00      	cmp	r3, #0
 8003a80:	f000 80bb 	beq.w	8003bfa <system_events_period100ms+0x21e>
      LCD_printsprite(SmallStar[i].ln, SmallStar[i].cl, &smallstar_sprite[SmallStar[i].state - 1]);
 8003a84:	4a85      	ldr	r2, [pc, #532]	; (8003c9c <system_events_period100ms+0x2c0>)
 8003a86:	3b01      	subs	r3, #1
 8003a88:	eb03 0343 	add.w	r3, r3, r3, lsl #1
 8003a8c:	eb02 0283 	add.w	r2, r2, r3, lsl #2
 8003a90:	f994 1005 	ldrsb.w	r1, [r4, #5]
 8003a94:	f994 0004 	ldrsb.w	r0, [r4, #4]
 8003a98:	f7fd fd14 	bl	80014c4 <LCD_printsprite>
    if(SmallStar[i].state) {
 8003a9c:	79a3      	ldrb	r3, [r4, #6]
 8003a9e:	2b00      	cmp	r3, #0
 8003aa0:	f000 80af 	beq.w	8003c02 <system_events_period100ms+0x226>
      LCD_printsprite(SmallStar[i].ln, SmallStar[i].cl, &smallstar_sprite[SmallStar[i].state - 1]);
 8003aa4:	4a7d      	ldr	r2, [pc, #500]	; (8003c9c <system_events_period100ms+0x2c0>)
 8003aa6:	3b01      	subs	r3, #1
 8003aa8:	eb03 0343 	add.w	r3, r3, r3, lsl #1
 8003aac:	eb02 0283 	add.w	r2, r2, r3, lsl #2
 8003ab0:	f994 1008 	ldrsb.w	r1, [r4, #8]
 8003ab4:	f994 0007 	ldrsb.w	r0, [r4, #7]
 8003ab8:	f7fd fd04 	bl	80014c4 <LCD_printsprite>
    if(SmallStar[i].state) {
 8003abc:	7a63      	ldrb	r3, [r4, #9]
 8003abe:	2b00      	cmp	r3, #0
 8003ac0:	f000 80a3 	beq.w	8003c0a <system_events_period100ms+0x22e>
      LCD_printsprite(SmallStar[i].ln, SmallStar[i].cl, &smallstar_sprite[SmallStar[i].state - 1]);
 8003ac4:	4a75      	ldr	r2, [pc, #468]	; (8003c9c <system_events_period100ms+0x2c0>)
 8003ac6:	3b01      	subs	r3, #1
 8003ac8:	eb03 0343 	add.w	r3, r3, r3, lsl #1
 8003acc:	eb02 0283 	add.w	r2, r2, r3, lsl #2
 8003ad0:	f994 100b 	ldrsb.w	r1, [r4, #11]
 8003ad4:	f994 000a 	ldrsb.w	r0, [r4, #10]
 8003ad8:	f7fd fcf4 	bl	80014c4 <LCD_printsprite>
    if(SmallStar[i].state) {
 8003adc:	7b23      	ldrb	r3, [r4, #12]
 8003ade:	2b00      	cmp	r3, #0
 8003ae0:	f000 8097 	beq.w	8003c12 <system_events_period100ms+0x236>
      LCD_printsprite(SmallStar[i].ln, SmallStar[i].cl, &smallstar_sprite[SmallStar[i].state - 1]);
 8003ae4:	4a6d      	ldr	r2, [pc, #436]	; (8003c9c <system_events_period100ms+0x2c0>)
 8003ae6:	3b01      	subs	r3, #1
 8003ae8:	eb03 0343 	add.w	r3, r3, r3, lsl #1
 8003aec:	eb02 0283 	add.w	r2, r2, r3, lsl #2
 8003af0:	f994 100e 	ldrsb.w	r1, [r4, #14]
 8003af4:	f994 000d 	ldrsb.w	r0, [r4, #13]
 8003af8:	f7fd fce4 	bl	80014c4 <LCD_printsprite>
    if(SmallStar[i].state) {
 8003afc:	7be3      	ldrb	r3, [r4, #15]
 8003afe:	2b00      	cmp	r3, #0
 8003b00:	f000 808b 	beq.w	8003c1a <system_events_period100ms+0x23e>
      LCD_printsprite(SmallStar[i].ln, SmallStar[i].cl, &smallstar_sprite[SmallStar[i].state - 1]);
 8003b04:	4a65      	ldr	r2, [pc, #404]	; (8003c9c <system_events_period100ms+0x2c0>)
 8003b06:	3b01      	subs	r3, #1
 8003b08:	eb03 0343 	add.w	r3, r3, r3, lsl #1
 8003b0c:	eb02 0283 	add.w	r2, r2, r3, lsl #2
 8003b10:	f994 1011 	ldrsb.w	r1, [r4, #17]
 8003b14:	f994 0010 	ldrsb.w	r0, [r4, #16]
 8003b18:	f7fd fcd4 	bl	80014c4 <LCD_printsprite>
    if(SmallStar[i].state) {
 8003b1c:	7ca3      	ldrb	r3, [r4, #18]
 8003b1e:	2b00      	cmp	r3, #0
 8003b20:	d07e      	beq.n	8003c20 <system_events_period100ms+0x244>
      LCD_printsprite(SmallStar[i].ln, SmallStar[i].cl, &smallstar_sprite[SmallStar[i].state - 1]);
 8003b22:	4a5e      	ldr	r2, [pc, #376]	; (8003c9c <system_events_period100ms+0x2c0>)
 8003b24:	3b01      	subs	r3, #1
 8003b26:	eb03 0343 	add.w	r3, r3, r3, lsl #1
 8003b2a:	eb02 0283 	add.w	r2, r2, r3, lsl #2
 8003b2e:	f994 1014 	ldrsb.w	r1, [r4, #20]
 8003b32:	f994 0013 	ldrsb.w	r0, [r4, #19]
 8003b36:	f7fd fcc5 	bl	80014c4 <LCD_printsprite>
    if(SmallStar[i].state) {
 8003b3a:	7d63      	ldrb	r3, [r4, #21]
 8003b3c:	2b00      	cmp	r3, #0
 8003b3e:	d072      	beq.n	8003c26 <system_events_period100ms+0x24a>
      LCD_printsprite(SmallStar[i].ln, SmallStar[i].cl, &smallstar_sprite[SmallStar[i].state - 1]);
 8003b40:	4a56      	ldr	r2, [pc, #344]	; (8003c9c <system_events_period100ms+0x2c0>)
 8003b42:	3b01      	subs	r3, #1
 8003b44:	eb03 0343 	add.w	r3, r3, r3, lsl #1
 8003b48:	eb02 0283 	add.w	r2, r2, r3, lsl #2
 8003b4c:	f994 1017 	ldrsb.w	r1, [r4, #23]
 8003b50:	f994 0016 	ldrsb.w	r0, [r4, #22]
 8003b54:	f7fd fcb6 	bl	80014c4 <LCD_printsprite>
    if(SmallStar[i].state) {
 8003b58:	7e23      	ldrb	r3, [r4, #24]
 8003b5a:	2b00      	cmp	r3, #0
 8003b5c:	d066      	beq.n	8003c2c <system_events_period100ms+0x250>
      LCD_printsprite(SmallStar[i].ln, SmallStar[i].cl, &smallstar_sprite[SmallStar[i].state - 1]);
 8003b5e:	4a4f      	ldr	r2, [pc, #316]	; (8003c9c <system_events_period100ms+0x2c0>)
 8003b60:	3b01      	subs	r3, #1
 8003b62:	eb03 0343 	add.w	r3, r3, r3, lsl #1
 8003b66:	eb02 0283 	add.w	r2, r2, r3, lsl #2
 8003b6a:	f994 101a 	ldrsb.w	r1, [r4, #26]
 8003b6e:	f994 0019 	ldrsb.w	r0, [r4, #25]
 8003b72:	f7fd fca7 	bl	80014c4 <LCD_printsprite>
    if(SmallStar[i].state) {
 8003b76:	7ee3      	ldrb	r3, [r4, #27]
 8003b78:	2b00      	cmp	r3, #0
 8003b7a:	d05a      	beq.n	8003c32 <system_events_period100ms+0x256>
      LCD_printsprite(SmallStar[i].ln, SmallStar[i].cl, &smallstar_sprite[SmallStar[i].state - 1]);
 8003b7c:	4a47      	ldr	r2, [pc, #284]	; (8003c9c <system_events_period100ms+0x2c0>)
 8003b7e:	3b01      	subs	r3, #1
 8003b80:	eb03 0343 	add.w	r3, r3, r3, lsl #1
 8003b84:	eb02 0283 	add.w	r2, r2, r3, lsl #2
 8003b88:	f994 101d 	ldrsb.w	r1, [r4, #29]
 8003b8c:	f994 001c 	ldrsb.w	r0, [r4, #28]
 8003b90:	f7fd fc98 	bl	80014c4 <LCD_printsprite>
    if(SmallStar[i].state) {
 8003b94:	7fa3      	ldrb	r3, [r4, #30]
 8003b96:	2b00      	cmp	r3, #0
 8003b98:	d04e      	beq.n	8003c38 <system_events_period100ms+0x25c>
      LCD_printsprite(SmallStar[i].ln, SmallStar[i].cl, &smallstar_sprite[SmallStar[i].state - 1]);
 8003b9a:	4a40      	ldr	r2, [pc, #256]	; (8003c9c <system_events_period100ms+0x2c0>)
 8003b9c:	3b01      	subs	r3, #1
 8003b9e:	eb03 0343 	add.w	r3, r3, r3, lsl #1
 8003ba2:	eb02 0283 	add.w	r2, r2, r3, lsl #2
 8003ba6:	f994 1020 	ldrsb.w	r1, [r4, #32]
 8003baa:	f994 001f 	ldrsb.w	r0, [r4, #31]
 8003bae:	f7fd fc89 	bl	80014c4 <LCD_printsprite>
    if(SmallStar[i].state) {
 8003bb2:	f894 3021 	ldrb.w	r3, [r4, #33]	; 0x21
 8003bb6:	2b00      	cmp	r3, #0
 8003bb8:	d042      	beq.n	8003c40 <system_events_period100ms+0x264>
      LCD_printsprite(SmallStar[i].ln, SmallStar[i].cl, &smallstar_sprite[SmallStar[i].state - 1]);
 8003bba:	4a38      	ldr	r2, [pc, #224]	; (8003c9c <system_events_period100ms+0x2c0>)
 8003bbc:	3b01      	subs	r3, #1
 8003bbe:	eb03 0343 	add.w	r3, r3, r3, lsl #1
 8003bc2:	f994 1023 	ldrsb.w	r1, [r4, #35]	; 0x23
 8003bc6:	f994 0022 	ldrsb.w	r0, [r4, #34]	; 0x22
 8003bca:	eb02 0283 	add.w	r2, r2, r3, lsl #2
 8003bce:	f7fd fc79 	bl	80014c4 <LCD_printsprite>
  check_btn_jstk();
 8003bd2:	f7fc fde9 	bl	80007a8 <check_btn_jstk>
}
 8003bd6:	e8bd 4070 	ldmia.w	sp!, {r4, r5, r6, lr}
  LCD_bufupload_buferase();
 8003bda:	f7fc bf6d 	b.w	8000ab8 <LCD_bufupload_buferase>
  if(k == create_period)
 8003bde:	2b05      	cmp	r3, #5
 8003be0:	f43f af06 	beq.w	80039f0 <system_events_period100ms+0x14>
 8003be4:	4c2c      	ldr	r4, [pc, #176]	; (8003c98 <system_events_period100ms+0x2bc>)
    if(SmallStar[i].state) {
 8003be6:	7821      	ldrb	r1, [r4, #0]
  k--;
 8003be8:	3b01      	subs	r3, #1
 8003bea:	702b      	strb	r3, [r5, #0]
    if(SmallStar[i].state) {
 8003bec:	2900      	cmp	r1, #0
 8003bee:	f47f af39 	bne.w	8003a64 <system_events_period100ms+0x88>
 8003bf2:	78e3      	ldrb	r3, [r4, #3]
 8003bf4:	2b00      	cmp	r3, #0
 8003bf6:	f47f af45 	bne.w	8003a84 <system_events_period100ms+0xa8>
 8003bfa:	79a3      	ldrb	r3, [r4, #6]
 8003bfc:	2b00      	cmp	r3, #0
 8003bfe:	f47f af51 	bne.w	8003aa4 <system_events_period100ms+0xc8>
 8003c02:	7a63      	ldrb	r3, [r4, #9]
 8003c04:	2b00      	cmp	r3, #0
 8003c06:	f47f af5d 	bne.w	8003ac4 <system_events_period100ms+0xe8>
 8003c0a:	7b23      	ldrb	r3, [r4, #12]
 8003c0c:	2b00      	cmp	r3, #0
 8003c0e:	f47f af69 	bne.w	8003ae4 <system_events_period100ms+0x108>
 8003c12:	7be3      	ldrb	r3, [r4, #15]
 8003c14:	2b00      	cmp	r3, #0
 8003c16:	f47f af75 	bne.w	8003b04 <system_events_period100ms+0x128>
 8003c1a:	7ca3      	ldrb	r3, [r4, #18]
 8003c1c:	2b00      	cmp	r3, #0
 8003c1e:	d180      	bne.n	8003b22 <system_events_period100ms+0x146>
 8003c20:	7d63      	ldrb	r3, [r4, #21]
 8003c22:	2b00      	cmp	r3, #0
 8003c24:	d18c      	bne.n	8003b40 <system_events_period100ms+0x164>
 8003c26:	7e23      	ldrb	r3, [r4, #24]
 8003c28:	2b00      	cmp	r3, #0
 8003c2a:	d198      	bne.n	8003b5e <system_events_period100ms+0x182>
 8003c2c:	7ee3      	ldrb	r3, [r4, #27]
 8003c2e:	2b00      	cmp	r3, #0
 8003c30:	d1a4      	bne.n	8003b7c <system_events_period100ms+0x1a0>
 8003c32:	7fa3      	ldrb	r3, [r4, #30]
 8003c34:	2b00      	cmp	r3, #0
 8003c36:	d1b0      	bne.n	8003b9a <system_events_period100ms+0x1be>
 8003c38:	f894 3021 	ldrb.w	r3, [r4, #33]	; 0x21
 8003c3c:	2b00      	cmp	r3, #0
 8003c3e:	d1bc      	bne.n	8003bba <system_events_period100ms+0x1de>
  check_btn_jstk();
 8003c40:	f7fc fdb2 	bl	80007a8 <check_btn_jstk>
}
 8003c44:	e8bd 4070 	ldmia.w	sp!, {r4, r5, r6, lr}
  LCD_bufupload_buferase();
 8003c48:	f7fc bf36 	b.w	8000ab8 <LCD_bufupload_buferase>
    for(int i = 0; i < SMALLSTAR_MAX; i++)
 8003c4c:	2601      	movs	r6, #1
        SmallStar[i].state = getrand(1) + 1;
 8003c4e:	2001      	movs	r0, #1
 8003c50:	f7fc fa82 	bl	8000158 <getrand>
 8003c54:	4602      	mov	r2, r0
 8003c56:	eb06 0346 	add.w	r3, r6, r6, lsl #1
 8003c5a:	3201      	adds	r2, #1
        SmallStar[i].ln = (int8)getrand(60);
 8003c5c:	203c      	movs	r0, #60	; 0x3c
        SmallStar[i].state = getrand(1) + 1;
 8003c5e:	18e6      	adds	r6, r4, r3
 8003c60:	54e2      	strb	r2, [r4, r3]
        SmallStar[i].ln = (int8)getrand(60);
 8003c62:	f7fc fa79 	bl	8000158 <getrand>
        SmallStar[i].cl = 127;
 8003c66:	227f      	movs	r2, #127	; 0x7f
  k--;
 8003c68:	782b      	ldrb	r3, [r5, #0]
        SmallStar[i].ln = (int8)getrand(60);
 8003c6a:	7070      	strb	r0, [r6, #1]
        SmallStar[i].cl = 127;
 8003c6c:	70b2      	strb	r2, [r6, #2]
        break;
 8003c6e:	e7ba      	b.n	8003be6 <system_events_period100ms+0x20a>
    for(int i = 0; i < SMALLSTAR_MAX; i++)
 8003c70:	2609      	movs	r6, #9
 8003c72:	e7ec      	b.n	8003c4e <system_events_period100ms+0x272>
 8003c74:	2602      	movs	r6, #2
 8003c76:	e7ea      	b.n	8003c4e <system_events_period100ms+0x272>
 8003c78:	2603      	movs	r6, #3
 8003c7a:	e7e8      	b.n	8003c4e <system_events_period100ms+0x272>
 8003c7c:	2605      	movs	r6, #5
 8003c7e:	e7e6      	b.n	8003c4e <system_events_period100ms+0x272>
 8003c80:	2604      	movs	r6, #4
 8003c82:	e7e4      	b.n	8003c4e <system_events_period100ms+0x272>
 8003c84:	2607      	movs	r6, #7
 8003c86:	e7e2      	b.n	8003c4e <system_events_period100ms+0x272>
 8003c88:	2606      	movs	r6, #6
 8003c8a:	e7e0      	b.n	8003c4e <system_events_period100ms+0x272>
 8003c8c:	2608      	movs	r6, #8
 8003c8e:	e7de      	b.n	8003c4e <system_events_period100ms+0x272>
 8003c90:	260a      	movs	r6, #10
 8003c92:	e7dc      	b.n	8003c4e <system_events_period100ms+0x272>
 8003c94:	200008ac 	.word	0x200008ac
 8003c98:	20000880 	.word	0x20000880
 8003c9c:	08009fd8 	.word	0x08009fd8

08003ca0 <statehandler_gameload>:
{
 8003ca0:	b5f8      	push	{r3, r4, r5, r6, r7, lr}
  gamestate = STATE_STARTGAME;
 8003ca2:	2706      	movs	r7, #6
  gameevent = EVENT_NONE;
 8003ca4:	2400      	movs	r4, #0
  if(GAME_STORY_STRING_NUM < 4)
 8003ca6:	4d26      	ldr	r5, [pc, #152]	; (8003d40 <statehandler_gameload+0xa0>)
  gamestate = STATE_STARTGAME;
 8003ca8:	4a26      	ldr	r2, [pc, #152]	; (8003d44 <statehandler_gameload+0xa4>)
  if(GAME_STORY_STRING_NUM < 4)
 8003caa:	782b      	ldrb	r3, [r5, #0]
  gameevent = EVENT_NONE;
 8003cac:	4e26      	ldr	r6, [pc, #152]	; (8003d48 <statehandler_gameload+0xa8>)
  if(GAME_STORY_STRING_NUM < 4)
 8003cae:	2b03      	cmp	r3, #3
  gamestate = STATE_STARTGAME;
 8003cb0:	7017      	strb	r7, [r2, #0]
  gameevent = EVENT_NONE;
 8003cb2:	7034      	strb	r4, [r6, #0]
  if(GAME_STORY_STRING_NUM < 4)
 8003cb4:	d820      	bhi.n	8003cf8 <statehandler_gameload+0x58>
    LCD_printstr8x5(gamestory_string[GAME_STORY_STRING_NUM], 0, 0);
 8003cb6:	2096      	movs	r0, #150	; 0x96
 8003cb8:	4a24      	ldr	r2, [pc, #144]	; (8003d4c <statehandler_gameload+0xac>)
 8003cba:	4621      	mov	r1, r4
 8003cbc:	fb00 2003 	mla	r0, r0, r3, r2
 8003cc0:	4622      	mov	r2, r4
 8003cc2:	f7fc fdf7 	bl	80008b4 <LCD_printstr8x5>
    LCD_printstr8x5((uint8*)"далее...", 7, 78);
 8003cc6:	224e      	movs	r2, #78	; 0x4e
 8003cc8:	2107      	movs	r1, #7
 8003cca:	4821      	ldr	r0, [pc, #132]	; (8003d50 <statehandler_gameload+0xb0>)
 8003ccc:	f7fc fdf2 	bl	80008b4 <LCD_printstr8x5>
    if(B1.BtnON || B2.BtnON || B3.BtnON || B4.BtnON)
 8003cd0:	4e20      	ldr	r6, [pc, #128]	; (8003d54 <statehandler_gameload+0xb4>)
 8003cd2:	4821      	ldr	r0, [pc, #132]	; (8003d58 <statehandler_gameload+0xb8>)
 8003cd4:	7c73      	ldrb	r3, [r6, #17]
 8003cd6:	7c42      	ldrb	r2, [r0, #17]
 8003cd8:	4920      	ldr	r1, [pc, #128]	; (8003d5c <statehandler_gameload+0xbc>)
 8003cda:	4313      	orrs	r3, r2
 8003cdc:	7c4f      	ldrb	r7, [r1, #17]
 8003cde:	4a20      	ldr	r2, [pc, #128]	; (8003d60 <statehandler_gameload+0xc0>)
 8003ce0:	433b      	orrs	r3, r7
 8003ce2:	7c57      	ldrb	r7, [r2, #17]
 8003ce4:	433b      	orrs	r3, r7
 8003ce6:	d006      	beq.n	8003cf6 <statehandler_gameload+0x56>
      GAME_STORY_STRING_NUM++;
 8003ce8:	782b      	ldrb	r3, [r5, #0]
      B1.BtnON = 0;
 8003cea:	7474      	strb	r4, [r6, #17]
      GAME_STORY_STRING_NUM++;
 8003cec:	3301      	adds	r3, #1
      B2.BtnON = 0;
 8003cee:	7444      	strb	r4, [r0, #17]
      B3.BtnON = 0;
 8003cf0:	744c      	strb	r4, [r1, #17]
      B4.BtnON = 0;
 8003cf2:	7454      	strb	r4, [r2, #17]
      GAME_STORY_STRING_NUM++;
 8003cf4:	702b      	strb	r3, [r5, #0]
}
 8003cf6:	bdf8      	pop	{r3, r4, r5, r6, r7, pc}
    Gamer.health = 24;
 8003cf8:	4b1a      	ldr	r3, [pc, #104]	; (8003d64 <statehandler_gameload+0xc4>)
 8003cfa:	4a1b      	ldr	r2, [pc, #108]	; (8003d68 <statehandler_gameload+0xc8>)
    Gamer.money = 50;
 8003cfc:	2132      	movs	r1, #50	; 0x32
    Gamer.health = 24;
 8003cfe:	601a      	str	r2, [r3, #0]
    Gamer.bombs = 15;
 8003d00:	220f      	movs	r2, #15
 8003d02:	711a      	strb	r2, [r3, #4]
    Gamer.ln = 16;
 8003d04:	2210      	movs	r2, #16
    GameFlags.gameflagsreg = 0b00001101;
 8003d06:	250d      	movs	r5, #13
    Gamer.ln = 16;
 8003d08:	819a      	strh	r2, [r3, #12]
    Game.Const1 = 2;
 8003d0a:	2202      	movs	r2, #2
    Gamer.money = 50;
 8003d0c:	6099      	str	r1, [r3, #8]
    GameFlags.gameflagsreg = 0b00001101;
 8003d0e:	4817      	ldr	r0, [pc, #92]	; (8003d6c <statehandler_gameload+0xcc>)
    SchedAddEvent(createevilstar, PRD_EVILSTAR_CREATE);
 8003d10:	4917      	ldr	r1, [pc, #92]	; (8003d70 <statehandler_gameload+0xd0>)
    Game.level_progress = 0;
 8003d12:	4b18      	ldr	r3, [pc, #96]	; (8003d74 <statehandler_gameload+0xd4>)
    SchedAddEvent(createevilstar, PRD_EVILSTAR_CREATE);
 8003d14:	6809      	ldr	r1, [r1, #0]
    GameFlags.gameflagsreg = 0b00001101;
 8003d16:	7005      	strb	r5, [r0, #0]
    SchedAddEvent(createevilstar, PRD_EVILSTAR_CREATE);
 8003d18:	4817      	ldr	r0, [pc, #92]	; (8003d78 <statehandler_gameload+0xd8>)
    Game.Const1 = 2;
 8003d1a:	70da      	strb	r2, [r3, #3]
    Game.level_progress = 0;
 8003d1c:	705c      	strb	r4, [r3, #1]
    SchedAddEvent(createevilstar, PRD_EVILSTAR_CREATE);
 8003d1e:	f7fe fdd3 	bl	80028c8 <SchedAddEvent>
    SchedAddEvent(movbullet, BULLET_MOVE_PERIOD);
 8003d22:	4629      	mov	r1, r5
 8003d24:	4815      	ldr	r0, [pc, #84]	; (8003d7c <statehandler_gameload+0xdc>)
 8003d26:	f7fe fdcf 	bl	80028c8 <SchedAddEvent>
    SchedAddEvent(move_enemy_objects, PRD_ENEMY_MOVE);
 8003d2a:	4b15      	ldr	r3, [pc, #84]	; (8003d80 <statehandler_gameload+0xe0>)
 8003d2c:	4815      	ldr	r0, [pc, #84]	; (8003d84 <statehandler_gameload+0xe4>)
 8003d2e:	7819      	ldrb	r1, [r3, #0]
 8003d30:	f7fe fdca 	bl	80028c8 <SchedAddEvent>
    SchedAddEvent(gameprogress, 75);
 8003d34:	214b      	movs	r1, #75	; 0x4b
 8003d36:	4814      	ldr	r0, [pc, #80]	; (8003d88 <statehandler_gameload+0xe8>)
 8003d38:	f7fe fdc6 	bl	80028c8 <SchedAddEvent>
    gameevent = EVENT_EXIT; 
 8003d3c:	7037      	strb	r7, [r6, #0]
}
 8003d3e:	bdf8      	pop	{r3, r4, r5, r6, r7, pc}
 8003d40:	20000860 	.word	0x20000860
 8003d44:	200008a8 	.word	0x200008a8
 8003d48:	200008a7 	.word	0x200008a7
 8003d4c:	080097e8 	.word	0x080097e8
 8003d50:	08008eb4 	.word	0x08008eb4
 8003d54:	200000d4 	.word	0x200000d4
 8003d58:	200000ec 	.word	0x200000ec
 8003d5c:	20000104 	.word	0x20000104
 8003d60:	2000011c 	.word	0x2000011c
 8003d64:	20000870 	.word	0x20000870
 8003d68:	00040418 	.word	0x00040418
 8003d6c:	2000086c 	.word	0x2000086c
 8003d70:	20000014 	.word	0x20000014
 8003d74:	20000864 	.word	0x20000864
 8003d78:	08002f19 	.word	0x08002f19
 8003d7c:	08002d95 	.word	0x08002d95
 8003d80:	2000000f 	.word	0x2000000f
 8003d84:	08003461 	.word	0x08003461
 8003d88:	0800301d 	.word	0x0800301d

08003d8c <createbullet>:
void createbullet(uint8 period) {
 8003d8c:	b538      	push	{r3, r4, r5, lr}
  if(Gamer.health > 0){
 8003d8e:	4a25      	ldr	r2, [pc, #148]	; (8003e24 <createbullet+0x98>)
 8003d90:	f992 3000 	ldrsb.w	r3, [r2]
 8003d94:	2b00      	cmp	r3, #0
    IF_BTN_B2_PRESS(
 8003d96:	4b24      	ldr	r3, [pc, #144]	; (8003e28 <createbullet+0x9c>)
  if(Gamer.health > 0){
 8003d98:	dd12      	ble.n	8003dc0 <createbullet+0x34>
    IF_BTN_B2_PRESS(
 8003d9a:	6919      	ldr	r1, [r3, #16]
 8003d9c:	f011 2fff 	tst.w	r1, #4278255360	; 0xff00ff00
 8003da0:	d00a      	beq.n	8003db8 <createbullet+0x2c>
 8003da2:	f04f 0c00 	mov.w	ip, #0
 8003da6:	4c21      	ldr	r4, [pc, #132]	; (8003e2c <createbullet+0xa0>)
 8003da8:	f883 c011 	strb.w	ip, [r3, #17]
 8003dac:	7821      	ldrb	r1, [r4, #0]
 8003dae:	4281      	cmp	r1, r0
 8003db0:	d210      	bcs.n	8003dd4 <createbullet+0x48>
 8003db2:	3101      	adds	r1, #1
 8003db4:	7021      	strb	r1, [r4, #0]
}
 8003db6:	bd38      	pop	{r3, r4, r5, pc}
    IF_BTN_B2_PRESS(
 8003db8:	7d19      	ldrb	r1, [r3, #20]
 8003dba:	2900      	cmp	r1, #0
 8003dbc:	d0fb      	beq.n	8003db6 <createbullet+0x2a>
 8003dbe:	e7f0      	b.n	8003da2 <createbullet+0x16>
  else IF_BTN_B2_PRESS();
 8003dc0:	691a      	ldr	r2, [r3, #16]
 8003dc2:	f012 2fff 	tst.w	r2, #4278255360	; 0xff00ff00
 8003dc6:	d102      	bne.n	8003dce <createbullet+0x42>
 8003dc8:	7d1a      	ldrb	r2, [r3, #20]
 8003dca:	2a00      	cmp	r2, #0
 8003dcc:	d0f3      	beq.n	8003db6 <createbullet+0x2a>
 8003dce:	2200      	movs	r2, #0
 8003dd0:	745a      	strb	r2, [r3, #17]
}
 8003dd2:	bd38      	pop	{r3, r4, r5, pc}
    IF_BTN_B2_PRESS(
 8003dd4:	4d16      	ldr	r5, [pc, #88]	; (8003e30 <createbullet+0xa4>)
 8003dd6:	4817      	ldr	r0, [pc, #92]	; (8003e34 <createbullet+0xa8>)
 8003dd8:	782b      	ldrb	r3, [r5, #0]
 8003dda:	f884 c000 	strb.w	ip, [r4]
 8003dde:	eb03 0143 	add.w	r1, r3, r3, lsl #1
 8003de2:	5c44      	ldrb	r4, [r0, r1]
 8003de4:	eb00 0c01 	add.w	ip, r0, r1
 8003de8:	b91c      	cbnz	r4, 8003df2 <createbullet+0x66>
 8003dea:	f992 4001 	ldrsb.w	r4, [r2, #1]
 8003dee:	2c01      	cmp	r4, #1
 8003df0:	dc06      	bgt.n	8003e00 <createbullet+0x74>
 8003df2:	3301      	adds	r3, #1
 8003df4:	b2db      	uxtb	r3, r3
 8003df6:	2b11      	cmp	r3, #17
 8003df8:	bf88      	it	hi
 8003dfa:	2300      	movhi	r3, #0
 8003dfc:	702b      	strb	r3, [r5, #0]
}
 8003dfe:	bd38      	pop	{r3, r4, r5, pc}
    IF_BTN_B2_PRESS(
 8003e00:	2301      	movs	r3, #1
 8003e02:	3c02      	subs	r4, #2
 8003e04:	5443      	strb	r3, [r0, r1]
 8003e06:	7b53      	ldrb	r3, [r2, #13]
 8003e08:	7054      	strb	r4, [r2, #1]
 8003e0a:	7b12      	ldrb	r2, [r2, #12]
 8003e0c:	3318      	adds	r3, #24
 8003e0e:	f88c 3002 	strb.w	r3, [ip, #2]
 8003e12:	f44f 70c8 	mov.w	r0, #400	; 0x190
 8003e16:	f88c 2001 	strb.w	r2, [ip, #1]
 8003e1a:	f7fc fb5f 	bl	80004dc <Sounds>
 8003e1e:	782b      	ldrb	r3, [r5, #0]
 8003e20:	e7e7      	b.n	8003df2 <createbullet+0x66>
 8003e22:	bf00      	nop
 8003e24:	20000870 	.word	0x20000870
 8003e28:	200000ec 	.word	0x200000ec
 8003e2c:	200008b5 	.word	0x200008b5
 8003e30:	200008a9 	.word	0x200008a9
 8003e34:	200007d8 	.word	0x200007d8

08003e38 <createbomb>:
  if(Gamer.health > 0){
 8003e38:	4a1e      	ldr	r2, [pc, #120]	; (8003eb4 <createbomb+0x7c>)
 8003e3a:	f992 3000 	ldrsb.w	r3, [r2]
 8003e3e:	2b00      	cmp	r3, #0
    IF_BTN_B1_PRESS(
 8003e40:	4b1d      	ldr	r3, [pc, #116]	; (8003eb8 <createbomb+0x80>)
  if(Gamer.health > 0){
 8003e42:	dd14      	ble.n	8003e6e <createbomb+0x36>
    IF_BTN_B1_PRESS(
 8003e44:	6919      	ldr	r1, [r3, #16]
 8003e46:	f011 2fff 	tst.w	r1, #4278255360	; 0xff00ff00
 8003e4a:	d00c      	beq.n	8003e66 <createbomb+0x2e>
 8003e4c:	f04f 0c00 	mov.w	ip, #0
void createbomb(uint8 period) {
 8003e50:	b410      	push	{r4}
    IF_BTN_B1_PRESS(
 8003e52:	4c1a      	ldr	r4, [pc, #104]	; (8003ebc <createbomb+0x84>)
 8003e54:	f883 c011 	strb.w	ip, [r3, #17]
 8003e58:	7821      	ldrb	r1, [r4, #0]
 8003e5a:	4281      	cmp	r1, r0
 8003e5c:	d211      	bcs.n	8003e82 <createbomb+0x4a>
 8003e5e:	3101      	adds	r1, #1
 8003e60:	7021      	strb	r1, [r4, #0]
}
 8003e62:	bc10      	pop	{r4}
 8003e64:	4770      	bx	lr
    IF_BTN_B1_PRESS(
 8003e66:	7d19      	ldrb	r1, [r3, #20]
 8003e68:	2900      	cmp	r1, #0
 8003e6a:	d1ef      	bne.n	8003e4c <createbomb+0x14>
 8003e6c:	4770      	bx	lr
  else IF_BTN_B1_PRESS();
 8003e6e:	691a      	ldr	r2, [r3, #16]
 8003e70:	f012 2fff 	tst.w	r2, #4278255360	; 0xff00ff00
 8003e74:	d102      	bne.n	8003e7c <createbomb+0x44>
 8003e76:	7d1a      	ldrb	r2, [r3, #20]
 8003e78:	2a00      	cmp	r2, #0
 8003e7a:	d0f7      	beq.n	8003e6c <createbomb+0x34>
 8003e7c:	2200      	movs	r2, #0
 8003e7e:	745a      	strb	r2, [r3, #17]
}
 8003e80:	4770      	bx	lr
    IF_BTN_B1_PRESS(
 8003e82:	4b0f      	ldr	r3, [pc, #60]	; (8003ec0 <createbomb+0x88>)
 8003e84:	f884 c000 	strb.w	ip, [r4]
 8003e88:	7819      	ldrb	r1, [r3, #0]
 8003e8a:	2900      	cmp	r1, #0
 8003e8c:	d1e9      	bne.n	8003e62 <createbomb+0x2a>
 8003e8e:	7911      	ldrb	r1, [r2, #4]
 8003e90:	2900      	cmp	r1, #0
 8003e92:	d0e6      	beq.n	8003e62 <createbomb+0x2a>
 8003e94:	2401      	movs	r4, #1
 8003e96:	7b50      	ldrb	r0, [r2, #13]
 8003e98:	f892 c00c 	ldrb.w	ip, [r2, #12]
 8003e9c:	3018      	adds	r0, #24
 8003e9e:	3901      	subs	r1, #1
 8003ea0:	7098      	strb	r0, [r3, #2]
 8003ea2:	f883 c001 	strb.w	ip, [r3, #1]
 8003ea6:	7111      	strb	r1, [r2, #4]
 8003ea8:	701c      	strb	r4, [r3, #0]
 8003eaa:	f44f 707a 	mov.w	r0, #1000	; 0x3e8
}
 8003eae:	bc10      	pop	{r4}
    IF_BTN_B1_PRESS(
 8003eb0:	f7fc bb14 	b.w	80004dc <Sounds>
 8003eb4:	20000870 	.word	0x20000870
 8003eb8:	200000d4 	.word	0x200000d4
 8003ebc:	200008b4 	.word	0x200008b4
 8003ec0:	200007d0 	.word	0x200007d0

08003ec4 <movbomb>:
void movbomb(void) {
 8003ec4:	b510      	push	{r4, lr}
  if (Bomb.state == 1){
 8003ec6:	4c1a      	ldr	r4, [pc, #104]	; (8003f30 <movbomb+0x6c>)
 8003ec8:	7823      	ldrb	r3, [r4, #0]
 8003eca:	2b01      	cmp	r3, #1
 8003ecc:	d015      	beq.n	8003efa <movbomb+0x36>
  if(Bomb.state > 1){
 8003ece:	2b01      	cmp	r3, #1
 8003ed0:	d919      	bls.n	8003f06 <movbomb+0x42>
    if(explosionanimcount >= 8) Bomb.state = 2;
 8003ed2:	4a18      	ldr	r2, [pc, #96]	; (8003f34 <movbomb+0x70>)
 8003ed4:	7813      	ldrb	r3, [r2, #0]
 8003ed6:	2b07      	cmp	r3, #7
 8003ed8:	d904      	bls.n	8003ee4 <movbomb+0x20>
 8003eda:	2102      	movs	r1, #2
    explosionanimcount--;
 8003edc:	3b01      	subs	r3, #1
 8003ede:	7013      	strb	r3, [r2, #0]
    if(explosionanimcount >= 8) Bomb.state = 2;
 8003ee0:	7021      	strb	r1, [r4, #0]
}
 8003ee2:	bd10      	pop	{r4, pc}
    if(explosionanimcount < 8 && explosionanimcount >= 6) Bomb.state = 3;
 8003ee4:	1f99      	subs	r1, r3, #6
 8003ee6:	2901      	cmp	r1, #1
 8003ee8:	d904      	bls.n	8003ef4 <movbomb+0x30>
    if(explosionanimcount == 0) Bomb.state = 0;
 8003eea:	b9eb      	cbnz	r3, 8003f28 <movbomb+0x64>
 8003eec:	7023      	strb	r3, [r4, #0]
    explosionanimcount--;
 8003eee:	3b01      	subs	r3, #1
 8003ef0:	7013      	strb	r3, [r2, #0]
}
 8003ef2:	bd10      	pop	{r4, pc}
    if(explosionanimcount < 8 && explosionanimcount >= 6) Bomb.state = 3;
 8003ef4:	2103      	movs	r1, #3
 8003ef6:	7021      	strb	r1, [r4, #0]
    if(explosionanimcount < 6) Bomb.state = 4;
 8003ef8:	e7f9      	b.n	8003eee <movbomb+0x2a>
    Bomb.cl += BOMB_MOVE_SPEED;
 8003efa:	78a2      	ldrb	r2, [r4, #2]
 8003efc:	1dd3      	adds	r3, r2, #7
 8003efe:	b25b      	sxtb	r3, r3
    if (Bomb.cl > 105) {
 8003f00:	2b69      	cmp	r3, #105	; 0x69
    Bomb.cl += BOMB_MOVE_SPEED;
 8003f02:	70a3      	strb	r3, [r4, #2]
    if (Bomb.cl > 105) {
 8003f04:	dc03      	bgt.n	8003f0e <movbomb+0x4a>
  else explosionanimcount = 10;
 8003f06:	220a      	movs	r2, #10
 8003f08:	4b0a      	ldr	r3, [pc, #40]	; (8003f34 <movbomb+0x70>)
 8003f0a:	701a      	strb	r2, [r3, #0]
}
 8003f0c:	bd10      	pop	{r4, pc}
      Bomb.state = 2;
 8003f0e:	2102      	movs	r1, #2
      Bomb.ln -= 16;
 8003f10:	7863      	ldrb	r3, [r4, #1]
      Bomb.cl -= 16;
 8003f12:	3a09      	subs	r2, #9
      Bomb.ln -= 16;
 8003f14:	3b10      	subs	r3, #16
      Sounds(1200);
 8003f16:	f44f 6096 	mov.w	r0, #1200	; 0x4b0
      Bomb.ln -= 16;
 8003f1a:	7063      	strb	r3, [r4, #1]
      Bomb.cl -= 16;
 8003f1c:	70a2      	strb	r2, [r4, #2]
      Bomb.state = 2;
 8003f1e:	7021      	strb	r1, [r4, #0]
      Sounds(1200);
 8003f20:	f7fc fadc 	bl	80004dc <Sounds>
  if(Bomb.state > 1){
 8003f24:	7823      	ldrb	r3, [r4, #0]
 8003f26:	e7d2      	b.n	8003ece <movbomb+0xa>
    if(explosionanimcount < 6) Bomb.state = 4;
 8003f28:	2104      	movs	r1, #4
 8003f2a:	7021      	strb	r1, [r4, #0]
 8003f2c:	e7df      	b.n	8003eee <movbomb+0x2a>
 8003f2e:	bf00      	nop
 8003f30:	200007d0 	.word	0x200007d0
 8003f34:	20000021 	.word	0x20000021

08003f38 <bullet_evilstar_collision>:
void bullet_evilstar_collision(void) {
 8003f38:	e92d 43f8 	stmdb	sp!, {r3, r4, r5, r6, r7, r8, r9, lr}
        EvilStar[i].state = 2;
 8003f3c:	2702      	movs	r7, #2
        Bullet[j].state = 0;
 8003f3e:	2600      	movs	r6, #0
 8003f40:	4d15      	ldr	r5, [pc, #84]	; (8003f98 <bullet_evilstar_collision+0x60>)
 8003f42:	f8df 8058 	ldr.w	r8, [pc, #88]	; 8003f9c <bullet_evilstar_collision+0x64>
 8003f46:	f105 0936 	add.w	r9, r5, #54	; 0x36
    for (uint8 i = 0; i < EVILSTAR_MAX; i++) {
 8003f4a:	4c15      	ldr	r4, [pc, #84]	; (8003fa0 <bullet_evilstar_collision+0x68>)
      if ((EvilStar[i].cl <= Bullet[j].cl) && (EvilStar[i].ln < (Bullet[j].ln + 6)) &&
 8003f4c:	f994 2002 	ldrsb.w	r2, [r4, #2]
 8003f50:	f995 3002 	ldrsb.w	r3, [r5, #2]
 8003f54:	429a      	cmp	r2, r3
 8003f56:	dc0d      	bgt.n	8003f74 <bullet_evilstar_collision+0x3c>
 8003f58:	f995 2001 	ldrsb.w	r2, [r5, #1]
 8003f5c:	f994 3001 	ldrsb.w	r3, [r4, #1]
 8003f60:	1d51      	adds	r1, r2, #5
 8003f62:	4299      	cmp	r1, r3
              ((EvilStar[i].ln + 10) > Bullet[j].ln) && EvilStar[i].state == 1 &&
 8003f64:	f103 0009 	add.w	r0, r3, #9
      if ((EvilStar[i].cl <= Bullet[j].cl) && (EvilStar[i].ln < (Bullet[j].ln + 6)) &&
 8003f68:	db04      	blt.n	8003f74 <bullet_evilstar_collision+0x3c>
 8003f6a:	4282      	cmp	r2, r0
 8003f6c:	dc02      	bgt.n	8003f74 <bullet_evilstar_collision+0x3c>
              ((EvilStar[i].ln + 10) > Bullet[j].ln) && EvilStar[i].state == 1 &&
 8003f6e:	7823      	ldrb	r3, [r4, #0]
 8003f70:	2b01      	cmp	r3, #1
 8003f72:	d007      	beq.n	8003f84 <bullet_evilstar_collision+0x4c>
    for (uint8 i = 0; i < EVILSTAR_MAX; i++) {
 8003f74:	3404      	adds	r4, #4
 8003f76:	4544      	cmp	r4, r8
 8003f78:	d1e8      	bne.n	8003f4c <bullet_evilstar_collision+0x14>
  for (uint8 j = 0; j < BULLET_MAX; j++) {
 8003f7a:	3503      	adds	r5, #3
 8003f7c:	454d      	cmp	r5, r9
 8003f7e:	d1e4      	bne.n	8003f4a <bullet_evilstar_collision+0x12>
}
 8003f80:	e8bd 83f8 	ldmia.w	sp!, {r3, r4, r5, r6, r7, r8, r9, pc}
              ((EvilStar[i].ln + 10) > Bullet[j].ln) && EvilStar[i].state == 1 &&
 8003f84:	782b      	ldrb	r3, [r5, #0]
 8003f86:	2b00      	cmp	r3, #0
 8003f88:	d0f4      	beq.n	8003f74 <bullet_evilstar_collision+0x3c>
        Sounds(500);
 8003f8a:	f44f 70fa 	mov.w	r0, #500	; 0x1f4
        EvilStar[i].state = 2;
 8003f8e:	7027      	strb	r7, [r4, #0]
        Bullet[j].state = 0;
 8003f90:	702e      	strb	r6, [r5, #0]
        Sounds(500);
 8003f92:	f7fc faa3 	bl	80004dc <Sounds>
 8003f96:	e7ed      	b.n	8003f74 <bullet_evilstar_collision+0x3c>
 8003f98:	200007d8 	.word	0x200007d8
 8003f9c:	20000860 	.word	0x20000860
 8003fa0:	20000838 	.word	0x20000838

08003fa4 <gamer_evilstar_collision>:
void gamer_evilstar_collision(void) {
 8003fa4:	b5f8      	push	{r3, r4, r5, r6, r7, lr}
      EvilStar[i].state = 2;
 8003fa6:	2702      	movs	r7, #2
 8003fa8:	4c1c      	ldr	r4, [pc, #112]	; (800401c <gamer_evilstar_collision+0x78>)
 8003faa:	4d1d      	ldr	r5, [pc, #116]	; (8004020 <gamer_evilstar_collision+0x7c>)
 8003fac:	f104 0628 	add.w	r6, r4, #40	; 0x28
    if ((EvilStar[i].cl <= (Gamer.cl + 29)) && ((EvilStar[i].cl + 25) >= Gamer.cl) &&
 8003fb0:	f995 200d 	ldrsb.w	r2, [r5, #13]
 8003fb4:	f994 3002 	ldrsb.w	r3, [r4, #2]
 8003fb8:	f102 011d 	add.w	r1, r2, #29
 8003fbc:	428b      	cmp	r3, r1
 8003fbe:	dc10      	bgt.n	8003fe2 <gamer_evilstar_collision+0x3e>
 8003fc0:	3319      	adds	r3, #25
 8003fc2:	429a      	cmp	r2, r3
 8003fc4:	dc0d      	bgt.n	8003fe2 <gamer_evilstar_collision+0x3e>
            ((EvilStar[i].ln + 15) > Gamer.ln) && (EvilStar[i].ln < (Gamer.ln + 15)) &&
 8003fc6:	f994 2001 	ldrsb.w	r2, [r4, #1]
 8003fca:	f995 300c 	ldrsb.w	r3, [r5, #12]
 8003fce:	f102 010e 	add.w	r1, r2, #14
    if ((EvilStar[i].cl <= (Gamer.cl + 29)) && ((EvilStar[i].cl + 25) >= Gamer.cl) &&
 8003fd2:	4299      	cmp	r1, r3
 8003fd4:	db05      	blt.n	8003fe2 <gamer_evilstar_collision+0x3e>
            ((EvilStar[i].ln + 15) > Gamer.ln) && (EvilStar[i].ln < (Gamer.ln + 15)) &&
 8003fd6:	330e      	adds	r3, #14
 8003fd8:	429a      	cmp	r2, r3
 8003fda:	dc02      	bgt.n	8003fe2 <gamer_evilstar_collision+0x3e>
 8003fdc:	7823      	ldrb	r3, [r4, #0]
 8003fde:	2b01      	cmp	r3, #1
 8003fe0:	d003      	beq.n	8003fea <gamer_evilstar_collision+0x46>
  for (uint8 i = 0; i < EVILSTAR_MAX; i++) {
 8003fe2:	3404      	adds	r4, #4
 8003fe4:	42a6      	cmp	r6, r4
 8003fe6:	d1e3      	bne.n	8003fb0 <gamer_evilstar_collision+0xc>
}
 8003fe8:	bdf8      	pop	{r3, r4, r5, r6, r7, pc}
            (EvilStar[i].state == 1) && (Gamer.health > 0)) {
 8003fea:	f995 3000 	ldrsb.w	r3, [r5]
 8003fee:	2b00      	cmp	r3, #0
 8003ff0:	ddf7      	ble.n	8003fe2 <gamer_evilstar_collision+0x3e>
      if(Gamer.gasmask_health > 0){
 8003ff2:	f995 2003 	ldrsb.w	r2, [r5, #3]
      EvilStar[i].state = 2;
 8003ff6:	7027      	strb	r7, [r4, #0]
      if(Gamer.gasmask_health > 0){
 8003ff8:	2a00      	cmp	r2, #0
        Gamer.health -= 2;
 8003ffa:	bfca      	itet	gt
 8003ffc:	3b02      	subgt	r3, #2
        Gamer.health -= 4;
 8003ffe:	3b04      	suble	r3, #4
        Gamer.gasmask_health -= 2;
 8004000:	3a02      	subgt	r2, #2
        Gamer.health -= 4;
 8004002:	b25b      	sxtb	r3, r3
      Sounds(600);
 8004004:	f44f 7016 	mov.w	r0, #600	; 0x258
  for (uint8 i = 0; i < EVILSTAR_MAX; i++) {
 8004008:	f104 0404 	add.w	r4, r4, #4
        Gamer.gasmask_health -= 2;
 800400c:	bfc8      	it	gt
 800400e:	70ea      	strbgt	r2, [r5, #3]
        Gamer.health -= 4;
 8004010:	702b      	strb	r3, [r5, #0]
      Sounds(600);
 8004012:	f7fc fa63 	bl	80004dc <Sounds>
  for (uint8 i = 0; i < EVILSTAR_MAX; i++) {
 8004016:	42a6      	cmp	r6, r4
 8004018:	d1ca      	bne.n	8003fb0 <gamer_evilstar_collision+0xc>
 800401a:	e7e5      	b.n	8003fe8 <gamer_evilstar_collision+0x44>
 800401c:	20000838 	.word	0x20000838
 8004020:	20000870 	.word	0x20000870

08004024 <gamer_coin_collision>:
void gamer_coin_collision(void) {
 8004024:	b5f8      	push	{r3, r4, r5, r6, r7, lr}
      Coin[i].state = 0;
 8004026:	2700      	movs	r7, #0
 8004028:	4c17      	ldr	r4, [pc, #92]	; (8004088 <gamer_coin_collision+0x64>)
 800402a:	4d18      	ldr	r5, [pc, #96]	; (800408c <gamer_coin_collision+0x68>)
 800402c:	f104 0628 	add.w	r6, r4, #40	; 0x28
    if ((Coin[i].cl <= (Gamer.cl + 29)) && ((Coin[i].cl + 8) >= Gamer.cl) &&
 8004030:	f995 200d 	ldrsb.w	r2, [r5, #13]
 8004034:	f994 3002 	ldrsb.w	r3, [r4, #2]
 8004038:	f102 011d 	add.w	r1, r2, #29
 800403c:	428b      	cmp	r3, r1
 800403e:	f103 0008 	add.w	r0, r3, #8
 8004042:	dc0f      	bgt.n	8004064 <gamer_coin_collision+0x40>
 8004044:	4282      	cmp	r2, r0
 8004046:	dc0d      	bgt.n	8004064 <gamer_coin_collision+0x40>
            ((Coin[i].ln + 8) > Gamer.ln) && (Coin[i].ln < (Gamer.ln + 15)) &&
 8004048:	f994 2001 	ldrsb.w	r2, [r4, #1]
 800404c:	f995 300c 	ldrsb.w	r3, [r5, #12]
 8004050:	1dd1      	adds	r1, r2, #7
    if ((Coin[i].cl <= (Gamer.cl + 29)) && ((Coin[i].cl + 8) >= Gamer.cl) &&
 8004052:	4299      	cmp	r1, r3
            ((Coin[i].ln + 8) > Gamer.ln) && (Coin[i].ln < (Gamer.ln + 15)) &&
 8004054:	f103 000e 	add.w	r0, r3, #14
    if ((Coin[i].cl <= (Gamer.cl + 29)) && ((Coin[i].cl + 8) >= Gamer.cl) &&
 8004058:	db04      	blt.n	8004064 <gamer_coin_collision+0x40>
            ((Coin[i].ln + 8) > Gamer.ln) && (Coin[i].ln < (Gamer.ln + 15)) &&
 800405a:	4282      	cmp	r2, r0
 800405c:	dc02      	bgt.n	8004064 <gamer_coin_collision+0x40>
 800405e:	7823      	ldrb	r3, [r4, #0]
 8004060:	2b01      	cmp	r3, #1
 8004062:	d003      	beq.n	800406c <gamer_coin_collision+0x48>
  for (uint8 i = 0; i < COIN_MAX; i++) {
 8004064:	3404      	adds	r4, #4
 8004066:	42a6      	cmp	r6, r4
 8004068:	d1e2      	bne.n	8004030 <gamer_coin_collision+0xc>
}
 800406a:	bdf8      	pop	{r3, r4, r5, r6, r7, pc}
            (Coin[i].state == 1) && (Gamer.health > 0)) {
 800406c:	f995 3000 	ldrsb.w	r3, [r5]
 8004070:	2b00      	cmp	r3, #0
 8004072:	ddf7      	ble.n	8004064 <gamer_coin_collision+0x40>
      Gamer.money += 1;
 8004074:	68ab      	ldr	r3, [r5, #8]
      Sounds(300);
 8004076:	f44f 7096 	mov.w	r0, #300	; 0x12c
      Gamer.money += 1;
 800407a:	3301      	adds	r3, #1
      Coin[i].state = 0;
 800407c:	7027      	strb	r7, [r4, #0]
      Gamer.money += 1;
 800407e:	60ab      	str	r3, [r5, #8]
      Sounds(300);
 8004080:	f7fc fa2c 	bl	80004dc <Sounds>
 8004084:	e7ee      	b.n	8004064 <gamer_coin_collision+0x40>
 8004086:	bf00      	nop
 8004088:	20000810 	.word	0x20000810
 800408c:	20000870 	.word	0x20000870

08004090 <drawevilstar>:
void drawevilstar(void) {
 8004090:	e92d 41f0 	stmdb	sp!, {r4, r5, r6, r7, r8, lr}
 8004094:	4c24      	ldr	r4, [pc, #144]	; (8004128 <drawevilstar+0x98>)
      LCD_printsprite(EvilStar[i].ln, EvilStar[i].cl, &evilstar_sprite);
 8004096:	4f25      	ldr	r7, [pc, #148]	; (800412c <drawevilstar+0x9c>)
      LCD_printsprite(EvilStar[i].ln, EvilStar[i].cl, &distr_evilstar_sprite);
 8004098:	4e25      	ldr	r6, [pc, #148]	; (8004130 <drawevilstar+0xa0>)
  if (Coin[i].state == 0) {
 800409a:	f8df 8098 	ldr.w	r8, [pc, #152]	; 8004134 <drawevilstar+0xa4>
 800409e:	f104 0528 	add.w	r5, r4, #40	; 0x28
 80040a2:	e004      	b.n	80040ae <drawevilstar+0x1e>
    if (EvilStar[i].state == 2) {
 80040a4:	2b02      	cmp	r3, #2
 80040a6:	d011      	beq.n	80040cc <drawevilstar+0x3c>
  for (uint8 i = 0; i < EVILSTAR_MAX; i++) {
 80040a8:	3404      	adds	r4, #4
 80040aa:	42ac      	cmp	r4, r5
 80040ac:	d01d      	beq.n	80040ea <drawevilstar+0x5a>
    if (EvilStar[i].state == 1) {
 80040ae:	f814 3c01 	ldrb.w	r3, [r4, #-1]
 80040b2:	2b01      	cmp	r3, #1
 80040b4:	d1f6      	bne.n	80040a4 <drawevilstar+0x14>
      LCD_printsprite(EvilStar[i].ln, EvilStar[i].cl, &evilstar_sprite);
 80040b6:	463a      	mov	r2, r7
 80040b8:	f994 1001 	ldrsb.w	r1, [r4, #1]
 80040bc:	f994 0000 	ldrsb.w	r0, [r4]
 80040c0:	f7fd fa00 	bl	80014c4 <LCD_printsprite>
    if (EvilStar[i].state == 2) {
 80040c4:	f814 3c01 	ldrb.w	r3, [r4, #-1]
 80040c8:	2b02      	cmp	r3, #2
 80040ca:	d1ed      	bne.n	80040a8 <drawevilstar+0x18>
      LCD_printsprite(EvilStar[i].ln, EvilStar[i].cl, &distr_evilstar_sprite);
 80040cc:	4632      	mov	r2, r6
 80040ce:	f994 1001 	ldrsb.w	r1, [r4, #1]
 80040d2:	f994 0000 	ldrsb.w	r0, [r4]
 80040d6:	f7fd f9f5 	bl	80014c4 <LCD_printsprite>
      if (EvilStar[i].distr_ttl_count++ >= EVILSTAR_DEATHANIMATION_PERIOD) {
 80040da:	78a3      	ldrb	r3, [r4, #2]
 80040dc:	2b01      	cmp	r3, #1
 80040de:	d806      	bhi.n	80040ee <drawevilstar+0x5e>
 80040e0:	3301      	adds	r3, #1
 80040e2:	70a3      	strb	r3, [r4, #2]
  for (uint8 i = 0; i < EVILSTAR_MAX; i++) {
 80040e4:	3404      	adds	r4, #4
 80040e6:	42ac      	cmp	r4, r5
 80040e8:	d1e1      	bne.n	80040ae <drawevilstar+0x1e>
}
 80040ea:	e8bd 81f0 	ldmia.w	sp!, {r4, r5, r6, r7, r8, pc}
        EvilStar[i].distr_ttl_count = 0;
 80040ee:	2100      	movs	r1, #0
  if (Coin[i].state == 0) {
 80040f0:	f898 3000 	ldrb.w	r3, [r8]
 80040f4:	4a10      	ldr	r2, [pc, #64]	; (8004138 <drawevilstar+0xa8>)
        EvilStar[i].distr_ttl_count = 0;
 80040f6:	70a1      	strb	r1, [r4, #2]
  if (Coin[i].state == 0) {
 80040f8:	f812 0023 	ldrb.w	r0, [r2, r3, lsl #2]
        EvilStar[i].state = 0;
 80040fc:	f804 1c01 	strb.w	r1, [r4, #-1]
  if (Coin[i].state == 0) {
 8004100:	b948      	cbnz	r0, 8004116 <drawevilstar+0x86>
    Coin[i].state = 1;
 8004102:	2101      	movs	r1, #1
 8004104:	f802 1023 	strb.w	r1, [r2, r3, lsl #2]
    Coin[i].animation_count = COIN_ANIMATION_PERIOD;
 8004108:	210a      	movs	r1, #10
    Coin[i].ln = Evil_Star->ln;
 800410a:	eb02 0283 	add.w	r2, r2, r3, lsl #2
    Coin[i].animation_count = COIN_ANIMATION_PERIOD;
 800410e:	70d1      	strb	r1, [r2, #3]
    Coin[i].ln = Evil_Star->ln;
 8004110:	8821      	ldrh	r1, [r4, #0]
 8004112:	f8a2 1001 	strh.w	r1, [r2, #1]
  i++;
 8004116:	3301      	adds	r3, #1
 8004118:	b2db      	uxtb	r3, r3
  if (i >= COIN_MAX) i = 0;
 800411a:	2b09      	cmp	r3, #9
 800411c:	bf88      	it	hi
 800411e:	2300      	movhi	r3, #0
 8004120:	f888 3000 	strb.w	r3, [r8]
 8004124:	e7c0      	b.n	80040a8 <drawevilstar+0x18>
 8004126:	bf00      	nop
 8004128:	20000839 	.word	0x20000839
 800412c:	08009530 	.word	0x08009530
 8004130:	080094ec 	.word	0x080094ec
 8004134:	200008aa 	.word	0x200008aa
 8004138:	20000810 	.word	0x20000810

0800413c <drawcoin>:
void drawcoin(void) {
 800413c:	b510      	push	{r4, lr}
    if (Coin[i].state == 1) {
 800413e:	4cb1      	ldr	r4, [pc, #708]	; (8004404 <drawcoin+0x2c8>)
 8004140:	7823      	ldrb	r3, [r4, #0]
 8004142:	2b01      	cmp	r3, #1
 8004144:	f000 80f7 	beq.w	8004336 <drawcoin+0x1fa>
 8004148:	7923      	ldrb	r3, [r4, #4]
 800414a:	2b01      	cmp	r3, #1
 800414c:	f000 80c6 	beq.w	80042dc <drawcoin+0x1a0>
 8004150:	7a23      	ldrb	r3, [r4, #8]
 8004152:	2b01      	cmp	r3, #1
 8004154:	f000 80da 	beq.w	800430c <drawcoin+0x1d0>
 8004158:	7b23      	ldrb	r3, [r4, #12]
 800415a:	2b01      	cmp	r3, #1
 800415c:	d05f      	beq.n	800421e <drawcoin+0xe2>
 800415e:	7c23      	ldrb	r3, [r4, #16]
 8004160:	2b01      	cmp	r3, #1
 8004162:	d073      	beq.n	800424c <drawcoin+0x110>
 8004164:	7d23      	ldrb	r3, [r4, #20]
 8004166:	2b01      	cmp	r3, #1
 8004168:	f000 8089 	beq.w	800427e <drawcoin+0x142>
 800416c:	7e23      	ldrb	r3, [r4, #24]
 800416e:	2b01      	cmp	r3, #1
 8004170:	f000 809e 	beq.w	80042b0 <drawcoin+0x174>
 8004174:	7f23      	ldrb	r3, [r4, #28]
 8004176:	2b01      	cmp	r3, #1
 8004178:	d03c      	beq.n	80041f4 <drawcoin+0xb8>
 800417a:	f894 3020 	ldrb.w	r3, [r4, #32]
 800417e:	2b01      	cmp	r3, #1
 8004180:	d01e      	beq.n	80041c0 <drawcoin+0x84>
 8004182:	f894 3024 	ldrb.w	r3, [r4, #36]	; 0x24
 8004186:	2b01      	cmp	r3, #1
 8004188:	d000      	beq.n	800418c <drawcoin+0x50>
}
 800418a:	bd10      	pop	{r4, pc}
      Coin[i].animation_count--;
 800418c:	f894 3027 	ldrb.w	r3, [r4, #39]	; 0x27
 8004190:	3b01      	subs	r3, #1
 8004192:	b2db      	uxtb	r3, r3
      if (Coin[i].animation_count >= (COIN_ANIMATION_PERIOD / 2)) LCD_printsprite(Coin[i].ln + 1, Coin[i].cl, &coin_sprite);
 8004194:	2b04      	cmp	r3, #4
      Coin[i].animation_count--;
 8004196:	f884 3027 	strb.w	r3, [r4, #39]	; 0x27
      if (Coin[i].animation_count >= (COIN_ANIMATION_PERIOD / 2)) LCD_printsprite(Coin[i].ln + 1, Coin[i].cl, &coin_sprite);
 800419a:	f200 80e1 	bhi.w	8004360 <drawcoin+0x224>
      if (Coin[i].animation_count < (COIN_ANIMATION_PERIOD / 2)) LCD_printsprite(Coin[i].ln - 1, Coin[i].cl, &coin_sprite);
 800419e:	f894 0025 	ldrb.w	r0, [r4, #37]	; 0x25
 80041a2:	4a99      	ldr	r2, [pc, #612]	; (8004408 <drawcoin+0x2cc>)
 80041a4:	3801      	subs	r0, #1
 80041a6:	f994 1026 	ldrsb.w	r1, [r4, #38]	; 0x26
 80041aa:	b240      	sxtb	r0, r0
 80041ac:	f7fd f98a 	bl	80014c4 <LCD_printsprite>
      if (Coin[i].animation_count == 0) Coin[i].animation_count = COIN_ANIMATION_PERIOD;
 80041b0:	f894 3027 	ldrb.w	r3, [r4, #39]	; 0x27
 80041b4:	2b00      	cmp	r3, #0
 80041b6:	d1e8      	bne.n	800418a <drawcoin+0x4e>
 80041b8:	230a      	movs	r3, #10
 80041ba:	f884 3027 	strb.w	r3, [r4, #39]	; 0x27
}
 80041be:	bd10      	pop	{r4, pc}
      Coin[i].animation_count--;
 80041c0:	f894 3023 	ldrb.w	r3, [r4, #35]	; 0x23
 80041c4:	3b01      	subs	r3, #1
 80041c6:	b2db      	uxtb	r3, r3
      if (Coin[i].animation_count >= (COIN_ANIMATION_PERIOD / 2)) LCD_printsprite(Coin[i].ln + 1, Coin[i].cl, &coin_sprite);
 80041c8:	2b04      	cmp	r3, #4
      Coin[i].animation_count--;
 80041ca:	f884 3023 	strb.w	r3, [r4, #35]	; 0x23
      if (Coin[i].animation_count >= (COIN_ANIMATION_PERIOD / 2)) LCD_printsprite(Coin[i].ln + 1, Coin[i].cl, &coin_sprite);
 80041ce:	f200 80e3 	bhi.w	8004398 <drawcoin+0x25c>
      if (Coin[i].animation_count < (COIN_ANIMATION_PERIOD / 2)) LCD_printsprite(Coin[i].ln - 1, Coin[i].cl, &coin_sprite);
 80041d2:	f894 0021 	ldrb.w	r0, [r4, #33]	; 0x21
 80041d6:	4a8c      	ldr	r2, [pc, #560]	; (8004408 <drawcoin+0x2cc>)
 80041d8:	3801      	subs	r0, #1
 80041da:	f994 1022 	ldrsb.w	r1, [r4, #34]	; 0x22
 80041de:	b240      	sxtb	r0, r0
 80041e0:	f7fd f970 	bl	80014c4 <LCD_printsprite>
      if (Coin[i].animation_count == 0) Coin[i].animation_count = COIN_ANIMATION_PERIOD;
 80041e4:	f894 3023 	ldrb.w	r3, [r4, #35]	; 0x23
 80041e8:	2b00      	cmp	r3, #0
 80041ea:	d1ca      	bne.n	8004182 <drawcoin+0x46>
 80041ec:	230a      	movs	r3, #10
 80041ee:	f884 3023 	strb.w	r3, [r4, #35]	; 0x23
 80041f2:	e7c6      	b.n	8004182 <drawcoin+0x46>
      Coin[i].animation_count--;
 80041f4:	7fe3      	ldrb	r3, [r4, #31]
 80041f6:	3b01      	subs	r3, #1
 80041f8:	b2db      	uxtb	r3, r3
      if (Coin[i].animation_count >= (COIN_ANIMATION_PERIOD / 2)) LCD_printsprite(Coin[i].ln + 1, Coin[i].cl, &coin_sprite);
 80041fa:	2b04      	cmp	r3, #4
      Coin[i].animation_count--;
 80041fc:	77e3      	strb	r3, [r4, #31]
      if (Coin[i].animation_count >= (COIN_ANIMATION_PERIOD / 2)) LCD_printsprite(Coin[i].ln + 1, Coin[i].cl, &coin_sprite);
 80041fe:	f200 8105 	bhi.w	800440c <drawcoin+0x2d0>
      if (Coin[i].animation_count < (COIN_ANIMATION_PERIOD / 2)) LCD_printsprite(Coin[i].ln - 1, Coin[i].cl, &coin_sprite);
 8004202:	7f60      	ldrb	r0, [r4, #29]
 8004204:	4a80      	ldr	r2, [pc, #512]	; (8004408 <drawcoin+0x2cc>)
 8004206:	3801      	subs	r0, #1
 8004208:	f994 101e 	ldrsb.w	r1, [r4, #30]
 800420c:	b240      	sxtb	r0, r0
 800420e:	f7fd f959 	bl	80014c4 <LCD_printsprite>
      if (Coin[i].animation_count == 0) Coin[i].animation_count = COIN_ANIMATION_PERIOD;
 8004212:	7fe3      	ldrb	r3, [r4, #31]
 8004214:	2b00      	cmp	r3, #0
 8004216:	d1b0      	bne.n	800417a <drawcoin+0x3e>
 8004218:	230a      	movs	r3, #10
 800421a:	77e3      	strb	r3, [r4, #31]
 800421c:	e7ad      	b.n	800417a <drawcoin+0x3e>
      Coin[i].animation_count--;
 800421e:	7be3      	ldrb	r3, [r4, #15]
 8004220:	3b01      	subs	r3, #1
 8004222:	b2db      	uxtb	r3, r3
      if (Coin[i].animation_count >= (COIN_ANIMATION_PERIOD / 2)) LCD_printsprite(Coin[i].ln + 1, Coin[i].cl, &coin_sprite);
 8004224:	2b04      	cmp	r3, #4
      Coin[i].animation_count--;
 8004226:	73e3      	strb	r3, [r4, #15]
      if (Coin[i].animation_count >= (COIN_ANIMATION_PERIOD / 2)) LCD_printsprite(Coin[i].ln + 1, Coin[i].cl, &coin_sprite);
 8004228:	f200 80d2 	bhi.w	80043d0 <drawcoin+0x294>
      if (Coin[i].animation_count < (COIN_ANIMATION_PERIOD / 2)) LCD_printsprite(Coin[i].ln - 1, Coin[i].cl, &coin_sprite);
 800422c:	7b60      	ldrb	r0, [r4, #13]
 800422e:	4a76      	ldr	r2, [pc, #472]	; (8004408 <drawcoin+0x2cc>)
 8004230:	3801      	subs	r0, #1
 8004232:	f994 100e 	ldrsb.w	r1, [r4, #14]
 8004236:	b240      	sxtb	r0, r0
 8004238:	f7fd f944 	bl	80014c4 <LCD_printsprite>
      if (Coin[i].animation_count == 0) Coin[i].animation_count = COIN_ANIMATION_PERIOD;
 800423c:	7be3      	ldrb	r3, [r4, #15]
 800423e:	2b00      	cmp	r3, #0
 8004240:	d18d      	bne.n	800415e <drawcoin+0x22>
 8004242:	230a      	movs	r3, #10
 8004244:	73e3      	strb	r3, [r4, #15]
    if (Coin[i].state == 1) {
 8004246:	7c23      	ldrb	r3, [r4, #16]
 8004248:	2b01      	cmp	r3, #1
 800424a:	d18b      	bne.n	8004164 <drawcoin+0x28>
      Coin[i].animation_count--;
 800424c:	7ce3      	ldrb	r3, [r4, #19]
 800424e:	3b01      	subs	r3, #1
 8004250:	b2db      	uxtb	r3, r3
      if (Coin[i].animation_count >= (COIN_ANIMATION_PERIOD / 2)) LCD_printsprite(Coin[i].ln + 1, Coin[i].cl, &coin_sprite);
 8004252:	2b04      	cmp	r3, #4
      Coin[i].animation_count--;
 8004254:	74e3      	strb	r3, [r4, #19]
      if (Coin[i].animation_count >= (COIN_ANIMATION_PERIOD / 2)) LCD_printsprite(Coin[i].ln + 1, Coin[i].cl, &coin_sprite);
 8004256:	f200 8100 	bhi.w	800445a <drawcoin+0x31e>
      if (Coin[i].animation_count < (COIN_ANIMATION_PERIOD / 2)) LCD_printsprite(Coin[i].ln - 1, Coin[i].cl, &coin_sprite);
 800425a:	7c60      	ldrb	r0, [r4, #17]
 800425c:	4a6a      	ldr	r2, [pc, #424]	; (8004408 <drawcoin+0x2cc>)
 800425e:	3801      	subs	r0, #1
 8004260:	f994 1012 	ldrsb.w	r1, [r4, #18]
 8004264:	b240      	sxtb	r0, r0
 8004266:	f7fd f92d 	bl	80014c4 <LCD_printsprite>
      if (Coin[i].animation_count == 0) Coin[i].animation_count = COIN_ANIMATION_PERIOD;
 800426a:	7ce3      	ldrb	r3, [r4, #19]
 800426c:	2b00      	cmp	r3, #0
 800426e:	f47f af79 	bne.w	8004164 <drawcoin+0x28>
 8004272:	230a      	movs	r3, #10
 8004274:	74e3      	strb	r3, [r4, #19]
    if (Coin[i].state == 1) {
 8004276:	7d23      	ldrb	r3, [r4, #20]
 8004278:	2b01      	cmp	r3, #1
 800427a:	f47f af77 	bne.w	800416c <drawcoin+0x30>
      Coin[i].animation_count--;
 800427e:	7de3      	ldrb	r3, [r4, #23]
 8004280:	3b01      	subs	r3, #1
 8004282:	b2db      	uxtb	r3, r3
      if (Coin[i].animation_count >= (COIN_ANIMATION_PERIOD / 2)) LCD_printsprite(Coin[i].ln + 1, Coin[i].cl, &coin_sprite);
 8004284:	2b04      	cmp	r3, #4
      Coin[i].animation_count--;
 8004286:	75e3      	strb	r3, [r4, #23]
      if (Coin[i].animation_count >= (COIN_ANIMATION_PERIOD / 2)) LCD_printsprite(Coin[i].ln + 1, Coin[i].cl, &coin_sprite);
 8004288:	f200 80da 	bhi.w	8004440 <drawcoin+0x304>
      if (Coin[i].animation_count < (COIN_ANIMATION_PERIOD / 2)) LCD_printsprite(Coin[i].ln - 1, Coin[i].cl, &coin_sprite);
 800428c:	7d60      	ldrb	r0, [r4, #21]
 800428e:	4a5e      	ldr	r2, [pc, #376]	; (8004408 <drawcoin+0x2cc>)
 8004290:	3801      	subs	r0, #1
 8004292:	f994 1016 	ldrsb.w	r1, [r4, #22]
 8004296:	b240      	sxtb	r0, r0
 8004298:	f7fd f914 	bl	80014c4 <LCD_printsprite>
      if (Coin[i].animation_count == 0) Coin[i].animation_count = COIN_ANIMATION_PERIOD;
 800429c:	7de3      	ldrb	r3, [r4, #23]
 800429e:	2b00      	cmp	r3, #0
 80042a0:	f47f af64 	bne.w	800416c <drawcoin+0x30>
 80042a4:	230a      	movs	r3, #10
 80042a6:	75e3      	strb	r3, [r4, #23]
    if (Coin[i].state == 1) {
 80042a8:	7e23      	ldrb	r3, [r4, #24]
 80042aa:	2b01      	cmp	r3, #1
 80042ac:	f47f af62 	bne.w	8004174 <drawcoin+0x38>
      Coin[i].animation_count--;
 80042b0:	7ee3      	ldrb	r3, [r4, #27]
 80042b2:	3b01      	subs	r3, #1
 80042b4:	b2db      	uxtb	r3, r3
      if (Coin[i].animation_count >= (COIN_ANIMATION_PERIOD / 2)) LCD_printsprite(Coin[i].ln + 1, Coin[i].cl, &coin_sprite);
 80042b6:	2b04      	cmp	r3, #4
      Coin[i].animation_count--;
 80042b8:	76e3      	strb	r3, [r4, #27]
      if (Coin[i].animation_count >= (COIN_ANIMATION_PERIOD / 2)) LCD_printsprite(Coin[i].ln + 1, Coin[i].cl, &coin_sprite);
 80042ba:	f200 80b4 	bhi.w	8004426 <drawcoin+0x2ea>
      if (Coin[i].animation_count < (COIN_ANIMATION_PERIOD / 2)) LCD_printsprite(Coin[i].ln - 1, Coin[i].cl, &coin_sprite);
 80042be:	7e60      	ldrb	r0, [r4, #25]
 80042c0:	4a51      	ldr	r2, [pc, #324]	; (8004408 <drawcoin+0x2cc>)
 80042c2:	3801      	subs	r0, #1
 80042c4:	f994 101a 	ldrsb.w	r1, [r4, #26]
 80042c8:	b240      	sxtb	r0, r0
 80042ca:	f7fd f8fb 	bl	80014c4 <LCD_printsprite>
      if (Coin[i].animation_count == 0) Coin[i].animation_count = COIN_ANIMATION_PERIOD;
 80042ce:	7ee3      	ldrb	r3, [r4, #27]
 80042d0:	2b00      	cmp	r3, #0
 80042d2:	f47f af4f 	bne.w	8004174 <drawcoin+0x38>
 80042d6:	230a      	movs	r3, #10
 80042d8:	76e3      	strb	r3, [r4, #27]
 80042da:	e74b      	b.n	8004174 <drawcoin+0x38>
      Coin[i].animation_count--;
 80042dc:	79e3      	ldrb	r3, [r4, #7]
 80042de:	3b01      	subs	r3, #1
 80042e0:	b2db      	uxtb	r3, r3
      if (Coin[i].animation_count >= (COIN_ANIMATION_PERIOD / 2)) LCD_printsprite(Coin[i].ln + 1, Coin[i].cl, &coin_sprite);
 80042e2:	2b04      	cmp	r3, #4
      Coin[i].animation_count--;
 80042e4:	71e3      	strb	r3, [r4, #7]
      if (Coin[i].animation_count >= (COIN_ANIMATION_PERIOD / 2)) LCD_printsprite(Coin[i].ln + 1, Coin[i].cl, &coin_sprite);
 80042e6:	d866      	bhi.n	80043b6 <drawcoin+0x27a>
      if (Coin[i].animation_count < (COIN_ANIMATION_PERIOD / 2)) LCD_printsprite(Coin[i].ln - 1, Coin[i].cl, &coin_sprite);
 80042e8:	7960      	ldrb	r0, [r4, #5]
 80042ea:	4a47      	ldr	r2, [pc, #284]	; (8004408 <drawcoin+0x2cc>)
 80042ec:	3801      	subs	r0, #1
 80042ee:	f994 1006 	ldrsb.w	r1, [r4, #6]
 80042f2:	b240      	sxtb	r0, r0
 80042f4:	f7fd f8e6 	bl	80014c4 <LCD_printsprite>
      if (Coin[i].animation_count == 0) Coin[i].animation_count = COIN_ANIMATION_PERIOD;
 80042f8:	79e3      	ldrb	r3, [r4, #7]
 80042fa:	2b00      	cmp	r3, #0
 80042fc:	f47f af28 	bne.w	8004150 <drawcoin+0x14>
 8004300:	230a      	movs	r3, #10
 8004302:	71e3      	strb	r3, [r4, #7]
    if (Coin[i].state == 1) {
 8004304:	7a23      	ldrb	r3, [r4, #8]
 8004306:	2b01      	cmp	r3, #1
 8004308:	f47f af26 	bne.w	8004158 <drawcoin+0x1c>
      Coin[i].animation_count--;
 800430c:	7ae3      	ldrb	r3, [r4, #11]
 800430e:	3b01      	subs	r3, #1
 8004310:	b2db      	uxtb	r3, r3
      if (Coin[i].animation_count >= (COIN_ANIMATION_PERIOD / 2)) LCD_printsprite(Coin[i].ln + 1, Coin[i].cl, &coin_sprite);
 8004312:	2b04      	cmp	r3, #4
      Coin[i].animation_count--;
 8004314:	72e3      	strb	r3, [r4, #11]
      if (Coin[i].animation_count >= (COIN_ANIMATION_PERIOD / 2)) LCD_printsprite(Coin[i].ln + 1, Coin[i].cl, &coin_sprite);
 8004316:	d868      	bhi.n	80043ea <drawcoin+0x2ae>
      if (Coin[i].animation_count < (COIN_ANIMATION_PERIOD / 2)) LCD_printsprite(Coin[i].ln - 1, Coin[i].cl, &coin_sprite);
 8004318:	7a60      	ldrb	r0, [r4, #9]
 800431a:	4a3b      	ldr	r2, [pc, #236]	; (8004408 <drawcoin+0x2cc>)
 800431c:	3801      	subs	r0, #1
 800431e:	f994 100a 	ldrsb.w	r1, [r4, #10]
 8004322:	b240      	sxtb	r0, r0
 8004324:	f7fd f8ce 	bl	80014c4 <LCD_printsprite>
      if (Coin[i].animation_count == 0) Coin[i].animation_count = COIN_ANIMATION_PERIOD;
 8004328:	7ae3      	ldrb	r3, [r4, #11]
 800432a:	2b00      	cmp	r3, #0
 800432c:	f47f af14 	bne.w	8004158 <drawcoin+0x1c>
 8004330:	230a      	movs	r3, #10
 8004332:	72e3      	strb	r3, [r4, #11]
 8004334:	e710      	b.n	8004158 <drawcoin+0x1c>
      Coin[i].animation_count--;
 8004336:	78e3      	ldrb	r3, [r4, #3]
 8004338:	3b01      	subs	r3, #1
 800433a:	b2db      	uxtb	r3, r3
      if (Coin[i].animation_count >= (COIN_ANIMATION_PERIOD / 2)) LCD_printsprite(Coin[i].ln + 1, Coin[i].cl, &coin_sprite);
 800433c:	2b04      	cmp	r3, #4
      Coin[i].animation_count--;
 800433e:	70e3      	strb	r3, [r4, #3]
      if (Coin[i].animation_count >= (COIN_ANIMATION_PERIOD / 2)) LCD_printsprite(Coin[i].ln + 1, Coin[i].cl, &coin_sprite);
 8004340:	d81d      	bhi.n	800437e <drawcoin+0x242>
      if (Coin[i].animation_count < (COIN_ANIMATION_PERIOD / 2)) LCD_printsprite(Coin[i].ln - 1, Coin[i].cl, &coin_sprite);
 8004342:	7860      	ldrb	r0, [r4, #1]
 8004344:	4a30      	ldr	r2, [pc, #192]	; (8004408 <drawcoin+0x2cc>)
 8004346:	3801      	subs	r0, #1
 8004348:	f994 1002 	ldrsb.w	r1, [r4, #2]
 800434c:	b240      	sxtb	r0, r0
 800434e:	f7fd f8b9 	bl	80014c4 <LCD_printsprite>
      if (Coin[i].animation_count == 0) Coin[i].animation_count = COIN_ANIMATION_PERIOD;
 8004352:	78e3      	ldrb	r3, [r4, #3]
 8004354:	2b00      	cmp	r3, #0
 8004356:	f47f aef7 	bne.w	8004148 <drawcoin+0xc>
 800435a:	230a      	movs	r3, #10
 800435c:	70e3      	strb	r3, [r4, #3]
 800435e:	e6f3      	b.n	8004148 <drawcoin+0xc>
      if (Coin[i].animation_count >= (COIN_ANIMATION_PERIOD / 2)) LCD_printsprite(Coin[i].ln + 1, Coin[i].cl, &coin_sprite);
 8004360:	f894 0025 	ldrb.w	r0, [r4, #37]	; 0x25
 8004364:	4a28      	ldr	r2, [pc, #160]	; (8004408 <drawcoin+0x2cc>)
 8004366:	3001      	adds	r0, #1
 8004368:	f994 1026 	ldrsb.w	r1, [r4, #38]	; 0x26
 800436c:	b240      	sxtb	r0, r0
 800436e:	f7fd f8a9 	bl	80014c4 <LCD_printsprite>
      if (Coin[i].animation_count < (COIN_ANIMATION_PERIOD / 2)) LCD_printsprite(Coin[i].ln - 1, Coin[i].cl, &coin_sprite);
 8004372:	f894 3027 	ldrb.w	r3, [r4, #39]	; 0x27
 8004376:	2b04      	cmp	r3, #4
 8004378:	f67f af11 	bls.w	800419e <drawcoin+0x62>
}
 800437c:	bd10      	pop	{r4, pc}
      if (Coin[i].animation_count >= (COIN_ANIMATION_PERIOD / 2)) LCD_printsprite(Coin[i].ln + 1, Coin[i].cl, &coin_sprite);
 800437e:	7860      	ldrb	r0, [r4, #1]
 8004380:	4a21      	ldr	r2, [pc, #132]	; (8004408 <drawcoin+0x2cc>)
 8004382:	3001      	adds	r0, #1
 8004384:	f994 1002 	ldrsb.w	r1, [r4, #2]
 8004388:	b240      	sxtb	r0, r0
 800438a:	f7fd f89b 	bl	80014c4 <LCD_printsprite>
      if (Coin[i].animation_count < (COIN_ANIMATION_PERIOD / 2)) LCD_printsprite(Coin[i].ln - 1, Coin[i].cl, &coin_sprite);
 800438e:	78e3      	ldrb	r3, [r4, #3]
 8004390:	2b04      	cmp	r3, #4
 8004392:	f63f aed9 	bhi.w	8004148 <drawcoin+0xc>
 8004396:	e7d4      	b.n	8004342 <drawcoin+0x206>
      if (Coin[i].animation_count >= (COIN_ANIMATION_PERIOD / 2)) LCD_printsprite(Coin[i].ln + 1, Coin[i].cl, &coin_sprite);
 8004398:	f894 0021 	ldrb.w	r0, [r4, #33]	; 0x21
 800439c:	4a1a      	ldr	r2, [pc, #104]	; (8004408 <drawcoin+0x2cc>)
 800439e:	3001      	adds	r0, #1
 80043a0:	f994 1022 	ldrsb.w	r1, [r4, #34]	; 0x22
 80043a4:	b240      	sxtb	r0, r0
 80043a6:	f7fd f88d 	bl	80014c4 <LCD_printsprite>
      if (Coin[i].animation_count < (COIN_ANIMATION_PERIOD / 2)) LCD_printsprite(Coin[i].ln - 1, Coin[i].cl, &coin_sprite);
 80043aa:	f894 3023 	ldrb.w	r3, [r4, #35]	; 0x23
 80043ae:	2b04      	cmp	r3, #4
 80043b0:	f63f aee7 	bhi.w	8004182 <drawcoin+0x46>
 80043b4:	e70d      	b.n	80041d2 <drawcoin+0x96>
      if (Coin[i].animation_count >= (COIN_ANIMATION_PERIOD / 2)) LCD_printsprite(Coin[i].ln + 1, Coin[i].cl, &coin_sprite);
 80043b6:	7960      	ldrb	r0, [r4, #5]
 80043b8:	4a13      	ldr	r2, [pc, #76]	; (8004408 <drawcoin+0x2cc>)
 80043ba:	3001      	adds	r0, #1
 80043bc:	f994 1006 	ldrsb.w	r1, [r4, #6]
 80043c0:	b240      	sxtb	r0, r0
 80043c2:	f7fd f87f 	bl	80014c4 <LCD_printsprite>
      if (Coin[i].animation_count < (COIN_ANIMATION_PERIOD / 2)) LCD_printsprite(Coin[i].ln - 1, Coin[i].cl, &coin_sprite);
 80043c6:	79e3      	ldrb	r3, [r4, #7]
 80043c8:	2b04      	cmp	r3, #4
 80043ca:	f63f aec1 	bhi.w	8004150 <drawcoin+0x14>
 80043ce:	e78b      	b.n	80042e8 <drawcoin+0x1ac>
      if (Coin[i].animation_count >= (COIN_ANIMATION_PERIOD / 2)) LCD_printsprite(Coin[i].ln + 1, Coin[i].cl, &coin_sprite);
 80043d0:	7b60      	ldrb	r0, [r4, #13]
 80043d2:	4a0d      	ldr	r2, [pc, #52]	; (8004408 <drawcoin+0x2cc>)
 80043d4:	3001      	adds	r0, #1
 80043d6:	f994 100e 	ldrsb.w	r1, [r4, #14]
 80043da:	b240      	sxtb	r0, r0
 80043dc:	f7fd f872 	bl	80014c4 <LCD_printsprite>
      if (Coin[i].animation_count < (COIN_ANIMATION_PERIOD / 2)) LCD_printsprite(Coin[i].ln - 1, Coin[i].cl, &coin_sprite);
 80043e0:	7be3      	ldrb	r3, [r4, #15]
 80043e2:	2b04      	cmp	r3, #4
 80043e4:	f63f aebb 	bhi.w	800415e <drawcoin+0x22>
 80043e8:	e720      	b.n	800422c <drawcoin+0xf0>
      if (Coin[i].animation_count >= (COIN_ANIMATION_PERIOD / 2)) LCD_printsprite(Coin[i].ln + 1, Coin[i].cl, &coin_sprite);
 80043ea:	7a60      	ldrb	r0, [r4, #9]
 80043ec:	4a06      	ldr	r2, [pc, #24]	; (8004408 <drawcoin+0x2cc>)
 80043ee:	3001      	adds	r0, #1
 80043f0:	f994 100a 	ldrsb.w	r1, [r4, #10]
 80043f4:	b240      	sxtb	r0, r0
 80043f6:	f7fd f865 	bl	80014c4 <LCD_printsprite>
      if (Coin[i].animation_count < (COIN_ANIMATION_PERIOD / 2)) LCD_printsprite(Coin[i].ln - 1, Coin[i].cl, &coin_sprite);
 80043fa:	7ae3      	ldrb	r3, [r4, #11]
 80043fc:	2b04      	cmp	r3, #4
 80043fe:	f63f aeab 	bhi.w	8004158 <drawcoin+0x1c>
 8004402:	e789      	b.n	8004318 <drawcoin+0x1dc>
 8004404:	20000810 	.word	0x20000810
 8004408:	080094a8 	.word	0x080094a8
      if (Coin[i].animation_count >= (COIN_ANIMATION_PERIOD / 2)) LCD_printsprite(Coin[i].ln + 1, Coin[i].cl, &coin_sprite);
 800440c:	7f60      	ldrb	r0, [r4, #29]
 800440e:	4a19      	ldr	r2, [pc, #100]	; (8004474 <drawcoin+0x338>)
 8004410:	3001      	adds	r0, #1
 8004412:	f994 101e 	ldrsb.w	r1, [r4, #30]
 8004416:	b240      	sxtb	r0, r0
 8004418:	f7fd f854 	bl	80014c4 <LCD_printsprite>
      if (Coin[i].animation_count < (COIN_ANIMATION_PERIOD / 2)) LCD_printsprite(Coin[i].ln - 1, Coin[i].cl, &coin_sprite);
 800441c:	7fe3      	ldrb	r3, [r4, #31]
 800441e:	2b04      	cmp	r3, #4
 8004420:	f63f aeab 	bhi.w	800417a <drawcoin+0x3e>
 8004424:	e6ed      	b.n	8004202 <drawcoin+0xc6>
      if (Coin[i].animation_count >= (COIN_ANIMATION_PERIOD / 2)) LCD_printsprite(Coin[i].ln + 1, Coin[i].cl, &coin_sprite);
 8004426:	7e60      	ldrb	r0, [r4, #25]
 8004428:	4a12      	ldr	r2, [pc, #72]	; (8004474 <drawcoin+0x338>)
 800442a:	3001      	adds	r0, #1
 800442c:	f994 101a 	ldrsb.w	r1, [r4, #26]
 8004430:	b240      	sxtb	r0, r0
 8004432:	f7fd f847 	bl	80014c4 <LCD_printsprite>
      if (Coin[i].animation_count < (COIN_ANIMATION_PERIOD / 2)) LCD_printsprite(Coin[i].ln - 1, Coin[i].cl, &coin_sprite);
 8004436:	7ee3      	ldrb	r3, [r4, #27]
 8004438:	2b04      	cmp	r3, #4
 800443a:	f63f ae9b 	bhi.w	8004174 <drawcoin+0x38>
 800443e:	e73e      	b.n	80042be <drawcoin+0x182>
      if (Coin[i].animation_count >= (COIN_ANIMATION_PERIOD / 2)) LCD_printsprite(Coin[i].ln + 1, Coin[i].cl, &coin_sprite);
 8004440:	7d60      	ldrb	r0, [r4, #21]
 8004442:	4a0c      	ldr	r2, [pc, #48]	; (8004474 <drawcoin+0x338>)
 8004444:	3001      	adds	r0, #1
 8004446:	f994 1016 	ldrsb.w	r1, [r4, #22]
 800444a:	b240      	sxtb	r0, r0
 800444c:	f7fd f83a 	bl	80014c4 <LCD_printsprite>
      if (Coin[i].animation_count < (COIN_ANIMATION_PERIOD / 2)) LCD_printsprite(Coin[i].ln - 1, Coin[i].cl, &coin_sprite);
 8004450:	7de3      	ldrb	r3, [r4, #23]
 8004452:	2b04      	cmp	r3, #4
 8004454:	f63f ae8a 	bhi.w	800416c <drawcoin+0x30>
 8004458:	e718      	b.n	800428c <drawcoin+0x150>
      if (Coin[i].animation_count >= (COIN_ANIMATION_PERIOD / 2)) LCD_printsprite(Coin[i].ln + 1, Coin[i].cl, &coin_sprite);
 800445a:	7c60      	ldrb	r0, [r4, #17]
 800445c:	4a05      	ldr	r2, [pc, #20]	; (8004474 <drawcoin+0x338>)
 800445e:	3001      	adds	r0, #1
 8004460:	f994 1012 	ldrsb.w	r1, [r4, #18]
 8004464:	b240      	sxtb	r0, r0
 8004466:	f7fd f82d 	bl	80014c4 <LCD_printsprite>
      if (Coin[i].animation_count < (COIN_ANIMATION_PERIOD / 2)) LCD_printsprite(Coin[i].ln - 1, Coin[i].cl, &coin_sprite);
 800446a:	7ce3      	ldrb	r3, [r4, #19]
 800446c:	2b04      	cmp	r3, #4
 800446e:	f63f ae79 	bhi.w	8004164 <drawcoin+0x28>
 8004472:	e6f2      	b.n	800425a <drawcoin+0x11e>
 8004474:	080094a8 	.word	0x080094a8

08004478 <drawbomb>:
{
 8004478:	b5f8      	push	{r3, r4, r5, r6, r7, lr}
  if (Bomb.state) {
 800447a:	4d36      	ldr	r5, [pc, #216]	; (8004554 <drawbomb+0xdc>)
 800447c:	782b      	ldrb	r3, [r5, #0]
 800447e:	b13b      	cbz	r3, 8004490 <drawbomb+0x18>
    if(Bomb.state < 2){
 8004480:	2b01      	cmp	r3, #1
 8004482:	d006      	beq.n	8004492 <drawbomb+0x1a>
      switch(Bomb.state){
 8004484:	2b03      	cmp	r3, #3
 8004486:	d04a      	beq.n	800451e <drawbomb+0xa6>
 8004488:	2b04      	cmp	r3, #4
 800448a:	d03f      	beq.n	800450c <drawbomb+0x94>
 800448c:	2b02      	cmp	r3, #2
 800448e:	d023      	beq.n	80044d8 <drawbomb+0x60>
}
 8004490:	bdf8      	pop	{r3, r4, r5, r6, r7, pc}
      if (Bomb.animation_count >= (3 * period / 4)) LCD_printsprite(Bomb.ln, Bomb.cl, &bomb_sprite[0]);
 8004492:	686b      	ldr	r3, [r5, #4]
 8004494:	eb00 0240 	add.w	r2, r0, r0, lsl #1
 8004498:	ebb3 0f92 	cmp.w	r3, r2, lsr #2
 800449c:	4604      	mov	r4, r0
 800449e:	ea4f 0640 	mov.w	r6, r0, lsl #1
 80044a2:	ea4f 0792 	mov.w	r7, r2, lsr #2
 80044a6:	d220      	bcs.n	80044ea <drawbomb+0x72>
      if ((Bomb.animation_count < (3 * period / 4)) && 
 80044a8:	ebb3 0f96 	cmp.w	r3, r6, lsr #2
         (Bomb.animation_count >= (2 * period / 4))) LCD_printsprite(Bomb.ln, Bomb.cl, &bomb_sprite[1]);
 80044ac:	ea4f 0796 	mov.w	r7, r6, lsr #2
      if ((Bomb.animation_count < (3 * period / 4)) && 
 80044b0:	d23e      	bcs.n	8004530 <drawbomb+0xb8>
      if ((Bomb.animation_count < (2 * period / 4)) && 
 80044b2:	ebb3 0f94 	cmp.w	r3, r4, lsr #2
         (Bomb.animation_count >= (period / 4))) LCD_printsprite(Bomb.ln, Bomb.cl, &bomb_sprite[2]);
 80044b6:	ea4f 0694 	mov.w	r6, r4, lsr #2
      if ((Bomb.animation_count < (2 * period / 4)) && 
 80044ba:	d242      	bcs.n	8004542 <drawbomb+0xca>
      if (Bomb.animation_count < (period / 4)) LCD_printsprite(Bomb.ln, Bomb.cl, &bomb_sprite[3]);
 80044bc:	4a26      	ldr	r2, [pc, #152]	; (8004558 <drawbomb+0xe0>)
 80044be:	f995 1002 	ldrsb.w	r1, [r5, #2]
 80044c2:	f995 0001 	ldrsb.w	r0, [r5, #1]
 80044c6:	f7fc fffd 	bl	80014c4 <LCD_printsprite>
      if (Bomb.animation_count == 0) Bomb.animation_count = period;
 80044ca:	686b      	ldr	r3, [r5, #4]
 80044cc:	2b00      	cmp	r3, #0
 80044ce:	bf18      	it	ne
 80044d0:	461c      	movne	r4, r3
      Bomb.animation_count--;
 80044d2:	3c01      	subs	r4, #1
 80044d4:	606c      	str	r4, [r5, #4]
}
 80044d6:	bdf8      	pop	{r3, r4, r5, r6, r7, pc}
          LCD_printsprite(Bomb.ln, Bomb.cl, &bombshards_sprite[0]);
 80044d8:	f995 1002 	ldrsb.w	r1, [r5, #2]
 80044dc:	f995 0001 	ldrsb.w	r0, [r5, #1]
 80044e0:	4a1e      	ldr	r2, [pc, #120]	; (800455c <drawbomb+0xe4>)
}
 80044e2:	e8bd 40f8 	ldmia.w	sp!, {r3, r4, r5, r6, r7, lr}
          LCD_printsprite(Bomb.ln, Bomb.cl, &bombshards_sprite[0]);
 80044e6:	f7fc bfed 	b.w	80014c4 <LCD_printsprite>
      if (Bomb.animation_count >= (3 * period / 4)) LCD_printsprite(Bomb.ln, Bomb.cl, &bomb_sprite[0]);
 80044ea:	4a1d      	ldr	r2, [pc, #116]	; (8004560 <drawbomb+0xe8>)
 80044ec:	f995 1002 	ldrsb.w	r1, [r5, #2]
 80044f0:	f995 0001 	ldrsb.w	r0, [r5, #1]
 80044f4:	f7fc ffe6 	bl	80014c4 <LCD_printsprite>
      if ((Bomb.animation_count < (3 * period / 4)) && 
 80044f8:	686b      	ldr	r3, [r5, #4]
 80044fa:	429f      	cmp	r7, r3
 80044fc:	d8d4      	bhi.n	80044a8 <drawbomb+0x30>
         (Bomb.animation_count >= (2 * period / 4))) LCD_printsprite(Bomb.ln, Bomb.cl, &bomb_sprite[1]);
 80044fe:	08b7      	lsrs	r7, r6, #2
      if ((Bomb.animation_count < (2 * period / 4)) && 
 8004500:	429f      	cmp	r7, r3
 8004502:	d8d6      	bhi.n	80044b2 <drawbomb+0x3a>
         (Bomb.animation_count >= (period / 4))) LCD_printsprite(Bomb.ln, Bomb.cl, &bomb_sprite[2]);
 8004504:	08a6      	lsrs	r6, r4, #2
      if (Bomb.animation_count < (period / 4)) LCD_printsprite(Bomb.ln, Bomb.cl, &bomb_sprite[3]);
 8004506:	429e      	cmp	r6, r3
 8004508:	d9e0      	bls.n	80044cc <drawbomb+0x54>
 800450a:	e7d7      	b.n	80044bc <drawbomb+0x44>
          LCD_printsprite(Bomb.ln, Bomb.cl, &bombshards_sprite[2]);
 800450c:	f995 1002 	ldrsb.w	r1, [r5, #2]
 8004510:	f995 0001 	ldrsb.w	r0, [r5, #1]
 8004514:	4a13      	ldr	r2, [pc, #76]	; (8004564 <drawbomb+0xec>)
}
 8004516:	e8bd 40f8 	ldmia.w	sp!, {r3, r4, r5, r6, r7, lr}
          LCD_printsprite(Bomb.ln, Bomb.cl, &bombshards_sprite[2]);
 800451a:	f7fc bfd3 	b.w	80014c4 <LCD_printsprite>
          LCD_printsprite(Bomb.ln, Bomb.cl, &bombshards_sprite[1]);
 800451e:	f995 1002 	ldrsb.w	r1, [r5, #2]
 8004522:	f995 0001 	ldrsb.w	r0, [r5, #1]
 8004526:	4a10      	ldr	r2, [pc, #64]	; (8004568 <drawbomb+0xf0>)
}
 8004528:	e8bd 40f8 	ldmia.w	sp!, {r3, r4, r5, r6, r7, lr}
          LCD_printsprite(Bomb.ln, Bomb.cl, &bombshards_sprite[1]);
 800452c:	f7fc bfca 	b.w	80014c4 <LCD_printsprite>
         (Bomb.animation_count >= (2 * period / 4))) LCD_printsprite(Bomb.ln, Bomb.cl, &bomb_sprite[1]);
 8004530:	4a0e      	ldr	r2, [pc, #56]	; (800456c <drawbomb+0xf4>)
 8004532:	f995 1002 	ldrsb.w	r1, [r5, #2]
 8004536:	f995 0001 	ldrsb.w	r0, [r5, #1]
 800453a:	f7fc ffc3 	bl	80014c4 <LCD_printsprite>
      if ((Bomb.animation_count < (2 * period / 4)) && 
 800453e:	686b      	ldr	r3, [r5, #4]
 8004540:	e7de      	b.n	8004500 <drawbomb+0x88>
         (Bomb.animation_count >= (period / 4))) LCD_printsprite(Bomb.ln, Bomb.cl, &bomb_sprite[2]);
 8004542:	4a0b      	ldr	r2, [pc, #44]	; (8004570 <drawbomb+0xf8>)
 8004544:	f995 1002 	ldrsb.w	r1, [r5, #2]
 8004548:	f995 0001 	ldrsb.w	r0, [r5, #1]
 800454c:	f7fc ffba 	bl	80014c4 <LCD_printsprite>
      if (Bomb.animation_count < (period / 4)) LCD_printsprite(Bomb.ln, Bomb.cl, &bomb_sprite[3]);
 8004550:	686b      	ldr	r3, [r5, #4]
 8004552:	e7d8      	b.n	8004506 <drawbomb+0x8e>
 8004554:	200007d0 	.word	0x200007d0
 8004558:	08009464 	.word	0x08009464
 800455c:	08009470 	.word	0x08009470
 8004560:	08009440 	.word	0x08009440
 8004564:	08009488 	.word	0x08009488
 8004568:	0800947c 	.word	0x0800947c
 800456c:	0800944c 	.word	0x0800944c
 8004570:	08009458 	.word	0x08009458

08004574 <statehandler_gamerun>:
{
 8004574:	b5f8      	push	{r3, r4, r5, r6, r7, lr}
  if(gamestate == STATE_PAUSEMENU)
 8004576:	4cb0      	ldr	r4, [pc, #704]	; (8004838 <statehandler_gamerun+0x2c4>)
 8004578:	7823      	ldrb	r3, [r4, #0]
 800457a:	2b03      	cmp	r3, #3
 800457c:	f000 80fc 	beq.w	8004778 <statehandler_gamerun+0x204>
  gamestate = STATE_RUNGAME;
 8004580:	2207      	movs	r2, #7
  if(GameFlags.WinTheGame){
 8004582:	4bae      	ldr	r3, [pc, #696]	; (800483c <statehandler_gamerun+0x2c8>)
  gamestate = STATE_RUNGAME;
 8004584:	7022      	strb	r2, [r4, #0]
  if(GameFlags.WinTheGame){
 8004586:	781b      	ldrb	r3, [r3, #0]
 8004588:	f013 0310 	ands.w	r3, r3, #16
 800458c:	f040 80c0 	bne.w	8004710 <statehandler_gamerun+0x19c>
    if(Gamer.health > 0)
 8004590:	4eab      	ldr	r6, [pc, #684]	; (8004840 <statehandler_gamerun+0x2cc>)
 8004592:	f996 2000 	ldrsb.w	r2, [r6]
 8004596:	2a00      	cmp	r2, #0
 8004598:	f340 808f 	ble.w	80046ba <statehandler_gamerun+0x146>
      if(B4.BtnON) {
 800459c:	49a9      	ldr	r1, [pc, #676]	; (8004844 <statehandler_gamerun+0x2d0>)
 800459e:	7c4a      	ldrb	r2, [r1, #17]
 80045a0:	2a00      	cmp	r2, #0
 80045a2:	f000 80f6 	beq.w	8004792 <statehandler_gamerun+0x21e>
        gameevent = EVENT_PAUSE;
 80045a6:	2005      	movs	r0, #5
 80045a8:	4aa7      	ldr	r2, [pc, #668]	; (8004848 <statehandler_gamerun+0x2d4>)
        B4.BtnON = 0;
 80045aa:	744b      	strb	r3, [r1, #17]
        gameevent = EVENT_PAUSE;
 80045ac:	7010      	strb	r0, [r2, #0]
  if(PRD_EVILSTAR_CREATE != PRD_EVILSTAR_CREATE_PREV) {
 80045ae:	4da7      	ldr	r5, [pc, #668]	; (800484c <statehandler_gamerun+0x2d8>)
 80045b0:	4ca7      	ldr	r4, [pc, #668]	; (8004850 <statehandler_gamerun+0x2dc>)
 80045b2:	6829      	ldr	r1, [r5, #0]
 80045b4:	6823      	ldr	r3, [r4, #0]
 80045b6:	4299      	cmp	r1, r3
 80045b8:	d004      	beq.n	80045c4 <statehandler_gamerun+0x50>
    SchedEventSetPeriod(createevilstar, PRD_EVILSTAR_CREATE);
 80045ba:	48a6      	ldr	r0, [pc, #664]	; (8004854 <statehandler_gamerun+0x2e0>)
 80045bc:	f7fe fa4e 	bl	8002a5c <SchedEventSetPeriod>
    PRD_EVILSTAR_CREATE_PREV = PRD_EVILSTAR_CREATE;
 80045c0:	682b      	ldr	r3, [r5, #0]
 80045c2:	6023      	str	r3, [r4, #0]
  }if(PRD_ENEMY_MOVE != PRD_ENEMY_MOVE_PREV) {  
 80045c4:	4da4      	ldr	r5, [pc, #656]	; (8004858 <statehandler_gamerun+0x2e4>)
 80045c6:	4ca5      	ldr	r4, [pc, #660]	; (800485c <statehandler_gamerun+0x2e8>)
 80045c8:	7829      	ldrb	r1, [r5, #0]
 80045ca:	7823      	ldrb	r3, [r4, #0]
 80045cc:	428b      	cmp	r3, r1
 80045ce:	d004      	beq.n	80045da <statehandler_gamerun+0x66>
    SchedEventSetPeriod(move_enemy_objects, PRD_ENEMY_MOVE);
 80045d0:	48a3      	ldr	r0, [pc, #652]	; (8004860 <statehandler_gamerun+0x2ec>)
 80045d2:	f7fe fa43 	bl	8002a5c <SchedEventSetPeriod>
    PRD_ENEMY_MOVE_PREV = PRD_ENEMY_MOVE;
 80045d6:	782b      	ldrb	r3, [r5, #0]
 80045d8:	7023      	strb	r3, [r4, #0]
  if(Gamer.health > 0)
 80045da:	f996 3000 	ldrsb.w	r3, [r6]
 80045de:	2b00      	cmp	r3, #0
 80045e0:	dd15      	ble.n	800460e <statehandler_gamerun+0x9a>
 80045e2:	f7fe fe19 	bl	8003218 <movgamer.part.0>
  if ((Gamer.energy < Gamer.energymax) && (Gamer.health > 0)) 
 80045e6:	f996 3001 	ldrsb.w	r3, [r6, #1]
 80045ea:	f996 2002 	ldrsb.w	r2, [r6, #2]
 80045ee:	429a      	cmp	r2, r3
 80045f0:	dd0d      	ble.n	800460e <statehandler_gamerun+0x9a>
 80045f2:	f996 2000 	ldrsb.w	r2, [r6]
 80045f6:	2a00      	cmp	r2, #0
 80045f8:	dd09      	ble.n	800460e <statehandler_gamerun+0x9a>
  gunregen(PRD_GAMER_ENERGYREGEN);
 80045fa:	4a9a      	ldr	r2, [pc, #616]	; (8004864 <statehandler_gamerun+0x2f0>)
    if(prd < (period - 1)) prd++;
 80045fc:	489a      	ldr	r0, [pc, #616]	; (8004868 <statehandler_gamerun+0x2f4>)
 80045fe:	6812      	ldr	r2, [r2, #0]
 8004600:	6801      	ldr	r1, [r0, #0]
 8004602:	3a01      	subs	r2, #1
 8004604:	428a      	cmp	r2, r1
 8004606:	f240 80c9 	bls.w	800479c <statehandler_gamerun+0x228>
 800460a:	3101      	adds	r1, #1
 800460c:	6001      	str	r1, [r0, #0]
  createbullet(BULLET_GENERATE_PERIOD);
 800460e:	2001      	movs	r0, #1
  if(MinMagaz.state){
 8004610:	4c96      	ldr	r4, [pc, #600]	; (800486c <statehandler_gamerun+0x2f8>)
  createbullet(BULLET_GENERATE_PERIOD);
 8004612:	f7ff fbbb 	bl	8003d8c <createbullet>
  createbomb(BOMB_GENERATE_PERIOD);  
 8004616:	2001      	movs	r0, #1
 8004618:	f7ff fc0e 	bl	8003e38 <createbomb>
  movbomb();
 800461c:	f7ff fc52 	bl	8003ec4 <movbomb>
  bullet_evilstar_collision();
 8004620:	f7ff fc8a 	bl	8003f38 <bullet_evilstar_collision>
  gamer_evilstar_collision();
 8004624:	f7ff fcbe 	bl	8003fa4 <gamer_evilstar_collision>
  gamer_coin_collision();
 8004628:	f7ff fcfc 	bl	8004024 <gamer_coin_collision>
  if(MinMagaz.state){
 800462c:	7823      	ldrb	r3, [r4, #0]
 800462e:	b15b      	cbz	r3, 8004648 <statehandler_gamerun+0xd4>
    if ((MinMagaz.cl <= (Gamer.cl + 29)) && ((MinMagaz.cl + 30) >= Gamer.cl) &&
 8004630:	f996 200d 	ldrsb.w	r2, [r6, #13]
 8004634:	f994 3002 	ldrsb.w	r3, [r4, #2]
 8004638:	f102 011d 	add.w	r1, r2, #29
 800463c:	428b      	cmp	r3, r1
 800463e:	dc03      	bgt.n	8004648 <statehandler_gamerun+0xd4>
 8004640:	331e      	adds	r3, #30
 8004642:	429a      	cmp	r2, r3
 8004644:	f340 80af 	ble.w	80047a6 <statehandler_gamerun+0x232>
  if(Bomb.state){
 8004648:	4b89      	ldr	r3, [pc, #548]	; (8004870 <statehandler_gamerun+0x2fc>)
 800464a:	781b      	ldrb	r3, [r3, #0]
 800464c:	b10b      	cbz	r3, 8004652 <statehandler_gamerun+0xde>
 800464e:	f7fe feb1 	bl	80033b4 <bomb_evilstar_collision.part.0>
  drawevilstar();
 8004652:	f7ff fd1d 	bl	8004090 <drawevilstar>
  drawcoin();
 8004656:	f7ff fd71 	bl	800413c <drawcoin>
    if (MinMagaz.state) {
 800465a:	7823      	ldrb	r3, [r4, #0]
 800465c:	2b00      	cmp	r3, #0
 800465e:	d14f      	bne.n	8004700 <statehandler_gamerun+0x18c>
 8004660:	4c84      	ldr	r4, [pc, #528]	; (8004874 <statehandler_gamerun+0x300>)
      LCD_printsprite(Bullet[i].ln, Bullet[i].cl, &bullet_sprite);
 8004662:	4f85      	ldr	r7, [pc, #532]	; (8004878 <statehandler_gamerun+0x304>)
 8004664:	f104 0536 	add.w	r5, r4, #54	; 0x36
 8004668:	e002      	b.n	8004670 <statehandler_gamerun+0xfc>
  for (uint8 i = 0; i < BULLET_MAX; i++) {
 800466a:	3403      	adds	r4, #3
 800466c:	42a5      	cmp	r5, r4
 800466e:	d00c      	beq.n	800468a <statehandler_gamerun+0x116>
    if (Bullet[i].state) {
 8004670:	7823      	ldrb	r3, [r4, #0]
 8004672:	2b00      	cmp	r3, #0
 8004674:	d0f9      	beq.n	800466a <statehandler_gamerun+0xf6>
      LCD_printsprite(Bullet[i].ln, Bullet[i].cl, &bullet_sprite);
 8004676:	f994 1002 	ldrsb.w	r1, [r4, #2]
 800467a:	f994 0001 	ldrsb.w	r0, [r4, #1]
 800467e:	463a      	mov	r2, r7
  for (uint8 i = 0; i < BULLET_MAX; i++) {
 8004680:	3403      	adds	r4, #3
      LCD_printsprite(Bullet[i].ln, Bullet[i].cl, &bullet_sprite);
 8004682:	f7fc ff1f 	bl	80014c4 <LCD_printsprite>
  for (uint8 i = 0; i < BULLET_MAX; i++) {
 8004686:	42a5      	cmp	r5, r4
 8004688:	d1f2      	bne.n	8004670 <statehandler_gamerun+0xfc>
  drawbomb(BOMB_ANIMATION_PERIOD);
 800468a:	2004      	movs	r0, #4
 800468c:	f7ff fef4 	bl	8004478 <drawbomb>
  if ((Gamer.health > 0)) {
 8004690:	f996 3000 	ldrsb.w	r3, [r6]
 8004694:	2b00      	cmp	r3, #0
 8004696:	dd0b      	ble.n	80046b0 <statehandler_gamerun+0x13c>
    if (Gamer.gasmask_health > 0) LCD_printsprite(Gamer.ln, Gamer.cl, &gamer_gas_sprite);
 8004698:	f996 3003 	ldrsb.w	r3, [r6, #3]
    else LCD_printsprite(Gamer.ln, Gamer.cl, &gamer_sprite);
 800469c:	f996 100d 	ldrsb.w	r1, [r6, #13]
    if (Gamer.gasmask_health > 0) LCD_printsprite(Gamer.ln, Gamer.cl, &gamer_gas_sprite);
 80046a0:	2b00      	cmp	r3, #0
 80046a2:	bfcc      	ite	gt
 80046a4:	4a75      	ldrgt	r2, [pc, #468]	; (800487c <statehandler_gamerun+0x308>)
    else LCD_printsprite(Gamer.ln, Gamer.cl, &gamer_sprite);
 80046a6:	4a76      	ldrle	r2, [pc, #472]	; (8004880 <statehandler_gamerun+0x30c>)
 80046a8:	f996 000c 	ldrsb.w	r0, [r6, #12]
 80046ac:	f7fc ff0a 	bl	80014c4 <LCD_printsprite>
}
 80046b0:	e8bd 40f8 	ldmia.w	sp!, {r3, r4, r5, r6, r7, lr}
  LCD_printgamestatbar(&Gamer);
 80046b4:	4862      	ldr	r0, [pc, #392]	; (8004840 <statehandler_gamerun+0x2cc>)
 80046b6:	f7fd b8c5 	b.w	8001844 <LCD_printgamestatbar>
      if(deadgamerdrawcounter >= (3 * (GAMERDEATH_ANIMATION_PERIOD / 4))){
 80046ba:	4c72      	ldr	r4, [pc, #456]	; (8004884 <statehandler_gamerun+0x310>)
 80046bc:	7823      	ldrb	r3, [r4, #0]
 80046be:	2b0e      	cmp	r3, #14
 80046c0:	f200 80ae 	bhi.w	8004820 <statehandler_gamerun+0x2ac>
      if(deadgamerdrawcounter < (3 * (GAMERDEATH_ANIMATION_PERIOD / 4) + (GAMERDEATH_ANIMATION_PERIOD % 4)) && deadgamerdrawcounter > 0) {
 80046c4:	1e5a      	subs	r2, r3, #1
 80046c6:	2a0d      	cmp	r2, #13
 80046c8:	f240 8085 	bls.w	80047d6 <statehandler_gamerun+0x262>
      if(deadgamerdrawcounter == 0)
 80046cc:	2b00      	cmp	r3, #0
 80046ce:	f47f af6e 	bne.w	80045ae <statehandler_gamerun+0x3a>
        LCD_printstr8x5((uint8*)"ЗВЕЗДАНУЛСЯ", 3, 30);
 80046d2:	221e      	movs	r2, #30
 80046d4:	2103      	movs	r1, #3
 80046d6:	486c      	ldr	r0, [pc, #432]	; (8004888 <statehandler_gamerun+0x314>)
 80046d8:	f7fc f8ec 	bl	80008b4 <LCD_printstr8x5>
        LCD_printstr8x5((uint8*)"НАСМЕРТЬ!", 4, 36);
 80046dc:	2224      	movs	r2, #36	; 0x24
 80046de:	2104      	movs	r1, #4
 80046e0:	486a      	ldr	r0, [pc, #424]	; (800488c <statehandler_gamerun+0x318>)
 80046e2:	f7fc f8e7 	bl	80008b4 <LCD_printstr8x5>
        IF_ANY_BTN_PRESS(
 80046e6:	4d6a      	ldr	r5, [pc, #424]	; (8004890 <statehandler_gamerun+0x31c>)
 80046e8:	486a      	ldr	r0, [pc, #424]	; (8004894 <statehandler_gamerun+0x320>)
 80046ea:	7c6b      	ldrb	r3, [r5, #17]
 80046ec:	7c42      	ldrb	r2, [r0, #17]
 80046ee:	496a      	ldr	r1, [pc, #424]	; (8004898 <statehandler_gamerun+0x324>)
 80046f0:	4313      	orrs	r3, r2
 80046f2:	7c4f      	ldrb	r7, [r1, #17]
 80046f4:	4a53      	ldr	r2, [pc, #332]	; (8004844 <statehandler_gamerun+0x2d0>)
 80046f6:	433b      	orrs	r3, r7
 80046f8:	7c57      	ldrb	r7, [r2, #17]
 80046fa:	433b      	orrs	r3, r7
 80046fc:	d131      	bne.n	8004762 <statehandler_gamerun+0x1ee>
 80046fe:	e756      	b.n	80045ae <statehandler_gamerun+0x3a>
      LCD_printsprite(MinMagaz.ln, MinMagaz.cl, &minimag_sprite);
 8004700:	4a66      	ldr	r2, [pc, #408]	; (800489c <statehandler_gamerun+0x328>)
 8004702:	f994 1002 	ldrsb.w	r1, [r4, #2]
 8004706:	f994 0001 	ldrsb.w	r0, [r4, #1]
 800470a:	f7fc fedb 	bl	80014c4 <LCD_printsprite>
}
 800470e:	e7a7      	b.n	8004660 <statehandler_gamerun+0xec>
    SchedPauseEvent(createevilstar);
 8004710:	4850      	ldr	r0, [pc, #320]	; (8004854 <statehandler_gamerun+0x2e0>)
 8004712:	f7fe f96f 	bl	80029f4 <SchedPauseEvent>
    SchedPauseEvent(movbullet);
 8004716:	4862      	ldr	r0, [pc, #392]	; (80048a0 <statehandler_gamerun+0x32c>)
 8004718:	f7fe f96c 	bl	80029f4 <SchedPauseEvent>
    SchedPauseEvent(move_enemy_objects);
 800471c:	4850      	ldr	r0, [pc, #320]	; (8004860 <statehandler_gamerun+0x2ec>)
 800471e:	f7fe f969 	bl	80029f4 <SchedPauseEvent>
    SchedPauseEvent(gameprogress);
 8004722:	4860      	ldr	r0, [pc, #384]	; (80048a4 <statehandler_gamerun+0x330>)
 8004724:	f7fe f966 	bl	80029f4 <SchedPauseEvent>
    LCD_printstr8x5((uint8*)"ПОБЕДА!!!", 2, 35);
 8004728:	2223      	movs	r2, #35	; 0x23
 800472a:	2102      	movs	r1, #2
 800472c:	485e      	ldr	r0, [pc, #376]	; (80048a8 <statehandler_gamerun+0x334>)
 800472e:	f7fc f8c1 	bl	80008b4 <LCD_printstr8x5>
    LCD_printstr8x5((uint8*)"ТЫ - ЗВЕЗДАНУТЫЙ", 3, 25);
 8004732:	2219      	movs	r2, #25
 8004734:	2103      	movs	r1, #3
 8004736:	485d      	ldr	r0, [pc, #372]	; (80048ac <statehandler_gamerun+0x338>)
 8004738:	f7fc f8bc 	bl	80008b4 <LCD_printstr8x5>
    LCD_printstr8x5((uint8*)"ГЕРОЙ!!!", 4, 40);
 800473c:	2228      	movs	r2, #40	; 0x28
 800473e:	2104      	movs	r1, #4
 8004740:	485b      	ldr	r0, [pc, #364]	; (80048b0 <statehandler_gamerun+0x33c>)
 8004742:	f7fc f8b7 	bl	80008b4 <LCD_printstr8x5>
    IF_ANY_BTN_PRESS(
 8004746:	4d52      	ldr	r5, [pc, #328]	; (8004890 <statehandler_gamerun+0x31c>)
 8004748:	4852      	ldr	r0, [pc, #328]	; (8004894 <statehandler_gamerun+0x320>)
 800474a:	4953      	ldr	r1, [pc, #332]	; (8004898 <statehandler_gamerun+0x324>)
 800474c:	7c42      	ldrb	r2, [r0, #17]
 800474e:	7c6b      	ldrb	r3, [r5, #17]
 8004750:	4313      	orrs	r3, r2
 8004752:	7c4a      	ldrb	r2, [r1, #17]
 8004754:	4313      	orrs	r3, r2
 8004756:	4a3b      	ldr	r2, [pc, #236]	; (8004844 <statehandler_gamerun+0x2d0>)
 8004758:	7c54      	ldrb	r4, [r2, #17]
 800475a:	4323      	orrs	r3, r4
 800475c:	d01c      	beq.n	8004798 <statehandler_gamerun+0x224>
 800475e:	4c49      	ldr	r4, [pc, #292]	; (8004884 <statehandler_gamerun+0x310>)
 8004760:	4e37      	ldr	r6, [pc, #220]	; (8004840 <statehandler_gamerun+0x2cc>)
 8004762:	2300      	movs	r3, #0
 8004764:	744b      	strb	r3, [r1, #17]
 8004766:	7453      	strb	r3, [r2, #17]
 8004768:	2114      	movs	r1, #20
 800476a:	2206      	movs	r2, #6
 800476c:	746b      	strb	r3, [r5, #17]
 800476e:	7443      	strb	r3, [r0, #17]
 8004770:	4b35      	ldr	r3, [pc, #212]	; (8004848 <statehandler_gamerun+0x2d4>)
 8004772:	7021      	strb	r1, [r4, #0]
 8004774:	701a      	strb	r2, [r3, #0]
 8004776:	e71a      	b.n	80045ae <statehandler_gamerun+0x3a>
    SchedResumeEvent(createevilstar);
 8004778:	4836      	ldr	r0, [pc, #216]	; (8004854 <statehandler_gamerun+0x2e0>)
 800477a:	f7fe f955 	bl	8002a28 <SchedResumeEvent>
    SchedResumeEvent(movbullet);
 800477e:	4848      	ldr	r0, [pc, #288]	; (80048a0 <statehandler_gamerun+0x32c>)
 8004780:	f7fe f952 	bl	8002a28 <SchedResumeEvent>
    SchedResumeEvent(move_enemy_objects);
 8004784:	4836      	ldr	r0, [pc, #216]	; (8004860 <statehandler_gamerun+0x2ec>)
 8004786:	f7fe f94f 	bl	8002a28 <SchedResumeEvent>
    SchedResumeEvent(gameprogress);
 800478a:	4846      	ldr	r0, [pc, #280]	; (80048a4 <statehandler_gamerun+0x330>)
 800478c:	f7fe f94c 	bl	8002a28 <SchedResumeEvent>
 8004790:	e6f6      	b.n	8004580 <statehandler_gamerun+0xc>
      else gameevent = EVENT_NONE;
 8004792:	4b2d      	ldr	r3, [pc, #180]	; (8004848 <statehandler_gamerun+0x2d4>)
 8004794:	701a      	strb	r2, [r3, #0]
 8004796:	e70a      	b.n	80045ae <statehandler_gamerun+0x3a>
 8004798:	4e29      	ldr	r6, [pc, #164]	; (8004840 <statehandler_gamerun+0x2cc>)
 800479a:	e708      	b.n	80045ae <statehandler_gamerun+0x3a>
      prd = 0; 
 800479c:	2200      	movs	r2, #0
      Gamer.energy++;
 800479e:	3301      	adds	r3, #1
 80047a0:	7073      	strb	r3, [r6, #1]
      prd = 0; 
 80047a2:	6002      	str	r2, [r0, #0]
      Gamer.energy++;
 80047a4:	e733      	b.n	800460e <statehandler_gamerun+0x9a>
            ((MinMagaz.ln + 28) > Gamer.ln) && (MinMagaz.ln < (Gamer.ln + 15)) &&
 80047a6:	f994 2001 	ldrsb.w	r2, [r4, #1]
 80047aa:	f996 300c 	ldrsb.w	r3, [r6, #12]
 80047ae:	f102 011b 	add.w	r1, r2, #27
    if ((MinMagaz.cl <= (Gamer.cl + 29)) && ((MinMagaz.cl + 30) >= Gamer.cl) &&
 80047b2:	4299      	cmp	r1, r3
 80047b4:	f6ff af48 	blt.w	8004648 <statehandler_gamerun+0xd4>
            ((MinMagaz.ln + 28) > Gamer.ln) && (MinMagaz.ln < (Gamer.ln + 15)) &&
 80047b8:	330e      	adds	r3, #14
 80047ba:	429a      	cmp	r2, r3
 80047bc:	f73f af44 	bgt.w	8004648 <statehandler_gamerun+0xd4>
 80047c0:	f996 3000 	ldrsb.w	r3, [r6]
 80047c4:	2b00      	cmp	r3, #0
 80047c6:	f77f af3f 	ble.w	8004648 <statehandler_gamerun+0xd4>
      MinMagaz.state = 0;
 80047ca:	2100      	movs	r1, #0
      gameevent = EVENT_ENTERMAGAZ;
 80047cc:	2207      	movs	r2, #7
 80047ce:	4b1e      	ldr	r3, [pc, #120]	; (8004848 <statehandler_gamerun+0x2d4>)
      MinMagaz.state = 0;
 80047d0:	7021      	strb	r1, [r4, #0]
      gameevent = EVENT_ENTERMAGAZ;
 80047d2:	701a      	strb	r2, [r3, #0]
 80047d4:	e738      	b.n	8004648 <statehandler_gamerun+0xd4>
        IF_ANY_BTN_PRESS()
 80047d6:	4f2e      	ldr	r7, [pc, #184]	; (8004890 <statehandler_gamerun+0x31c>)
 80047d8:	4d2e      	ldr	r5, [pc, #184]	; (8004894 <statehandler_gamerun+0x320>)
        LCD_printsprite(Gamer.ln, Gamer.cl, &gamer_dead_1_sprite);
 80047da:	4a36      	ldr	r2, [pc, #216]	; (80048b4 <statehandler_gamerun+0x340>)
 80047dc:	f996 100d 	ldrsb.w	r1, [r6, #13]
 80047e0:	f996 000c 	ldrsb.w	r0, [r6, #12]
 80047e4:	f7fc fe6e 	bl	80014c4 <LCD_printsprite>
        IF_ANY_BTN_PRESS()
 80047e8:	7c69      	ldrb	r1, [r5, #17]
 80047ea:	482b      	ldr	r0, [pc, #172]	; (8004898 <statehandler_gamerun+0x324>)
 80047ec:	7c7a      	ldrb	r2, [r7, #17]
 80047ee:	f890 c011 	ldrb.w	ip, [r0, #17]
 80047f2:	430a      	orrs	r2, r1
 80047f4:	4913      	ldr	r1, [pc, #76]	; (8004844 <statehandler_gamerun+0x2d0>)
        deadgamerdrawcounter--;
 80047f6:	7823      	ldrb	r3, [r4, #0]
        IF_ANY_BTN_PRESS()
 80047f8:	ea42 020c 	orr.w	r2, r2, ip
 80047fc:	f891 c011 	ldrb.w	ip, [r1, #17]
        deadgamerdrawcounter--;
 8004800:	3b01      	subs	r3, #1
 8004802:	b2db      	uxtb	r3, r3
        IF_ANY_BTN_PRESS()
 8004804:	ea52 020c 	orrs.w	r2, r2, ip
        deadgamerdrawcounter--;
 8004808:	7023      	strb	r3, [r4, #0]
        IF_ANY_BTN_PRESS()
 800480a:	f43f af5f 	beq.w	80046cc <statehandler_gamerun+0x158>
 800480e:	2200      	movs	r2, #0
 8004810:	747a      	strb	r2, [r7, #17]
 8004812:	746a      	strb	r2, [r5, #17]
 8004814:	7442      	strb	r2, [r0, #17]
 8004816:	744a      	strb	r2, [r1, #17]
      if(deadgamerdrawcounter == 0)
 8004818:	2b00      	cmp	r3, #0
 800481a:	f47f aec8 	bne.w	80045ae <statehandler_gamerun+0x3a>
 800481e:	e758      	b.n	80046d2 <statehandler_gamerun+0x15e>
        LCD_printsprite(Gamer.ln, Gamer.cl, &gamer_dead_0_sprite);
 8004820:	4a25      	ldr	r2, [pc, #148]	; (80048b8 <statehandler_gamerun+0x344>)
 8004822:	f996 100d 	ldrsb.w	r1, [r6, #13]
 8004826:	f996 000c 	ldrsb.w	r0, [r6, #12]
 800482a:	f7fc fe4b 	bl	80014c4 <LCD_printsprite>
         deadgamerdrawcounter--;
 800482e:	7823      	ldrb	r3, [r4, #0]
 8004830:	3b01      	subs	r3, #1
 8004832:	b2db      	uxtb	r3, r3
 8004834:	7023      	strb	r3, [r4, #0]
 8004836:	e745      	b.n	80046c4 <statehandler_gamerun+0x150>
 8004838:	200008a8 	.word	0x200008a8
 800483c:	2000086c 	.word	0x2000086c
 8004840:	20000870 	.word	0x20000870
 8004844:	2000011c 	.word	0x2000011c
 8004848:	200008a7 	.word	0x200008a7
 800484c:	20000014 	.word	0x20000014
 8004850:	20000018 	.word	0x20000018
 8004854:	08002f19 	.word	0x08002f19
 8004858:	2000000f 	.word	0x2000000f
 800485c:	20000010 	.word	0x20000010
 8004860:	08003461 	.word	0x08003461
 8004864:	2000001c 	.word	0x2000001c
 8004868:	200008b0 	.word	0x200008b0
 800486c:	2000000c 	.word	0x2000000c
 8004870:	200007d0 	.word	0x200007d0
 8004874:	200007d8 	.word	0x200007d8
 8004878:	08009494 	.word	0x08009494
 800487c:	08009624 	.word	0x08009624
 8004880:	08009674 	.word	0x08009674
 8004884:	20000020 	.word	0x20000020
 8004888:	08008eec 	.word	0x08008eec
 800488c:	08008ef8 	.word	0x08008ef8
 8004890:	200000d4 	.word	0x200000d4
 8004894:	200000ec 	.word	0x200000ec
 8004898:	20000104 	.word	0x20000104
 800489c:	08009f9c 	.word	0x08009f9c
 80048a0:	08002d95 	.word	0x08002d95
 80048a4:	0800301d 	.word	0x0800301d
 80048a8:	08008ec0 	.word	0x08008ec0
 80048ac:	08008ecc 	.word	0x08008ecc
 80048b0:	08008ee0 	.word	0x08008ee0
 80048b4:	08009618 	.word	0x08009618
 80048b8:	080095c8 	.word	0x080095c8

080048bc <menu_getevent>:
{
 80048bc:	b430      	push	{r4, r5}
  IF_ANY_BTN_PRESS(
 80048be:	4d1b      	ldr	r5, [pc, #108]	; (800492c <menu_getevent+0x70>)
 80048c0:	4c1b      	ldr	r4, [pc, #108]	; (8004930 <menu_getevent+0x74>)
 80048c2:	481c      	ldr	r0, [pc, #112]	; (8004934 <menu_getevent+0x78>)
 80048c4:	7c62      	ldrb	r2, [r4, #17]
 80048c6:	7c6b      	ldrb	r3, [r5, #17]
 80048c8:	491b      	ldr	r1, [pc, #108]	; (8004938 <menu_getevent+0x7c>)
 80048ca:	4313      	orrs	r3, r2
 80048cc:	7c42      	ldrb	r2, [r0, #17]
 80048ce:	4313      	orrs	r3, r2
 80048d0:	7c4a      	ldrb	r2, [r1, #17]
 80048d2:	4313      	orrs	r3, r2
 80048d4:	d106      	bne.n	80048e4 <menu_getevent+0x28>
  if(somethinghappen) somethinghappen = 0;
 80048d6:	4b19      	ldr	r3, [pc, #100]	; (800493c <menu_getevent+0x80>)
 80048d8:	781a      	ldrb	r2, [r3, #0]
 80048da:	b992      	cbnz	r2, 8004902 <menu_getevent+0x46>
  else gameevent = EVENT_NONE;
 80048dc:	4b18      	ldr	r3, [pc, #96]	; (8004940 <menu_getevent+0x84>)
 80048de:	701a      	strb	r2, [r3, #0]
}
 80048e0:	bc30      	pop	{r4, r5}
 80048e2:	4770      	bx	lr
  IF_ANY_BTN_PRESS(
 80048e4:	2300      	movs	r3, #0
 80048e6:	4a17      	ldr	r2, [pc, #92]	; (8004944 <menu_getevent+0x88>)
 80048e8:	746b      	strb	r3, [r5, #17]
 80048ea:	7812      	ldrb	r2, [r2, #0]
 80048ec:	7463      	strb	r3, [r4, #17]
 80048ee:	2a04      	cmp	r2, #4
 80048f0:	7443      	strb	r3, [r0, #17]
 80048f2:	744b      	strb	r3, [r1, #17]
 80048f4:	d818      	bhi.n	8004928 <menu_getevent+0x6c>
 80048f6:	2a01      	cmp	r2, #1
 80048f8:	d907      	bls.n	800490a <menu_getevent+0x4e>
 80048fa:	2103      	movs	r1, #3
 80048fc:	4a10      	ldr	r2, [pc, #64]	; (8004940 <menu_getevent+0x84>)
 80048fe:	4b0f      	ldr	r3, [pc, #60]	; (800493c <menu_getevent+0x80>)
 8004900:	7011      	strb	r1, [r2, #0]
  if(somethinghappen) somethinghappen = 0;
 8004902:	2200      	movs	r2, #0
 8004904:	701a      	strb	r2, [r3, #0]
}
 8004906:	bc30      	pop	{r4, r5}
 8004908:	4770      	bx	lr
  IF_ANY_BTN_PRESS(
 800490a:	b132      	cbz	r2, 800491a <menu_getevent+0x5e>
 800490c:	2102      	movs	r1, #2
 800490e:	4a0c      	ldr	r2, [pc, #48]	; (8004940 <menu_getevent+0x84>)
 8004910:	4b0a      	ldr	r3, [pc, #40]	; (800493c <menu_getevent+0x80>)
 8004912:	7011      	strb	r1, [r2, #0]
  if(somethinghappen) somethinghappen = 0;
 8004914:	2200      	movs	r2, #0
 8004916:	701a      	strb	r2, [r3, #0]
 8004918:	e7f5      	b.n	8004906 <menu_getevent+0x4a>
  IF_ANY_BTN_PRESS(
 800491a:	2101      	movs	r1, #1
 800491c:	4a08      	ldr	r2, [pc, #32]	; (8004940 <menu_getevent+0x84>)
 800491e:	4b07      	ldr	r3, [pc, #28]	; (800493c <menu_getevent+0x80>)
 8004920:	7011      	strb	r1, [r2, #0]
  if(somethinghappen) somethinghappen = 0;
 8004922:	2200      	movs	r2, #0
 8004924:	701a      	strb	r2, [r3, #0]
 8004926:	e7ee      	b.n	8004906 <menu_getevent+0x4a>
 8004928:	4b04      	ldr	r3, [pc, #16]	; (800493c <menu_getevent+0x80>)
 800492a:	e7ea      	b.n	8004902 <menu_getevent+0x46>
 800492c:	200000d4 	.word	0x200000d4
 8004930:	200000ec 	.word	0x200000ec
 8004934:	20000104 	.word	0x20000104
 8004938:	2000011c 	.word	0x2000011c
 800493c:	200008b8 	.word	0x200008b8
 8004940:	200008a7 	.word	0x200008a7
 8004944:	200008a6 	.word	0x200008a6

08004948 <magaz_getevent>:
{
 8004948:	b430      	push	{r4, r5}
  IF_ANY_BTN_PRESS(
 800494a:	4825      	ldr	r0, [pc, #148]	; (80049e0 <magaz_getevent+0x98>)
 800494c:	4c25      	ldr	r4, [pc, #148]	; (80049e4 <magaz_getevent+0x9c>)
 800494e:	7c42      	ldrb	r2, [r0, #17]
 8004950:	4925      	ldr	r1, [pc, #148]	; (80049e8 <magaz_getevent+0xa0>)
 8004952:	7c63      	ldrb	r3, [r4, #17]
 8004954:	4313      	orrs	r3, r2
 8004956:	7c4a      	ldrb	r2, [r1, #17]
 8004958:	4313      	orrs	r3, r2
 800495a:	4a24      	ldr	r2, [pc, #144]	; (80049ec <magaz_getevent+0xa4>)
 800495c:	f892 c011 	ldrb.w	ip, [r2, #17]
 8004960:	ea53 030c 	orrs.w	r3, r3, ip
 8004964:	d106      	bne.n	8004974 <magaz_getevent+0x2c>
  if(somethinghappen) somethinghappen = 0;
 8004966:	4b22      	ldr	r3, [pc, #136]	; (80049f0 <magaz_getevent+0xa8>)
 8004968:	781a      	ldrb	r2, [r3, #0]
 800496a:	b9ba      	cbnz	r2, 800499c <magaz_getevent+0x54>
  else gameevent = EVENT_NONE;
 800496c:	4b21      	ldr	r3, [pc, #132]	; (80049f4 <magaz_getevent+0xac>)
 800496e:	701a      	strb	r2, [r3, #0]
}
 8004970:	bc30      	pop	{r4, r5}
 8004972:	4770      	bx	lr
  IF_ANY_BTN_PRESS(
 8004974:	2300      	movs	r3, #0
 8004976:	4d20      	ldr	r5, [pc, #128]	; (80049f8 <magaz_getevent+0xb0>)
 8004978:	7463      	strb	r3, [r4, #17]
 800497a:	f895 c000 	ldrb.w	ip, [r5]
 800497e:	7443      	strb	r3, [r0, #17]
 8004980:	744b      	strb	r3, [r1, #17]
 8004982:	7453      	strb	r3, [r2, #17]
 8004984:	f1bc 0f04 	cmp.w	ip, #4
 8004988:	d828      	bhi.n	80049dc <magaz_getevent+0x94>
 800498a:	e8df f00c 	tbb	[pc, ip]
 800498e:	1912      	.short	0x1912
 8004990:	0320      	.short	0x0320
 8004992:	0b          	.byte	0x0b
 8004993:	00          	.byte	0x00
 8004994:	2103      	movs	r1, #3
 8004996:	4a17      	ldr	r2, [pc, #92]	; (80049f4 <magaz_getevent+0xac>)
 8004998:	4b15      	ldr	r3, [pc, #84]	; (80049f0 <magaz_getevent+0xa8>)
 800499a:	7011      	strb	r1, [r2, #0]
  if(somethinghappen) somethinghappen = 0;
 800499c:	2200      	movs	r2, #0
 800499e:	701a      	strb	r2, [r3, #0]
}
 80049a0:	bc30      	pop	{r4, r5}
 80049a2:	4770      	bx	lr
  IF_ANY_BTN_PRESS(
 80049a4:	2104      	movs	r1, #4
 80049a6:	4a13      	ldr	r2, [pc, #76]	; (80049f4 <magaz_getevent+0xac>)
 80049a8:	4b11      	ldr	r3, [pc, #68]	; (80049f0 <magaz_getevent+0xa8>)
 80049aa:	7011      	strb	r1, [r2, #0]
  if(somethinghappen) somethinghappen = 0;
 80049ac:	2200      	movs	r2, #0
 80049ae:	701a      	strb	r2, [r3, #0]
 80049b0:	e7f6      	b.n	80049a0 <magaz_getevent+0x58>
  IF_ANY_BTN_PRESS(
 80049b2:	2106      	movs	r1, #6
 80049b4:	4a0f      	ldr	r2, [pc, #60]	; (80049f4 <magaz_getevent+0xac>)
 80049b6:	4b0e      	ldr	r3, [pc, #56]	; (80049f0 <magaz_getevent+0xa8>)
 80049b8:	7011      	strb	r1, [r2, #0]
  if(somethinghappen) somethinghappen = 0;
 80049ba:	2200      	movs	r2, #0
 80049bc:	701a      	strb	r2, [r3, #0]
 80049be:	e7ef      	b.n	80049a0 <magaz_getevent+0x58>
  IF_ANY_BTN_PRESS(
 80049c0:	2101      	movs	r1, #1
 80049c2:	4a0c      	ldr	r2, [pc, #48]	; (80049f4 <magaz_getevent+0xac>)
 80049c4:	4b0a      	ldr	r3, [pc, #40]	; (80049f0 <magaz_getevent+0xa8>)
 80049c6:	7011      	strb	r1, [r2, #0]
  if(somethinghappen) somethinghappen = 0;
 80049c8:	2200      	movs	r2, #0
 80049ca:	701a      	strb	r2, [r3, #0]
 80049cc:	e7e8      	b.n	80049a0 <magaz_getevent+0x58>
  IF_ANY_BTN_PRESS(
 80049ce:	2102      	movs	r1, #2
 80049d0:	4a08      	ldr	r2, [pc, #32]	; (80049f4 <magaz_getevent+0xac>)
 80049d2:	4b07      	ldr	r3, [pc, #28]	; (80049f0 <magaz_getevent+0xa8>)
 80049d4:	7011      	strb	r1, [r2, #0]
  if(somethinghappen) somethinghappen = 0;
 80049d6:	2200      	movs	r2, #0
 80049d8:	701a      	strb	r2, [r3, #0]
 80049da:	e7e1      	b.n	80049a0 <magaz_getevent+0x58>
 80049dc:	4b04      	ldr	r3, [pc, #16]	; (80049f0 <magaz_getevent+0xa8>)
 80049de:	e7dd      	b.n	800499c <magaz_getevent+0x54>
 80049e0:	200000ec 	.word	0x200000ec
 80049e4:	200000d4 	.word	0x200000d4
 80049e8:	20000104 	.word	0x20000104
 80049ec:	2000011c 	.word	0x2000011c
 80049f0:	200008b7 	.word	0x200008b7
 80049f4:	200008a7 	.word	0x200008a7
 80049f8:	200008a6 	.word	0x200008a6

080049fc <coursormovdisp>:
{
 80049fc:	b508      	push	{r3, lr}
  if(gamestate != STATE_MAGAZIN)
 80049fe:	4b74      	ldr	r3, [pc, #464]	; (8004bd0 <coursormovdisp+0x1d4>)
    if (joystick.down) {
 8004a00:	4874      	ldr	r0, [pc, #464]	; (8004bd4 <coursormovdisp+0x1d8>)
  if(gamestate != STATE_MAGAZIN)
 8004a02:	781b      	ldrb	r3, [r3, #0]
 8004a04:	2b08      	cmp	r3, #8
 8004a06:	d03d      	beq.n	8004a84 <coursormovdisp+0x88>
    if (joystick.down) {
 8004a08:	7802      	ldrb	r2, [r0, #0]
      coursorpos++; 
 8004a0a:	4973      	ldr	r1, [pc, #460]	; (8004bd8 <coursormovdisp+0x1dc>)
    if (joystick.down) {
 8004a0c:	f012 0f02 	tst.w	r2, #2
      coursorpos++; 
 8004a10:	780b      	ldrb	r3, [r1, #0]
    if (joystick.down) {
 8004a12:	d01e      	beq.n	8004a52 <coursormovdisp+0x56>
      coursorpos++; 
 8004a14:	3301      	adds	r3, #1
 8004a16:	b2db      	uxtb	r3, r3
      joystick.down = 0;
 8004a18:	f36f 0241 	bfc	r2, #1, #1
      if(coursorpos >= COURS_POS_3) coursorpos = COURS_POS_3;
 8004a1c:	2b01      	cmp	r3, #1
      coursorpos++; 
 8004a1e:	700b      	strb	r3, [r1, #0]
      joystick.down = 0;
 8004a20:	7002      	strb	r2, [r0, #0]
      if(coursorpos >= COURS_POS_3) coursorpos = COURS_POS_3;
 8004a22:	d924      	bls.n	8004a6e <coursormovdisp+0x72>
 8004a24:	2302      	movs	r3, #2
    if (joystick.up){
 8004a26:	7802      	ldrb	r2, [r0, #0]
      if(coursorpos >= COURS_POS_3) coursorpos = COURS_POS_3;
 8004a28:	700b      	strb	r3, [r1, #0]
    if (joystick.up){
 8004a2a:	f012 0f01 	tst.w	r2, #1
 8004a2e:	d00a      	beq.n	8004a46 <coursormovdisp+0x4a>
      joystick.up = 0;
 8004a30:	f36f 0200 	bfc	r2, #0, #1
 8004a34:	7002      	strb	r2, [r0, #0]
      if(coursorpos != COURS_POS_1) coursorpos--; 
 8004a36:	3b01      	subs	r3, #1
 8004a38:	b2db      	uxtb	r3, r3
 8004a3a:	700b      	strb	r3, [r1, #0]
    switch(coursorpos)
 8004a3c:	2b04      	cmp	r3, #4
 8004a3e:	f200 80bd 	bhi.w	8004bbc <coursormovdisp+0x1c0>
 8004a42:	2b01      	cmp	r3, #1
 8004a44:	d916      	bls.n	8004a74 <coursormovdisp+0x78>
}
 8004a46:	e8bd 4008 	ldmia.w	sp!, {r3, lr}
        LCD_printmenucoursor(6, 4);
 8004a4a:	2104      	movs	r1, #4
 8004a4c:	2006      	movs	r0, #6
 8004a4e:	f7fc bb8f 	b.w	8001170 <LCD_printmenucoursor>
    if (joystick.up){
 8004a52:	07d2      	lsls	r2, r2, #31
 8004a54:	d5f2      	bpl.n	8004a3c <coursormovdisp+0x40>
      joystick.up = 0;
 8004a56:	7802      	ldrb	r2, [r0, #0]
 8004a58:	f36f 0200 	bfc	r2, #0, #1
 8004a5c:	7002      	strb	r2, [r0, #0]
      if(coursorpos != COURS_POS_1) coursorpos--; 
 8004a5e:	2b00      	cmp	r3, #0
 8004a60:	d1e9      	bne.n	8004a36 <coursormovdisp+0x3a>
}
 8004a62:	e8bd 4008 	ldmia.w	sp!, {r3, lr}
        LCD_printmenucoursor(2, 4);
 8004a66:	2104      	movs	r1, #4
 8004a68:	2002      	movs	r0, #2
 8004a6a:	f7fc bb81 	b.w	8001170 <LCD_printmenucoursor>
    if (joystick.up){
 8004a6e:	b2d2      	uxtb	r2, r2
 8004a70:	07d2      	lsls	r2, r2, #31
 8004a72:	d4f0      	bmi.n	8004a56 <coursormovdisp+0x5a>
    switch(coursorpos)
 8004a74:	2b00      	cmp	r3, #0
 8004a76:	d0f4      	beq.n	8004a62 <coursormovdisp+0x66>
}
 8004a78:	e8bd 4008 	ldmia.w	sp!, {r3, lr}
        LCD_printmenucoursor(4, 4);
 8004a7c:	2104      	movs	r1, #4
 8004a7e:	4608      	mov	r0, r1
 8004a80:	f7fc bb76 	b.w	8001170 <LCD_printmenucoursor>
    if (joystick.right) {
 8004a84:	7803      	ldrb	r3, [r0, #0]
      if(coursorpos >= COURS_POS_5) coursorpos = COURS_POS_5;
 8004a86:	4954      	ldr	r1, [pc, #336]	; (8004bd8 <coursormovdisp+0x1dc>)
    if (joystick.right) {
 8004a88:	f013 0c08 	ands.w	ip, r3, #8
      if(coursorpos >= COURS_POS_5) coursorpos = COURS_POS_5;
 8004a8c:	780a      	ldrb	r2, [r1, #0]
    if (joystick.right) {
 8004a8e:	d11c      	bne.n	8004aca <coursormovdisp+0xce>
    if (joystick.left){
 8004a90:	f013 0f04 	tst.w	r3, #4
 8004a94:	d02a      	beq.n	8004aec <coursormovdisp+0xf0>
      joystick.left = 0;
 8004a96:	f36c 0382 	bfi	r3, ip, #2, #1
 8004a9a:	7003      	strb	r3, [r0, #0]
      if(coursorpos != COURS_POS_1) coursorpos--; 
 8004a9c:	bb1a      	cbnz	r2, 8004ae6 <coursormovdisp+0xea>
        LCD_printhorline(26, 63, 36);
 8004a9e:	2224      	movs	r2, #36	; 0x24
 8004aa0:	213f      	movs	r1, #63	; 0x3f
 8004aa2:	201a      	movs	r0, #26
 8004aa4:	f7fc fcd8 	bl	8001458 <LCD_printhorline>
        LCD_printhorline(26, 54, 36);
 8004aa8:	2224      	movs	r2, #36	; 0x24
 8004aaa:	2136      	movs	r1, #54	; 0x36
 8004aac:	201a      	movs	r0, #26
 8004aae:	f7fc fcd3 	bl	8001458 <LCD_printhorline>
        LCD_printvertline(9, 54, 36);
 8004ab2:	2224      	movs	r2, #36	; 0x24
 8004ab4:	2136      	movs	r1, #54	; 0x36
 8004ab6:	2009      	movs	r0, #9
 8004ab8:	f7fc fc3a 	bl	8001330 <LCD_printvertline>
}
 8004abc:	e8bd 4008 	ldmia.w	sp!, {r3, lr}
        LCD_printvertline(9, 54, 62);
 8004ac0:	223e      	movs	r2, #62	; 0x3e
 8004ac2:	2136      	movs	r1, #54	; 0x36
 8004ac4:	2009      	movs	r0, #9
 8004ac6:	f7fc bc33 	b.w	8001330 <LCD_printvertline>
      joystick.right = 0;
 8004aca:	f36f 03c3 	bfc	r3, #3, #1
      if(coursorpos >= COURS_POS_5) coursorpos = COURS_POS_5;
 8004ace:	2a03      	cmp	r2, #3
      joystick.right = 0;
 8004ad0:	7003      	strb	r3, [r0, #0]
      if(coursorpos >= COURS_POS_5) coursorpos = COURS_POS_5;
 8004ad2:	d974      	bls.n	8004bbe <coursormovdisp+0x1c2>
 8004ad4:	2204      	movs	r2, #4
    if (joystick.left){
 8004ad6:	b2db      	uxtb	r3, r3
 8004ad8:	f013 0f04 	tst.w	r3, #4
      if(coursorpos >= COURS_POS_5) coursorpos = COURS_POS_5;
 8004adc:	700a      	strb	r2, [r1, #0]
    if (joystick.left){
 8004ade:	d015      	beq.n	8004b0c <coursormovdisp+0x110>
      joystick.left = 0;
 8004ae0:	f36f 0382 	bfc	r3, #2, #1
 8004ae4:	7003      	strb	r3, [r0, #0]
      if(coursorpos != COURS_POS_1) coursorpos--; 
 8004ae6:	3a01      	subs	r2, #1
 8004ae8:	b2d2      	uxtb	r2, r2
 8004aea:	700a      	strb	r2, [r1, #0]
    switch(coursorpos)
 8004aec:	2a04      	cmp	r2, #4
 8004aee:	d865      	bhi.n	8004bbc <coursormovdisp+0x1c0>
 8004af0:	a301      	add	r3, pc, #4	; (adr r3, 8004af8 <coursormovdisp+0xfc>)
 8004af2:	f853 f022 	ldr.w	pc, [r3, r2, lsl #2]
 8004af6:	bf00      	nop
 8004af8:	08004a9f 	.word	0x08004a9f
 8004afc:	08004b91 	.word	0x08004b91
 8004b00:	08004b65 	.word	0x08004b65
 8004b04:	08004b39 	.word	0x08004b39
 8004b08:	08004b0d 	.word	0x08004b0d
        LCD_printhorline(14, 61, 111);
 8004b0c:	226f      	movs	r2, #111	; 0x6f
 8004b0e:	213d      	movs	r1, #61	; 0x3d
 8004b10:	200e      	movs	r0, #14
 8004b12:	f7fc fca1 	bl	8001458 <LCD_printhorline>
        LCD_printhorline(14, 62, 111);
 8004b16:	226f      	movs	r2, #111	; 0x6f
 8004b18:	213e      	movs	r1, #62	; 0x3e
 8004b1a:	200e      	movs	r0, #14
 8004b1c:	f7fc fc9c 	bl	8001458 <LCD_printhorline>
        LCD_printvertline(3, 58, 111);
 8004b20:	226f      	movs	r2, #111	; 0x6f
 8004b22:	213a      	movs	r1, #58	; 0x3a
 8004b24:	2003      	movs	r0, #3
 8004b26:	f7fc fc03 	bl	8001330 <LCD_printvertline>
}
 8004b2a:	e8bd 4008 	ldmia.w	sp!, {r3, lr}
        LCD_printvertline(3, 58, 125);
 8004b2e:	227d      	movs	r2, #125	; 0x7d
 8004b30:	213a      	movs	r1, #58	; 0x3a
 8004b32:	2003      	movs	r0, #3
 8004b34:	f7fc bbfc 	b.w	8001330 <LCD_printvertline>
        LCD_printhorline(14, 61, 97);
 8004b38:	2261      	movs	r2, #97	; 0x61
 8004b3a:	213d      	movs	r1, #61	; 0x3d
 8004b3c:	200e      	movs	r0, #14
 8004b3e:	f7fc fc8b 	bl	8001458 <LCD_printhorline>
        LCD_printhorline(14, 62, 97);
 8004b42:	2261      	movs	r2, #97	; 0x61
 8004b44:	213e      	movs	r1, #62	; 0x3e
 8004b46:	200e      	movs	r0, #14
 8004b48:	f7fc fc86 	bl	8001458 <LCD_printhorline>
        LCD_printvertline(3, 58, 97);
 8004b4c:	2261      	movs	r2, #97	; 0x61
 8004b4e:	213a      	movs	r1, #58	; 0x3a
 8004b50:	2003      	movs	r0, #3
 8004b52:	f7fc fbed 	bl	8001330 <LCD_printvertline>
}
 8004b56:	e8bd 4008 	ldmia.w	sp!, {r3, lr}
        LCD_printvertline(3, 58, 111);
 8004b5a:	226f      	movs	r2, #111	; 0x6f
 8004b5c:	213a      	movs	r1, #58	; 0x3a
 8004b5e:	2003      	movs	r0, #3
 8004b60:	f7fc bbe6 	b.w	8001330 <LCD_printvertline>
        LCD_printhorline(18, 61, 78);
 8004b64:	224e      	movs	r2, #78	; 0x4e
 8004b66:	213d      	movs	r1, #61	; 0x3d
 8004b68:	2012      	movs	r0, #18
 8004b6a:	f7fc fc75 	bl	8001458 <LCD_printhorline>
        LCD_printhorline(18, 62, 78);
 8004b6e:	224e      	movs	r2, #78	; 0x4e
 8004b70:	213e      	movs	r1, #62	; 0x3e
 8004b72:	2012      	movs	r0, #18
 8004b74:	f7fc fc70 	bl	8001458 <LCD_printhorline>
        LCD_printvertline(3, 58, 78);
 8004b78:	224e      	movs	r2, #78	; 0x4e
 8004b7a:	213a      	movs	r1, #58	; 0x3a
 8004b7c:	2003      	movs	r0, #3
 8004b7e:	f7fc fbd7 	bl	8001330 <LCD_printvertline>
}
 8004b82:	e8bd 4008 	ldmia.w	sp!, {r3, lr}
        LCD_printvertline(3, 58, 96);
 8004b86:	2260      	movs	r2, #96	; 0x60
 8004b88:	213a      	movs	r1, #58	; 0x3a
 8004b8a:	2003      	movs	r0, #3
 8004b8c:	f7fc bbd0 	b.w	8001330 <LCD_printvertline>
        LCD_printhorline(12, 61, 66);
 8004b90:	2242      	movs	r2, #66	; 0x42
 8004b92:	213d      	movs	r1, #61	; 0x3d
 8004b94:	200c      	movs	r0, #12
 8004b96:	f7fc fc5f 	bl	8001458 <LCD_printhorline>
        LCD_printhorline(12, 62, 66);
 8004b9a:	2242      	movs	r2, #66	; 0x42
 8004b9c:	213e      	movs	r1, #62	; 0x3e
 8004b9e:	200c      	movs	r0, #12
 8004ba0:	f7fc fc5a 	bl	8001458 <LCD_printhorline>
        LCD_printvertline(3, 58, 66);
 8004ba4:	2242      	movs	r2, #66	; 0x42
 8004ba6:	213a      	movs	r1, #58	; 0x3a
 8004ba8:	2003      	movs	r0, #3
 8004baa:	f7fc fbc1 	bl	8001330 <LCD_printvertline>
}
 8004bae:	e8bd 4008 	ldmia.w	sp!, {r3, lr}
        LCD_printvertline(3, 58, 78);
 8004bb2:	224e      	movs	r2, #78	; 0x4e
 8004bb4:	213a      	movs	r1, #58	; 0x3a
 8004bb6:	2003      	movs	r0, #3
 8004bb8:	f7fc bbba 	b.w	8001330 <LCD_printvertline>
}
 8004bbc:	bd08      	pop	{r3, pc}
    if (joystick.left){
 8004bbe:	7803      	ldrb	r3, [r0, #0]
      else coursorpos++; 
 8004bc0:	3201      	adds	r2, #1
 8004bc2:	b2d2      	uxtb	r2, r2
    if (joystick.left){
 8004bc4:	f013 0f04 	tst.w	r3, #4
      else coursorpos++; 
 8004bc8:	700a      	strb	r2, [r1, #0]
    if (joystick.left){
 8004bca:	d08f      	beq.n	8004aec <coursormovdisp+0xf0>
 8004bcc:	e788      	b.n	8004ae0 <coursormovdisp+0xe4>
 8004bce:	bf00      	nop
 8004bd0:	200008a8 	.word	0x200008a8
 8004bd4:	20000138 	.word	0x20000138
 8004bd8:	200008a6 	.word	0x200008a6

08004bdc <statehandler_menumain>:
{
 8004bdc:	b510      	push	{r4, lr}
  gamestate = STATE_MAINMENU;
 8004bde:	2400      	movs	r4, #0
 8004be0:	4b10      	ldr	r3, [pc, #64]	; (8004c24 <statehandler_menumain+0x48>)
 8004be2:	701c      	strb	r4, [r3, #0]
  menu_getevent();
 8004be4:	f7ff fe6a 	bl	80048bc <menu_getevent>
  LCD_printstr8x5((uint8*)"ГАЛАКТИЧЕСКИЙ ЗВЕЗДЕЦ", 0, 0);
 8004be8:	4622      	mov	r2, r4
 8004bea:	4621      	mov	r1, r4
 8004bec:	480e      	ldr	r0, [pc, #56]	; (8004c28 <statehandler_menumain+0x4c>)
 8004bee:	f7fb fe61 	bl	80008b4 <LCD_printstr8x5>
  LCD_printstr8x5((uint8*)"НОВАЯ ИГРА", 2, 19);
 8004bf2:	2213      	movs	r2, #19
 8004bf4:	2102      	movs	r1, #2
 8004bf6:	480d      	ldr	r0, [pc, #52]	; (8004c2c <statehandler_menumain+0x50>)
 8004bf8:	f7fb fe5c 	bl	80008b4 <LCD_printstr8x5>
  LCD_printstr8x5((uint8*)"ЗАГРУЗИТЬ ИГРУ", 4, 19);
 8004bfc:	2213      	movs	r2, #19
 8004bfe:	2104      	movs	r1, #4
 8004c00:	480b      	ldr	r0, [pc, #44]	; (8004c30 <statehandler_menumain+0x54>)
 8004c02:	f7fb fe57 	bl	80008b4 <LCD_printstr8x5>
  LCD_printstr8x5((uint8*)"ВЫЙТИ", 6, 19);
 8004c06:	2213      	movs	r2, #19
 8004c08:	2106      	movs	r1, #6
 8004c0a:	480a      	ldr	r0, [pc, #40]	; (8004c34 <statehandler_menumain+0x58>)
 8004c0c:	f7fb fe52 	bl	80008b4 <LCD_printstr8x5>
  coursormovdisp();
 8004c10:	f7ff fef4 	bl	80049fc <coursormovdisp>
  if(gameevent == EVENT_SELPOS_2) coursorpos = COURS_POS_1; // coursor position when entering the load menu in "SLOT1"
 8004c14:	4b08      	ldr	r3, [pc, #32]	; (8004c38 <statehandler_menumain+0x5c>)
 8004c16:	781b      	ldrb	r3, [r3, #0]
 8004c18:	2b02      	cmp	r3, #2
 8004c1a:	bf04      	itt	eq
 8004c1c:	4b07      	ldreq	r3, [pc, #28]	; (8004c3c <statehandler_menumain+0x60>)
 8004c1e:	701c      	strbeq	r4, [r3, #0]
}
 8004c20:	bd10      	pop	{r4, pc}
 8004c22:	bf00      	nop
 8004c24:	200008a8 	.word	0x200008a8
 8004c28:	08008f04 	.word	0x08008f04
 8004c2c:	08008f1c 	.word	0x08008f1c
 8004c30:	08008f28 	.word	0x08008f28
 8004c34:	08008f38 	.word	0x08008f38
 8004c38:	200008a7 	.word	0x200008a7
 8004c3c:	200008a6 	.word	0x200008a6

08004c40 <statehandler_menuload>:
{ 
 8004c40:	b510      	push	{r4, lr}
  gamestate = STATE_LOADMENU;
 8004c42:	2401      	movs	r4, #1
 8004c44:	4b10      	ldr	r3, [pc, #64]	; (8004c88 <statehandler_menuload+0x48>)
 8004c46:	701c      	strb	r4, [r3, #0]
  menu_getevent();
 8004c48:	f7ff fe38 	bl	80048bc <menu_getevent>
  LCD_printstr8x5((uint8*)"ЗАГРУЗКА ИГРЫ", 0, 5);
 8004c4c:	2205      	movs	r2, #5
 8004c4e:	2100      	movs	r1, #0
 8004c50:	480e      	ldr	r0, [pc, #56]	; (8004c8c <statehandler_menuload+0x4c>)
 8004c52:	f7fb fe2f 	bl	80008b4 <LCD_printstr8x5>
  LCD_printstr8x5(gameslot1, 2, 19);
 8004c56:	2213      	movs	r2, #19
 8004c58:	2102      	movs	r1, #2
 8004c5a:	480d      	ldr	r0, [pc, #52]	; (8004c90 <statehandler_menuload+0x50>)
 8004c5c:	f7fb fe2a 	bl	80008b4 <LCD_printstr8x5>
  LCD_printstr8x5(gameslot2, 4, 19);
 8004c60:	2213      	movs	r2, #19
 8004c62:	2104      	movs	r1, #4
 8004c64:	480b      	ldr	r0, [pc, #44]	; (8004c94 <statehandler_menuload+0x54>)
 8004c66:	f7fb fe25 	bl	80008b4 <LCD_printstr8x5>
  LCD_printstr8x5((uint8*)"НАЗАД", 6, 19);
 8004c6a:	2213      	movs	r2, #19
 8004c6c:	2106      	movs	r1, #6
 8004c6e:	480a      	ldr	r0, [pc, #40]	; (8004c98 <statehandler_menuload+0x58>)
 8004c70:	f7fb fe20 	bl	80008b4 <LCD_printstr8x5>
  coursormovdisp();
 8004c74:	f7ff fec2 	bl	80049fc <coursormovdisp>
  if(gameevent == EVENT_SELPOS_3) coursorpos = COURS_POS_2; // coursor position when returning to the main menu in "LOAD"
 8004c78:	4b08      	ldr	r3, [pc, #32]	; (8004c9c <statehandler_menuload+0x5c>)
 8004c7a:	781b      	ldrb	r3, [r3, #0]
 8004c7c:	2b03      	cmp	r3, #3
 8004c7e:	bf04      	itt	eq
 8004c80:	4b07      	ldreq	r3, [pc, #28]	; (8004ca0 <statehandler_menuload+0x60>)
 8004c82:	701c      	strbeq	r4, [r3, #0]
}
 8004c84:	bd10      	pop	{r4, pc}
 8004c86:	bf00      	nop
 8004c88:	200008a8 	.word	0x200008a8
 8004c8c:	08008f40 	.word	0x08008f40
 8004c90:	20000024 	.word	0x20000024
 8004c94:	20000038 	.word	0x20000038
 8004c98:	08008f50 	.word	0x08008f50
 8004c9c:	200008a7 	.word	0x200008a7
 8004ca0:	200008a6 	.word	0x200008a6

08004ca4 <statehandler_menupause>:
{
 8004ca4:	b510      	push	{r4, lr}
  if(gamestate == STATE_RUNGAME)
 8004ca6:	4c16      	ldr	r4, [pc, #88]	; (8004d00 <statehandler_menupause+0x5c>)
 8004ca8:	7823      	ldrb	r3, [r4, #0]
 8004caa:	2b07      	cmp	r3, #7
 8004cac:	d01b      	beq.n	8004ce6 <statehandler_menupause+0x42>
  gamestate = STATE_PAUSEMENU;
 8004cae:	2303      	movs	r3, #3
 8004cb0:	7023      	strb	r3, [r4, #0]
  menu_getevent();
 8004cb2:	f7ff fe03 	bl	80048bc <menu_getevent>
  LCD_printstr8x5((uint8*)"ПАУЗА", 0, 5);
 8004cb6:	2205      	movs	r2, #5
 8004cb8:	2100      	movs	r1, #0
 8004cba:	4812      	ldr	r0, [pc, #72]	; (8004d04 <statehandler_menupause+0x60>)
 8004cbc:	f7fb fdfa 	bl	80008b4 <LCD_printstr8x5>
  LCD_printstr8x5((uint8*)"СОХРАНИТЬ", 2, 19);
 8004cc0:	2213      	movs	r2, #19
 8004cc2:	2102      	movs	r1, #2
 8004cc4:	4810      	ldr	r0, [pc, #64]	; (8004d08 <statehandler_menupause+0x64>)
 8004cc6:	f7fb fdf5 	bl	80008b4 <LCD_printstr8x5>
  LCD_printstr8x5((uint8*)"ВЕРНУТЬСЯ К ИГРЕ", 4, 19);
 8004cca:	2213      	movs	r2, #19
 8004ccc:	2104      	movs	r1, #4
 8004cce:	480f      	ldr	r0, [pc, #60]	; (8004d0c <statehandler_menupause+0x68>)
 8004cd0:	f7fb fdf0 	bl	80008b4 <LCD_printstr8x5>
  LCD_printstr8x5((uint8*)"ВЫЙТИ", 6, 19);
 8004cd4:	2213      	movs	r2, #19
 8004cd6:	2106      	movs	r1, #6
 8004cd8:	480d      	ldr	r0, [pc, #52]	; (8004d10 <statehandler_menupause+0x6c>)
 8004cda:	f7fb fdeb 	bl	80008b4 <LCD_printstr8x5>
}
 8004cde:	e8bd 4010 	ldmia.w	sp!, {r4, lr}
  coursormovdisp();
 8004ce2:	f7ff be8b 	b.w	80049fc <coursormovdisp>
    SchedPauseEvent(createevilstar);
 8004ce6:	480b      	ldr	r0, [pc, #44]	; (8004d14 <statehandler_menupause+0x70>)
 8004ce8:	f7fd fe84 	bl	80029f4 <SchedPauseEvent>
    SchedPauseEvent(movbullet);
 8004cec:	480a      	ldr	r0, [pc, #40]	; (8004d18 <statehandler_menupause+0x74>)
 8004cee:	f7fd fe81 	bl	80029f4 <SchedPauseEvent>
    SchedPauseEvent(move_enemy_objects);
 8004cf2:	480a      	ldr	r0, [pc, #40]	; (8004d1c <statehandler_menupause+0x78>)
 8004cf4:	f7fd fe7e 	bl	80029f4 <SchedPauseEvent>
    SchedPauseEvent(gameprogress);
 8004cf8:	4809      	ldr	r0, [pc, #36]	; (8004d20 <statehandler_menupause+0x7c>)
 8004cfa:	f7fd fe7b 	bl	80029f4 <SchedPauseEvent>
 8004cfe:	e7d6      	b.n	8004cae <statehandler_menupause+0xa>
 8004d00:	200008a8 	.word	0x200008a8
 8004d04:	08008f58 	.word	0x08008f58
 8004d08:	08008f60 	.word	0x08008f60
 8004d0c:	08008f6c 	.word	0x08008f6c
 8004d10:	08008f38 	.word	0x08008f38
 8004d14:	08002f19 	.word	0x08002f19
 8004d18:	08002d95 	.word	0x08002d95
 8004d1c:	08003461 	.word	0x08003461
 8004d20:	0800301d 	.word	0x0800301d

08004d24 <statehandler_menusave>:
{
 8004d24:	b510      	push	{r4, lr}
  gamestate = STATE_SAVEMENU;
 8004d26:	2404      	movs	r4, #4
 8004d28:	4b11      	ldr	r3, [pc, #68]	; (8004d70 <statehandler_menusave+0x4c>)
 8004d2a:	701c      	strb	r4, [r3, #0]
  menu_getevent();
 8004d2c:	f7ff fdc6 	bl	80048bc <menu_getevent>
  LCD_printstr8x5((uint8*)"СОХРАНЕНИЕ ИГРЫ", 0, 5);
 8004d30:	2205      	movs	r2, #5
 8004d32:	2100      	movs	r1, #0
 8004d34:	480f      	ldr	r0, [pc, #60]	; (8004d74 <statehandler_menusave+0x50>)
 8004d36:	f7fb fdbd 	bl	80008b4 <LCD_printstr8x5>
  LCD_printstr8x5(gameslot1, 2, 19);
 8004d3a:	2213      	movs	r2, #19
 8004d3c:	2102      	movs	r1, #2
 8004d3e:	480e      	ldr	r0, [pc, #56]	; (8004d78 <statehandler_menusave+0x54>)
 8004d40:	f7fb fdb8 	bl	80008b4 <LCD_printstr8x5>
  LCD_printstr8x5(gameslot2, 4, 19);
 8004d44:	2213      	movs	r2, #19
 8004d46:	4621      	mov	r1, r4
 8004d48:	480c      	ldr	r0, [pc, #48]	; (8004d7c <statehandler_menusave+0x58>)
 8004d4a:	f7fb fdb3 	bl	80008b4 <LCD_printstr8x5>
  LCD_printstr8x5((uint8*)"НАЗАД", 6, 19);
 8004d4e:	2213      	movs	r2, #19
 8004d50:	2106      	movs	r1, #6
 8004d52:	480b      	ldr	r0, [pc, #44]	; (8004d80 <statehandler_menusave+0x5c>)
 8004d54:	f7fb fdae 	bl	80008b4 <LCD_printstr8x5>
  coursormovdisp();
 8004d58:	f7ff fe50 	bl	80049fc <coursormovdisp>
  if(gameevent == EVENT_SELPOS_3) coursorpos = COURS_POS_1; // coursor position when returning to the pause menu in "SAVE"
 8004d5c:	4b09      	ldr	r3, [pc, #36]	; (8004d84 <statehandler_menusave+0x60>)
 8004d5e:	781b      	ldrb	r3, [r3, #0]
 8004d60:	2b03      	cmp	r3, #3
 8004d62:	d000      	beq.n	8004d66 <statehandler_menusave+0x42>
}
 8004d64:	bd10      	pop	{r4, pc}
  if(gameevent == EVENT_SELPOS_3) coursorpos = COURS_POS_1; // coursor position when returning to the pause menu in "SAVE"
 8004d66:	2200      	movs	r2, #0
 8004d68:	4b07      	ldr	r3, [pc, #28]	; (8004d88 <statehandler_menusave+0x64>)
 8004d6a:	701a      	strb	r2, [r3, #0]
}
 8004d6c:	bd10      	pop	{r4, pc}
 8004d6e:	bf00      	nop
 8004d70:	200008a8 	.word	0x200008a8
 8004d74:	08008f80 	.word	0x08008f80
 8004d78:	20000024 	.word	0x20000024
 8004d7c:	20000038 	.word	0x20000038
 8004d80:	08008f50 	.word	0x08008f50
 8004d84:	200008a7 	.word	0x200008a7
 8004d88:	200008a6 	.word	0x200008a6

08004d8c <statehandler_magazin>:
{
 8004d8c:	e92d 41f0 	stmdb	sp!, {r4, r5, r6, r7, r8, lr}
  if(gamestate == STATE_RUNGAME){
 8004d90:	4c81      	ldr	r4, [pc, #516]	; (8004f98 <statehandler_magazin+0x20c>)
{
 8004d92:	b082      	sub	sp, #8
  if(gamestate == STATE_RUNGAME){
 8004d94:	7823      	ldrb	r3, [r4, #0]
 8004d96:	2b07      	cmp	r3, #7
 8004d98:	d06a      	beq.n	8004e70 <statehandler_magazin+0xe4>
  gamestate = STATE_MAGAZIN; 
 8004d9a:	2508      	movs	r5, #8
  if(gameevent == EVENT_ENTERMAGAZ) // entering magazin animation
 8004d9c:	4f7f      	ldr	r7, [pc, #508]	; (8004f9c <statehandler_magazin+0x210>)
  gamestate = STATE_MAGAZIN; 
 8004d9e:	7025      	strb	r5, [r4, #0]
  if(gameevent == EVENT_ENTERMAGAZ) // entering magazin animation
 8004da0:	783e      	ldrb	r6, [r7, #0]
 8004da2:	2e07      	cmp	r6, #7
 8004da4:	d143      	bne.n	8004e2e <statehandler_magazin+0xa2>
    if(GameFlags.FirstMagazEnter) {
 8004da6:	f8df 81f8 	ldr.w	r8, [pc, #504]	; 8004fa0 <statehandler_magazin+0x214>
 8004daa:	f898 3000 	ldrb.w	r3, [r8]
 8004dae:	f013 0404 	ands.w	r4, r3, #4
 8004db2:	d06a      	beq.n	8004e8a <statehandler_magazin+0xfe>
      if(k == 0){
 8004db4:	4d7b      	ldr	r5, [pc, #492]	; (8004fa4 <statehandler_magazin+0x218>)
 8004db6:	782c      	ldrb	r4, [r5, #0]
 8004db8:	2c00      	cmp	r4, #0
 8004dba:	f000 80c9 	beq.w	8004f50 <statehandler_magazin+0x1c4>
        IF_ANY_BTN_PRESS()
 8004dbe:	4e7a      	ldr	r6, [pc, #488]	; (8004fa8 <statehandler_magazin+0x21c>)
 8004dc0:	487a      	ldr	r0, [pc, #488]	; (8004fac <statehandler_magazin+0x220>)
 8004dc2:	7c73      	ldrb	r3, [r6, #17]
 8004dc4:	7c42      	ldrb	r2, [r0, #17]
 8004dc6:	497a      	ldr	r1, [pc, #488]	; (8004fb0 <statehandler_magazin+0x224>)
 8004dc8:	4313      	orrs	r3, r2
 8004dca:	7c4f      	ldrb	r7, [r1, #17]
 8004dcc:	4a79      	ldr	r2, [pc, #484]	; (8004fb4 <statehandler_magazin+0x228>)
 8004dce:	433b      	orrs	r3, r7
 8004dd0:	7c57      	ldrb	r7, [r2, #17]
 8004dd2:	433b      	orrs	r3, r7
 8004dd4:	d125      	bne.n	8004e22 <statehandler_magazin+0x96>
        k--;
 8004dd6:	3c01      	subs	r4, #1
 8004dd8:	702c      	strb	r4, [r5, #0]
  if(Gamer.cl > 8) Gamer.cl -= 4; else Gamer.cl = 0;
 8004dda:	4b77      	ldr	r3, [pc, #476]	; (8004fb8 <statehandler_magazin+0x22c>)
 8004ddc:	f993 100d 	ldrsb.w	r1, [r3, #13]
  if(Gamer.ln < 40) Gamer.ln += 4; else Gamer.ln = 47;
 8004de0:	f993 000c 	ldrsb.w	r0, [r3, #12]
  if(Gamer.cl > 8) Gamer.cl -= 4; else Gamer.cl = 0;
 8004de4:	2908      	cmp	r1, #8
 8004de6:	bfca      	itet	gt
 8004de8:	3904      	subgt	r1, #4
 8004dea:	2100      	movle	r1, #0
 8004dec:	b249      	sxtbgt	r1, r1
  if(Gamer.ln < 40) Gamer.ln += 4; else Gamer.ln = 47;
 8004dee:	2827      	cmp	r0, #39	; 0x27
 8004df0:	bfc8      	it	gt
 8004df2:	202f      	movgt	r0, #47	; 0x2f
  if ((Gamer.health > 0)) {
 8004df4:	f993 2000 	ldrsb.w	r2, [r3]
  if(Gamer.ln < 40) Gamer.ln += 4; else Gamer.ln = 47;
 8004df8:	bfdc      	itt	le
 8004dfa:	3004      	addle	r0, #4
 8004dfc:	b240      	sxtble	r0, r0
  if ((Gamer.health > 0)) {
 8004dfe:	2a00      	cmp	r2, #0
 8004e00:	7359      	strb	r1, [r3, #13]
  if(Gamer.ln < 40) Gamer.ln += 4; else Gamer.ln = 47;
 8004e02:	7318      	strb	r0, [r3, #12]
  if ((Gamer.health > 0)) {
 8004e04:	dd07      	ble.n	8004e16 <statehandler_magazin+0x8a>
    if (Gamer.gasmask_health > 0) LCD_printsprite(Gamer.ln, Gamer.cl, &gamer_gas_sprite);
 8004e06:	f993 3003 	ldrsb.w	r3, [r3, #3]
 8004e0a:	2b00      	cmp	r3, #0
 8004e0c:	bfcc      	ite	gt
 8004e0e:	4a6b      	ldrgt	r2, [pc, #428]	; (8004fbc <statehandler_magazin+0x230>)
    else LCD_printsprite(Gamer.ln, Gamer.cl, &gamer_sprite);
 8004e10:	4a6b      	ldrle	r2, [pc, #428]	; (8004fc0 <statehandler_magazin+0x234>)
 8004e12:	f7fc fb57 	bl	80014c4 <LCD_printsprite>
  LCD_printgamestatbar(&Gamer);
 8004e16:	4868      	ldr	r0, [pc, #416]	; (8004fb8 <statehandler_magazin+0x22c>)
}
 8004e18:	b002      	add	sp, #8
 8004e1a:	e8bd 41f0 	ldmia.w	sp!, {r4, r5, r6, r7, r8, lr}
  LCD_printgamestatbar(&Gamer);
 8004e1e:	f7fc bd11 	b.w	8001844 <LCD_printgamestatbar>
        IF_ANY_BTN_PRESS()
 8004e22:	2300      	movs	r3, #0
 8004e24:	7473      	strb	r3, [r6, #17]
 8004e26:	7443      	strb	r3, [r0, #17]
 8004e28:	744b      	strb	r3, [r1, #17]
 8004e2a:	7453      	strb	r3, [r2, #17]
 8004e2c:	e7d3      	b.n	8004dd6 <statehandler_magazin+0x4a>
    coursormovdisp();
 8004e2e:	f7ff fde5 	bl	80049fc <coursormovdisp>
    magaz_getevent();
 8004e32:	f7ff fd89 	bl	8004948 <magaz_getevent>
    LCD_printsprite(8, 64, &magazin_sprite);
 8004e36:	2140      	movs	r1, #64	; 0x40
 8004e38:	4628      	mov	r0, r5
 8004e3a:	4a62      	ldr	r2, [pc, #392]	; (8004fc4 <statehandler_magazin+0x238>)
 8004e3c:	f7fc fb42 	bl	80014c4 <LCD_printsprite>
    LCD_printstr8x5((uint8*)"ЦЕНА:", 3, 94);
 8004e40:	225e      	movs	r2, #94	; 0x5e
 8004e42:	2103      	movs	r1, #3
 8004e44:	4860      	ldr	r0, [pc, #384]	; (8004fc8 <statehandler_magazin+0x23c>)
 8004e46:	f7fb fd35 	bl	80008b4 <LCD_printstr8x5>
    LCD_printstr8x5((uint8*)"магазин", 1, 80);
 8004e4a:	2250      	movs	r2, #80	; 0x50
 8004e4c:	2101      	movs	r1, #1
 8004e4e:	485f      	ldr	r0, [pc, #380]	; (8004fcc <statehandler_magazin+0x240>)
 8004e50:	f7fb fd30 	bl	80008b4 <LCD_printstr8x5>
    LCD_printstr8x5((uint8*)"ВЫХ.", 7, 38);
 8004e54:	2226      	movs	r2, #38	; 0x26
 8004e56:	2107      	movs	r1, #7
 8004e58:	485d      	ldr	r0, [pc, #372]	; (8004fd0 <statehandler_magazin+0x244>)
 8004e5a:	f7fb fd2b 	bl	80008b4 <LCD_printstr8x5>
    switch(coursorpos)
 8004e5e:	4b5d      	ldr	r3, [pc, #372]	; (8004fd4 <statehandler_magazin+0x248>)
 8004e60:	781b      	ldrb	r3, [r3, #0]
 8004e62:	2b04      	cmp	r3, #4
 8004e64:	d8b9      	bhi.n	8004dda <statehandler_magazin+0x4e>
 8004e66:	e8df f003 	tbb	[pc, r3]
 8004e6a:	646d      	.short	0x646d
 8004e6c:	4b5b      	.short	0x4b5b
 8004e6e:	3b          	.byte	0x3b
 8004e6f:	00          	.byte	0x00
    SchedPauseEvent(createevilstar);
 8004e70:	4859      	ldr	r0, [pc, #356]	; (8004fd8 <statehandler_magazin+0x24c>)
 8004e72:	f7fd fdbf 	bl	80029f4 <SchedPauseEvent>
    SchedPauseEvent(movbullet);
 8004e76:	4859      	ldr	r0, [pc, #356]	; (8004fdc <statehandler_magazin+0x250>)
 8004e78:	f7fd fdbc 	bl	80029f4 <SchedPauseEvent>
    SchedPauseEvent(move_enemy_objects);
 8004e7c:	4858      	ldr	r0, [pc, #352]	; (8004fe0 <statehandler_magazin+0x254>)
 8004e7e:	f7fd fdb9 	bl	80029f4 <SchedPauseEvent>
    SchedPauseEvent(gameprogress);
 8004e82:	4858      	ldr	r0, [pc, #352]	; (8004fe4 <statehandler_magazin+0x258>)
 8004e84:	f7fd fdb6 	bl	80029f4 <SchedPauseEvent>
 8004e88:	e787      	b.n	8004d9a <statehandler_magazin+0xe>
      LCD_printsprite(8, (64 + (int8)j * 4), &magazin_sprite);
 8004e8a:	4e57      	ldr	r6, [pc, #348]	; (8004fe8 <statehandler_magazin+0x25c>)
 8004e8c:	4628      	mov	r0, r5
 8004e8e:	f996 1000 	ldrsb.w	r1, [r6]
 8004e92:	4a4c      	ldr	r2, [pc, #304]	; (8004fc4 <statehandler_magazin+0x238>)
 8004e94:	3110      	adds	r1, #16
 8004e96:	0089      	lsls	r1, r1, #2
 8004e98:	b249      	sxtb	r1, r1
 8004e9a:	f7fc fb13 	bl	80014c4 <LCD_printsprite>
      IF_ANY_BTN_PRESS()
 8004e9e:	4d43      	ldr	r5, [pc, #268]	; (8004fac <statehandler_magazin+0x220>)
 8004ea0:	f8df c104 	ldr.w	ip, [pc, #260]	; 8004fa8 <statehandler_magazin+0x21c>
 8004ea4:	7c69      	ldrb	r1, [r5, #17]
 8004ea6:	4842      	ldr	r0, [pc, #264]	; (8004fb0 <statehandler_magazin+0x224>)
 8004ea8:	f89c 2011 	ldrb.w	r2, [ip, #17]
 8004eac:	f890 e011 	ldrb.w	lr, [r0, #17]
 8004eb0:	430a      	orrs	r2, r1
 8004eb2:	4940      	ldr	r1, [pc, #256]	; (8004fb4 <statehandler_magazin+0x228>)
      j--;
 8004eb4:	7833      	ldrb	r3, [r6, #0]
      IF_ANY_BTN_PRESS()
 8004eb6:	ea42 020e 	orr.w	r2, r2, lr
 8004eba:	f891 e011 	ldrb.w	lr, [r1, #17]
      j--;
 8004ebe:	3b01      	subs	r3, #1
 8004ec0:	b2db      	uxtb	r3, r3
      IF_ANY_BTN_PRESS()
 8004ec2:	ea52 020e 	orrs.w	r2, r2, lr
      j--;
 8004ec6:	7033      	strb	r3, [r6, #0]
      IF_ANY_BTN_PRESS()
 8004ec8:	d004      	beq.n	8004ed4 <statehandler_magazin+0x148>
 8004eca:	f88c 4011 	strb.w	r4, [ip, #17]
 8004ece:	746c      	strb	r4, [r5, #17]
 8004ed0:	7444      	strb	r4, [r0, #17]
 8004ed2:	744c      	strb	r4, [r1, #17]
      if(j == 0) {
 8004ed4:	2b00      	cmp	r3, #0
 8004ed6:	d180      	bne.n	8004dda <statehandler_magazin+0x4e>
        j = MAGAZIN_INTROANIMATION_PERIOD;
 8004ed8:	2210      	movs	r2, #16
        gameevent = EVENT_NONE;
 8004eda:	703b      	strb	r3, [r7, #0]
        j = MAGAZIN_INTROANIMATION_PERIOD;
 8004edc:	7032      	strb	r2, [r6, #0]
 8004ede:	e77c      	b.n	8004dda <statehandler_magazin+0x4e>
        LCD_printstr8x5((uint8*)"Аптечка!", 2, 0);
 8004ee0:	2200      	movs	r2, #0
 8004ee2:	2102      	movs	r1, #2
 8004ee4:	4841      	ldr	r0, [pc, #260]	; (8004fec <statehandler_magazin+0x260>)
 8004ee6:	f7fb fce5 	bl	80008b4 <LCD_printstr8x5>
        u16_to_str(price, HEALTH_MONEY_COST, 1);
 8004eea:	2201      	movs	r2, #1
 8004eec:	2105      	movs	r1, #5
 8004eee:	4668      	mov	r0, sp
 8004ef0:	f7fb f944 	bl	800017c <u16_to_str>
        LCD_printstr8x5((uint8*)price, 4, 100);
 8004ef4:	2264      	movs	r2, #100	; 0x64
 8004ef6:	2104      	movs	r1, #4
 8004ef8:	4668      	mov	r0, sp
 8004efa:	f7fb fcdb 	bl	80008b4 <LCD_printstr8x5>
        break;
 8004efe:	e76c      	b.n	8004dda <statehandler_magazin+0x4e>
        LCD_printstr8x5((uint8*)"Батарейка!", 2, 0);
 8004f00:	2200      	movs	r2, #0
 8004f02:	2102      	movs	r1, #2
 8004f04:	483a      	ldr	r0, [pc, #232]	; (8004ff0 <statehandler_magazin+0x264>)
 8004f06:	f7fb fcd5 	bl	80008b4 <LCD_printstr8x5>
        u16_to_str(price, BATTERY_MONEY_COST, 2);
 8004f0a:	4668      	mov	r0, sp
 8004f0c:	2202      	movs	r2, #2
 8004f0e:	2132      	movs	r1, #50	; 0x32
 8004f10:	f7fb f934 	bl	800017c <u16_to_str>
        LCD_printstr8x5((uint8*)price, 4, 94);
 8004f14:	225e      	movs	r2, #94	; 0x5e
 8004f16:	2104      	movs	r1, #4
 8004f18:	4668      	mov	r0, sp
 8004f1a:	f7fb fccb 	bl	80008b4 <LCD_printstr8x5>
        break;
 8004f1e:	e75c      	b.n	8004dda <statehandler_magazin+0x4e>
        LCD_printstr8x5((uint8*)"<Бронешлем.\nСнижает\nурон.", 2, 0);
 8004f20:	2200      	movs	r2, #0
 8004f22:	2102      	movs	r1, #2
 8004f24:	4833      	ldr	r0, [pc, #204]	; (8004ff4 <statehandler_magazin+0x268>)
 8004f26:	f7fb fcc5 	bl	80008b4 <LCD_printstr8x5>
        u16_to_str(price, GASMASK_MONEY_COST, 2);
 8004f2a:	4668      	mov	r0, sp
 8004f2c:	2202      	movs	r2, #2
 8004f2e:	210f      	movs	r1, #15
 8004f30:	e7ee      	b.n	8004f10 <statehandler_magazin+0x184>
        LCD_printstr8x5((uint8*)"БОМБА!!!\nБОЛЬШОЙ\nБАДАБУМ!", 2, 0);
 8004f32:	2200      	movs	r2, #0
 8004f34:	2102      	movs	r1, #2
 8004f36:	4830      	ldr	r0, [pc, #192]	; (8004ff8 <statehandler_magazin+0x26c>)
 8004f38:	f7fb fcbc 	bl	80008b4 <LCD_printstr8x5>
        u16_to_str(price, BOMB_MONEY_COST, 1);
 8004f3c:	4668      	mov	r0, sp
 8004f3e:	2201      	movs	r2, #1
 8004f40:	2105      	movs	r1, #5
 8004f42:	e7d5      	b.n	8004ef0 <statehandler_magazin+0x164>
        LCD_printstr8x5((uint8*)"До\nсвидания!", 2, 0);
 8004f44:	2200      	movs	r2, #0
 8004f46:	2102      	movs	r1, #2
 8004f48:	482c      	ldr	r0, [pc, #176]	; (8004ffc <statehandler_magazin+0x270>)
 8004f4a:	f7fb fcb3 	bl	80008b4 <LCD_printstr8x5>
        break;
 8004f4e:	e744      	b.n	8004dda <statehandler_magazin+0x4e>
        LCD_printstr8x5(gamestory_string[4], 1, 0);
 8004f50:	4622      	mov	r2, r4
 8004f52:	2101      	movs	r1, #1
 8004f54:	482a      	ldr	r0, [pc, #168]	; (8005000 <statehandler_magazin+0x274>)
 8004f56:	f7fb fcad 	bl	80008b4 <LCD_printstr8x5>
        LCD_printstr8x5((uint8*)"далее...", 7, 78);
 8004f5a:	4631      	mov	r1, r6
 8004f5c:	224e      	movs	r2, #78	; 0x4e
 8004f5e:	4829      	ldr	r0, [pc, #164]	; (8005004 <statehandler_magazin+0x278>)
 8004f60:	f7fb fca8 	bl	80008b4 <LCD_printstr8x5>
        IF_ANY_BTN_PRESS(
 8004f64:	4e10      	ldr	r6, [pc, #64]	; (8004fa8 <statehandler_magazin+0x21c>)
 8004f66:	4811      	ldr	r0, [pc, #68]	; (8004fac <statehandler_magazin+0x220>)
 8004f68:	4911      	ldr	r1, [pc, #68]	; (8004fb0 <statehandler_magazin+0x224>)
 8004f6a:	7c42      	ldrb	r2, [r0, #17]
 8004f6c:	7c73      	ldrb	r3, [r6, #17]
 8004f6e:	7c4f      	ldrb	r7, [r1, #17]
 8004f70:	4313      	orrs	r3, r2
 8004f72:	4a10      	ldr	r2, [pc, #64]	; (8004fb4 <statehandler_magazin+0x228>)
 8004f74:	433b      	orrs	r3, r7
 8004f76:	7c57      	ldrb	r7, [r2, #17]
 8004f78:	433b      	orrs	r3, r7
 8004f7a:	f43f af2e 	beq.w	8004dda <statehandler_magazin+0x4e>
 8004f7e:	744c      	strb	r4, [r1, #17]
 8004f80:	210a      	movs	r1, #10
 8004f82:	f898 3000 	ldrb.w	r3, [r8]
 8004f86:	7474      	strb	r4, [r6, #17]
 8004f88:	f364 0382 	bfi	r3, r4, #2, #1
 8004f8c:	7444      	strb	r4, [r0, #17]
 8004f8e:	7454      	strb	r4, [r2, #17]
 8004f90:	f888 3000 	strb.w	r3, [r8]
 8004f94:	7029      	strb	r1, [r5, #0]
 8004f96:	e720      	b.n	8004dda <statehandler_magazin+0x4e>
 8004f98:	200008a8 	.word	0x200008a8
 8004f9c:	200008a7 	.word	0x200008a7
 8004fa0:	2000086c 	.word	0x2000086c
 8004fa4:	2000004d 	.word	0x2000004d
 8004fa8:	200000d4 	.word	0x200000d4
 8004fac:	200000ec 	.word	0x200000ec
 8004fb0:	20000104 	.word	0x20000104
 8004fb4:	2000011c 	.word	0x2000011c
 8004fb8:	20000870 	.word	0x20000870
 8004fbc:	08009624 	.word	0x08009624
 8004fc0:	08009674 	.word	0x08009674
 8004fc4:	08009ef0 	.word	0x08009ef0
 8004fc8:	08008f90 	.word	0x08008f90
 8004fcc:	08008f98 	.word	0x08008f98
 8004fd0:	08008fa0 	.word	0x08008fa0
 8004fd4:	200008a6 	.word	0x200008a6
 8004fd8:	08002f19 	.word	0x08002f19
 8004fdc:	08002d95 	.word	0x08002d95
 8004fe0:	08003461 	.word	0x08003461
 8004fe4:	0800301d 	.word	0x0800301d
 8004fe8:	2000004c 	.word	0x2000004c
 8004fec:	08008ffc 	.word	0x08008ffc
 8004ff0:	08008ff0 	.word	0x08008ff0
 8004ff4:	08008fd4 	.word	0x08008fd4
 8004ff8:	08008fb8 	.word	0x08008fb8
 8004ffc:	08008fa8 	.word	0x08008fa8
 8005000:	08009a40 	.word	0x08009a40
 8005004:	08008eb4 	.word	0x08008eb4

08005008 <ufobattle>:
/*******************************************************************************
 *                              MAIN ENTRY - GAME CYCLE                     
 *******************************************************************************
 */
void ufobattle(void)
{
 8005008:	b538      	push	{r3, r4, r5, lr}
  randinit();
 800500a:	f7fb f89f 	bl	800014c <randinit>
  SchedAddEvent(system_events_period25ms, 25);
 800500e:	2119      	movs	r1, #25
 8005010:	480f      	ldr	r0, [pc, #60]	; (8005050 <ufobattle+0x48>)
 8005012:	f7fd fc59 	bl	80028c8 <SchedAddEvent>
  SchedAddEvent(system_events_period50ms, 50);
 8005016:	2132      	movs	r1, #50	; 0x32
 8005018:	480e      	ldr	r0, [pc, #56]	; (8005054 <ufobattle+0x4c>)
 800501a:	f7fd fc55 	bl	80028c8 <SchedAddEvent>
  SchedAddEvent(system_events_period100ms, 100);
 800501e:	2164      	movs	r1, #100	; 0x64
 8005020:	480d      	ldr	r0, [pc, #52]	; (8005058 <ufobattle+0x50>)
 8005022:	f7fd fc51 	bl	80028c8 <SchedAddEvent>
  SchedAddEvent(gamestatesprocess, 75);
 8005026:	214b      	movs	r1, #75	; 0x4b
 8005028:	480c      	ldr	r0, [pc, #48]	; (800505c <ufobattle+0x54>)
 800502a:	f7fd fc4d 	bl	80028c8 <SchedAddEvent>
  gamestate = STATE_MAINMENU;
 800502e:	2300      	movs	r3, #0
  gameevent = EVENT_NONE;
  coursorpos = COURS_POS_1;
  
  while (CFlags.RunGameFl)
 8005030:	4c0b      	ldr	r4, [pc, #44]	; (8005060 <ufobattle+0x58>)
  gamestate = STATE_MAINMENU;
 8005032:	4d0c      	ldr	r5, [pc, #48]	; (8005064 <ufobattle+0x5c>)
  while (CFlags.RunGameFl)
 8005034:	7822      	ldrb	r2, [r4, #0]
  gameevent = EVENT_NONE;
 8005036:	480c      	ldr	r0, [pc, #48]	; (8005068 <ufobattle+0x60>)
  coursorpos = COURS_POS_1;
 8005038:	490c      	ldr	r1, [pc, #48]	; (800506c <ufobattle+0x64>)
  while (CFlags.RunGameFl)
 800503a:	0792      	lsls	r2, r2, #30
  gamestate = STATE_MAINMENU;
 800503c:	702b      	strb	r3, [r5, #0]
  gameevent = EVENT_NONE;
 800503e:	7003      	strb	r3, [r0, #0]
  coursorpos = COURS_POS_1;
 8005040:	700b      	strb	r3, [r1, #0]
  while (CFlags.RunGameFl)
 8005042:	d504      	bpl.n	800504e <ufobattle+0x46>
  {
    SchedEventProcess();
 8005044:	f7fd fc5e 	bl	8002904 <SchedEventProcess>
  while (CFlags.RunGameFl)
 8005048:	7823      	ldrb	r3, [r4, #0]
 800504a:	079b      	lsls	r3, r3, #30
 800504c:	d4fa      	bmi.n	8005044 <ufobattle+0x3c>
  }
}
 800504e:	bd38      	pop	{r3, r4, r5, pc}
 8005050:	080037cd 	.word	0x080037cd
 8005054:	08003019 	.word	0x08003019
 8005058:	080039dd 	.word	0x080039dd
 800505c:	08002ef5 	.word	0x08002ef5
 8005060:	20000000 	.word	0x20000000
 8005064:	200008a8 	.word	0x200008a8
 8005068:	200008a7 	.word	0x200008a7
 800506c:	200008a6 	.word	0x200008a6

08005070 <Reset_Handler>:
  .weak Reset_Handler
  .type Reset_Handler, %function
Reset_Handler:

/* Copy the data segment initializers from flash to SRAM */
  ldr r0, =_sdata
 8005070:	480c      	ldr	r0, [pc, #48]	; (80050a4 <LoopFillZerobss+0x12>)
  ldr r1, =_edata
 8005072:	490d      	ldr	r1, [pc, #52]	; (80050a8 <LoopFillZerobss+0x16>)
  ldr r2, =_sidata
 8005074:	4a0d      	ldr	r2, [pc, #52]	; (80050ac <LoopFillZerobss+0x1a>)
  movs r3, #0
 8005076:	2300      	movs	r3, #0
  b LoopCopyDataInit
 8005078:	e002      	b.n	8005080 <LoopCopyDataInit>

0800507a <CopyDataInit>:

CopyDataInit:
  ldr r4, [r2, r3]
 800507a:	58d4      	ldr	r4, [r2, r3]
  str r4, [r0, r3]
 800507c:	50c4      	str	r4, [r0, r3]
  adds r3, r3, #4
 800507e:	3304      	adds	r3, #4

08005080 <LoopCopyDataInit>:

LoopCopyDataInit:
  adds r4, r0, r3
 8005080:	18c4      	adds	r4, r0, r3
  cmp r4, r1
 8005082:	428c      	cmp	r4, r1
  bcc CopyDataInit
 8005084:	d3f9      	bcc.n	800507a <CopyDataInit>
  
/* Zero fill the bss segment. */
  ldr r2, =_sbss
 8005086:	4a0a      	ldr	r2, [pc, #40]	; (80050b0 <LoopFillZerobss+0x1e>)
  ldr r4, =_ebss
 8005088:	4c0a      	ldr	r4, [pc, #40]	; (80050b4 <LoopFillZerobss+0x22>)
  movs r3, #0
 800508a:	2300      	movs	r3, #0
  b LoopFillZerobss
 800508c:	e001      	b.n	8005092 <LoopFillZerobss>

0800508e <FillZerobss>:

FillZerobss:
  str  r3, [r2]
 800508e:	6013      	str	r3, [r2, #0]
  adds r2, r2, #4
 8005090:	3204      	adds	r2, #4

08005092 <LoopFillZerobss>:

LoopFillZerobss:
  cmp r2, r4
 8005092:	42a2      	cmp	r2, r4
  bcc FillZerobss
 8005094:	d3fb      	bcc.n	800508e <FillZerobss>

/* Call the clock system intitialization function.*/
    bl  SystemInit
 8005096:	f7fd fe7b 	bl	8002d90 <SystemInit>
/* Call static constructors */
    bl __libc_init_array
 800509a:	f002 f883 	bl	80071a4 <__libc_init_array>
/* Call the application's entry point.*/
  bl main
 800509e:	f7fc fca7 	bl	80019f0 <main>
  bx lr
 80050a2:	4770      	bx	lr
  ldr r0, =_sdata
 80050a4:	20000000 	.word	0x20000000
  ldr r1, =_edata
 80050a8:	200000b8 	.word	0x200000b8
  ldr r2, =_sidata
 80050ac:	0800a184 	.word	0x0800a184
  ldr r2, =_sbss
 80050b0:	200000b8 	.word	0x200000b8
  ldr r4, =_ebss
 80050b4:	200008d0 	.word	0x200008d0

080050b8 <ADC1_2_IRQHandler>:
 * @retval : None
*/
    .section .text.Default_Handler,"ax",%progbits
Default_Handler:
Infinite_Loop:
  b Infinite_Loop
 80050b8:	e7fe      	b.n	80050b8 <ADC1_2_IRQHandler>
	...

080050bc <HAL_InitTick>:
  *       implementation  in user file.
  * @param TickPriority Tick interrupt priority.
  * @retval HAL status
  */
__weak HAL_StatusTypeDef HAL_InitTick(uint32_t TickPriority)
{
 80050bc:	b538      	push	{r3, r4, r5, lr}
  /* Configure the SysTick to have interrupt in 1ms time basis*/
  if (HAL_SYSTICK_Config(SystemCoreClock / (1000U / uwTickFreq)) > 0U)
 80050be:	f44f 737a 	mov.w	r3, #1000	; 0x3e8
 80050c2:	4a0d      	ldr	r2, [pc, #52]	; (80050f8 <HAL_InitTick+0x3c>)
{
 80050c4:	4605      	mov	r5, r0
  if (HAL_SYSTICK_Config(SystemCoreClock / (1000U / uwTickFreq)) > 0U)
 80050c6:	7811      	ldrb	r1, [r2, #0]
 80050c8:	4a0c      	ldr	r2, [pc, #48]	; (80050fc <HAL_InitTick+0x40>)
 80050ca:	fbb3 f3f1 	udiv	r3, r3, r1
 80050ce:	6812      	ldr	r2, [r2, #0]
 80050d0:	fbb2 f0f3 	udiv	r0, r2, r3
 80050d4:	f000 fb04 	bl	80056e0 <HAL_SYSTICK_Config>
 80050d8:	b908      	cbnz	r0, 80050de <HAL_InitTick+0x22>
  {
    return HAL_ERROR;
  }

  /* Configure the SysTick IRQ priority */
  if (TickPriority < (1UL << __NVIC_PRIO_BITS))
 80050da:	2d0f      	cmp	r5, #15
 80050dc:	d901      	bls.n	80050e2 <HAL_InitTick+0x26>
    return HAL_ERROR;
 80050de:	2001      	movs	r0, #1
    return HAL_ERROR;
  }

  /* Return function status */
  return HAL_OK;
}
 80050e0:	bd38      	pop	{r3, r4, r5, pc}
 80050e2:	4604      	mov	r4, r0
    HAL_NVIC_SetPriority(SysTick_IRQn, TickPriority, 0U);
 80050e4:	4602      	mov	r2, r0
 80050e6:	4629      	mov	r1, r5
 80050e8:	f04f 30ff 	mov.w	r0, #4294967295
 80050ec:	f000 faac 	bl	8005648 <HAL_NVIC_SetPriority>
    uwTickPrio = TickPriority;
 80050f0:	4b03      	ldr	r3, [pc, #12]	; (8005100 <HAL_InitTick+0x44>)
 80050f2:	4620      	mov	r0, r4
 80050f4:	601d      	str	r5, [r3, #0]
}
 80050f6:	bd38      	pop	{r3, r4, r5, pc}
 80050f8:	2000004e 	.word	0x2000004e
 80050fc:	20000008 	.word	0x20000008
 8005100:	20000050 	.word	0x20000050

08005104 <HAL_Init>:
  __HAL_FLASH_PREFETCH_BUFFER_ENABLE();
 8005104:	4a07      	ldr	r2, [pc, #28]	; (8005124 <HAL_Init+0x20>)
{
 8005106:	b508      	push	{r3, lr}
  __HAL_FLASH_PREFETCH_BUFFER_ENABLE();
 8005108:	6813      	ldr	r3, [r2, #0]
  HAL_NVIC_SetPriorityGrouping(NVIC_PRIORITYGROUP_4);
 800510a:	2003      	movs	r0, #3
  __HAL_FLASH_PREFETCH_BUFFER_ENABLE();
 800510c:	f043 0310 	orr.w	r3, r3, #16
 8005110:	6013      	str	r3, [r2, #0]
  HAL_NVIC_SetPriorityGrouping(NVIC_PRIORITYGROUP_4);
 8005112:	f000 fa87 	bl	8005624 <HAL_NVIC_SetPriorityGrouping>
  HAL_InitTick(TICK_INT_PRIORITY);
 8005116:	200f      	movs	r0, #15
 8005118:	f7ff ffd0 	bl	80050bc <HAL_InitTick>
  HAL_MspInit();
 800511c:	f7fd fcb6 	bl	8002a8c <HAL_MspInit>
}
 8005120:	2000      	movs	r0, #0
 8005122:	bd08      	pop	{r3, pc}
 8005124:	40022000 	.word	0x40022000

08005128 <HAL_GetTick>:
  *       implementations in user file.
  * @retval tick value
  */
__weak uint32_t HAL_GetTick(void)
{
  return uwTick;
 8005128:	4b01      	ldr	r3, [pc, #4]	; (8005130 <HAL_GetTick+0x8>)
 800512a:	6818      	ldr	r0, [r3, #0]
}
 800512c:	4770      	bx	lr
 800512e:	bf00      	nop
 8005130:	200008bc 	.word	0x200008bc

08005134 <HAL_Delay>:
  *       implementations in user file.
  * @param Delay specifies the delay time length, in milliseconds.
  * @retval None
  */
__weak void HAL_Delay(uint32_t Delay)
{
 8005134:	b538      	push	{r3, r4, r5, lr}
 8005136:	4604      	mov	r4, r0
  uint32_t tickstart = HAL_GetTick();
 8005138:	f7ff fff6 	bl	8005128 <HAL_GetTick>
  uint32_t wait = Delay;

  /* Add a freq to guarantee minimum wait */
  if (wait < HAL_MAX_DELAY)
 800513c:	1c63      	adds	r3, r4, #1
  uint32_t tickstart = HAL_GetTick();
 800513e:	4605      	mov	r5, r0
  if (wait < HAL_MAX_DELAY)
 8005140:	d002      	beq.n	8005148 <HAL_Delay+0x14>
  {
    wait += (uint32_t)(uwTickFreq);
 8005142:	4b04      	ldr	r3, [pc, #16]	; (8005154 <HAL_Delay+0x20>)
 8005144:	781b      	ldrb	r3, [r3, #0]
 8005146:	441c      	add	r4, r3
  }

  while ((HAL_GetTick() - tickstart) < wait)
 8005148:	f7ff ffee 	bl	8005128 <HAL_GetTick>
 800514c:	1b40      	subs	r0, r0, r5
 800514e:	42a0      	cmp	r0, r4
 8005150:	d3fa      	bcc.n	8005148 <HAL_Delay+0x14>
  {
  }
}
 8005152:	bd38      	pop	{r3, r4, r5, pc}
 8005154:	2000004e 	.word	0x2000004e

08005158 <HAL_ADC_Init>:
  uint32_t tmp_cr1 = 0U;
  uint32_t tmp_cr2 = 0U;
  uint32_t tmp_sqr1 = 0U;
  
  /* Check ADC handle */
  if(hadc == NULL)
 8005158:	2800      	cmp	r0, #0
 800515a:	f000 8089 	beq.w	8005270 <HAL_ADC_Init+0x118>
{
 800515e:	b538      	push	{r3, r4, r5, lr}
  /* Refer to header of this file for more details on clock enabling          */
  /* procedure.                                                               */

  /* Actions performed only if ADC is coming from state reset:                */
  /* - Initialization of ADC MSP                                              */
  if (hadc->State == HAL_ADC_STATE_RESET)
 8005160:	6a83      	ldr	r3, [r0, #40]	; 0x28
 8005162:	4604      	mov	r4, r0
 8005164:	2b00      	cmp	r3, #0
 8005166:	d06b      	beq.n	8005240 <HAL_ADC_Init+0xe8>
HAL_StatusTypeDef ADC_ConversionStop_Disable(ADC_HandleTypeDef* hadc)
{
  uint32_t tickstart = 0U;
  
  /* Verification if ADC is not already disabled */
  if (ADC_IS_ENABLE(hadc) != RESET)
 8005168:	6823      	ldr	r3, [r4, #0]
 800516a:	689a      	ldr	r2, [r3, #8]
 800516c:	07d1      	lsls	r1, r2, #31
 800516e:	d440      	bmi.n	80051f2 <HAL_ADC_Init+0x9a>
  if (HAL_IS_BIT_CLR(hadc->State, HAL_ADC_STATE_ERROR_INTERNAL) &&
 8005170:	6aa2      	ldr	r2, [r4, #40]	; 0x28
 8005172:	06d2      	lsls	r2, r2, #27
 8005174:	d45e      	bmi.n	8005234 <HAL_ADC_Init+0xdc>
    ADC_STATE_CLR_SET(hadc->State,
 8005176:	6aa2      	ldr	r2, [r4, #40]	; 0x28
    tmp_cr2 |= (hadc->Init.DataAlign                                          |
 8005178:	6861      	ldr	r1, [r4, #4]
 800517a:	69e0      	ldr	r0, [r4, #28]
    ADC_STATE_CLR_SET(hadc->State,
 800517c:	f422 5288 	bic.w	r2, r2, #4352	; 0x1100
                ADC_CR2_CONTINUOUS((uint32_t)hadc->Init.ContinuousConvMode)   );
 8005180:	7b25      	ldrb	r5, [r4, #12]
    ADC_STATE_CLR_SET(hadc->State,
 8005182:	f022 0202 	bic.w	r2, r2, #2
    tmp_cr2 |= (hadc->Init.DataAlign                                          |
 8005186:	4301      	orrs	r1, r0
    ADC_STATE_CLR_SET(hadc->State,
 8005188:	f042 0202 	orr.w	r2, r2, #2
 800518c:	62a2      	str	r2, [r4, #40]	; 0x28
                ADC_CFGR_EXTSEL(hadc, hadc->Init.ExternalTrigConv)            |
 800518e:	ea41 0245 	orr.w	r2, r1, r5, lsl #1
    tmp_cr1 |= (ADC_CR1_SCAN_SET(hadc->Init.ScanConvMode));
 8005192:	68a1      	ldr	r1, [r4, #8]
 8005194:	f5b1 7f80 	cmp.w	r1, #256	; 0x100
 8005198:	d058      	beq.n	800524c <HAL_ADC_Init+0xf4>
    if (hadc->Init.DiscontinuousConvMode == ENABLE)
 800519a:	7d20      	ldrb	r0, [r4, #20]
    tmp_cr1 |= (ADC_CR1_SCAN_SET(hadc->Init.ScanConvMode));
 800519c:	2901      	cmp	r1, #1
 800519e:	bf0c      	ite	eq
 80051a0:	f44f 7c80 	moveq.w	ip, #256	; 0x100
 80051a4:	f04f 0c00 	movne.w	ip, #0
    if (hadc->Init.DiscontinuousConvMode == ENABLE)
 80051a8:	2801      	cmp	r0, #1
 80051aa:	d06d      	beq.n	8005288 <HAL_ADC_Init+0x130>
      MODIFY_REG(hadc->Instance->CR1,
 80051ac:	6858      	ldr	r0, [r3, #4]
 80051ae:	f420 4069 	bic.w	r0, r0, #59648	; 0xe900
 80051b2:	ea40 000c 	orr.w	r0, r0, ip
 80051b6:	6058      	str	r0, [r3, #4]
      MODIFY_REG(hadc->Instance->CR2,
 80051b8:	689d      	ldr	r5, [r3, #8]
 80051ba:	4844      	ldr	r0, [pc, #272]	; (80052cc <HAL_ADC_Init+0x174>)
 80051bc:	4028      	ands	r0, r5
 80051be:	4310      	orrs	r0, r2
 80051c0:	6098      	str	r0, [r3, #8]
    if (ADC_CR1_SCAN_SET(hadc->Init.ScanConvMode) == ADC_SCAN_ENABLE)
 80051c2:	2901      	cmp	r1, #1
 80051c4:	d050      	beq.n	8005268 <HAL_ADC_Init+0x110>
  uint32_t tmp_sqr1 = 0U;
 80051c6:	2000      	movs	r0, #0
    MODIFY_REG(hadc->Instance->SQR1,
 80051c8:	6ad9      	ldr	r1, [r3, #44]	; 0x2c
 80051ca:	f421 0170 	bic.w	r1, r1, #15728640	; 0xf00000
 80051ce:	4301      	orrs	r1, r0
 80051d0:	62d9      	str	r1, [r3, #44]	; 0x2c
    if (READ_BIT(hadc->Instance->CR2, ~(ADC_CR2_ADON | ADC_CR2_DMA |
 80051d2:	6899      	ldr	r1, [r3, #8]
 80051d4:	4b3e      	ldr	r3, [pc, #248]	; (80052d0 <HAL_ADC_Init+0x178>)
 80051d6:	400b      	ands	r3, r1
 80051d8:	429a      	cmp	r2, r3
 80051da:	d04b      	beq.n	8005274 <HAL_ADC_Init+0x11c>
      tmp_hal_status = HAL_ERROR;
 80051dc:	2001      	movs	r0, #1
      ADC_STATE_CLR_SET(hadc->State,
 80051de:	6aa3      	ldr	r3, [r4, #40]	; 0x28
 80051e0:	f023 0312 	bic.w	r3, r3, #18
 80051e4:	f043 0310 	orr.w	r3, r3, #16
 80051e8:	62a3      	str	r3, [r4, #40]	; 0x28
      SET_BIT(hadc->ErrorCode, HAL_ADC_ERROR_INTERNAL);
 80051ea:	6ae3      	ldr	r3, [r4, #44]	; 0x2c
 80051ec:	4303      	orrs	r3, r0
 80051ee:	62e3      	str	r3, [r4, #44]	; 0x2c
}
 80051f0:	bd38      	pop	{r3, r4, r5, pc}
  {
    /* Disable the ADC peripheral */
    __HAL_ADC_DISABLE(hadc);
 80051f2:	689a      	ldr	r2, [r3, #8]
 80051f4:	f022 0201 	bic.w	r2, r2, #1
 80051f8:	609a      	str	r2, [r3, #8]
     
    /* Get tick count */
    tickstart = HAL_GetTick();
 80051fa:	f7ff ff95 	bl	8005128 <HAL_GetTick>
    
    /* Wait for ADC effectively disabled */
    while(ADC_IS_ENABLE(hadc) != RESET)
 80051fe:	6823      	ldr	r3, [r4, #0]
    tickstart = HAL_GetTick();
 8005200:	4605      	mov	r5, r0
    while(ADC_IS_ENABLE(hadc) != RESET)
 8005202:	689a      	ldr	r2, [r3, #8]
 8005204:	07d2      	lsls	r2, r2, #31
 8005206:	d5b3      	bpl.n	8005170 <HAL_ADC_Init+0x18>
 8005208:	e002      	b.n	8005210 <HAL_ADC_Init+0xb8>
 800520a:	689a      	ldr	r2, [r3, #8]
 800520c:	07d1      	lsls	r1, r2, #31
 800520e:	d5af      	bpl.n	8005170 <HAL_ADC_Init+0x18>
    {
      if((HAL_GetTick() - tickstart) > ADC_DISABLE_TIMEOUT)
 8005210:	f7ff ff8a 	bl	8005128 <HAL_GetTick>
 8005214:	1b40      	subs	r0, r0, r5
 8005216:	2802      	cmp	r0, #2
      {
        /* New check to avoid false timeout detection in case of preemption */
        if(ADC_IS_ENABLE(hadc) != RESET)
 8005218:	6823      	ldr	r3, [r4, #0]
      if((HAL_GetTick() - tickstart) > ADC_DISABLE_TIMEOUT)
 800521a:	d9f6      	bls.n	800520a <HAL_ADC_Init+0xb2>
        if(ADC_IS_ENABLE(hadc) != RESET)
 800521c:	689a      	ldr	r2, [r3, #8]
 800521e:	07d0      	lsls	r0, r2, #31
 8005220:	d5f3      	bpl.n	800520a <HAL_ADC_Init+0xb2>
        {
          /* Update ADC state machine to error */
          SET_BIT(hadc->State, HAL_ADC_STATE_ERROR_INTERNAL);
 8005222:	6aa3      	ldr	r3, [r4, #40]	; 0x28
 8005224:	f043 0310 	orr.w	r3, r3, #16
 8005228:	62a3      	str	r3, [r4, #40]	; 0x28

          /* Set ADC error code to ADC IP internal error */
          SET_BIT(hadc->ErrorCode, HAL_ADC_ERROR_INTERNAL);
 800522a:	6ae3      	ldr	r3, [r4, #44]	; 0x2c
 800522c:	f043 0301 	orr.w	r3, r3, #1
 8005230:	62e3      	str	r3, [r4, #44]	; 0x2c
  if (HAL_IS_BIT_CLR(hadc->State, HAL_ADC_STATE_ERROR_INTERNAL) &&
 8005232:	6aa3      	ldr	r3, [r4, #40]	; 0x28
    SET_BIT(hadc->State, HAL_ADC_STATE_ERROR_INTERNAL);
 8005234:	6aa3      	ldr	r3, [r4, #40]	; 0x28
    tmp_hal_status = HAL_ERROR;
 8005236:	2001      	movs	r0, #1
    SET_BIT(hadc->State, HAL_ADC_STATE_ERROR_INTERNAL);
 8005238:	f043 0310 	orr.w	r3, r3, #16
 800523c:	62a3      	str	r3, [r4, #40]	; 0x28
}
 800523e:	bd38      	pop	{r3, r4, r5, pc}
    ADC_CLEAR_ERRORCODE(hadc);
 8005240:	62c3      	str	r3, [r0, #44]	; 0x2c
    hadc->Lock = HAL_UNLOCKED;
 8005242:	f880 3024 	strb.w	r3, [r0, #36]	; 0x24
    HAL_ADC_MspInit(hadc);
 8005246:	f7fd fc43 	bl	8002ad0 <HAL_ADC_MspInit>
 800524a:	e78d      	b.n	8005168 <HAL_ADC_Init+0x10>
    if (hadc->Init.DiscontinuousConvMode == ENABLE)
 800524c:	7d20      	ldrb	r0, [r4, #20]
 800524e:	2801      	cmp	r0, #1
 8005250:	d019      	beq.n	8005286 <HAL_ADC_Init+0x12e>
      MODIFY_REG(hadc->Instance->CR1,
 8005252:	6858      	ldr	r0, [r3, #4]
      MODIFY_REG(hadc->Instance->CR2,
 8005254:	491d      	ldr	r1, [pc, #116]	; (80052cc <HAL_ADC_Init+0x174>)
      MODIFY_REG(hadc->Instance->CR1,
 8005256:	f420 4069 	bic.w	r0, r0, #59648	; 0xe900
 800525a:	f440 7080 	orr.w	r0, r0, #256	; 0x100
 800525e:	6058      	str	r0, [r3, #4]
      MODIFY_REG(hadc->Instance->CR2,
 8005260:	6898      	ldr	r0, [r3, #8]
 8005262:	4001      	ands	r1, r0
 8005264:	4311      	orrs	r1, r2
 8005266:	6099      	str	r1, [r3, #8]
      tmp_sqr1 = ADC_SQR1_L_SHIFT(hadc->Init.NbrOfConversion);
 8005268:	6921      	ldr	r1, [r4, #16]
 800526a:	3901      	subs	r1, #1
 800526c:	0508      	lsls	r0, r1, #20
 800526e:	e7ab      	b.n	80051c8 <HAL_ADC_Init+0x70>
    return HAL_ERROR;
 8005270:	2001      	movs	r0, #1
}
 8005272:	4770      	bx	lr
      ADC_CLEAR_ERRORCODE(hadc);
 8005274:	2000      	movs	r0, #0
 8005276:	62e0      	str	r0, [r4, #44]	; 0x2c
      ADC_STATE_CLR_SET(hadc->State,
 8005278:	6aa3      	ldr	r3, [r4, #40]	; 0x28
 800527a:	f023 0303 	bic.w	r3, r3, #3
 800527e:	f043 0301 	orr.w	r3, r3, #1
 8005282:	62a3      	str	r3, [r4, #40]	; 0x28
}
 8005284:	bd38      	pop	{r3, r4, r5, pc}
    tmp_cr1 |= (ADC_CR1_SCAN_SET(hadc->Init.ScanConvMode));
 8005286:	468c      	mov	ip, r1
      if (hadc->Init.ContinuousConvMode == DISABLE)
 8005288:	b1c5      	cbz	r5, 80052bc <HAL_ADC_Init+0x164>
        SET_BIT(hadc->State, HAL_ADC_STATE_ERROR_CONFIG);
 800528a:	6aa0      	ldr	r0, [r4, #40]	; 0x28
 800528c:	f040 0020 	orr.w	r0, r0, #32
 8005290:	62a0      	str	r0, [r4, #40]	; 0x28
        SET_BIT(hadc->ErrorCode, HAL_ADC_ERROR_INTERNAL);
 8005292:	6ae0      	ldr	r0, [r4, #44]	; 0x2c
 8005294:	f040 0001 	orr.w	r0, r0, #1
 8005298:	62e0      	str	r0, [r4, #44]	; 0x2c
      MODIFY_REG(hadc->Instance->CR1,
 800529a:	6858      	ldr	r0, [r3, #4]
    if (ADC_CR1_SCAN_SET(hadc->Init.ScanConvMode) == ADC_SCAN_ENABLE)
 800529c:	f5b1 7f80 	cmp.w	r1, #256	; 0x100
      MODIFY_REG(hadc->Instance->CR1,
 80052a0:	f420 4069 	bic.w	r0, r0, #59648	; 0xe900
 80052a4:	ea40 000c 	orr.w	r0, r0, ip
 80052a8:	6058      	str	r0, [r3, #4]
      MODIFY_REG(hadc->Instance->CR2,
 80052aa:	689d      	ldr	r5, [r3, #8]
 80052ac:	4807      	ldr	r0, [pc, #28]	; (80052cc <HAL_ADC_Init+0x174>)
 80052ae:	ea00 0005 	and.w	r0, r0, r5
 80052b2:	ea40 0002 	orr.w	r0, r0, r2
 80052b6:	6098      	str	r0, [r3, #8]
    if (ADC_CR1_SCAN_SET(hadc->Init.ScanConvMode) == ADC_SCAN_ENABLE)
 80052b8:	d183      	bne.n	80051c2 <HAL_ADC_Init+0x6a>
 80052ba:	e7d5      	b.n	8005268 <HAL_ADC_Init+0x110>
        SET_BIT(tmp_cr1, ADC_CR1_DISCEN                                            |
 80052bc:	69a0      	ldr	r0, [r4, #24]
 80052be:	3801      	subs	r0, #1
 80052c0:	ea4c 3040 	orr.w	r0, ip, r0, lsl #13
 80052c4:	f440 6c00 	orr.w	ip, r0, #2048	; 0x800
 80052c8:	e7e7      	b.n	800529a <HAL_ADC_Init+0x142>
 80052ca:	bf00      	nop
 80052cc:	ffe1f7fd 	.word	0xffe1f7fd
 80052d0:	ff1f0efe 	.word	0xff1f0efe

080052d4 <ADC_DMAConvCplt>:
  * @retval None
  */
void ADC_DMAConvCplt(DMA_HandleTypeDef *hdma)
{
  /* Retrieve ADC handle corresponding to current DMA handle */
  ADC_HandleTypeDef* hadc = ( ADC_HandleTypeDef* )((DMA_HandleTypeDef* )hdma)->Parent;
 80052d4:	6a43      	ldr	r3, [r0, #36]	; 0x24
 
  /* Update state machine on conversion status if not in error state */
  if (HAL_IS_BIT_CLR(hadc->State, HAL_ADC_STATE_ERROR_INTERNAL | HAL_ADC_STATE_ERROR_DMA))
 80052d6:	6a9a      	ldr	r2, [r3, #40]	; 0x28
 80052d8:	f012 0f50 	tst.w	r2, #80	; 0x50
 80052dc:	d10f      	bne.n	80052fe <ADC_DMAConvCplt+0x2a>
  {
    /* Update ADC state machine */
    SET_BIT(hadc->State, HAL_ADC_STATE_REG_EOC);
 80052de:	6a9a      	ldr	r2, [r3, #40]	; 0x28
    /* Determine whether any further conversion upcoming on group regular     */
    /* by external trigger, continuous mode or scan sequence on going.        */
    /* Note: On STM32F1 devices, in case of sequencer enabled                 */
    /*       (several ranks selected), end of conversion flag is raised       */
    /*       at the end of the sequence.                                      */
    if(ADC_IS_SOFTWARE_START_REGULAR(hadc)        && 
 80052e0:	6819      	ldr	r1, [r3, #0]
    SET_BIT(hadc->State, HAL_ADC_STATE_REG_EOC);
 80052e2:	f442 7200 	orr.w	r2, r2, #512	; 0x200
{
 80052e6:	b510      	push	{r4, lr}
    SET_BIT(hadc->State, HAL_ADC_STATE_REG_EOC);
 80052e8:	629a      	str	r2, [r3, #40]	; 0x28
    if(ADC_IS_SOFTWARE_START_REGULAR(hadc)        && 
 80052ea:	688a      	ldr	r2, [r1, #8]
 80052ec:	f402 2260 	and.w	r2, r2, #917504	; 0xe0000
 80052f0:	f5b2 2f60 	cmp.w	r2, #917504	; 0xe0000
 80052f4:	d006      	beq.n	8005304 <ADC_DMAConvCplt+0x30>
    
    /* Conversion complete callback */
#if (USE_HAL_ADC_REGISTER_CALLBACKS == 1)
    hadc->ConvCpltCallback(hadc);
#else
    HAL_ADC_ConvCpltCallback(hadc);
 80052f6:	4618      	mov	r0, r3
 80052f8:	f7fc fd34 	bl	8001d64 <HAL_ADC_ConvCpltCallback>
  else
  {
    /* Call DMA error callback */
    hadc->DMA_Handle->XferErrorCallback(hdma);
  }
}
 80052fc:	bd10      	pop	{r4, pc}
    hadc->DMA_Handle->XferErrorCallback(hdma);
 80052fe:	6a1b      	ldr	r3, [r3, #32]
 8005300:	6b1b      	ldr	r3, [r3, #48]	; 0x30
 8005302:	4718      	bx	r3
    if(ADC_IS_SOFTWARE_START_REGULAR(hadc)        && 
 8005304:	7b1a      	ldrb	r2, [r3, #12]
 8005306:	2a00      	cmp	r2, #0
 8005308:	d1f5      	bne.n	80052f6 <ADC_DMAConvCplt+0x22>
      CLEAR_BIT(hadc->State, HAL_ADC_STATE_REG_BUSY);   
 800530a:	6a9a      	ldr	r2, [r3, #40]	; 0x28
 800530c:	f422 7280 	bic.w	r2, r2, #256	; 0x100
 8005310:	629a      	str	r2, [r3, #40]	; 0x28
      if (HAL_IS_BIT_CLR(hadc->State, HAL_ADC_STATE_INJ_BUSY))
 8005312:	6a9a      	ldr	r2, [r3, #40]	; 0x28
 8005314:	04d2      	lsls	r2, r2, #19
 8005316:	d4ee      	bmi.n	80052f6 <ADC_DMAConvCplt+0x22>
        SET_BIT(hadc->State, HAL_ADC_STATE_READY);
 8005318:	6a9a      	ldr	r2, [r3, #40]	; 0x28
 800531a:	f042 0201 	orr.w	r2, r2, #1
 800531e:	629a      	str	r2, [r3, #40]	; 0x28
 8005320:	e7e9      	b.n	80052f6 <ADC_DMAConvCplt+0x22>
 8005322:	bf00      	nop

08005324 <HAL_ADC_ConvHalfCpltCallback>:
 8005324:	4770      	bx	lr
 8005326:	bf00      	nop

08005328 <ADC_DMAHalfConvCplt>:
  * @brief  DMA half transfer complete callback. 
  * @param  hdma: pointer to DMA handle.
  * @retval None
  */
void ADC_DMAHalfConvCplt(DMA_HandleTypeDef *hdma)   
{
 8005328:	b508      	push	{r3, lr}
  
  /* Half conversion callback */
#if (USE_HAL_ADC_REGISTER_CALLBACKS == 1)
    hadc->ConvHalfCpltCallback(hadc);
#else
  HAL_ADC_ConvHalfCpltCallback(hadc);
 800532a:	6a40      	ldr	r0, [r0, #36]	; 0x24
 800532c:	f7ff fffa 	bl	8005324 <HAL_ADC_ConvHalfCpltCallback>
#endif /* USE_HAL_ADC_REGISTER_CALLBACKS */
}
 8005330:	bd08      	pop	{r3, pc}
 8005332:	bf00      	nop

08005334 <HAL_ADC_ErrorCallback>:
 8005334:	4770      	bx	lr
 8005336:	bf00      	nop

08005338 <ADC_DMAError>:
  * @retval None
  */
void ADC_DMAError(DMA_HandleTypeDef *hdma)   
{
  /* Retrieve ADC handle corresponding to current DMA handle */
  ADC_HandleTypeDef* hadc = ( ADC_HandleTypeDef* )((DMA_HandleTypeDef* )hdma)->Parent;
 8005338:	6a40      	ldr	r0, [r0, #36]	; 0x24
{
 800533a:	b508      	push	{r3, lr}
  
  /* Set ADC state */
  SET_BIT(hadc->State, HAL_ADC_STATE_ERROR_DMA);
 800533c:	6a83      	ldr	r3, [r0, #40]	; 0x28
 800533e:	f043 0340 	orr.w	r3, r3, #64	; 0x40
 8005342:	6283      	str	r3, [r0, #40]	; 0x28
  
  /* Set ADC error code to DMA error */
  SET_BIT(hadc->ErrorCode, HAL_ADC_ERROR_DMA);
 8005344:	6ac3      	ldr	r3, [r0, #44]	; 0x2c
 8005346:	f043 0304 	orr.w	r3, r3, #4
 800534a:	62c3      	str	r3, [r0, #44]	; 0x2c
  
  /* Error callback */
#if (USE_HAL_ADC_REGISTER_CALLBACKS == 1)
  hadc->ErrorCallback(hadc);
#else
  HAL_ADC_ErrorCallback(hadc);
 800534c:	f7ff fff2 	bl	8005334 <HAL_ADC_ErrorCallback>
#endif /* USE_HAL_ADC_REGISTER_CALLBACKS */
}
 8005350:	bd08      	pop	{r3, pc}
 8005352:	bf00      	nop

08005354 <HAL_ADC_ConfigChannel>:
  __IO uint32_t wait_loop_index = 0U;
 8005354:	2300      	movs	r3, #0
{ 
 8005356:	b530      	push	{r4, r5, lr}
 8005358:	b083      	sub	sp, #12
  __IO uint32_t wait_loop_index = 0U;
 800535a:	9301      	str	r3, [sp, #4]
  __HAL_LOCK(hadc);
 800535c:	f890 3024 	ldrb.w	r3, [r0, #36]	; 0x24
 8005360:	2b01      	cmp	r3, #1
 8005362:	d074      	beq.n	800544e <HAL_ADC_ConfigChannel+0xfa>
 8005364:	2301      	movs	r3, #1
 8005366:	f880 3024 	strb.w	r3, [r0, #36]	; 0x24
  if (sConfig->Rank < 7U)
 800536a:	684b      	ldr	r3, [r1, #4]
 800536c:	4602      	mov	r2, r0
 800536e:	2b06      	cmp	r3, #6
    MODIFY_REG(hadc->Instance->SQR3                        ,
 8005370:	6804      	ldr	r4, [r0, #0]
  if (sConfig->Rank < 7U)
 8005372:	d932      	bls.n	80053da <HAL_ADC_ConfigChannel+0x86>
  else if (sConfig->Rank < 13U)
 8005374:	2b0c      	cmp	r3, #12
    MODIFY_REG(hadc->Instance->SQR2                        ,
 8005376:	eb03 0383 	add.w	r3, r3, r3, lsl #2
  else if (sConfig->Rank < 13U)
 800537a:	d84e      	bhi.n	800541a <HAL_ADC_ConfigChannel+0xc6>
    MODIFY_REG(hadc->Instance->SQR2                        ,
 800537c:	f04f 0c1f 	mov.w	ip, #31
 8005380:	6808      	ldr	r0, [r1, #0]
 8005382:	6b25      	ldr	r5, [r4, #48]	; 0x30
 8005384:	3b23      	subs	r3, #35	; 0x23
 8005386:	fa00 fe03 	lsl.w	lr, r0, r3
 800538a:	fa0c f303 	lsl.w	r3, ip, r3
 800538e:	ea25 0303 	bic.w	r3, r5, r3
 8005392:	ea43 030e 	orr.w	r3, r3, lr
 8005396:	6323      	str	r3, [r4, #48]	; 0x30
  if (sConfig->Channel >= ADC_CHANNEL_10)
 8005398:	2809      	cmp	r0, #9
 800539a:	d930      	bls.n	80053fe <HAL_ADC_ConfigChannel+0xaa>
    MODIFY_REG(hadc->Instance->SMPR1                             ,
 800539c:	f04f 0c07 	mov.w	ip, #7
 80053a0:	688d      	ldr	r5, [r1, #8]
 80053a2:	eb00 0140 	add.w	r1, r0, r0, lsl #1
 80053a6:	68e3      	ldr	r3, [r4, #12]
 80053a8:	391e      	subs	r1, #30
 80053aa:	408d      	lsls	r5, r1
 80053ac:	fa0c f101 	lsl.w	r1, ip, r1
 80053b0:	ea23 0301 	bic.w	r3, r3, r1
  if ((sConfig->Channel == ADC_CHANNEL_TEMPSENSOR) ||
 80053b4:	f1a0 0110 	sub.w	r1, r0, #16
    MODIFY_REG(hadc->Instance->SMPR1                             ,
 80053b8:	432b      	orrs	r3, r5
  if ((sConfig->Channel == ADC_CHANNEL_TEMPSENSOR) ||
 80053ba:	2901      	cmp	r1, #1
    MODIFY_REG(hadc->Instance->SMPR1                             ,
 80053bc:	60e3      	str	r3, [r4, #12]
  if ((sConfig->Channel == ADC_CHANNEL_TEMPSENSOR) ||
 80053be:	d844      	bhi.n	800544a <HAL_ADC_ConfigChannel+0xf6>
    if (hadc->Instance == ADC1)
 80053c0:	4b2e      	ldr	r3, [pc, #184]	; (800547c <HAL_ADC_ConfigChannel+0x128>)
 80053c2:	429c      	cmp	r4, r3
 80053c4:	d038      	beq.n	8005438 <HAL_ADC_ConfigChannel+0xe4>
      tmp_hal_status = HAL_ERROR;
 80053c6:	2001      	movs	r0, #1
      SET_BIT(hadc->State, HAL_ADC_STATE_ERROR_CONFIG);
 80053c8:	6a93      	ldr	r3, [r2, #40]	; 0x28
 80053ca:	f043 0320 	orr.w	r3, r3, #32
 80053ce:	6293      	str	r3, [r2, #40]	; 0x28
  __HAL_UNLOCK(hadc);
 80053d0:	2300      	movs	r3, #0
 80053d2:	f882 3024 	strb.w	r3, [r2, #36]	; 0x24
}
 80053d6:	b003      	add	sp, #12
 80053d8:	bd30      	pop	{r4, r5, pc}
    MODIFY_REG(hadc->Instance->SQR3                        ,
 80053da:	f04f 0c1f 	mov.w	ip, #31
 80053de:	6808      	ldr	r0, [r1, #0]
 80053e0:	eb03 0383 	add.w	r3, r3, r3, lsl #2
 80053e4:	6b65      	ldr	r5, [r4, #52]	; 0x34
 80053e6:	3b05      	subs	r3, #5
 80053e8:	fa00 fe03 	lsl.w	lr, r0, r3
 80053ec:	fa0c f303 	lsl.w	r3, ip, r3
 80053f0:	ea25 0303 	bic.w	r3, r5, r3
 80053f4:	ea43 030e 	orr.w	r3, r3, lr
  if (sConfig->Channel >= ADC_CHANNEL_10)
 80053f8:	2809      	cmp	r0, #9
    MODIFY_REG(hadc->Instance->SQR3                        ,
 80053fa:	6363      	str	r3, [r4, #52]	; 0x34
  if (sConfig->Channel >= ADC_CHANNEL_10)
 80053fc:	d8ce      	bhi.n	800539c <HAL_ADC_ConfigChannel+0x48>
    MODIFY_REG(hadc->Instance->SMPR2                             ,
 80053fe:	2507      	movs	r5, #7
 8005400:	6889      	ldr	r1, [r1, #8]
 8005402:	6923      	ldr	r3, [r4, #16]
 8005404:	eb00 0040 	add.w	r0, r0, r0, lsl #1
 8005408:	4081      	lsls	r1, r0
 800540a:	fa05 f000 	lsl.w	r0, r5, r0
 800540e:	ea23 0300 	bic.w	r3, r3, r0
 8005412:	430b      	orrs	r3, r1
  HAL_StatusTypeDef tmp_hal_status = HAL_OK;
 8005414:	2000      	movs	r0, #0
    MODIFY_REG(hadc->Instance->SMPR2                             ,
 8005416:	6123      	str	r3, [r4, #16]
  if ((sConfig->Channel == ADC_CHANNEL_TEMPSENSOR) ||
 8005418:	e7da      	b.n	80053d0 <HAL_ADC_ConfigChannel+0x7c>
    MODIFY_REG(hadc->Instance->SQR1                        ,
 800541a:	f04f 0c1f 	mov.w	ip, #31
 800541e:	6808      	ldr	r0, [r1, #0]
 8005420:	6ae5      	ldr	r5, [r4, #44]	; 0x2c
 8005422:	3b41      	subs	r3, #65	; 0x41
 8005424:	fa00 fe03 	lsl.w	lr, r0, r3
 8005428:	fa0c f303 	lsl.w	r3, ip, r3
 800542c:	ea25 0303 	bic.w	r3, r5, r3
 8005430:	ea43 030e 	orr.w	r3, r3, lr
 8005434:	62e3      	str	r3, [r4, #44]	; 0x2c
 8005436:	e7af      	b.n	8005398 <HAL_ADC_ConfigChannel+0x44>
      if (READ_BIT(hadc->Instance->CR2, ADC_CR2_TSVREFE) == RESET)
 8005438:	68a3      	ldr	r3, [r4, #8]
 800543a:	021b      	lsls	r3, r3, #8
 800543c:	d405      	bmi.n	800544a <HAL_ADC_ConfigChannel+0xf6>
        SET_BIT(hadc->Instance->CR2, ADC_CR2_TSVREFE);
 800543e:	68a3      	ldr	r3, [r4, #8]
        if (sConfig->Channel == ADC_CHANNEL_TEMPSENSOR)
 8005440:	2810      	cmp	r0, #16
        SET_BIT(hadc->Instance->CR2, ADC_CR2_TSVREFE);
 8005442:	f443 0300 	orr.w	r3, r3, #8388608	; 0x800000
 8005446:	60a3      	str	r3, [r4, #8]
        if (sConfig->Channel == ADC_CHANNEL_TEMPSENSOR)
 8005448:	d004      	beq.n	8005454 <HAL_ADC_ConfigChannel+0x100>
  HAL_StatusTypeDef tmp_hal_status = HAL_OK;
 800544a:	2000      	movs	r0, #0
 800544c:	e7c0      	b.n	80053d0 <HAL_ADC_ConfigChannel+0x7c>
  __HAL_LOCK(hadc);
 800544e:	2002      	movs	r0, #2
}
 8005450:	b003      	add	sp, #12
 8005452:	bd30      	pop	{r4, r5, pc}
          wait_loop_index = (ADC_TEMPSENSOR_DELAY_US * (SystemCoreClock / 1000000U));
 8005454:	4b0a      	ldr	r3, [pc, #40]	; (8005480 <HAL_ADC_ConfigChannel+0x12c>)
 8005456:	490b      	ldr	r1, [pc, #44]	; (8005484 <HAL_ADC_ConfigChannel+0x130>)
 8005458:	681b      	ldr	r3, [r3, #0]
 800545a:	fba1 1303 	umull	r1, r3, r1, r3
 800545e:	0c9b      	lsrs	r3, r3, #18
 8005460:	eb03 0383 	add.w	r3, r3, r3, lsl #2
 8005464:	005b      	lsls	r3, r3, #1
 8005466:	9301      	str	r3, [sp, #4]
          while(wait_loop_index != 0U)
 8005468:	9b01      	ldr	r3, [sp, #4]
 800546a:	2b00      	cmp	r3, #0
 800546c:	d0ed      	beq.n	800544a <HAL_ADC_ConfigChannel+0xf6>
            wait_loop_index--;
 800546e:	9b01      	ldr	r3, [sp, #4]
 8005470:	3b01      	subs	r3, #1
 8005472:	9301      	str	r3, [sp, #4]
          while(wait_loop_index != 0U)
 8005474:	9b01      	ldr	r3, [sp, #4]
 8005476:	2b00      	cmp	r3, #0
 8005478:	d1f9      	bne.n	800546e <HAL_ADC_ConfigChannel+0x11a>
 800547a:	e7e6      	b.n	800544a <HAL_ADC_ConfigChannel+0xf6>
 800547c:	40012400 	.word	0x40012400
 8005480:	20000008 	.word	0x20000008
 8005484:	431bde83 	.word	0x431bde83

08005488 <ADC_Enable>:
  __IO uint32_t wait_loop_index = 0U;
 8005488:	2300      	movs	r3, #0
{
 800548a:	b530      	push	{r4, r5, lr}
  if (ADC_IS_ENABLE(hadc) == RESET)
 800548c:	6802      	ldr	r2, [r0, #0]
{
 800548e:	b083      	sub	sp, #12
  __IO uint32_t wait_loop_index = 0U;
 8005490:	9301      	str	r3, [sp, #4]
  if (ADC_IS_ENABLE(hadc) == RESET)
 8005492:	6893      	ldr	r3, [r2, #8]
 8005494:	07d9      	lsls	r1, r3, #31
 8005496:	d427      	bmi.n	80054e8 <ADC_Enable+0x60>
    wait_loop_index = (ADC_STAB_DELAY_US * (SystemCoreClock / 1000000U));
 8005498:	4b1b      	ldr	r3, [pc, #108]	; (8005508 <ADC_Enable+0x80>)
 800549a:	4604      	mov	r4, r0
 800549c:	681b      	ldr	r3, [r3, #0]
 800549e:	481b      	ldr	r0, [pc, #108]	; (800550c <ADC_Enable+0x84>)
    __HAL_ADC_ENABLE(hadc);
 80054a0:	6891      	ldr	r1, [r2, #8]
    wait_loop_index = (ADC_STAB_DELAY_US * (SystemCoreClock / 1000000U));
 80054a2:	fba0 0303 	umull	r0, r3, r0, r3
    __HAL_ADC_ENABLE(hadc);
 80054a6:	f041 0101 	orr.w	r1, r1, #1
    wait_loop_index = (ADC_STAB_DELAY_US * (SystemCoreClock / 1000000U));
 80054aa:	0c9b      	lsrs	r3, r3, #18
    __HAL_ADC_ENABLE(hadc);
 80054ac:	6091      	str	r1, [r2, #8]
    wait_loop_index = (ADC_STAB_DELAY_US * (SystemCoreClock / 1000000U));
 80054ae:	9301      	str	r3, [sp, #4]
    while(wait_loop_index != 0U)
 80054b0:	9b01      	ldr	r3, [sp, #4]
 80054b2:	b12b      	cbz	r3, 80054c0 <ADC_Enable+0x38>
      wait_loop_index--;
 80054b4:	9b01      	ldr	r3, [sp, #4]
 80054b6:	3b01      	subs	r3, #1
 80054b8:	9301      	str	r3, [sp, #4]
    while(wait_loop_index != 0U)
 80054ba:	9b01      	ldr	r3, [sp, #4]
 80054bc:	2b00      	cmp	r3, #0
 80054be:	d1f9      	bne.n	80054b4 <ADC_Enable+0x2c>
    tickstart = HAL_GetTick();
 80054c0:	f7ff fe32 	bl	8005128 <HAL_GetTick>
    while(ADC_IS_ENABLE(hadc) == RESET)
 80054c4:	6823      	ldr	r3, [r4, #0]
    tickstart = HAL_GetTick();
 80054c6:	4605      	mov	r5, r0
    while(ADC_IS_ENABLE(hadc) == RESET)
 80054c8:	689b      	ldr	r3, [r3, #8]
 80054ca:	07da      	lsls	r2, r3, #31
 80054cc:	d40c      	bmi.n	80054e8 <ADC_Enable+0x60>
      if((HAL_GetTick() - tickstart) > ADC_ENABLE_TIMEOUT)
 80054ce:	f7ff fe2b 	bl	8005128 <HAL_GetTick>
 80054d2:	1b43      	subs	r3, r0, r5
 80054d4:	2b02      	cmp	r3, #2
        if(ADC_IS_ENABLE(hadc) == RESET)
 80054d6:	6823      	ldr	r3, [r4, #0]
      if((HAL_GetTick() - tickstart) > ADC_ENABLE_TIMEOUT)
 80054d8:	d903      	bls.n	80054e2 <ADC_Enable+0x5a>
        if(ADC_IS_ENABLE(hadc) == RESET)
 80054da:	689a      	ldr	r2, [r3, #8]
 80054dc:	f012 0201 	ands.w	r2, r2, #1
 80054e0:	d005      	beq.n	80054ee <ADC_Enable+0x66>
    while(ADC_IS_ENABLE(hadc) == RESET)
 80054e2:	689b      	ldr	r3, [r3, #8]
 80054e4:	07db      	lsls	r3, r3, #31
 80054e6:	d5f2      	bpl.n	80054ce <ADC_Enable+0x46>
  return HAL_OK;
 80054e8:	2000      	movs	r0, #0
}
 80054ea:	b003      	add	sp, #12
 80054ec:	bd30      	pop	{r4, r5, pc}
          __HAL_UNLOCK(hadc);
 80054ee:	2001      	movs	r0, #1
          SET_BIT(hadc->State, HAL_ADC_STATE_ERROR_INTERNAL);
 80054f0:	6aa3      	ldr	r3, [r4, #40]	; 0x28
          __HAL_UNLOCK(hadc);
 80054f2:	f884 2024 	strb.w	r2, [r4, #36]	; 0x24
          SET_BIT(hadc->State, HAL_ADC_STATE_ERROR_INTERNAL);
 80054f6:	f043 0310 	orr.w	r3, r3, #16
 80054fa:	62a3      	str	r3, [r4, #40]	; 0x28
          SET_BIT(hadc->ErrorCode, HAL_ADC_ERROR_INTERNAL);
 80054fc:	6ae3      	ldr	r3, [r4, #44]	; 0x2c
 80054fe:	4303      	orrs	r3, r0
 8005500:	62e3      	str	r3, [r4, #44]	; 0x2c
}
 8005502:	b003      	add	sp, #12
 8005504:	bd30      	pop	{r4, r5, pc}
 8005506:	bf00      	nop
 8005508:	20000008 	.word	0x20000008
 800550c:	431bde83 	.word	0x431bde83

08005510 <HAL_ADC_Start_DMA>:
{
 8005510:	b5f8      	push	{r3, r4, r5, r6, r7, lr}
 8005512:	4604      	mov	r4, r0
  if(ADC_MULTIMODE_IS_ENABLE(hadc) == RESET)
 8005514:	4d3e      	ldr	r5, [pc, #248]	; (8005610 <HAL_ADC_Start_DMA+0x100>)
 8005516:	6800      	ldr	r0, [r0, #0]
{
 8005518:	460f      	mov	r7, r1
  if(ADC_MULTIMODE_IS_ENABLE(hadc) == RESET)
 800551a:	42a8      	cmp	r0, r5
{
 800551c:	4616      	mov	r6, r2
  if(ADC_MULTIMODE_IS_ENABLE(hadc) == RESET)
 800551e:	d059      	beq.n	80055d4 <HAL_ADC_Start_DMA+0xc4>
 8005520:	4b3c      	ldr	r3, [pc, #240]	; (8005614 <HAL_ADC_Start_DMA+0x104>)
 8005522:	4298      	cmp	r0, r3
 8005524:	d056      	beq.n	80055d4 <HAL_ADC_Start_DMA+0xc4>
    __HAL_LOCK(hadc);
 8005526:	f894 3024 	ldrb.w	r3, [r4, #36]	; 0x24
 800552a:	2b01      	cmp	r3, #1
 800552c:	d05f      	beq.n	80055ee <HAL_ADC_Start_DMA+0xde>
 800552e:	2301      	movs	r3, #1
    tmp_hal_status = ADC_Enable(hadc);
 8005530:	4620      	mov	r0, r4
    __HAL_LOCK(hadc);
 8005532:	f884 3024 	strb.w	r3, [r4, #36]	; 0x24
    tmp_hal_status = ADC_Enable(hadc);
 8005536:	f7ff ffa7 	bl	8005488 <ADC_Enable>
    if (tmp_hal_status == HAL_OK)
 800553a:	4605      	mov	r5, r0
 800553c:	2800      	cmp	r0, #0
 800553e:	d151      	bne.n	80055e4 <HAL_ADC_Start_DMA+0xd4>
      ADC_STATE_CLR_SET(hadc->State,
 8005540:	6aa0      	ldr	r0, [r4, #40]	; 0x28
    if (ADC_NONMULTIMODE_OR_MULTIMODEMASTER(hadc))
 8005542:	6821      	ldr	r1, [r4, #0]
 8005544:	4b33      	ldr	r3, [pc, #204]	; (8005614 <HAL_ADC_Start_DMA+0x104>)
      ADC_STATE_CLR_SET(hadc->State,
 8005546:	f420 6070 	bic.w	r0, r0, #3840	; 0xf00
 800554a:	f020 0001 	bic.w	r0, r0, #1
 800554e:	f440 7080 	orr.w	r0, r0, #256	; 0x100
    if (ADC_NONMULTIMODE_OR_MULTIMODEMASTER(hadc))
 8005552:	4299      	cmp	r1, r3
      ADC_STATE_CLR_SET(hadc->State,
 8005554:	62a0      	str	r0, [r4, #40]	; 0x28
    if (ADC_NONMULTIMODE_OR_MULTIMODEMASTER(hadc))
 8005556:	d04d      	beq.n	80055f4 <HAL_ADC_Start_DMA+0xe4>
      CLEAR_BIT(hadc->State, HAL_ADC_STATE_MULTIMODE_SLAVE);
 8005558:	6aa3      	ldr	r3, [r4, #40]	; 0x28
 800555a:	f423 1380 	bic.w	r3, r3, #1048576	; 0x100000
 800555e:	62a3      	str	r3, [r4, #40]	; 0x28
      if (READ_BIT(hadc->Instance->CR1, ADC_CR1_JAUTO) != RESET)
 8005560:	684b      	ldr	r3, [r1, #4]
 8005562:	055a      	lsls	r2, r3, #21
 8005564:	d505      	bpl.n	8005572 <HAL_ADC_Start_DMA+0x62>
        ADC_STATE_CLR_SET(hadc->State, HAL_ADC_STATE_INJ_EOC, HAL_ADC_STATE_INJ_BUSY);
 8005566:	6aa3      	ldr	r3, [r4, #40]	; 0x28
 8005568:	f423 5340 	bic.w	r3, r3, #12288	; 0x3000
 800556c:	f443 5380 	orr.w	r3, r3, #4096	; 0x1000
 8005570:	62a3      	str	r3, [r4, #40]	; 0x28
      if (HAL_IS_BIT_SET(hadc->State, HAL_ADC_STATE_INJ_BUSY))
 8005572:	6aa3      	ldr	r3, [r4, #40]	; 0x28
      __HAL_UNLOCK(hadc);
 8005574:	2000      	movs	r0, #0
      if (HAL_IS_BIT_SET(hadc->State, HAL_ADC_STATE_INJ_BUSY))
 8005576:	f413 5380 	ands.w	r3, r3, #4096	; 0x1000
        CLEAR_BIT(hadc->ErrorCode, (HAL_ADC_ERROR_OVR | HAL_ADC_ERROR_DMA));         
 800557a:	bf18      	it	ne
 800557c:	6ae3      	ldrne	r3, [r4, #44]	; 0x2c
      __HAL_UNLOCK(hadc);
 800557e:	f884 0024 	strb.w	r0, [r4, #36]	; 0x24
        CLEAR_BIT(hadc->ErrorCode, (HAL_ADC_ERROR_OVR | HAL_ADC_ERROR_DMA));         
 8005582:	bf18      	it	ne
 8005584:	f023 0306 	bicne.w	r3, r3, #6
        ADC_CLEAR_ERRORCODE(hadc);
 8005588:	62e3      	str	r3, [r4, #44]	; 0x2c
      HAL_DMA_Start_IT(hadc->DMA_Handle, (uint32_t)&hadc->Instance->DR, (uint32_t)pData, Length);
 800558a:	4633      	mov	r3, r6
      __HAL_ADC_CLEAR_FLAG(hadc, ADC_FLAG_EOC);
 800558c:	f06f 0602 	mvn.w	r6, #2
      hadc->DMA_Handle->XferCpltCallback = ADC_DMAConvCplt;
 8005590:	6a20      	ldr	r0, [r4, #32]
      HAL_DMA_Start_IT(hadc->DMA_Handle, (uint32_t)&hadc->Instance->DR, (uint32_t)pData, Length);
 8005592:	463a      	mov	r2, r7
      hadc->DMA_Handle->XferCpltCallback = ADC_DMAConvCplt;
 8005594:	4f20      	ldr	r7, [pc, #128]	; (8005618 <HAL_ADC_Start_DMA+0x108>)
      HAL_DMA_Start_IT(hadc->DMA_Handle, (uint32_t)&hadc->Instance->DR, (uint32_t)pData, Length);
 8005596:	314c      	adds	r1, #76	; 0x4c
      hadc->DMA_Handle->XferCpltCallback = ADC_DMAConvCplt;
 8005598:	6287      	str	r7, [r0, #40]	; 0x28
      hadc->DMA_Handle->XferHalfCpltCallback = ADC_DMAHalfConvCplt;
 800559a:	4f20      	ldr	r7, [pc, #128]	; (800561c <HAL_ADC_Start_DMA+0x10c>)
 800559c:	62c7      	str	r7, [r0, #44]	; 0x2c
      hadc->DMA_Handle->XferErrorCallback = ADC_DMAError;
 800559e:	4f20      	ldr	r7, [pc, #128]	; (8005620 <HAL_ADC_Start_DMA+0x110>)
 80055a0:	6307      	str	r7, [r0, #48]	; 0x30
      __HAL_ADC_CLEAR_FLAG(hadc, ADC_FLAG_EOC);
 80055a2:	f841 6c4c 	str.w	r6, [r1, #-76]
      SET_BIT(hadc->Instance->CR2, ADC_CR2_DMA);
 80055a6:	f851 6c44 	ldr.w	r6, [r1, #-68]
 80055aa:	f446 7680 	orr.w	r6, r6, #256	; 0x100
 80055ae:	f841 6c44 	str.w	r6, [r1, #-68]
      HAL_DMA_Start_IT(hadc->DMA_Handle, (uint32_t)&hadc->Instance->DR, (uint32_t)pData, Length);
 80055b2:	f000 f8df 	bl	8005774 <HAL_DMA_Start_IT>
      if (ADC_IS_SOFTWARE_START_REGULAR(hadc))
 80055b6:	6823      	ldr	r3, [r4, #0]
}
 80055b8:	4628      	mov	r0, r5
      if (ADC_IS_SOFTWARE_START_REGULAR(hadc))
 80055ba:	689a      	ldr	r2, [r3, #8]
 80055bc:	f402 2260 	and.w	r2, r2, #917504	; 0xe0000
 80055c0:	f5b2 2f60 	cmp.w	r2, #917504	; 0xe0000
        SET_BIT(hadc->Instance->CR2, (ADC_CR2_SWSTART | ADC_CR2_EXTTRIG));
 80055c4:	689a      	ldr	r2, [r3, #8]
 80055c6:	bf0c      	ite	eq
 80055c8:	f442 02a0 	orreq.w	r2, r2, #5242880	; 0x500000
        SET_BIT(hadc->Instance->CR2, ADC_CR2_EXTTRIG);
 80055cc:	f442 1280 	orrne.w	r2, r2, #1048576	; 0x100000
 80055d0:	609a      	str	r2, [r3, #8]
}
 80055d2:	bdf8      	pop	{r3, r4, r5, r6, r7, pc}
  if(ADC_MULTIMODE_IS_ENABLE(hadc) == RESET)
 80055d4:	4b0e      	ldr	r3, [pc, #56]	; (8005610 <HAL_ADC_Start_DMA+0x100>)
 80055d6:	685b      	ldr	r3, [r3, #4]
 80055d8:	f413 2f70 	tst.w	r3, #983040	; 0xf0000
 80055dc:	d0a3      	beq.n	8005526 <HAL_ADC_Start_DMA+0x16>
    tmp_hal_status = HAL_ERROR;
 80055de:	2501      	movs	r5, #1
}
 80055e0:	4628      	mov	r0, r5
 80055e2:	bdf8      	pop	{r3, r4, r5, r6, r7, pc}
      __HAL_UNLOCK(hadc);
 80055e4:	2300      	movs	r3, #0
 80055e6:	f884 3024 	strb.w	r3, [r4, #36]	; 0x24
}
 80055ea:	4628      	mov	r0, r5
 80055ec:	bdf8      	pop	{r3, r4, r5, r6, r7, pc}
    __HAL_LOCK(hadc);
 80055ee:	2502      	movs	r5, #2
}
 80055f0:	4628      	mov	r0, r5
 80055f2:	bdf8      	pop	{r3, r4, r5, r6, r7, pc}
    if (ADC_NONMULTIMODE_OR_MULTIMODEMASTER(hadc))
 80055f4:	f5a3 6380 	sub.w	r3, r3, #1024	; 0x400
 80055f8:	685a      	ldr	r2, [r3, #4]
 80055fa:	f412 2f70 	tst.w	r2, #983040	; 0xf0000
 80055fe:	d0ab      	beq.n	8005558 <HAL_ADC_Start_DMA+0x48>
      SET_BIT(hadc->State, HAL_ADC_STATE_MULTIMODE_SLAVE);
 8005600:	6aa2      	ldr	r2, [r4, #40]	; 0x28
 8005602:	f442 1280 	orr.w	r2, r2, #1048576	; 0x100000
 8005606:	62a2      	str	r2, [r4, #40]	; 0x28
      if (ADC_MULTIMODE_AUTO_INJECTED(hadc))
 8005608:	685b      	ldr	r3, [r3, #4]
 800560a:	055b      	lsls	r3, r3, #21
 800560c:	d5b1      	bpl.n	8005572 <HAL_ADC_Start_DMA+0x62>
 800560e:	e7aa      	b.n	8005566 <HAL_ADC_Start_DMA+0x56>
 8005610:	40012400 	.word	0x40012400
 8005614:	40012800 	.word	0x40012800
 8005618:	080052d5 	.word	0x080052d5
 800561c:	08005329 	.word	0x08005329
 8005620:	08005339 	.word	0x08005339

08005624 <HAL_NVIC_SetPriorityGrouping>:
  reg_value &= ~((uint32_t)(SCB_AIRCR_VECTKEY_Msk | SCB_AIRCR_PRIGROUP_Msk)); /* clear bits to change               */
 8005624:	f64f 0cff 	movw	ip, #63743	; 0xf8ff
  reg_value  =  SCB->AIRCR;                                                   /* read old register configuration    */
 8005628:	4906      	ldr	r1, [pc, #24]	; (8005644 <HAL_NVIC_SetPriorityGrouping+0x20>)
                (PriorityGroupTmp << SCB_AIRCR_PRIGROUP_Pos) );               /* Insert write key and priority group */
 800562a:	0203      	lsls	r3, r0, #8
  reg_value  =  SCB->AIRCR;                                                   /* read old register configuration    */
 800562c:	68ca      	ldr	r2, [r1, #12]
                (PriorityGroupTmp << SCB_AIRCR_PRIGROUP_Pos) );               /* Insert write key and priority group */
 800562e:	f403 63e0 	and.w	r3, r3, #1792	; 0x700
  reg_value &= ~((uint32_t)(SCB_AIRCR_VECTKEY_Msk | SCB_AIRCR_PRIGROUP_Msk)); /* clear bits to change               */
 8005632:	ea02 020c 	and.w	r2, r2, ip
                ((uint32_t)0x5FAUL << SCB_AIRCR_VECTKEY_Pos) |
 8005636:	4313      	orrs	r3, r2
  reg_value  =  (reg_value                                   |
 8005638:	f043 63bf 	orr.w	r3, r3, #100139008	; 0x5f80000
 800563c:	f443 3300 	orr.w	r3, r3, #131072	; 0x20000
  SCB->AIRCR =  reg_value;
 8005640:	60cb      	str	r3, [r1, #12]
  /* Check the parameters */
  assert_param(IS_NVIC_PRIORITY_GROUP(PriorityGroup));
  
  /* Set the PRIGROUP[10:8] bits according to the PriorityGroup parameter value */
  NVIC_SetPriorityGrouping(PriorityGroup);
}
 8005642:	4770      	bx	lr
 8005644:	e000ed00 	.word	0xe000ed00

08005648 <HAL_NVIC_SetPriority>:
  return ((uint32_t)((SCB->AIRCR & SCB_AIRCR_PRIGROUP_Msk) >> SCB_AIRCR_PRIGROUP_Pos));
 8005648:	4b1c      	ldr	r3, [pc, #112]	; (80056bc <HAL_NVIC_SetPriority+0x74>)
  *         This parameter can be a value between 0 and 15
  *         A lower priority value indicates a higher priority.          
  * @retval None
  */
void HAL_NVIC_SetPriority(IRQn_Type IRQn, uint32_t PreemptPriority, uint32_t SubPriority)
{ 
 800564a:	b500      	push	{lr}
 800564c:	68db      	ldr	r3, [r3, #12]
 800564e:	f3c3 2302 	ubfx	r3, r3, #8, #3
  PreemptPriorityBits = ((7UL - PriorityGroupTmp) > (uint32_t)(__NVIC_PRIO_BITS)) ? (uint32_t)(__NVIC_PRIO_BITS) : (uint32_t)(7UL - PriorityGroupTmp);
 8005652:	f1c3 0e07 	rsb	lr, r3, #7
 8005656:	f1be 0f04 	cmp.w	lr, #4
  SubPriorityBits     = ((PriorityGroupTmp + (uint32_t)(__NVIC_PRIO_BITS)) < (uint32_t)7UL) ? (uint32_t)0UL : (uint32_t)((PriorityGroupTmp - 7UL) + (uint32_t)(__NVIC_PRIO_BITS));
 800565a:	f103 0c04 	add.w	ip, r3, #4
  PreemptPriorityBits = ((7UL - PriorityGroupTmp) > (uint32_t)(__NVIC_PRIO_BITS)) ? (uint32_t)(__NVIC_PRIO_BITS) : (uint32_t)(7UL - PriorityGroupTmp);
 800565e:	bf28      	it	cs
 8005660:	f04f 0e04 	movcs.w	lr, #4
  SubPriorityBits     = ((PriorityGroupTmp + (uint32_t)(__NVIC_PRIO_BITS)) < (uint32_t)7UL) ? (uint32_t)0UL : (uint32_t)((PriorityGroupTmp - 7UL) + (uint32_t)(__NVIC_PRIO_BITS));
 8005664:	f1bc 0f06 	cmp.w	ip, #6
 8005668:	d91b      	bls.n	80056a2 <HAL_NVIC_SetPriority+0x5a>
           ((SubPriority     & (uint32_t)((1UL << (SubPriorityBits    )) - 1UL)))
 800566a:	f04f 3cff 	mov.w	ip, #4294967295
  SubPriorityBits     = ((PriorityGroupTmp + (uint32_t)(__NVIC_PRIO_BITS)) < (uint32_t)7UL) ? (uint32_t)0UL : (uint32_t)((PriorityGroupTmp - 7UL) + (uint32_t)(__NVIC_PRIO_BITS));
 800566e:	3b03      	subs	r3, #3
           ((SubPriority     & (uint32_t)((1UL << (SubPriorityBits    )) - 1UL)))
 8005670:	fa0c fc03 	lsl.w	ip, ip, r3
 8005674:	ea22 020c 	bic.w	r2, r2, ip
           ((PreemptPriority & (uint32_t)((1UL << (PreemptPriorityBits)) - 1UL)) << SubPriorityBits) |
 8005678:	f04f 3cff 	mov.w	ip, #4294967295
 800567c:	fa0c fc0e 	lsl.w	ip, ip, lr
 8005680:	ea21 010c 	bic.w	r1, r1, ip
 8005684:	4099      	lsls	r1, r3
  if ((int32_t)(IRQn) >= 0)
 8005686:	2800      	cmp	r0, #0
           ((PreemptPriority & (uint32_t)((1UL << (PreemptPriorityBits)) - 1UL)) << SubPriorityBits) |
 8005688:	ea41 0102 	orr.w	r1, r1, r2
  if ((int32_t)(IRQn) >= 0)
 800568c:	db0c      	blt.n	80056a8 <HAL_NVIC_SetPriority+0x60>
    NVIC->IP[((uint32_t)IRQn)]               = (uint8_t)((priority << (8U - __NVIC_PRIO_BITS)) & (uint32_t)0xFFUL);
 800568e:	0109      	lsls	r1, r1, #4
 8005690:	f100 4060 	add.w	r0, r0, #3758096384	; 0xe0000000
 8005694:	b2c9      	uxtb	r1, r1
 8005696:	f500 4061 	add.w	r0, r0, #57600	; 0xe100
 800569a:	f880 1300 	strb.w	r1, [r0, #768]	; 0x300
  assert_param(IS_NVIC_PREEMPTION_PRIORITY(PreemptPriority));
  
  prioritygroup = NVIC_GetPriorityGrouping();
  
  NVIC_SetPriority(IRQn, NVIC_EncodePriority(prioritygroup, PreemptPriority, SubPriority));
}
 800569e:	f85d fb04 	ldr.w	pc, [sp], #4
 80056a2:	2200      	movs	r2, #0
  SubPriorityBits     = ((PriorityGroupTmp + (uint32_t)(__NVIC_PRIO_BITS)) < (uint32_t)7UL) ? (uint32_t)0UL : (uint32_t)((PriorityGroupTmp - 7UL) + (uint32_t)(__NVIC_PRIO_BITS));
 80056a4:	4613      	mov	r3, r2
 80056a6:	e7e7      	b.n	8005678 <HAL_NVIC_SetPriority+0x30>
    SCB->SHP[(((uint32_t)IRQn) & 0xFUL)-4UL] = (uint8_t)((priority << (8U - __NVIC_PRIO_BITS)) & (uint32_t)0xFFUL);
 80056a8:	4b05      	ldr	r3, [pc, #20]	; (80056c0 <HAL_NVIC_SetPriority+0x78>)
 80056aa:	f000 000f 	and.w	r0, r0, #15
 80056ae:	0109      	lsls	r1, r1, #4
 80056b0:	b2c9      	uxtb	r1, r1
 80056b2:	4403      	add	r3, r0
 80056b4:	7619      	strb	r1, [r3, #24]
 80056b6:	f85d fb04 	ldr.w	pc, [sp], #4
 80056ba:	bf00      	nop
 80056bc:	e000ed00 	.word	0xe000ed00
 80056c0:	e000ecfc 	.word	0xe000ecfc

080056c4 <HAL_NVIC_EnableIRQ>:
  if ((int32_t)(IRQn) >= 0)
 80056c4:	2800      	cmp	r0, #0
 80056c6:	db07      	blt.n	80056d8 <HAL_NVIC_EnableIRQ+0x14>
    NVIC->ISER[(((uint32_t)IRQn) >> 5UL)] = (uint32_t)(1UL << (((uint32_t)IRQn) & 0x1FUL));
 80056c8:	2301      	movs	r3, #1
 80056ca:	f000 011f 	and.w	r1, r0, #31
 80056ce:	4a03      	ldr	r2, [pc, #12]	; (80056dc <HAL_NVIC_EnableIRQ+0x18>)
 80056d0:	0940      	lsrs	r0, r0, #5
 80056d2:	408b      	lsls	r3, r1
 80056d4:	f842 3020 	str.w	r3, [r2, r0, lsl #2]
  /* Check the parameters */
  assert_param(IS_NVIC_DEVICE_IRQ(IRQn));

  /* Enable interrupt */
  NVIC_EnableIRQ(IRQn);
}
 80056d8:	4770      	bx	lr
 80056da:	bf00      	nop
 80056dc:	e000e100 	.word	0xe000e100

080056e0 <HAL_SYSTICK_Config>:
  if ((ticks - 1UL) > SysTick_LOAD_RELOAD_Msk)
 80056e0:	3801      	subs	r0, #1
 80056e2:	f1b0 7f80 	cmp.w	r0, #16777216	; 0x1000000
 80056e6:	d20f      	bcs.n	8005708 <HAL_SYSTICK_Config+0x28>
  SysTick->LOAD  = (uint32_t)(ticks - 1UL);                         /* set reload register */
 80056e8:	f04f 23e0 	mov.w	r3, #3758153728	; 0xe000e000
    SCB->SHP[(((uint32_t)IRQn) & 0xFUL)-4UL] = (uint8_t)((priority << (8U - __NVIC_PRIO_BITS)) & (uint32_t)0xFFUL);
 80056ec:	f04f 0cf0 	mov.w	ip, #240	; 0xf0
  SysTick->VAL   = 0UL;                                             /* Load the SysTick Counter Value */
 80056f0:	2200      	movs	r2, #0
  SysTick->CTRL  = SysTick_CTRL_CLKSOURCE_Msk |
 80056f2:	2107      	movs	r1, #7
  * @param  TicksNumb: Specifies the ticks Number of ticks between two interrupts.
  * @retval status:  - 0  Function succeeded.
  *                  - 1  Function failed.
  */
uint32_t HAL_SYSTICK_Config(uint32_t TicksNumb)
{
 80056f4:	b410      	push	{r4}
    SCB->SHP[(((uint32_t)IRQn) & 0xFUL)-4UL] = (uint8_t)((priority << (8U - __NVIC_PRIO_BITS)) & (uint32_t)0xFFUL);
 80056f6:	4c05      	ldr	r4, [pc, #20]	; (800570c <HAL_SYSTICK_Config+0x2c>)
  SysTick->LOAD  = (uint32_t)(ticks - 1UL);                         /* set reload register */
 80056f8:	6158      	str	r0, [r3, #20]
    SCB->SHP[(((uint32_t)IRQn) & 0xFUL)-4UL] = (uint8_t)((priority << (8U - __NVIC_PRIO_BITS)) & (uint32_t)0xFFUL);
 80056fa:	f884 c023 	strb.w	ip, [r4, #35]	; 0x23
  return (0UL);                                                     /* Function successful */
 80056fe:	4610      	mov	r0, r2
  SysTick->VAL   = 0UL;                                             /* Load the SysTick Counter Value */
 8005700:	619a      	str	r2, [r3, #24]
   return SysTick_Config(TicksNumb);
}
 8005702:	bc10      	pop	{r4}
  SysTick->CTRL  = SysTick_CTRL_CLKSOURCE_Msk |
 8005704:	6119      	str	r1, [r3, #16]
 8005706:	4770      	bx	lr
    return (1UL);                                                   /* Reload value impossible */
 8005708:	2001      	movs	r0, #1
 800570a:	4770      	bx	lr
 800570c:	e000ed00 	.word	0xe000ed00

08005710 <HAL_DMA_Init>:
HAL_StatusTypeDef HAL_DMA_Init(DMA_HandleTypeDef *hdma)
{
  uint32_t tmp = 0U;

  /* Check the DMA handle allocation */
  if(hdma == NULL)
 8005710:	b340      	cbz	r0, 8005764 <HAL_DMA_Init+0x54>
    hdma->ChannelIndex = (((uint32_t)hdma->Instance - (uint32_t)DMA2_Channel1) / ((uint32_t)DMA2_Channel2 - (uint32_t)DMA2_Channel1)) << 2;
    hdma->DmaBaseAddress = DMA2;
  }
#else
  /* DMA1 */
  hdma->ChannelIndex = (((uint32_t)hdma->Instance - (uint32_t)DMA1_Channel1) / ((uint32_t)DMA1_Channel2 - (uint32_t)DMA1_Channel1)) << 2;
 8005712:	4603      	mov	r3, r0
  tmp &= ((uint32_t)~(DMA_CCR_PL    | DMA_CCR_MSIZE  | DMA_CCR_PSIZE  | \
                      DMA_CCR_MINC  | DMA_CCR_PINC   | DMA_CCR_CIRC   | \
                      DMA_CCR_DIR));

  /* Prepare the DMA Channel configuration */
  tmp |=  hdma->Init.Direction        |
 8005714:	c805      	ldmia	r0, {r0, r2}
  hdma->ErrorCode = HAL_DMA_ERROR_NONE;

  /* Initialize the DMA state*/
  hdma->State = HAL_DMA_STATE_READY;
  /* Allocate lock resource and initialize it */
  hdma->Lock = HAL_UNLOCKED;
 8005716:	f44f 7c80 	mov.w	ip, #256	; 0x100
{
 800571a:	b430      	push	{r4, r5}
  hdma->ErrorCode = HAL_DMA_ERROR_NONE;
 800571c:	2400      	movs	r4, #0
  tmp |=  hdma->Init.Direction        |
 800571e:	6899      	ldr	r1, [r3, #8]
          hdma->Init.PeriphInc           | hdma->Init.MemInc           |
 8005720:	68dd      	ldr	r5, [r3, #12]
  tmp |=  hdma->Init.Direction        |
 8005722:	430a      	orrs	r2, r1
  hdma->ChannelIndex = (((uint32_t)hdma->Instance - (uint32_t)DMA1_Channel1) / ((uint32_t)DMA1_Channel2 - (uint32_t)DMA1_Channel1)) << 2;
 8005724:	4910      	ldr	r1, [pc, #64]	; (8005768 <HAL_DMA_Init+0x58>)
          hdma->Init.PeriphInc           | hdma->Init.MemInc           |
 8005726:	432a      	orrs	r2, r5
  hdma->ChannelIndex = (((uint32_t)hdma->Instance - (uint32_t)DMA1_Channel1) / ((uint32_t)DMA1_Channel2 - (uint32_t)DMA1_Channel1)) << 2;
 8005728:	4d10      	ldr	r5, [pc, #64]	; (800576c <HAL_DMA_Init+0x5c>)
 800572a:	4401      	add	r1, r0
 800572c:	fba5 5101 	umull	r5, r1, r5, r1
 8005730:	0909      	lsrs	r1, r1, #4
 8005732:	0089      	lsls	r1, r1, #2
 8005734:	6419      	str	r1, [r3, #64]	; 0x40
          hdma->Init.PeriphInc           | hdma->Init.MemInc           |
 8005736:	6919      	ldr	r1, [r3, #16]
          hdma->Init.PeriphDataAlignment | hdma->Init.MemDataAlignment |
 8005738:	699d      	ldr	r5, [r3, #24]
          hdma->Init.PeriphInc           | hdma->Init.MemInc           |
 800573a:	430a      	orrs	r2, r1
          hdma->Init.PeriphDataAlignment | hdma->Init.MemDataAlignment |
 800573c:	6959      	ldr	r1, [r3, #20]
 800573e:	430a      	orrs	r2, r1
  tmp = hdma->Instance->CCR;
 8005740:	6801      	ldr	r1, [r0, #0]
          hdma->Init.PeriphDataAlignment | hdma->Init.MemDataAlignment |
 8005742:	432a      	orrs	r2, r5
          hdma->Init.Mode                | hdma->Init.Priority;
 8005744:	69dd      	ldr	r5, [r3, #28]
  tmp &= ((uint32_t)~(DMA_CCR_PL    | DMA_CCR_MSIZE  | DMA_CCR_PSIZE  | \
 8005746:	f421 517f 	bic.w	r1, r1, #16320	; 0x3fc0
 800574a:	f021 0130 	bic.w	r1, r1, #48	; 0x30
          hdma->Init.Mode                | hdma->Init.Priority;
 800574e:	432a      	orrs	r2, r5
  tmp |=  hdma->Init.Direction        |
 8005750:	430a      	orrs	r2, r1
  hdma->DmaBaseAddress = DMA1;
 8005752:	4907      	ldr	r1, [pc, #28]	; (8005770 <HAL_DMA_Init+0x60>)
 8005754:	63d9      	str	r1, [r3, #60]	; 0x3c
  hdma->Instance->CCR = tmp;
 8005756:	6002      	str	r2, [r0, #0]
  hdma->Lock = HAL_UNLOCKED;
 8005758:	f8a3 c020 	strh.w	ip, [r3, #32]

  return HAL_OK;
 800575c:	4620      	mov	r0, r4
  hdma->ErrorCode = HAL_DMA_ERROR_NONE;
 800575e:	639c      	str	r4, [r3, #56]	; 0x38
}
 8005760:	bc30      	pop	{r4, r5}
 8005762:	4770      	bx	lr
    return HAL_ERROR;
 8005764:	2001      	movs	r0, #1
}
 8005766:	4770      	bx	lr
 8005768:	bffdfff8 	.word	0xbffdfff8
 800576c:	cccccccd 	.word	0xcccccccd
 8005770:	40020000 	.word	0x40020000

08005774 <HAL_DMA_Start_IT>:
  * @param  DstAddress: The destination memory Buffer address
  * @param  DataLength: The length of data to be transferred from source to destination
  * @retval HAL status
  */
HAL_StatusTypeDef HAL_DMA_Start_IT(DMA_HandleTypeDef *hdma, uint32_t SrcAddress, uint32_t DstAddress, uint32_t DataLength)
{
 8005774:	4684      	mov	ip, r0

  /* Check the parameters */
  assert_param(IS_DMA_BUFFER_SIZE(DataLength));

  /* Process locked */
  __HAL_LOCK(hdma);
 8005776:	f890 0020 	ldrb.w	r0, [r0, #32]
 800577a:	2801      	cmp	r0, #1
 800577c:	d03f      	beq.n	80057fe <HAL_DMA_Start_IT+0x8a>
{
 800577e:	b430      	push	{r4, r5}
  __HAL_LOCK(hdma);
 8005780:	2401      	movs	r4, #1
  
  if(HAL_DMA_STATE_READY == hdma->State)
 8005782:	f89c 0021 	ldrb.w	r0, [ip, #33]	; 0x21
  __HAL_LOCK(hdma);
 8005786:	f88c 4020 	strb.w	r4, [ip, #32]
  if(HAL_DMA_STATE_READY == hdma->State)
 800578a:	42a0      	cmp	r0, r4
 800578c:	d005      	beq.n	800579a <HAL_DMA_Start_IT+0x26>
    __HAL_DMA_ENABLE(hdma);
  }
  else
  {      
    /* Process Unlocked */
    __HAL_UNLOCK(hdma); 
 800578e:	2300      	movs	r3, #0
 8005790:	f88c 3020 	strb.w	r3, [ip, #32]

    /* Remain BUSY */
    status = HAL_BUSY;
 8005794:	2002      	movs	r0, #2
  }    
  return status;
}
 8005796:	bc30      	pop	{r4, r5}
 8005798:	4770      	bx	lr
    hdma->State = HAL_DMA_STATE_BUSY;
 800579a:	2402      	movs	r4, #2
 800579c:	f88c 4021 	strb.w	r4, [ip, #33]	; 0x21
    hdma->ErrorCode = HAL_DMA_ERROR_NONE;
 80057a0:	2400      	movs	r4, #0
  * @retval HAL status
  */
static void DMA_SetConfig(DMA_HandleTypeDef *hdma, uint32_t SrcAddress, uint32_t DstAddress, uint32_t DataLength)
{
  /* Clear all flags */
  hdma->DmaBaseAddress->IFCR = (DMA_ISR_GIF1 << hdma->ChannelIndex);
 80057a2:	f8dc 5040 	ldr.w	r5, [ip, #64]	; 0x40
    hdma->ErrorCode = HAL_DMA_ERROR_NONE;
 80057a6:	f8cc 4038 	str.w	r4, [ip, #56]	; 0x38
    __HAL_DMA_DISABLE(hdma);
 80057aa:	f8dc 4000 	ldr.w	r4, [ip]
  hdma->DmaBaseAddress->IFCR = (DMA_ISR_GIF1 << hdma->ChannelIndex);
 80057ae:	40a8      	lsls	r0, r5
    __HAL_DMA_DISABLE(hdma);
 80057b0:	6825      	ldr	r5, [r4, #0]
 80057b2:	f025 0501 	bic.w	r5, r5, #1
 80057b6:	6025      	str	r5, [r4, #0]
  hdma->DmaBaseAddress->IFCR = (DMA_ISR_GIF1 << hdma->ChannelIndex);
 80057b8:	f8dc 503c 	ldr.w	r5, [ip, #60]	; 0x3c
 80057bc:	6068      	str	r0, [r5, #4]

  /* Configure DMA Channel data length */
  hdma->Instance->CNDTR = DataLength;
 80057be:	6063      	str	r3, [r4, #4]

  /* Memory to Peripheral */
  if((hdma->Init.Direction) == DMA_MEMORY_TO_PERIPH)
 80057c0:	f8dc 3004 	ldr.w	r3, [ip, #4]
 80057c4:	2b10      	cmp	r3, #16
    if(NULL != hdma->XferHalfCpltCallback)
 80057c6:	f8dc 302c 	ldr.w	r3, [ip, #44]	; 0x2c
  {
    /* Configure DMA Channel destination address */
    hdma->Instance->CPAR = DstAddress;
 80057ca:	bf0b      	itete	eq
 80057cc:	60a2      	streq	r2, [r4, #8]
  }
  /* Peripheral to Memory */
  else
  {
    /* Configure DMA Channel source address */
    hdma->Instance->CPAR = SrcAddress;
 80057ce:	60a1      	strne	r1, [r4, #8]
    hdma->Instance->CMAR = SrcAddress;
 80057d0:	60e1      	streq	r1, [r4, #12]

    /* Configure DMA Channel destination address */
    hdma->Instance->CMAR = DstAddress;
 80057d2:	60e2      	strne	r2, [r4, #12]
    if(NULL != hdma->XferHalfCpltCallback)
 80057d4:	b153      	cbz	r3, 80057ec <HAL_DMA_Start_IT+0x78>
      __HAL_DMA_ENABLE_IT(hdma, (DMA_IT_TC | DMA_IT_HT | DMA_IT_TE));
 80057d6:	6823      	ldr	r3, [r4, #0]
 80057d8:	f043 030e 	orr.w	r3, r3, #14
 80057dc:	6023      	str	r3, [r4, #0]
    __HAL_DMA_ENABLE(hdma);
 80057de:	6823      	ldr	r3, [r4, #0]
  HAL_StatusTypeDef status = HAL_OK;
 80057e0:	2000      	movs	r0, #0
    __HAL_DMA_ENABLE(hdma);
 80057e2:	f043 0301 	orr.w	r3, r3, #1
 80057e6:	6023      	str	r3, [r4, #0]
}
 80057e8:	bc30      	pop	{r4, r5}
 80057ea:	4770      	bx	lr
      __HAL_DMA_DISABLE_IT(hdma, DMA_IT_HT);
 80057ec:	6823      	ldr	r3, [r4, #0]
 80057ee:	f023 0304 	bic.w	r3, r3, #4
 80057f2:	6023      	str	r3, [r4, #0]
      __HAL_DMA_ENABLE_IT(hdma, (DMA_IT_TC | DMA_IT_TE));
 80057f4:	6823      	ldr	r3, [r4, #0]
 80057f6:	f043 030a 	orr.w	r3, r3, #10
 80057fa:	6023      	str	r3, [r4, #0]
 80057fc:	e7ef      	b.n	80057de <HAL_DMA_Start_IT+0x6a>
  __HAL_LOCK(hdma);
 80057fe:	2002      	movs	r0, #2
}
 8005800:	4770      	bx	lr
 8005802:	bf00      	nop

08005804 <HAL_DMA_IRQHandler>:
  if (((flag_it & (DMA_FLAG_HT1 << hdma->ChannelIndex)) != RESET) && ((source_it & DMA_IT_HT) != RESET))
 8005804:	2204      	movs	r2, #4
{
 8005806:	b470      	push	{r4, r5, r6}
  uint32_t flag_it = hdma->DmaBaseAddress->ISR;
 8005808:	6bc6      	ldr	r6, [r0, #60]	; 0x3c
  if (((flag_it & (DMA_FLAG_HT1 << hdma->ChannelIndex)) != RESET) && ((source_it & DMA_IT_HT) != RESET))
 800580a:	6c01      	ldr	r1, [r0, #64]	; 0x40
  uint32_t flag_it = hdma->DmaBaseAddress->ISR;
 800580c:	6834      	ldr	r4, [r6, #0]
  uint32_t source_it = hdma->Instance->CCR;
 800580e:	6803      	ldr	r3, [r0, #0]
  if (((flag_it & (DMA_FLAG_HT1 << hdma->ChannelIndex)) != RESET) && ((source_it & DMA_IT_HT) != RESET))
 8005810:	408a      	lsls	r2, r1
 8005812:	4222      	tst	r2, r4
  uint32_t source_it = hdma->Instance->CCR;
 8005814:	681d      	ldr	r5, [r3, #0]
  if (((flag_it & (DMA_FLAG_HT1 << hdma->ChannelIndex)) != RESET) && ((source_it & DMA_IT_HT) != RESET))
 8005816:	d01f      	beq.n	8005858 <HAL_DMA_IRQHandler+0x54>
 8005818:	076a      	lsls	r2, r5, #29
 800581a:	d51d      	bpl.n	8005858 <HAL_DMA_IRQHandler+0x54>
    if((hdma->Instance->CCR & DMA_CCR_CIRC) == 0U)
 800581c:	681a      	ldr	r2, [r3, #0]
 800581e:	0691      	lsls	r1, r2, #26
 8005820:	d403      	bmi.n	800582a <HAL_DMA_IRQHandler+0x26>
      __HAL_DMA_DISABLE_IT(hdma, DMA_IT_HT);
 8005822:	681a      	ldr	r2, [r3, #0]
 8005824:	f022 0204 	bic.w	r2, r2, #4
 8005828:	601a      	str	r2, [r3, #0]
    __HAL_DMA_CLEAR_FLAG(hdma, __HAL_DMA_GET_HT_FLAG_INDEX(hdma));
 800582a:	4a3e      	ldr	r2, [pc, #248]	; (8005924 <HAL_DMA_IRQHandler+0x120>)
 800582c:	4293      	cmp	r3, r2
 800582e:	d050      	beq.n	80058d2 <HAL_DMA_IRQHandler+0xce>
 8005830:	3214      	adds	r2, #20
 8005832:	4293      	cmp	r3, r2
 8005834:	d060      	beq.n	80058f8 <HAL_DMA_IRQHandler+0xf4>
 8005836:	3214      	adds	r2, #20
 8005838:	4293      	cmp	r3, r2
 800583a:	d067      	beq.n	800590c <HAL_DMA_IRQHandler+0x108>
 800583c:	3214      	adds	r2, #20
 800583e:	4293      	cmp	r3, r2
 8005840:	d06a      	beq.n	8005918 <HAL_DMA_IRQHandler+0x114>
 8005842:	3214      	adds	r2, #20
 8005844:	4293      	cmp	r3, r2
 8005846:	d05c      	beq.n	8005902 <HAL_DMA_IRQHandler+0xfe>
 8005848:	3214      	adds	r2, #20
 800584a:	4293      	cmp	r3, r2
 800584c:	bf0c      	ite	eq
 800584e:	f44f 0380 	moveq.w	r3, #4194304	; 0x400000
 8005852:	f04f 6380 	movne.w	r3, #67108864	; 0x4000000
 8005856:	e03d      	b.n	80058d4 <HAL_DMA_IRQHandler+0xd0>
  else if (((flag_it & (DMA_FLAG_TC1 << hdma->ChannelIndex)) != RESET) && ((source_it & DMA_IT_TC) != RESET))
 8005858:	2202      	movs	r2, #2
 800585a:	408a      	lsls	r2, r1
 800585c:	4222      	tst	r2, r4
 800585e:	d022      	beq.n	80058a6 <HAL_DMA_IRQHandler+0xa2>
 8005860:	07aa      	lsls	r2, r5, #30
 8005862:	d520      	bpl.n	80058a6 <HAL_DMA_IRQHandler+0xa2>
    if((hdma->Instance->CCR & DMA_CCR_CIRC) == 0U)
 8005864:	681a      	ldr	r2, [r3, #0]
 8005866:	0691      	lsls	r1, r2, #26
 8005868:	d406      	bmi.n	8005878 <HAL_DMA_IRQHandler+0x74>
      hdma->State = HAL_DMA_STATE_READY;
 800586a:	2101      	movs	r1, #1
      __HAL_DMA_DISABLE_IT(hdma, DMA_IT_TE | DMA_IT_TC);  
 800586c:	681a      	ldr	r2, [r3, #0]
 800586e:	f022 020a 	bic.w	r2, r2, #10
 8005872:	601a      	str	r2, [r3, #0]
      hdma->State = HAL_DMA_STATE_READY;
 8005874:	f880 1021 	strb.w	r1, [r0, #33]	; 0x21
      __HAL_DMA_CLEAR_FLAG(hdma, __HAL_DMA_GET_TC_FLAG_INDEX(hdma));
 8005878:	4a2a      	ldr	r2, [pc, #168]	; (8005924 <HAL_DMA_IRQHandler+0x120>)
 800587a:	4293      	cmp	r3, r2
 800587c:	d031      	beq.n	80058e2 <HAL_DMA_IRQHandler+0xde>
 800587e:	3214      	adds	r2, #20
 8005880:	4293      	cmp	r3, r2
 8005882:	d041      	beq.n	8005908 <HAL_DMA_IRQHandler+0x104>
 8005884:	3214      	adds	r2, #20
 8005886:	4293      	cmp	r3, r2
 8005888:	d043      	beq.n	8005912 <HAL_DMA_IRQHandler+0x10e>
 800588a:	3214      	adds	r2, #20
 800588c:	4293      	cmp	r3, r2
 800588e:	d035      	beq.n	80058fc <HAL_DMA_IRQHandler+0xf8>
 8005890:	3214      	adds	r2, #20
 8005892:	4293      	cmp	r3, r2
 8005894:	d043      	beq.n	800591e <HAL_DMA_IRQHandler+0x11a>
 8005896:	3214      	adds	r2, #20
 8005898:	4293      	cmp	r3, r2
 800589a:	bf0c      	ite	eq
 800589c:	f44f 1300 	moveq.w	r3, #2097152	; 0x200000
 80058a0:	f04f 7300 	movne.w	r3, #33554432	; 0x2000000
 80058a4:	e01e      	b.n	80058e4 <HAL_DMA_IRQHandler+0xe0>
  else if (( RESET != (flag_it & (DMA_FLAG_TE1 << hdma->ChannelIndex))) && (RESET != (source_it & DMA_IT_TE)))
 80058a6:	2208      	movs	r2, #8
 80058a8:	408a      	lsls	r2, r1
 80058aa:	4222      	tst	r2, r4
 80058ac:	d017      	beq.n	80058de <HAL_DMA_IRQHandler+0xda>
 80058ae:	072a      	lsls	r2, r5, #28
 80058b0:	d515      	bpl.n	80058de <HAL_DMA_IRQHandler+0xda>
    __HAL_DMA_DISABLE_IT(hdma, (DMA_IT_TC | DMA_IT_HT | DMA_IT_TE));
 80058b2:	681a      	ldr	r2, [r3, #0]
    __HAL_UNLOCK(hdma);
 80058b4:	f44f 7480 	mov.w	r4, #256	; 0x100
    __HAL_DMA_DISABLE_IT(hdma, (DMA_IT_TC | DMA_IT_HT | DMA_IT_TE));
 80058b8:	f022 020e 	bic.w	r2, r2, #14
 80058bc:	601a      	str	r2, [r3, #0]
    hdma->DmaBaseAddress->IFCR = (DMA_ISR_GIF1 << hdma->ChannelIndex);
 80058be:	2301      	movs	r3, #1
    if (hdma->XferErrorCallback != NULL)
 80058c0:	6b02      	ldr	r2, [r0, #48]	; 0x30
    hdma->DmaBaseAddress->IFCR = (DMA_ISR_GIF1 << hdma->ChannelIndex);
 80058c2:	fa03 f101 	lsl.w	r1, r3, r1
 80058c6:	6071      	str	r1, [r6, #4]
    hdma->ErrorCode = HAL_DMA_ERROR_TE;
 80058c8:	6383      	str	r3, [r0, #56]	; 0x38
    __HAL_UNLOCK(hdma);
 80058ca:	8404      	strh	r4, [r0, #32]
    if (hdma->XferErrorCallback != NULL)
 80058cc:	b13a      	cbz	r2, 80058de <HAL_DMA_IRQHandler+0xda>
}
 80058ce:	bc70      	pop	{r4, r5, r6}
      hdma->XferErrorCallback(hdma);
 80058d0:	4710      	bx	r2
    __HAL_DMA_CLEAR_FLAG(hdma, __HAL_DMA_GET_HT_FLAG_INDEX(hdma));
 80058d2:	2304      	movs	r3, #4
 80058d4:	4914      	ldr	r1, [pc, #80]	; (8005928 <HAL_DMA_IRQHandler+0x124>)
    if(hdma->XferHalfCpltCallback != NULL)
 80058d6:	6ac2      	ldr	r2, [r0, #44]	; 0x2c
    __HAL_DMA_CLEAR_FLAG(hdma, __HAL_DMA_GET_HT_FLAG_INDEX(hdma));
 80058d8:	604b      	str	r3, [r1, #4]
    if(hdma->XferHalfCpltCallback != NULL)
 80058da:	2a00      	cmp	r2, #0
 80058dc:	d1f7      	bne.n	80058ce <HAL_DMA_IRQHandler+0xca>
}
 80058de:	bc70      	pop	{r4, r5, r6}
 80058e0:	4770      	bx	lr
      __HAL_DMA_CLEAR_FLAG(hdma, __HAL_DMA_GET_TC_FLAG_INDEX(hdma));
 80058e2:	2302      	movs	r3, #2
    __HAL_UNLOCK(hdma);
 80058e4:	2100      	movs	r1, #0
      __HAL_DMA_CLEAR_FLAG(hdma, __HAL_DMA_GET_TC_FLAG_INDEX(hdma));
 80058e6:	4c10      	ldr	r4, [pc, #64]	; (8005928 <HAL_DMA_IRQHandler+0x124>)
    if(hdma->XferCpltCallback != NULL)
 80058e8:	6a82      	ldr	r2, [r0, #40]	; 0x28
      __HAL_DMA_CLEAR_FLAG(hdma, __HAL_DMA_GET_TC_FLAG_INDEX(hdma));
 80058ea:	6063      	str	r3, [r4, #4]
    __HAL_UNLOCK(hdma);
 80058ec:	f880 1020 	strb.w	r1, [r0, #32]
    if(hdma->XferCpltCallback != NULL)
 80058f0:	2a00      	cmp	r2, #0
 80058f2:	d0f4      	beq.n	80058de <HAL_DMA_IRQHandler+0xda>
}
 80058f4:	bc70      	pop	{r4, r5, r6}
      hdma->XferErrorCallback(hdma);
 80058f6:	4710      	bx	r2
    __HAL_DMA_CLEAR_FLAG(hdma, __HAL_DMA_GET_HT_FLAG_INDEX(hdma));
 80058f8:	2340      	movs	r3, #64	; 0x40
 80058fa:	e7eb      	b.n	80058d4 <HAL_DMA_IRQHandler+0xd0>
      __HAL_DMA_CLEAR_FLAG(hdma, __HAL_DMA_GET_TC_FLAG_INDEX(hdma));
 80058fc:	f44f 5300 	mov.w	r3, #8192	; 0x2000
 8005900:	e7f0      	b.n	80058e4 <HAL_DMA_IRQHandler+0xe0>
    __HAL_DMA_CLEAR_FLAG(hdma, __HAL_DMA_GET_HT_FLAG_INDEX(hdma));
 8005902:	f44f 2380 	mov.w	r3, #262144	; 0x40000
 8005906:	e7e5      	b.n	80058d4 <HAL_DMA_IRQHandler+0xd0>
      __HAL_DMA_CLEAR_FLAG(hdma, __HAL_DMA_GET_TC_FLAG_INDEX(hdma));
 8005908:	2320      	movs	r3, #32
 800590a:	e7eb      	b.n	80058e4 <HAL_DMA_IRQHandler+0xe0>
    __HAL_DMA_CLEAR_FLAG(hdma, __HAL_DMA_GET_HT_FLAG_INDEX(hdma));
 800590c:	f44f 6380 	mov.w	r3, #1024	; 0x400
 8005910:	e7e0      	b.n	80058d4 <HAL_DMA_IRQHandler+0xd0>
      __HAL_DMA_CLEAR_FLAG(hdma, __HAL_DMA_GET_TC_FLAG_INDEX(hdma));
 8005912:	f44f 7300 	mov.w	r3, #512	; 0x200
 8005916:	e7e5      	b.n	80058e4 <HAL_DMA_IRQHandler+0xe0>
    __HAL_DMA_CLEAR_FLAG(hdma, __HAL_DMA_GET_HT_FLAG_INDEX(hdma));
 8005918:	f44f 4380 	mov.w	r3, #16384	; 0x4000
 800591c:	e7da      	b.n	80058d4 <HAL_DMA_IRQHandler+0xd0>
      __HAL_DMA_CLEAR_FLAG(hdma, __HAL_DMA_GET_TC_FLAG_INDEX(hdma));
 800591e:	f44f 3300 	mov.w	r3, #131072	; 0x20000
 8005922:	e7df      	b.n	80058e4 <HAL_DMA_IRQHandler+0xe0>
 8005924:	40020008 	.word	0x40020008
 8005928:	40020000 	.word	0x40020000

0800592c <HAL_GPIO_Init>:
  * @param  GPIO_Init: pointer to a GPIO_InitTypeDef structure that contains
  *         the configuration information for the specified GPIO peripheral.
  * @retval None
  */
void HAL_GPIO_Init(GPIO_TypeDef  *GPIOx, GPIO_InitTypeDef *GPIO_Init)
{
 800592c:	e92d 4ff0 	stmdb	sp!, {r4, r5, r6, r7, r8, r9, sl, fp, lr}
  assert_param(IS_GPIO_ALL_INSTANCE(GPIOx));
  assert_param(IS_GPIO_PIN(GPIO_Init->Pin));
  assert_param(IS_GPIO_MODE(GPIO_Init->Mode));

  /* Configure the port pins */
  while (((GPIO_Init->Pin) >> position) != 0x00u)
 8005930:	680e      	ldr	r6, [r1, #0]
{
 8005932:	b083      	sub	sp, #12
  while (((GPIO_Init->Pin) >> position) != 0x00u)
 8005934:	2e00      	cmp	r6, #0
 8005936:	f000 80b5 	beq.w	8005aa4 <HAL_GPIO_Init+0x178>
 800593a:	2200      	movs	r2, #0
      /*--------------------- EXTI Mode Configuration ------------------------*/
      /* Configure the External Interrupt or event for the current IO */
      if ((GPIO_Init->Mode & EXTI_MODE) == EXTI_MODE)
      {
        /* Enable AFIO Clock */
        __HAL_RCC_AFIO_CLK_ENABLE();
 800593c:	4f7a      	ldr	r7, [pc, #488]	; (8005b28 <HAL_GPIO_Init+0x1fc>)
  uint32_t config = 0x00u;
 800593e:	4692      	mov	sl, r2
  uint32_t position = 0x00u;
 8005940:	4613      	mov	r3, r2
        {
          SET_BIT(EXTI->FTSR, iocurrent);
        }
        else
        {
          CLEAR_BIT(EXTI->FTSR, iocurrent);
 8005942:	4d7a      	ldr	r5, [pc, #488]	; (8005b2c <HAL_GPIO_Init+0x200>)
      switch (GPIO_Init->Mode)
 8005944:	f8df 81e8 	ldr.w	r8, [pc, #488]	; 8005b30 <HAL_GPIO_Init+0x204>
 8005948:	e006      	b.n	8005958 <HAL_GPIO_Init+0x2c>
        }
      }
    }

	position++;
 800594a:	3301      	adds	r3, #1
  while (((GPIO_Init->Pin) >> position) != 0x00u)
 800594c:	fa36 f403 	lsrs.w	r4, r6, r3
 8005950:	f102 0204 	add.w	r2, r2, #4
 8005954:	f000 80a6 	beq.w	8005aa4 <HAL_GPIO_Init+0x178>
    ioposition = (0x01uL << position);
 8005958:	2401      	movs	r4, #1
 800595a:	409c      	lsls	r4, r3
    if (iocurrent == ioposition)
 800595c:	ea34 0e06 	bics.w	lr, r4, r6
    iocurrent = (uint32_t)(GPIO_Init->Pin) & ioposition;
 8005960:	ea04 0c06 	and.w	ip, r4, r6
    if (iocurrent == ioposition)
 8005964:	d1f1      	bne.n	800594a <HAL_GPIO_Init+0x1e>
      switch (GPIO_Init->Mode)
 8005966:	684e      	ldr	r6, [r1, #4]
 8005968:	2e12      	cmp	r6, #18
 800596a:	f200 809e 	bhi.w	8005aaa <HAL_GPIO_Init+0x17e>
 800596e:	2e12      	cmp	r6, #18
 8005970:	d81a      	bhi.n	80059a8 <HAL_GPIO_Init+0x7c>
 8005972:	e8df f006 	tbb	[pc, r6]
 8005976:	b9a7      	.short	0xb9a7
 8005978:	1919ceb5 	.word	0x1919ceb5
 800597c:	19191919 	.word	0x19191919
 8005980:	19191919 	.word	0x19191919
 8005984:	b1191919 	.word	0xb1191919
 8005988:	bc          	.byte	0xbc
 8005989:	00          	.byte	0x00
 800598a:	f8df e1a8 	ldr.w	lr, [pc, #424]	; 8005b34 <HAL_GPIO_Init+0x208>
 800598e:	4576      	cmp	r6, lr
 8005990:	f000 8098 	beq.w	8005ac4 <HAL_GPIO_Init+0x198>
 8005994:	f50e 2e70 	add.w	lr, lr, #983040	; 0xf0000
 8005998:	4576      	cmp	r6, lr
 800599a:	f000 8093 	beq.w	8005ac4 <HAL_GPIO_Init+0x198>
 800599e:	f5ae 1e80 	sub.w	lr, lr, #1048576	; 0x100000
 80059a2:	4576      	cmp	r6, lr
 80059a4:	f000 808e 	beq.w	8005ac4 <HAL_GPIO_Init+0x198>
      configregister = (iocurrent < GPIO_PIN_8) ? &GPIOx->CRL     : &GPIOx->CRH;
 80059a8:	f1bc 0fff 	cmp.w	ip, #255	; 0xff
 80059ac:	bf9c      	itt	ls
 80059ae:	4686      	movls	lr, r0
      registeroffset = (iocurrent < GPIO_PIN_8) ? (position << 2u) : ((position - 8u) << 2u);
 80059b0:	4693      	movls	fp, r2
      MODIFY_REG((*configregister), ((GPIO_CRL_MODE0 | GPIO_CRL_CNF0) << registeroffset), (config << registeroffset));
 80059b2:	f04f 060f 	mov.w	r6, #15
      configregister = (iocurrent < GPIO_PIN_8) ? &GPIOx->CRL     : &GPIOx->CRH;
 80059b6:	bf84      	itt	hi
 80059b8:	f100 0e04 	addhi.w	lr, r0, #4
      registeroffset = (iocurrent < GPIO_PIN_8) ? (position << 2u) : ((position - 8u) << 2u);
 80059bc:	f1a2 0b20 	subhi.w	fp, r2, #32
      MODIFY_REG((*configregister), ((GPIO_CRL_MODE0 | GPIO_CRL_CNF0) << registeroffset), (config << registeroffset));
 80059c0:	f8de 4000 	ldr.w	r4, [lr]
 80059c4:	fa0a f90b 	lsl.w	r9, sl, fp
 80059c8:	fa06 fb0b 	lsl.w	fp, r6, fp
 80059cc:	ea24 040b 	bic.w	r4, r4, fp
 80059d0:	ea44 0409 	orr.w	r4, r4, r9
 80059d4:	f8ce 4000 	str.w	r4, [lr]
      if ((GPIO_Init->Mode & EXTI_MODE) == EXTI_MODE)
 80059d8:	684c      	ldr	r4, [r1, #4]
 80059da:	f014 5f80 	tst.w	r4, #268435456	; 0x10000000
 80059de:	d079      	beq.n	8005ad4 <HAL_GPIO_Init+0x1a8>
        __HAL_RCC_AFIO_CLK_ENABLE();
 80059e0:	f8d7 e018 	ldr.w	lr, [r7, #24]
        CLEAR_BIT(temp, (0x0Fu) << (4u * (position & 0x03u)));
 80059e4:	f003 0903 	and.w	r9, r3, #3
        __HAL_RCC_AFIO_CLK_ENABLE();
 80059e8:	f04e 0e01 	orr.w	lr, lr, #1
 80059ec:	f8c7 e018 	str.w	lr, [r7, #24]
 80059f0:	f8d7 e018 	ldr.w	lr, [r7, #24]
        CLEAR_BIT(temp, (0x0Fu) << (4u * (position & 0x03u)));
 80059f4:	ea4f 0989 	mov.w	r9, r9, lsl #2
        __HAL_RCC_AFIO_CLK_ENABLE();
 80059f8:	f00e 0e01 	and.w	lr, lr, #1
 80059fc:	f8cd e004 	str.w	lr, [sp, #4]
 8005a00:	f8dd e004 	ldr.w	lr, [sp, #4]
        temp = AFIO->EXTICR[position >> 2u];
 8005a04:	f023 0e03 	bic.w	lr, r3, #3
 8005a08:	f10e 4e80 	add.w	lr, lr, #1073741824	; 0x40000000
 8005a0c:	f50e 3e80 	add.w	lr, lr, #65536	; 0x10000
 8005a10:	f8de b008 	ldr.w	fp, [lr, #8]
        CLEAR_BIT(temp, (0x0Fu) << (4u * (position & 0x03u)));
 8005a14:	fa06 f609 	lsl.w	r6, r6, r9
 8005a18:	ea2b 0606 	bic.w	r6, fp, r6
        SET_BIT(temp, (GPIO_GET_INDEX(GPIOx)) << (4u * (position & 0x03u)));
 8005a1c:	f8df b118 	ldr.w	fp, [pc, #280]	; 8005b38 <HAL_GPIO_Init+0x20c>
 8005a20:	4558      	cmp	r0, fp
 8005a22:	d013      	beq.n	8005a4c <HAL_GPIO_Init+0x120>
 8005a24:	f50b 6b80 	add.w	fp, fp, #1024	; 0x400
 8005a28:	4558      	cmp	r0, fp
 8005a2a:	d06b      	beq.n	8005b04 <HAL_GPIO_Init+0x1d8>
 8005a2c:	f8df b10c 	ldr.w	fp, [pc, #268]	; 8005b3c <HAL_GPIO_Init+0x210>
 8005a30:	4558      	cmp	r0, fp
 8005a32:	d060      	beq.n	8005af6 <HAL_GPIO_Init+0x1ca>
 8005a34:	f8df b108 	ldr.w	fp, [pc, #264]	; 8005b40 <HAL_GPIO_Init+0x214>
 8005a38:	4558      	cmp	r0, fp
 8005a3a:	bf0c      	ite	eq
 8005a3c:	f04f 0b03 	moveq.w	fp, #3
 8005a40:	f04f 0b04 	movne.w	fp, #4
 8005a44:	fa0b f909 	lsl.w	r9, fp, r9
 8005a48:	ea46 0609 	orr.w	r6, r6, r9
        AFIO->EXTICR[position >> 2u] = temp;
 8005a4c:	f8ce 6008 	str.w	r6, [lr, #8]
          SET_BIT(EXTI->IMR, iocurrent);
 8005a50:	682e      	ldr	r6, [r5, #0]
        if ((GPIO_Init->Mode & GPIO_MODE_IT) == GPIO_MODE_IT)
 8005a52:	f414 3f80 	tst.w	r4, #65536	; 0x10000
          SET_BIT(EXTI->IMR, iocurrent);
 8005a56:	bf14      	ite	ne
 8005a58:	ea46 060c 	orrne.w	r6, r6, ip
          CLEAR_BIT(EXTI->IMR, iocurrent);
 8005a5c:	ea26 060c 	biceq.w	r6, r6, ip
 8005a60:	602e      	str	r6, [r5, #0]
          SET_BIT(EXTI->EMR, iocurrent);
 8005a62:	686e      	ldr	r6, [r5, #4]
        if ((GPIO_Init->Mode & GPIO_MODE_EVT) == GPIO_MODE_EVT)
 8005a64:	f414 3f00 	tst.w	r4, #131072	; 0x20000
          SET_BIT(EXTI->EMR, iocurrent);
 8005a68:	bf14      	ite	ne
 8005a6a:	ea46 060c 	orrne.w	r6, r6, ip
          CLEAR_BIT(EXTI->EMR, iocurrent);
 8005a6e:	ea26 060c 	biceq.w	r6, r6, ip
 8005a72:	606e      	str	r6, [r5, #4]
          SET_BIT(EXTI->RTSR, iocurrent);
 8005a74:	68ae      	ldr	r6, [r5, #8]
        if ((GPIO_Init->Mode & RISING_EDGE) == RISING_EDGE)
 8005a76:	f414 1f80 	tst.w	r4, #1048576	; 0x100000
          SET_BIT(EXTI->RTSR, iocurrent);
 8005a7a:	bf14      	ite	ne
 8005a7c:	ea46 060c 	orrne.w	r6, r6, ip
          CLEAR_BIT(EXTI->RTSR, iocurrent);
 8005a80:	ea26 060c 	biceq.w	r6, r6, ip
 8005a84:	60ae      	str	r6, [r5, #8]
        if ((GPIO_Init->Mode & FALLING_EDGE) == FALLING_EDGE)
 8005a86:	f414 1f00 	tst.w	r4, #2097152	; 0x200000
          SET_BIT(EXTI->FTSR, iocurrent);
 8005a8a:	68ec      	ldr	r4, [r5, #12]
        if ((GPIO_Init->Mode & FALLING_EDGE) == FALLING_EDGE)
 8005a8c:	d01f      	beq.n	8005ace <HAL_GPIO_Init+0x1a2>
          SET_BIT(EXTI->FTSR, iocurrent);
 8005a8e:	ea44 040c 	orr.w	r4, r4, ip
 8005a92:	60ec      	str	r4, [r5, #12]
  while (((GPIO_Init->Pin) >> position) != 0x00u)
 8005a94:	680e      	ldr	r6, [r1, #0]
	position++;
 8005a96:	3301      	adds	r3, #1
  while (((GPIO_Init->Pin) >> position) != 0x00u)
 8005a98:	fa36 f403 	lsrs.w	r4, r6, r3
 8005a9c:	f102 0204 	add.w	r2, r2, #4
 8005aa0:	f47f af5a 	bne.w	8005958 <HAL_GPIO_Init+0x2c>
  }
}
 8005aa4:	b003      	add	sp, #12
 8005aa6:	e8bd 8ff0 	ldmia.w	sp!, {r4, r5, r6, r7, r8, r9, sl, fp, pc}
      switch (GPIO_Init->Mode)
 8005aaa:	4546      	cmp	r6, r8
 8005aac:	d00a      	beq.n	8005ac4 <HAL_GPIO_Init+0x198>
 8005aae:	f67f af6c 	bls.w	800598a <HAL_GPIO_Init+0x5e>
 8005ab2:	f8df e090 	ldr.w	lr, [pc, #144]	; 8005b44 <HAL_GPIO_Init+0x218>
 8005ab6:	4576      	cmp	r6, lr
 8005ab8:	d004      	beq.n	8005ac4 <HAL_GPIO_Init+0x198>
 8005aba:	f50e 3e80 	add.w	lr, lr, #65536	; 0x10000
 8005abe:	4576      	cmp	r6, lr
 8005ac0:	f47f af72 	bne.w	80059a8 <HAL_GPIO_Init+0x7c>
          if (GPIO_Init->Pull == GPIO_NOPULL)
 8005ac4:	688e      	ldr	r6, [r1, #8]
 8005ac6:	bb3e      	cbnz	r6, 8005b18 <HAL_GPIO_Init+0x1ec>
            config = GPIO_CR_MODE_INPUT + GPIO_CR_CNF_INPUT_FLOATING;
 8005ac8:	f04f 0a04 	mov.w	sl, #4
 8005acc:	e76c      	b.n	80059a8 <HAL_GPIO_Init+0x7c>
          CLEAR_BIT(EXTI->FTSR, iocurrent);
 8005ace:	ea24 040c 	bic.w	r4, r4, ip
 8005ad2:	60ec      	str	r4, [r5, #12]
  while (((GPIO_Init->Pin) >> position) != 0x00u)
 8005ad4:	680e      	ldr	r6, [r1, #0]
 8005ad6:	e738      	b.n	800594a <HAL_GPIO_Init+0x1e>
          config = GPIO_Init->Speed + GPIO_CR_CNF_GP_OUTPUT_OD;
 8005ad8:	68cc      	ldr	r4, [r1, #12]
 8005ada:	f104 0a04 	add.w	sl, r4, #4
          break;
 8005ade:	e763      	b.n	80059a8 <HAL_GPIO_Init+0x7c>
          config = GPIO_Init->Speed + GPIO_CR_CNF_AF_OUTPUT_PP;
 8005ae0:	68cc      	ldr	r4, [r1, #12]
 8005ae2:	f104 0a08 	add.w	sl, r4, #8
          break;
 8005ae6:	e75f      	b.n	80059a8 <HAL_GPIO_Init+0x7c>
          config = GPIO_Init->Speed + GPIO_CR_CNF_GP_OUTPUT_PP;
 8005ae8:	f8d1 a00c 	ldr.w	sl, [r1, #12]
          break;
 8005aec:	e75c      	b.n	80059a8 <HAL_GPIO_Init+0x7c>
          config = GPIO_Init->Speed + GPIO_CR_CNF_AF_OUTPUT_OD;
 8005aee:	68cc      	ldr	r4, [r1, #12]
 8005af0:	f104 0a0c 	add.w	sl, r4, #12
          break;
 8005af4:	e758      	b.n	80059a8 <HAL_GPIO_Init+0x7c>
        SET_BIT(temp, (GPIO_GET_INDEX(GPIOx)) << (4u * (position & 0x03u)));
 8005af6:	f04f 0b02 	mov.w	fp, #2
 8005afa:	fa0b f909 	lsl.w	r9, fp, r9
 8005afe:	ea46 0609 	orr.w	r6, r6, r9
 8005b02:	e7a3      	b.n	8005a4c <HAL_GPIO_Init+0x120>
 8005b04:	f04f 0b01 	mov.w	fp, #1
 8005b08:	fa0b f909 	lsl.w	r9, fp, r9
 8005b0c:	ea46 0609 	orr.w	r6, r6, r9
 8005b10:	e79c      	b.n	8005a4c <HAL_GPIO_Init+0x120>
      switch (GPIO_Init->Mode)
 8005b12:	f04f 0a00 	mov.w	sl, #0
 8005b16:	e747      	b.n	80059a8 <HAL_GPIO_Init+0x7c>
          else if (GPIO_Init->Pull == GPIO_PULLUP)
 8005b18:	2e01      	cmp	r6, #1
            config = GPIO_CR_MODE_INPUT + GPIO_CR_CNF_INPUT_PU_PD;
 8005b1a:	f04f 0a08 	mov.w	sl, #8
            GPIOx->BSRR = ioposition;
 8005b1e:	bf0c      	ite	eq
 8005b20:	6104      	streq	r4, [r0, #16]
            GPIOx->BRR = ioposition;
 8005b22:	6144      	strne	r4, [r0, #20]
 8005b24:	e740      	b.n	80059a8 <HAL_GPIO_Init+0x7c>
 8005b26:	bf00      	nop
 8005b28:	40021000 	.word	0x40021000
 8005b2c:	40010400 	.word	0x40010400
 8005b30:	10220000 	.word	0x10220000
 8005b34:	10120000 	.word	0x10120000
 8005b38:	40010800 	.word	0x40010800
 8005b3c:	40011000 	.word	0x40011000
 8005b40:	40011400 	.word	0x40011400
 8005b44:	10310000 	.word	0x10310000

08005b48 <HAL_GPIO_ReadPin>:
  GPIO_PinState bitstatus;

  /* Check the parameters */
  assert_param(IS_GPIO_PIN(GPIO_Pin));

  if ((GPIOx->IDR & GPIO_Pin) != (uint32_t)GPIO_PIN_RESET)
 8005b48:	6883      	ldr	r3, [r0, #8]
 8005b4a:	4219      	tst	r1, r3
  else
  {
    bitstatus = GPIO_PIN_RESET;
  }
  return bitstatus;
}
 8005b4c:	bf14      	ite	ne
 8005b4e:	2001      	movne	r0, #1
 8005b50:	2000      	moveq	r0, #0
 8005b52:	4770      	bx	lr

08005b54 <HAL_GPIO_WritePin>:
{
  /* Check the parameters */
  assert_param(IS_GPIO_PIN(GPIO_Pin));
  assert_param(IS_GPIO_PIN_ACTION(PinState));

  if (PinState != GPIO_PIN_RESET)
 8005b54:	b902      	cbnz	r2, 8005b58 <HAL_GPIO_WritePin+0x4>
  {
    GPIOx->BSRR = GPIO_Pin;
  }
  else
  {
    GPIOx->BSRR = (uint32_t)GPIO_Pin << 16u;
 8005b56:	0409      	lsls	r1, r1, #16
 8005b58:	6101      	str	r1, [r0, #16]
  }
}
 8005b5a:	4770      	bx	lr

08005b5c <HAL_PWR_EnableBkUpAccess>:
  * @retval None
  */
void HAL_PWR_EnableBkUpAccess(void)
{
  /* Enable access to RTC and backup registers */
  *(__IO uint32_t *) CR_DBP_BB = (uint32_t)ENABLE;
 8005b5c:	2201      	movs	r2, #1
 8005b5e:	4b01      	ldr	r3, [pc, #4]	; (8005b64 <HAL_PWR_EnableBkUpAccess+0x8>)
 8005b60:	621a      	str	r2, [r3, #32]
}
 8005b62:	4770      	bx	lr
 8005b64:	420e0000 	.word	0x420e0000

08005b68 <HAL_RCC_OscConfig>:
{
  uint32_t tickstart;
  uint32_t pll_config;

  /* Check Null pointer */
  if (RCC_OscInitStruct == NULL)
 8005b68:	2800      	cmp	r0, #0
 8005b6a:	f000 81b6 	beq.w	8005eda <HAL_RCC_OscConfig+0x372>
{
 8005b6e:	e92d 41f0 	stmdb	sp!, {r4, r5, r6, r7, r8, lr}

  /* Check the parameters */
  assert_param(IS_RCC_OSCILLATORTYPE(RCC_OscInitStruct->OscillatorType));

  /*------------------------------- HSE Configuration ------------------------*/
  if (((RCC_OscInitStruct->OscillatorType) & RCC_OSCILLATORTYPE_HSE) == RCC_OSCILLATORTYPE_HSE)
 8005b72:	6803      	ldr	r3, [r0, #0]
 8005b74:	4604      	mov	r4, r0
 8005b76:	07dd      	lsls	r5, r3, #31
{
 8005b78:	b082      	sub	sp, #8
  if (((RCC_OscInitStruct->OscillatorType) & RCC_OSCILLATORTYPE_HSE) == RCC_OSCILLATORTYPE_HSE)
 8005b7a:	d535      	bpl.n	8005be8 <HAL_RCC_OscConfig+0x80>
  {
    /* Check the parameters */
    assert_param(IS_RCC_HSE(RCC_OscInitStruct->HSEState));

    /* When the HSE is used as system clock or clock source for PLL in these cases it is not allowed to be disabled */
    if ((__HAL_RCC_GET_SYSCLK_SOURCE() == RCC_SYSCLKSOURCE_STATUS_HSE)
 8005b7c:	499a      	ldr	r1, [pc, #616]	; (8005de8 <HAL_RCC_OscConfig+0x280>)
 8005b7e:	684a      	ldr	r2, [r1, #4]
 8005b80:	f002 020c 	and.w	r2, r2, #12
 8005b84:	2a04      	cmp	r2, #4
 8005b86:	f000 80ef 	beq.w	8005d68 <HAL_RCC_OscConfig+0x200>
        || ((__HAL_RCC_GET_SYSCLK_SOURCE() == RCC_SYSCLKSOURCE_STATUS_PLLCLK) && (__HAL_RCC_GET_PLL_OSCSOURCE() == RCC_PLLSOURCE_HSE)))
 8005b8a:	684a      	ldr	r2, [r1, #4]
 8005b8c:	f002 020c 	and.w	r2, r2, #12
 8005b90:	2a08      	cmp	r2, #8
 8005b92:	f000 80e5 	beq.w	8005d60 <HAL_RCC_OscConfig+0x1f8>
      }
    }
    else
    {
      /* Set the new HSE configuration ---------------------------------------*/
      __HAL_RCC_HSE_CONFIG(RCC_OscInitStruct->HSEState);
 8005b96:	6863      	ldr	r3, [r4, #4]
 8005b98:	f5b3 3f80 	cmp.w	r3, #65536	; 0x10000
 8005b9c:	d010      	beq.n	8005bc0 <HAL_RCC_OscConfig+0x58>
 8005b9e:	2b00      	cmp	r3, #0
 8005ba0:	f000 810c 	beq.w	8005dbc <HAL_RCC_OscConfig+0x254>
 8005ba4:	f5b3 2fa0 	cmp.w	r3, #327680	; 0x50000
 8005ba8:	f000 8182 	beq.w	8005eb0 <HAL_RCC_OscConfig+0x348>
 8005bac:	4b8e      	ldr	r3, [pc, #568]	; (8005de8 <HAL_RCC_OscConfig+0x280>)
 8005bae:	681a      	ldr	r2, [r3, #0]
 8005bb0:	f422 3280 	bic.w	r2, r2, #65536	; 0x10000
 8005bb4:	601a      	str	r2, [r3, #0]
 8005bb6:	681a      	ldr	r2, [r3, #0]
 8005bb8:	f422 2280 	bic.w	r2, r2, #262144	; 0x40000
 8005bbc:	601a      	str	r2, [r3, #0]
 8005bbe:	e004      	b.n	8005bca <HAL_RCC_OscConfig+0x62>
 8005bc0:	4a89      	ldr	r2, [pc, #548]	; (8005de8 <HAL_RCC_OscConfig+0x280>)
 8005bc2:	6813      	ldr	r3, [r2, #0]
 8005bc4:	f443 3380 	orr.w	r3, r3, #65536	; 0x10000
 8005bc8:	6013      	str	r3, [r2, #0]

      /* Check the HSE State */
      if (RCC_OscInitStruct->HSEState != RCC_HSE_OFF)
      {
        /* Get Start Tick */
        tickstart = HAL_GetTick();
 8005bca:	f7ff faad 	bl	8005128 <HAL_GetTick>

        /* Wait till HSE is ready */
        while (__HAL_RCC_GET_FLAG(RCC_FLAG_HSERDY) == RESET)
 8005bce:	4e86      	ldr	r6, [pc, #536]	; (8005de8 <HAL_RCC_OscConfig+0x280>)
        tickstart = HAL_GetTick();
 8005bd0:	4605      	mov	r5, r0
        while (__HAL_RCC_GET_FLAG(RCC_FLAG_HSERDY) == RESET)
 8005bd2:	e005      	b.n	8005be0 <HAL_RCC_OscConfig+0x78>
        {
          if ((HAL_GetTick() - tickstart) > HSE_TIMEOUT_VALUE)
 8005bd4:	f7ff faa8 	bl	8005128 <HAL_GetTick>
 8005bd8:	1b40      	subs	r0, r0, r5
 8005bda:	2864      	cmp	r0, #100	; 0x64
 8005bdc:	f200 80ea 	bhi.w	8005db4 <HAL_RCC_OscConfig+0x24c>
        while (__HAL_RCC_GET_FLAG(RCC_FLAG_HSERDY) == RESET)
 8005be0:	6833      	ldr	r3, [r6, #0]
 8005be2:	039a      	lsls	r2, r3, #14
 8005be4:	d5f6      	bpl.n	8005bd4 <HAL_RCC_OscConfig+0x6c>
        }
      }
    }
  }
  /*----------------------------- HSI Configuration --------------------------*/
  if (((RCC_OscInitStruct->OscillatorType) & RCC_OSCILLATORTYPE_HSI) == RCC_OSCILLATORTYPE_HSI)
 8005be6:	6823      	ldr	r3, [r4, #0]
 8005be8:	079f      	lsls	r7, r3, #30
 8005bea:	d528      	bpl.n	8005c3e <HAL_RCC_OscConfig+0xd6>
    /* Check the parameters */
    assert_param(IS_RCC_HSI(RCC_OscInitStruct->HSIState));
    assert_param(IS_RCC_CALIBRATION_VALUE(RCC_OscInitStruct->HSICalibrationValue));

    /* Check if HSI is used as system clock or as PLL source when PLL is selected as system clock */
    if ((__HAL_RCC_GET_SYSCLK_SOURCE() == RCC_SYSCLKSOURCE_STATUS_HSI)
 8005bec:	4a7e      	ldr	r2, [pc, #504]	; (8005de8 <HAL_RCC_OscConfig+0x280>)
 8005bee:	6851      	ldr	r1, [r2, #4]
 8005bf0:	f011 0f0c 	tst.w	r1, #12
 8005bf4:	f000 808d 	beq.w	8005d12 <HAL_RCC_OscConfig+0x1aa>
        || ((__HAL_RCC_GET_SYSCLK_SOURCE() == RCC_SYSCLKSOURCE_STATUS_PLLCLK) && (__HAL_RCC_GET_PLL_OSCSOURCE() == RCC_PLLSOURCE_HSI_DIV2)))
 8005bf8:	6851      	ldr	r1, [r2, #4]
 8005bfa:	f001 010c 	and.w	r1, r1, #12
 8005bfe:	2908      	cmp	r1, #8
 8005c00:	f000 8083 	beq.w	8005d0a <HAL_RCC_OscConfig+0x1a2>
      }
    }
    else
    {
      /* Check the HSI State */
      if (RCC_OscInitStruct->HSIState != RCC_HSI_OFF)
 8005c04:	6923      	ldr	r3, [r4, #16]
 8005c06:	2b00      	cmp	r3, #0
 8005c08:	f000 8118 	beq.w	8005e3c <HAL_RCC_OscConfig+0x2d4>
      {
        /* Enable the Internal High Speed oscillator (HSI). */
        __HAL_RCC_HSI_ENABLE();
 8005c0c:	2201      	movs	r2, #1
 8005c0e:	4b77      	ldr	r3, [pc, #476]	; (8005dec <HAL_RCC_OscConfig+0x284>)

        /* Get Start Tick */
        tickstart = HAL_GetTick();

        /* Wait till HSI is ready */
        while (__HAL_RCC_GET_FLAG(RCC_FLAG_HSIRDY) == RESET)
 8005c10:	4e75      	ldr	r6, [pc, #468]	; (8005de8 <HAL_RCC_OscConfig+0x280>)
        __HAL_RCC_HSI_ENABLE();
 8005c12:	601a      	str	r2, [r3, #0]
        tickstart = HAL_GetTick();
 8005c14:	f7ff fa88 	bl	8005128 <HAL_GetTick>
 8005c18:	4605      	mov	r5, r0
        while (__HAL_RCC_GET_FLAG(RCC_FLAG_HSIRDY) == RESET)
 8005c1a:	e005      	b.n	8005c28 <HAL_RCC_OscConfig+0xc0>
        {
          if ((HAL_GetTick() - tickstart) > HSI_TIMEOUT_VALUE)
 8005c1c:	f7ff fa84 	bl	8005128 <HAL_GetTick>
 8005c20:	1b40      	subs	r0, r0, r5
 8005c22:	2802      	cmp	r0, #2
 8005c24:	f200 80c6 	bhi.w	8005db4 <HAL_RCC_OscConfig+0x24c>
        while (__HAL_RCC_GET_FLAG(RCC_FLAG_HSIRDY) == RESET)
 8005c28:	6833      	ldr	r3, [r6, #0]
 8005c2a:	0798      	lsls	r0, r3, #30
 8005c2c:	d5f6      	bpl.n	8005c1c <HAL_RCC_OscConfig+0xb4>
            return HAL_TIMEOUT;
          }
        }

        /* Adjusts the Internal High Speed oscillator (HSI) calibration value.*/
        __HAL_RCC_HSI_CALIBRATIONVALUE_ADJUST(RCC_OscInitStruct->HSICalibrationValue);
 8005c2e:	6833      	ldr	r3, [r6, #0]
 8005c30:	6962      	ldr	r2, [r4, #20]
 8005c32:	f023 03f8 	bic.w	r3, r3, #248	; 0xf8
 8005c36:	ea43 03c2 	orr.w	r3, r3, r2, lsl #3
 8005c3a:	6033      	str	r3, [r6, #0]
        }
      }
    }
  }
  /*------------------------------ LSI Configuration -------------------------*/
  if (((RCC_OscInitStruct->OscillatorType) & RCC_OSCILLATORTYPE_LSI) == RCC_OSCILLATORTYPE_LSI)
 8005c3c:	6823      	ldr	r3, [r4, #0]
 8005c3e:	071a      	lsls	r2, r3, #28
 8005c40:	d41f      	bmi.n	8005c82 <HAL_RCC_OscConfig+0x11a>
        }
      }
    }
  }
  /*------------------------------ LSE Configuration -------------------------*/
  if (((RCC_OscInitStruct->OscillatorType) & RCC_OSCILLATORTYPE_LSE) == RCC_OSCILLATORTYPE_LSE)
 8005c42:	075d      	lsls	r5, r3, #29
 8005c44:	d542      	bpl.n	8005ccc <HAL_RCC_OscConfig+0x164>
    /* Check the parameters */
    assert_param(IS_RCC_LSE(RCC_OscInitStruct->LSEState));

    /* Update LSE configuration in Backup Domain control register    */
    /* Requires to enable write access to Backup Domain of necessary */
    if (__HAL_RCC_PWR_IS_CLK_DISABLED())
 8005c46:	4b68      	ldr	r3, [pc, #416]	; (8005de8 <HAL_RCC_OscConfig+0x280>)
 8005c48:	69da      	ldr	r2, [r3, #28]
 8005c4a:	00d0      	lsls	r0, r2, #3
 8005c4c:	d57d      	bpl.n	8005d4a <HAL_RCC_OscConfig+0x1e2>
    FlagStatus       pwrclkchanged = RESET;
 8005c4e:	2500      	movs	r5, #0
    {
      __HAL_RCC_PWR_CLK_ENABLE();
      pwrclkchanged = SET;
    }

    if (HAL_IS_BIT_CLR(PWR->CR, PWR_CR_DBP))
 8005c50:	4e67      	ldr	r6, [pc, #412]	; (8005df0 <HAL_RCC_OscConfig+0x288>)
 8005c52:	6833      	ldr	r3, [r6, #0]
 8005c54:	05d9      	lsls	r1, r3, #23
 8005c56:	f140 809d 	bpl.w	8005d94 <HAL_RCC_OscConfig+0x22c>
        }
      }
    }

    /* Set the new LSE configuration -----------------------------------------*/
    __HAL_RCC_LSE_CONFIG(RCC_OscInitStruct->LSEState);
 8005c5a:	68e3      	ldr	r3, [r4, #12]
 8005c5c:	2b01      	cmp	r3, #1
 8005c5e:	f000 80fe 	beq.w	8005e5e <HAL_RCC_OscConfig+0x2f6>
 8005c62:	2b00      	cmp	r3, #0
 8005c64:	f000 80ca 	beq.w	8005dfc <HAL_RCC_OscConfig+0x294>
 8005c68:	2b05      	cmp	r3, #5
 8005c6a:	4b5f      	ldr	r3, [pc, #380]	; (8005de8 <HAL_RCC_OscConfig+0x280>)
 8005c6c:	6a1a      	ldr	r2, [r3, #32]
 8005c6e:	f000 812c 	beq.w	8005eca <HAL_RCC_OscConfig+0x362>
 8005c72:	f022 0201 	bic.w	r2, r2, #1
 8005c76:	621a      	str	r2, [r3, #32]
 8005c78:	6a1a      	ldr	r2, [r3, #32]
 8005c7a:	f022 0204 	bic.w	r2, r2, #4
 8005c7e:	621a      	str	r2, [r3, #32]
 8005c80:	e0f2      	b.n	8005e68 <HAL_RCC_OscConfig+0x300>
    if (RCC_OscInitStruct->LSIState != RCC_LSI_OFF)
 8005c82:	69a3      	ldr	r3, [r4, #24]
 8005c84:	2b00      	cmp	r3, #0
 8005c86:	d04f      	beq.n	8005d28 <HAL_RCC_OscConfig+0x1c0>
      __HAL_RCC_LSI_ENABLE();
 8005c88:	2201      	movs	r2, #1
 8005c8a:	4b58      	ldr	r3, [pc, #352]	; (8005dec <HAL_RCC_OscConfig+0x284>)
      while (__HAL_RCC_GET_FLAG(RCC_FLAG_LSIRDY) == RESET)
 8005c8c:	4e56      	ldr	r6, [pc, #344]	; (8005de8 <HAL_RCC_OscConfig+0x280>)
      __HAL_RCC_LSI_ENABLE();
 8005c8e:	f8c3 2480 	str.w	r2, [r3, #1152]	; 0x480
      tickstart = HAL_GetTick();
 8005c92:	f7ff fa49 	bl	8005128 <HAL_GetTick>
 8005c96:	4605      	mov	r5, r0
      while (__HAL_RCC_GET_FLAG(RCC_FLAG_LSIRDY) == RESET)
 8005c98:	e005      	b.n	8005ca6 <HAL_RCC_OscConfig+0x13e>
        if ((HAL_GetTick() - tickstart) > LSI_TIMEOUT_VALUE)
 8005c9a:	f7ff fa45 	bl	8005128 <HAL_GetTick>
 8005c9e:	1b40      	subs	r0, r0, r5
 8005ca0:	2802      	cmp	r0, #2
 8005ca2:	f200 8087 	bhi.w	8005db4 <HAL_RCC_OscConfig+0x24c>
      while (__HAL_RCC_GET_FLAG(RCC_FLAG_LSIRDY) == RESET)
 8005ca6:	6a73      	ldr	r3, [r6, #36]	; 0x24
 8005ca8:	079b      	lsls	r3, r3, #30
 8005caa:	d5f6      	bpl.n	8005c9a <HAL_RCC_OscConfig+0x132>
  * @param  mdelay: specifies the delay time length, in milliseconds.
  * @retval None
  */
static void RCC_Delay(uint32_t mdelay)
{
  __IO uint32_t Delay = mdelay * (SystemCoreClock / 8U / 1000U);
 8005cac:	4b51      	ldr	r3, [pc, #324]	; (8005df4 <HAL_RCC_OscConfig+0x28c>)
 8005cae:	4a52      	ldr	r2, [pc, #328]	; (8005df8 <HAL_RCC_OscConfig+0x290>)
 8005cb0:	681b      	ldr	r3, [r3, #0]
 8005cb2:	fba2 2303 	umull	r2, r3, r2, r3
 8005cb6:	0a5b      	lsrs	r3, r3, #9
 8005cb8:	9301      	str	r3, [sp, #4]
  do
  {
    __NOP();
 8005cba:	bf00      	nop
  }
  while (Delay --);
 8005cbc:	9b01      	ldr	r3, [sp, #4]
 8005cbe:	1e5a      	subs	r2, r3, #1
 8005cc0:	9201      	str	r2, [sp, #4]
 8005cc2:	2b00      	cmp	r3, #0
 8005cc4:	d1f9      	bne.n	8005cba <HAL_RCC_OscConfig+0x152>
  if (((RCC_OscInitStruct->OscillatorType) & RCC_OSCILLATORTYPE_LSE) == RCC_OSCILLATORTYPE_LSE)
 8005cc6:	6823      	ldr	r3, [r4, #0]
 8005cc8:	075d      	lsls	r5, r3, #29
 8005cca:	d4bc      	bmi.n	8005c46 <HAL_RCC_OscConfig+0xde>
  if ((RCC_OscInitStruct->PLL.PLLState) != RCC_PLL_NONE)
 8005ccc:	69e0      	ldr	r0, [r4, #28]
 8005cce:	b1c0      	cbz	r0, 8005d02 <HAL_RCC_OscConfig+0x19a>
    if (__HAL_RCC_GET_SYSCLK_SOURCE() != RCC_SYSCLKSOURCE_STATUS_PLLCLK)
 8005cd0:	4d45      	ldr	r5, [pc, #276]	; (8005de8 <HAL_RCC_OscConfig+0x280>)
 8005cd2:	686b      	ldr	r3, [r5, #4]
 8005cd4:	f003 030c 	and.w	r3, r3, #12
 8005cd8:	2b08      	cmp	r3, #8
 8005cda:	f000 80d8 	beq.w	8005e8e <HAL_RCC_OscConfig+0x326>
        __HAL_RCC_PLL_DISABLE();
 8005cde:	2200      	movs	r2, #0
 8005ce0:	4b42      	ldr	r3, [pc, #264]	; (8005dec <HAL_RCC_OscConfig+0x284>)
      if ((RCC_OscInitStruct->PLL.PLLState) == RCC_PLL_ON)
 8005ce2:	2802      	cmp	r0, #2
        __HAL_RCC_PLL_DISABLE();
 8005ce4:	661a      	str	r2, [r3, #96]	; 0x60
      if ((RCC_OscInitStruct->PLL.PLLState) == RCC_PLL_ON)
 8005ce6:	f000 80fa 	beq.w	8005ede <HAL_RCC_OscConfig+0x376>
        tickstart = HAL_GetTick();
 8005cea:	f7ff fa1d 	bl	8005128 <HAL_GetTick>
 8005cee:	4604      	mov	r4, r0
        while (__HAL_RCC_GET_FLAG(RCC_FLAG_PLLRDY)  != RESET)
 8005cf0:	e004      	b.n	8005cfc <HAL_RCC_OscConfig+0x194>
          if ((HAL_GetTick() - tickstart) > PLL_TIMEOUT_VALUE)
 8005cf2:	f7ff fa19 	bl	8005128 <HAL_GetTick>
 8005cf6:	1b00      	subs	r0, r0, r4
 8005cf8:	2802      	cmp	r0, #2
 8005cfa:	d85b      	bhi.n	8005db4 <HAL_RCC_OscConfig+0x24c>
        while (__HAL_RCC_GET_FLAG(RCC_FLAG_PLLRDY)  != RESET)
 8005cfc:	682b      	ldr	r3, [r5, #0]
 8005cfe:	019b      	lsls	r3, r3, #6
 8005d00:	d4f7      	bmi.n	8005cf2 <HAL_RCC_OscConfig+0x18a>
  return HAL_OK;
 8005d02:	2000      	movs	r0, #0
}
 8005d04:	b002      	add	sp, #8
 8005d06:	e8bd 81f0 	ldmia.w	sp!, {r4, r5, r6, r7, r8, pc}
        || ((__HAL_RCC_GET_SYSCLK_SOURCE() == RCC_SYSCLKSOURCE_STATUS_PLLCLK) && (__HAL_RCC_GET_PLL_OSCSOURCE() == RCC_PLLSOURCE_HSI_DIV2)))
 8005d0a:	6852      	ldr	r2, [r2, #4]
 8005d0c:	03d6      	lsls	r6, r2, #15
 8005d0e:	f53f af79 	bmi.w	8005c04 <HAL_RCC_OscConfig+0x9c>
      if ((__HAL_RCC_GET_FLAG(RCC_FLAG_HSIRDY) != RESET) && (RCC_OscInitStruct->HSIState != RCC_HSI_ON))
 8005d12:	4a35      	ldr	r2, [pc, #212]	; (8005de8 <HAL_RCC_OscConfig+0x280>)
 8005d14:	6812      	ldr	r2, [r2, #0]
 8005d16:	0795      	lsls	r5, r2, #30
 8005d18:	d530      	bpl.n	8005d7c <HAL_RCC_OscConfig+0x214>
 8005d1a:	6922      	ldr	r2, [r4, #16]
 8005d1c:	2a01      	cmp	r2, #1
 8005d1e:	d02d      	beq.n	8005d7c <HAL_RCC_OscConfig+0x214>
        return HAL_ERROR;
 8005d20:	2001      	movs	r0, #1
}
 8005d22:	b002      	add	sp, #8
 8005d24:	e8bd 81f0 	ldmia.w	sp!, {r4, r5, r6, r7, r8, pc}
      __HAL_RCC_LSI_DISABLE();
 8005d28:	4a30      	ldr	r2, [pc, #192]	; (8005dec <HAL_RCC_OscConfig+0x284>)
      while (__HAL_RCC_GET_FLAG(RCC_FLAG_LSIRDY) != RESET)
 8005d2a:	4e2f      	ldr	r6, [pc, #188]	; (8005de8 <HAL_RCC_OscConfig+0x280>)
      __HAL_RCC_LSI_DISABLE();
 8005d2c:	f8c2 3480 	str.w	r3, [r2, #1152]	; 0x480
      tickstart = HAL_GetTick();
 8005d30:	f7ff f9fa 	bl	8005128 <HAL_GetTick>
 8005d34:	4605      	mov	r5, r0
      while (__HAL_RCC_GET_FLAG(RCC_FLAG_LSIRDY) != RESET)
 8005d36:	e004      	b.n	8005d42 <HAL_RCC_OscConfig+0x1da>
        if ((HAL_GetTick() - tickstart) > LSI_TIMEOUT_VALUE)
 8005d38:	f7ff f9f6 	bl	8005128 <HAL_GetTick>
 8005d3c:	1b40      	subs	r0, r0, r5
 8005d3e:	2802      	cmp	r0, #2
 8005d40:	d838      	bhi.n	8005db4 <HAL_RCC_OscConfig+0x24c>
      while (__HAL_RCC_GET_FLAG(RCC_FLAG_LSIRDY) != RESET)
 8005d42:	6a73      	ldr	r3, [r6, #36]	; 0x24
 8005d44:	079f      	lsls	r7, r3, #30
 8005d46:	d4f7      	bmi.n	8005d38 <HAL_RCC_OscConfig+0x1d0>
 8005d48:	e7bd      	b.n	8005cc6 <HAL_RCC_OscConfig+0x15e>
      __HAL_RCC_PWR_CLK_ENABLE();
 8005d4a:	69da      	ldr	r2, [r3, #28]
      pwrclkchanged = SET;
 8005d4c:	2501      	movs	r5, #1
      __HAL_RCC_PWR_CLK_ENABLE();
 8005d4e:	f042 5280 	orr.w	r2, r2, #268435456	; 0x10000000
 8005d52:	61da      	str	r2, [r3, #28]
 8005d54:	69db      	ldr	r3, [r3, #28]
 8005d56:	f003 5380 	and.w	r3, r3, #268435456	; 0x10000000
 8005d5a:	9300      	str	r3, [sp, #0]
 8005d5c:	9b00      	ldr	r3, [sp, #0]
      pwrclkchanged = SET;
 8005d5e:	e777      	b.n	8005c50 <HAL_RCC_OscConfig+0xe8>
        || ((__HAL_RCC_GET_SYSCLK_SOURCE() == RCC_SYSCLKSOURCE_STATUS_PLLCLK) && (__HAL_RCC_GET_PLL_OSCSOURCE() == RCC_PLLSOURCE_HSE)))
 8005d60:	684a      	ldr	r2, [r1, #4]
 8005d62:	03d0      	lsls	r0, r2, #15
 8005d64:	f57f af17 	bpl.w	8005b96 <HAL_RCC_OscConfig+0x2e>
      if ((__HAL_RCC_GET_FLAG(RCC_FLAG_HSERDY) != RESET) && (RCC_OscInitStruct->HSEState == RCC_HSE_OFF))
 8005d68:	4a1f      	ldr	r2, [pc, #124]	; (8005de8 <HAL_RCC_OscConfig+0x280>)
 8005d6a:	6812      	ldr	r2, [r2, #0]
 8005d6c:	0391      	lsls	r1, r2, #14
 8005d6e:	f57f af3b 	bpl.w	8005be8 <HAL_RCC_OscConfig+0x80>
 8005d72:	6862      	ldr	r2, [r4, #4]
 8005d74:	2a00      	cmp	r2, #0
 8005d76:	f47f af37 	bne.w	8005be8 <HAL_RCC_OscConfig+0x80>
 8005d7a:	e7d1      	b.n	8005d20 <HAL_RCC_OscConfig+0x1b8>
        __HAL_RCC_HSI_CALIBRATIONVALUE_ADJUST(RCC_OscInitStruct->HSICalibrationValue);
 8005d7c:	491a      	ldr	r1, [pc, #104]	; (8005de8 <HAL_RCC_OscConfig+0x280>)
 8005d7e:	6960      	ldr	r0, [r4, #20]
 8005d80:	680a      	ldr	r2, [r1, #0]
 8005d82:	f022 02f8 	bic.w	r2, r2, #248	; 0xf8
 8005d86:	ea42 02c0 	orr.w	r2, r2, r0, lsl #3
 8005d8a:	600a      	str	r2, [r1, #0]
  if (((RCC_OscInitStruct->OscillatorType) & RCC_OSCILLATORTYPE_LSI) == RCC_OSCILLATORTYPE_LSI)
 8005d8c:	071a      	lsls	r2, r3, #28
 8005d8e:	f57f af58 	bpl.w	8005c42 <HAL_RCC_OscConfig+0xda>
 8005d92:	e776      	b.n	8005c82 <HAL_RCC_OscConfig+0x11a>
      SET_BIT(PWR->CR, PWR_CR_DBP);
 8005d94:	6833      	ldr	r3, [r6, #0]
 8005d96:	f443 7380 	orr.w	r3, r3, #256	; 0x100
 8005d9a:	6033      	str	r3, [r6, #0]
      tickstart = HAL_GetTick();
 8005d9c:	f7ff f9c4 	bl	8005128 <HAL_GetTick>
 8005da0:	4607      	mov	r7, r0
      while (HAL_IS_BIT_CLR(PWR->CR, PWR_CR_DBP))
 8005da2:	6833      	ldr	r3, [r6, #0]
 8005da4:	05da      	lsls	r2, r3, #23
 8005da6:	f53f af58 	bmi.w	8005c5a <HAL_RCC_OscConfig+0xf2>
        if ((HAL_GetTick() - tickstart) > RCC_DBP_TIMEOUT_VALUE)
 8005daa:	f7ff f9bd 	bl	8005128 <HAL_GetTick>
 8005dae:	1bc0      	subs	r0, r0, r7
 8005db0:	2864      	cmp	r0, #100	; 0x64
 8005db2:	d9f6      	bls.n	8005da2 <HAL_RCC_OscConfig+0x23a>
            return HAL_TIMEOUT;
 8005db4:	2003      	movs	r0, #3
}
 8005db6:	b002      	add	sp, #8
 8005db8:	e8bd 81f0 	ldmia.w	sp!, {r4, r5, r6, r7, r8, pc}
      __HAL_RCC_HSE_CONFIG(RCC_OscInitStruct->HSEState);
 8005dbc:	4d0a      	ldr	r5, [pc, #40]	; (8005de8 <HAL_RCC_OscConfig+0x280>)
 8005dbe:	682b      	ldr	r3, [r5, #0]
 8005dc0:	f423 3380 	bic.w	r3, r3, #65536	; 0x10000
 8005dc4:	602b      	str	r3, [r5, #0]
 8005dc6:	682b      	ldr	r3, [r5, #0]
 8005dc8:	f423 2380 	bic.w	r3, r3, #262144	; 0x40000
 8005dcc:	602b      	str	r3, [r5, #0]
        tickstart = HAL_GetTick();
 8005dce:	f7ff f9ab 	bl	8005128 <HAL_GetTick>
 8005dd2:	4606      	mov	r6, r0
        while (__HAL_RCC_GET_FLAG(RCC_FLAG_HSERDY) != RESET)
 8005dd4:	e004      	b.n	8005de0 <HAL_RCC_OscConfig+0x278>
          if ((HAL_GetTick() - tickstart) > HSE_TIMEOUT_VALUE)
 8005dd6:	f7ff f9a7 	bl	8005128 <HAL_GetTick>
 8005dda:	1b80      	subs	r0, r0, r6
 8005ddc:	2864      	cmp	r0, #100	; 0x64
 8005dde:	d8e9      	bhi.n	8005db4 <HAL_RCC_OscConfig+0x24c>
        while (__HAL_RCC_GET_FLAG(RCC_FLAG_HSERDY) != RESET)
 8005de0:	682b      	ldr	r3, [r5, #0]
 8005de2:	039b      	lsls	r3, r3, #14
 8005de4:	d4f7      	bmi.n	8005dd6 <HAL_RCC_OscConfig+0x26e>
 8005de6:	e6fe      	b.n	8005be6 <HAL_RCC_OscConfig+0x7e>
 8005de8:	40021000 	.word	0x40021000
 8005dec:	42420000 	.word	0x42420000
 8005df0:	40007000 	.word	0x40007000
 8005df4:	20000008 	.word	0x20000008
 8005df8:	10624dd3 	.word	0x10624dd3
    __HAL_RCC_LSE_CONFIG(RCC_OscInitStruct->LSEState);
 8005dfc:	4e50      	ldr	r6, [pc, #320]	; (8005f40 <HAL_RCC_OscConfig+0x3d8>)
        if ((HAL_GetTick() - tickstart) > RCC_LSE_TIMEOUT_VALUE)
 8005dfe:	f241 3888 	movw	r8, #5000	; 0x1388
    __HAL_RCC_LSE_CONFIG(RCC_OscInitStruct->LSEState);
 8005e02:	6a33      	ldr	r3, [r6, #32]
 8005e04:	f023 0301 	bic.w	r3, r3, #1
 8005e08:	6233      	str	r3, [r6, #32]
 8005e0a:	6a33      	ldr	r3, [r6, #32]
 8005e0c:	f023 0304 	bic.w	r3, r3, #4
 8005e10:	6233      	str	r3, [r6, #32]
      tickstart = HAL_GetTick();
 8005e12:	f7ff f989 	bl	8005128 <HAL_GetTick>
 8005e16:	4607      	mov	r7, r0
      while (__HAL_RCC_GET_FLAG(RCC_FLAG_LSERDY) != RESET)
 8005e18:	e004      	b.n	8005e24 <HAL_RCC_OscConfig+0x2bc>
        if ((HAL_GetTick() - tickstart) > RCC_LSE_TIMEOUT_VALUE)
 8005e1a:	f7ff f985 	bl	8005128 <HAL_GetTick>
 8005e1e:	1bc0      	subs	r0, r0, r7
 8005e20:	4540      	cmp	r0, r8
 8005e22:	d8c7      	bhi.n	8005db4 <HAL_RCC_OscConfig+0x24c>
      while (__HAL_RCC_GET_FLAG(RCC_FLAG_LSERDY) != RESET)
 8005e24:	6a33      	ldr	r3, [r6, #32]
 8005e26:	0798      	lsls	r0, r3, #30
 8005e28:	d4f7      	bmi.n	8005e1a <HAL_RCC_OscConfig+0x2b2>
    if (pwrclkchanged == SET)
 8005e2a:	2d00      	cmp	r5, #0
 8005e2c:	f43f af4e 	beq.w	8005ccc <HAL_RCC_OscConfig+0x164>
      __HAL_RCC_PWR_CLK_DISABLE();
 8005e30:	4a43      	ldr	r2, [pc, #268]	; (8005f40 <HAL_RCC_OscConfig+0x3d8>)
 8005e32:	69d3      	ldr	r3, [r2, #28]
 8005e34:	f023 5380 	bic.w	r3, r3, #268435456	; 0x10000000
 8005e38:	61d3      	str	r3, [r2, #28]
 8005e3a:	e747      	b.n	8005ccc <HAL_RCC_OscConfig+0x164>
        __HAL_RCC_HSI_DISABLE();
 8005e3c:	4a41      	ldr	r2, [pc, #260]	; (8005f44 <HAL_RCC_OscConfig+0x3dc>)
        while (__HAL_RCC_GET_FLAG(RCC_FLAG_HSIRDY) != RESET)
 8005e3e:	4e40      	ldr	r6, [pc, #256]	; (8005f40 <HAL_RCC_OscConfig+0x3d8>)
        __HAL_RCC_HSI_DISABLE();
 8005e40:	6013      	str	r3, [r2, #0]
        tickstart = HAL_GetTick();
 8005e42:	f7ff f971 	bl	8005128 <HAL_GetTick>
 8005e46:	4605      	mov	r5, r0
        while (__HAL_RCC_GET_FLAG(RCC_FLAG_HSIRDY) != RESET)
 8005e48:	e004      	b.n	8005e54 <HAL_RCC_OscConfig+0x2ec>
          if ((HAL_GetTick() - tickstart) > HSI_TIMEOUT_VALUE)
 8005e4a:	f7ff f96d 	bl	8005128 <HAL_GetTick>
 8005e4e:	1b40      	subs	r0, r0, r5
 8005e50:	2802      	cmp	r0, #2
 8005e52:	d8af      	bhi.n	8005db4 <HAL_RCC_OscConfig+0x24c>
        while (__HAL_RCC_GET_FLAG(RCC_FLAG_HSIRDY) != RESET)
 8005e54:	6833      	ldr	r3, [r6, #0]
 8005e56:	0799      	lsls	r1, r3, #30
 8005e58:	d4f7      	bmi.n	8005e4a <HAL_RCC_OscConfig+0x2e2>
  if (((RCC_OscInitStruct->OscillatorType) & RCC_OSCILLATORTYPE_LSI) == RCC_OSCILLATORTYPE_LSI)
 8005e5a:	6823      	ldr	r3, [r4, #0]
 8005e5c:	e6ef      	b.n	8005c3e <HAL_RCC_OscConfig+0xd6>
    __HAL_RCC_LSE_CONFIG(RCC_OscInitStruct->LSEState);
 8005e5e:	4a38      	ldr	r2, [pc, #224]	; (8005f40 <HAL_RCC_OscConfig+0x3d8>)
 8005e60:	6a13      	ldr	r3, [r2, #32]
 8005e62:	f043 0301 	orr.w	r3, r3, #1
 8005e66:	6213      	str	r3, [r2, #32]
      tickstart = HAL_GetTick();
 8005e68:	f7ff f95e 	bl	8005128 <HAL_GetTick>
        if ((HAL_GetTick() - tickstart) > RCC_LSE_TIMEOUT_VALUE)
 8005e6c:	f241 3888 	movw	r8, #5000	; 0x1388
      tickstart = HAL_GetTick();
 8005e70:	4606      	mov	r6, r0
      while (__HAL_RCC_GET_FLAG(RCC_FLAG_LSERDY) == RESET)
 8005e72:	4f33      	ldr	r7, [pc, #204]	; (8005f40 <HAL_RCC_OscConfig+0x3d8>)
 8005e74:	e004      	b.n	8005e80 <HAL_RCC_OscConfig+0x318>
        if ((HAL_GetTick() - tickstart) > RCC_LSE_TIMEOUT_VALUE)
 8005e76:	f7ff f957 	bl	8005128 <HAL_GetTick>
 8005e7a:	1b80      	subs	r0, r0, r6
 8005e7c:	4540      	cmp	r0, r8
 8005e7e:	d899      	bhi.n	8005db4 <HAL_RCC_OscConfig+0x24c>
      while (__HAL_RCC_GET_FLAG(RCC_FLAG_LSERDY) == RESET)
 8005e80:	6a3b      	ldr	r3, [r7, #32]
 8005e82:	079b      	lsls	r3, r3, #30
 8005e84:	d5f7      	bpl.n	8005e76 <HAL_RCC_OscConfig+0x30e>
    if (pwrclkchanged == SET)
 8005e86:	2d00      	cmp	r5, #0
 8005e88:	f43f af20 	beq.w	8005ccc <HAL_RCC_OscConfig+0x164>
 8005e8c:	e7d0      	b.n	8005e30 <HAL_RCC_OscConfig+0x2c8>
      if ((RCC_OscInitStruct->PLL.PLLState) == RCC_PLL_OFF)
 8005e8e:	2801      	cmp	r0, #1
 8005e90:	f43f af38 	beq.w	8005d04 <HAL_RCC_OscConfig+0x19c>
        pll_config = RCC->CFGR;
 8005e94:	686b      	ldr	r3, [r5, #4]
        if ((READ_BIT(pll_config, RCC_CFGR_PLLSRC) != RCC_OscInitStruct->PLL.PLLSource) ||
 8005e96:	6a22      	ldr	r2, [r4, #32]
 8005e98:	f403 3180 	and.w	r1, r3, #65536	; 0x10000
 8005e9c:	4291      	cmp	r1, r2
 8005e9e:	f47f af3f 	bne.w	8005d20 <HAL_RCC_OscConfig+0x1b8>
 8005ea2:	6a60      	ldr	r0, [r4, #36]	; 0x24
            (READ_BIT(pll_config, RCC_CFGR_PLLMULL) != RCC_OscInitStruct->PLL.PLLMUL))
 8005ea4:	f403 1370 	and.w	r3, r3, #3932160	; 0x3c0000
  return HAL_OK;
 8005ea8:	1a18      	subs	r0, r3, r0
 8005eaa:	bf18      	it	ne
 8005eac:	2001      	movne	r0, #1
 8005eae:	e729      	b.n	8005d04 <HAL_RCC_OscConfig+0x19c>
      __HAL_RCC_HSE_CONFIG(RCC_OscInitStruct->HSEState);
 8005eb0:	f103 4380 	add.w	r3, r3, #1073741824	; 0x40000000
 8005eb4:	f5a3 333c 	sub.w	r3, r3, #192512	; 0x2f000
 8005eb8:	681a      	ldr	r2, [r3, #0]
 8005eba:	f442 2280 	orr.w	r2, r2, #262144	; 0x40000
 8005ebe:	601a      	str	r2, [r3, #0]
 8005ec0:	681a      	ldr	r2, [r3, #0]
 8005ec2:	f442 3280 	orr.w	r2, r2, #65536	; 0x10000
 8005ec6:	601a      	str	r2, [r3, #0]
 8005ec8:	e67f      	b.n	8005bca <HAL_RCC_OscConfig+0x62>
    __HAL_RCC_LSE_CONFIG(RCC_OscInitStruct->LSEState);
 8005eca:	f042 0204 	orr.w	r2, r2, #4
 8005ece:	621a      	str	r2, [r3, #32]
 8005ed0:	6a1a      	ldr	r2, [r3, #32]
 8005ed2:	f042 0201 	orr.w	r2, r2, #1
 8005ed6:	621a      	str	r2, [r3, #32]
 8005ed8:	e7c6      	b.n	8005e68 <HAL_RCC_OscConfig+0x300>
    return HAL_ERROR;
 8005eda:	2001      	movs	r0, #1
}
 8005edc:	4770      	bx	lr
        tickstart = HAL_GetTick();
 8005ede:	f7ff f923 	bl	8005128 <HAL_GetTick>
 8005ee2:	4606      	mov	r6, r0
        while (__HAL_RCC_GET_FLAG(RCC_FLAG_PLLRDY)  != RESET)
 8005ee4:	e005      	b.n	8005ef2 <HAL_RCC_OscConfig+0x38a>
          if ((HAL_GetTick() - tickstart) > PLL_TIMEOUT_VALUE)
 8005ee6:	f7ff f91f 	bl	8005128 <HAL_GetTick>
 8005eea:	1b80      	subs	r0, r0, r6
 8005eec:	2802      	cmp	r0, #2
 8005eee:	f63f af61 	bhi.w	8005db4 <HAL_RCC_OscConfig+0x24c>
        while (__HAL_RCC_GET_FLAG(RCC_FLAG_PLLRDY)  != RESET)
 8005ef2:	682b      	ldr	r3, [r5, #0]
 8005ef4:	0199      	lsls	r1, r3, #6
 8005ef6:	d4f6      	bmi.n	8005ee6 <HAL_RCC_OscConfig+0x37e>
        if (RCC_OscInitStruct->PLL.PLLSource == RCC_PLLSOURCE_HSE)
 8005ef8:	6a23      	ldr	r3, [r4, #32]
 8005efa:	f5b3 3f80 	cmp.w	r3, #65536	; 0x10000
 8005efe:	d105      	bne.n	8005f0c <HAL_RCC_OscConfig+0x3a4>
          __HAL_RCC_HSE_PREDIV_CONFIG(RCC_OscInitStruct->HSEPredivValue);
 8005f00:	686a      	ldr	r2, [r5, #4]
 8005f02:	68a1      	ldr	r1, [r4, #8]
 8005f04:	f422 3200 	bic.w	r2, r2, #131072	; 0x20000
 8005f08:	430a      	orrs	r2, r1
 8005f0a:	606a      	str	r2, [r5, #4]
        __HAL_RCC_PLL_ENABLE();
 8005f0c:	2001      	movs	r0, #1
        __HAL_RCC_PLL_CONFIG(RCC_OscInitStruct->PLL.PLLSource,
 8005f0e:	4d0c      	ldr	r5, [pc, #48]	; (8005f40 <HAL_RCC_OscConfig+0x3d8>)
 8005f10:	6a61      	ldr	r1, [r4, #36]	; 0x24
 8005f12:	686a      	ldr	r2, [r5, #4]
 8005f14:	430b      	orrs	r3, r1
 8005f16:	f422 1274 	bic.w	r2, r2, #3997696	; 0x3d0000
        __HAL_RCC_PLL_ENABLE();
 8005f1a:	490a      	ldr	r1, [pc, #40]	; (8005f44 <HAL_RCC_OscConfig+0x3dc>)
        __HAL_RCC_PLL_CONFIG(RCC_OscInitStruct->PLL.PLLSource,
 8005f1c:	4313      	orrs	r3, r2
 8005f1e:	606b      	str	r3, [r5, #4]
        __HAL_RCC_PLL_ENABLE();
 8005f20:	6608      	str	r0, [r1, #96]	; 0x60
        tickstart = HAL_GetTick();
 8005f22:	f7ff f901 	bl	8005128 <HAL_GetTick>
 8005f26:	4604      	mov	r4, r0
        while (__HAL_RCC_GET_FLAG(RCC_FLAG_PLLRDY)  == RESET)
 8005f28:	e005      	b.n	8005f36 <HAL_RCC_OscConfig+0x3ce>
          if ((HAL_GetTick() - tickstart) > PLL_TIMEOUT_VALUE)
 8005f2a:	f7ff f8fd 	bl	8005128 <HAL_GetTick>
 8005f2e:	1b00      	subs	r0, r0, r4
 8005f30:	2802      	cmp	r0, #2
 8005f32:	f63f af3f 	bhi.w	8005db4 <HAL_RCC_OscConfig+0x24c>
        while (__HAL_RCC_GET_FLAG(RCC_FLAG_PLLRDY)  == RESET)
 8005f36:	682b      	ldr	r3, [r5, #0]
 8005f38:	019a      	lsls	r2, r3, #6
 8005f3a:	d5f6      	bpl.n	8005f2a <HAL_RCC_OscConfig+0x3c2>
 8005f3c:	e6e1      	b.n	8005d02 <HAL_RCC_OscConfig+0x19a>
 8005f3e:	bf00      	nop
 8005f40:	40021000 	.word	0x40021000
 8005f44:	42420000 	.word	0x42420000

08005f48 <HAL_RCC_ClockConfig>:
  if (RCC_ClkInitStruct == NULL)
 8005f48:	2800      	cmp	r0, #0
 8005f4a:	f000 80b1 	beq.w	80060b0 <HAL_RCC_ClockConfig+0x168>
  if (FLatency > __HAL_FLASH_GET_LATENCY())
 8005f4e:	4a5e      	ldr	r2, [pc, #376]	; (80060c8 <HAL_RCC_ClockConfig+0x180>)
{
 8005f50:	e92d 41f0 	stmdb	sp!, {r4, r5, r6, r7, r8, lr}
  if (FLatency > __HAL_FLASH_GET_LATENCY())
 8005f54:	6813      	ldr	r3, [r2, #0]
 8005f56:	4604      	mov	r4, r0
 8005f58:	f003 0307 	and.w	r3, r3, #7
 8005f5c:	428b      	cmp	r3, r1
 8005f5e:	460d      	mov	r5, r1
{
 8005f60:	b086      	sub	sp, #24
  if (FLatency > __HAL_FLASH_GET_LATENCY())
 8005f62:	d20d      	bcs.n	8005f80 <HAL_RCC_ClockConfig+0x38>
    __HAL_FLASH_SET_LATENCY(FLatency);
 8005f64:	6813      	ldr	r3, [r2, #0]
 8005f66:	f023 0307 	bic.w	r3, r3, #7
 8005f6a:	430b      	orrs	r3, r1
 8005f6c:	6013      	str	r3, [r2, #0]
    if (__HAL_FLASH_GET_LATENCY() != FLatency)
 8005f6e:	6813      	ldr	r3, [r2, #0]
 8005f70:	f003 0307 	and.w	r3, r3, #7
 8005f74:	428b      	cmp	r3, r1
 8005f76:	d003      	beq.n	8005f80 <HAL_RCC_ClockConfig+0x38>
    return HAL_ERROR;
 8005f78:	2001      	movs	r0, #1
}
 8005f7a:	b006      	add	sp, #24
 8005f7c:	e8bd 81f0 	ldmia.w	sp!, {r4, r5, r6, r7, r8, pc}
if (((RCC_ClkInitStruct->ClockType) & RCC_CLOCKTYPE_HCLK) == RCC_CLOCKTYPE_HCLK)
 8005f80:	6823      	ldr	r3, [r4, #0]
 8005f82:	079e      	lsls	r6, r3, #30
 8005f84:	d514      	bpl.n	8005fb0 <HAL_RCC_ClockConfig+0x68>
    if (((RCC_ClkInitStruct->ClockType) & RCC_CLOCKTYPE_PCLK1) == RCC_CLOCKTYPE_PCLK1)
 8005f86:	0758      	lsls	r0, r3, #29
 8005f88:	d504      	bpl.n	8005f94 <HAL_RCC_ClockConfig+0x4c>
      MODIFY_REG(RCC->CFGR, RCC_CFGR_PPRE1, RCC_HCLK_DIV16);
 8005f8a:	4950      	ldr	r1, [pc, #320]	; (80060cc <HAL_RCC_ClockConfig+0x184>)
 8005f8c:	684a      	ldr	r2, [r1, #4]
 8005f8e:	f442 62e0 	orr.w	r2, r2, #1792	; 0x700
 8005f92:	604a      	str	r2, [r1, #4]
    if (((RCC_ClkInitStruct->ClockType) & RCC_CLOCKTYPE_PCLK2) == RCC_CLOCKTYPE_PCLK2)
 8005f94:	0719      	lsls	r1, r3, #28
 8005f96:	d504      	bpl.n	8005fa2 <HAL_RCC_ClockConfig+0x5a>
      MODIFY_REG(RCC->CFGR, RCC_CFGR_PPRE2, (RCC_HCLK_DIV16 << 3));
 8005f98:	494c      	ldr	r1, [pc, #304]	; (80060cc <HAL_RCC_ClockConfig+0x184>)
 8005f9a:	684a      	ldr	r2, [r1, #4]
 8005f9c:	f442 5260 	orr.w	r2, r2, #14336	; 0x3800
 8005fa0:	604a      	str	r2, [r1, #4]
    MODIFY_REG(RCC->CFGR, RCC_CFGR_HPRE, RCC_ClkInitStruct->AHBCLKDivider);
 8005fa2:	494a      	ldr	r1, [pc, #296]	; (80060cc <HAL_RCC_ClockConfig+0x184>)
 8005fa4:	68a0      	ldr	r0, [r4, #8]
 8005fa6:	684a      	ldr	r2, [r1, #4]
 8005fa8:	f022 02f0 	bic.w	r2, r2, #240	; 0xf0
 8005fac:	4302      	orrs	r2, r0
 8005fae:	604a      	str	r2, [r1, #4]
  if (((RCC_ClkInitStruct->ClockType) & RCC_CLOCKTYPE_SYSCLK) == RCC_CLOCKTYPE_SYSCLK)
 8005fb0:	07da      	lsls	r2, r3, #31
 8005fb2:	d520      	bpl.n	8005ff6 <HAL_RCC_ClockConfig+0xae>
    if (RCC_ClkInitStruct->SYSCLKSource == RCC_SYSCLKSOURCE_HSE)
 8005fb4:	6862      	ldr	r2, [r4, #4]
      if (__HAL_RCC_GET_FLAG(RCC_FLAG_HSERDY) == RESET)
 8005fb6:	4b45      	ldr	r3, [pc, #276]	; (80060cc <HAL_RCC_ClockConfig+0x184>)
    if (RCC_ClkInitStruct->SYSCLKSource == RCC_SYSCLKSOURCE_HSE)
 8005fb8:	2a01      	cmp	r2, #1
      if (__HAL_RCC_GET_FLAG(RCC_FLAG_HSERDY) == RESET)
 8005fba:	681b      	ldr	r3, [r3, #0]
    if (RCC_ClkInitStruct->SYSCLKSource == RCC_SYSCLKSOURCE_HSE)
 8005fbc:	d07a      	beq.n	80060b4 <HAL_RCC_ClockConfig+0x16c>
    else if (RCC_ClkInitStruct->SYSCLKSource == RCC_SYSCLKSOURCE_PLLCLK)
 8005fbe:	2a02      	cmp	r2, #2
 8005fc0:	d073      	beq.n	80060aa <HAL_RCC_ClockConfig+0x162>
      if (__HAL_RCC_GET_FLAG(RCC_FLAG_HSIRDY) == RESET)
 8005fc2:	079e      	lsls	r6, r3, #30
 8005fc4:	d5d8      	bpl.n	8005f78 <HAL_RCC_ClockConfig+0x30>
    __HAL_RCC_SYSCLK_CONFIG(RCC_ClkInitStruct->SYSCLKSource);
 8005fc6:	4e41      	ldr	r6, [pc, #260]	; (80060cc <HAL_RCC_ClockConfig+0x184>)
      if ((HAL_GetTick() - tickstart) > CLOCKSWITCH_TIMEOUT_VALUE)
 8005fc8:	f241 3888 	movw	r8, #5000	; 0x1388
    __HAL_RCC_SYSCLK_CONFIG(RCC_ClkInitStruct->SYSCLKSource);
 8005fcc:	6873      	ldr	r3, [r6, #4]
 8005fce:	f023 0303 	bic.w	r3, r3, #3
 8005fd2:	4313      	orrs	r3, r2
 8005fd4:	6073      	str	r3, [r6, #4]
    tickstart = HAL_GetTick();
 8005fd6:	f7ff f8a7 	bl	8005128 <HAL_GetTick>
 8005fda:	4607      	mov	r7, r0
    while (__HAL_RCC_GET_SYSCLK_SOURCE() != (RCC_ClkInitStruct->SYSCLKSource << RCC_CFGR_SWS_Pos))
 8005fdc:	e004      	b.n	8005fe8 <HAL_RCC_ClockConfig+0xa0>
      if ((HAL_GetTick() - tickstart) > CLOCKSWITCH_TIMEOUT_VALUE)
 8005fde:	f7ff f8a3 	bl	8005128 <HAL_GetTick>
 8005fe2:	1bc0      	subs	r0, r0, r7
 8005fe4:	4540      	cmp	r0, r8
 8005fe6:	d868      	bhi.n	80060ba <HAL_RCC_ClockConfig+0x172>
    while (__HAL_RCC_GET_SYSCLK_SOURCE() != (RCC_ClkInitStruct->SYSCLKSource << RCC_CFGR_SWS_Pos))
 8005fe8:	6873      	ldr	r3, [r6, #4]
 8005fea:	6862      	ldr	r2, [r4, #4]
 8005fec:	f003 030c 	and.w	r3, r3, #12
 8005ff0:	ebb3 0f82 	cmp.w	r3, r2, lsl #2
 8005ff4:	d1f3      	bne.n	8005fde <HAL_RCC_ClockConfig+0x96>
  if (FLatency < __HAL_FLASH_GET_LATENCY())
 8005ff6:	4a34      	ldr	r2, [pc, #208]	; (80060c8 <HAL_RCC_ClockConfig+0x180>)
 8005ff8:	6813      	ldr	r3, [r2, #0]
 8005ffa:	f003 0307 	and.w	r3, r3, #7
 8005ffe:	42ab      	cmp	r3, r5
 8006000:	d909      	bls.n	8006016 <HAL_RCC_ClockConfig+0xce>
    __HAL_FLASH_SET_LATENCY(FLatency);
 8006002:	6813      	ldr	r3, [r2, #0]
 8006004:	f023 0307 	bic.w	r3, r3, #7
 8006008:	432b      	orrs	r3, r5
 800600a:	6013      	str	r3, [r2, #0]
    if (__HAL_FLASH_GET_LATENCY() != FLatency)
 800600c:	6813      	ldr	r3, [r2, #0]
 800600e:	f003 0307 	and.w	r3, r3, #7
 8006012:	42ab      	cmp	r3, r5
 8006014:	d1b0      	bne.n	8005f78 <HAL_RCC_ClockConfig+0x30>
if (((RCC_ClkInitStruct->ClockType) & RCC_CLOCKTYPE_PCLK1) == RCC_CLOCKTYPE_PCLK1)
 8006016:	6823      	ldr	r3, [r4, #0]
 8006018:	0758      	lsls	r0, r3, #29
 800601a:	d506      	bpl.n	800602a <HAL_RCC_ClockConfig+0xe2>
    MODIFY_REG(RCC->CFGR, RCC_CFGR_PPRE1, RCC_ClkInitStruct->APB1CLKDivider);
 800601c:	492b      	ldr	r1, [pc, #172]	; (80060cc <HAL_RCC_ClockConfig+0x184>)
 800601e:	68e0      	ldr	r0, [r4, #12]
 8006020:	684a      	ldr	r2, [r1, #4]
 8006022:	f422 62e0 	bic.w	r2, r2, #1792	; 0x700
 8006026:	4302      	orrs	r2, r0
 8006028:	604a      	str	r2, [r1, #4]
  if (((RCC_ClkInitStruct->ClockType) & RCC_CLOCKTYPE_PCLK2) == RCC_CLOCKTYPE_PCLK2)
 800602a:	0719      	lsls	r1, r3, #28
 800602c:	d507      	bpl.n	800603e <HAL_RCC_ClockConfig+0xf6>
    MODIFY_REG(RCC->CFGR, RCC_CFGR_PPRE2, ((RCC_ClkInitStruct->APB2CLKDivider) << 3));
 800602e:	4a27      	ldr	r2, [pc, #156]	; (80060cc <HAL_RCC_ClockConfig+0x184>)
 8006030:	6921      	ldr	r1, [r4, #16]
 8006032:	6853      	ldr	r3, [r2, #4]
 8006034:	f423 5360 	bic.w	r3, r3, #14336	; 0x3800
 8006038:	ea43 03c1 	orr.w	r3, r3, r1, lsl #3
 800603c:	6053      	str	r3, [r2, #4]
  const uint8_t aPredivFactorTable[2] = {1, 2};
 800603e:	f240 2401 	movw	r4, #513	; 0x201
  const uint8_t aPLLMULFactorTable[16] = {2, 3, 4, 5, 6, 7, 8, 9, 10, 11, 12, 13, 14, 15, 16, 16};
 8006042:	4b23      	ldr	r3, [pc, #140]	; (80060d0 <HAL_RCC_ClockConfig+0x188>)
 8006044:	ad06      	add	r5, sp, #24
 8006046:	cb0f      	ldmia	r3, {r0, r1, r2, r3}
 8006048:	e905 000f 	stmdb	r5, {r0, r1, r2, r3}
  tmpreg = RCC->CFGR;
 800604c:	491f      	ldr	r1, [pc, #124]	; (80060cc <HAL_RCC_ClockConfig+0x184>)
  const uint8_t aPredivFactorTable[2] = {1, 2};
 800604e:	f8ad 4004 	strh.w	r4, [sp, #4]
  tmpreg = RCC->CFGR;
 8006052:	684a      	ldr	r2, [r1, #4]
  switch (tmpreg & RCC_CFGR_SWS)
 8006054:	f002 030c 	and.w	r3, r2, #12
 8006058:	2b08      	cmp	r3, #8
 800605a:	d011      	beq.n	8006080 <HAL_RCC_ClockConfig+0x138>
      sysclockfreq = HSE_VALUE;
 800605c:	4b1d      	ldr	r3, [pc, #116]	; (80060d4 <HAL_RCC_ClockConfig+0x18c>)
  SystemCoreClock = HAL_RCC_GetSysClockFreq() >> AHBPrescTable[(RCC->CFGR & RCC_CFGR_HPRE) >> RCC_CFGR_HPRE_Pos];
 800605e:	4a1b      	ldr	r2, [pc, #108]	; (80060cc <HAL_RCC_ClockConfig+0x184>)
 8006060:	481d      	ldr	r0, [pc, #116]	; (80060d8 <HAL_RCC_ClockConfig+0x190>)
 8006062:	6852      	ldr	r2, [r2, #4]
  HAL_InitTick(uwTickPrio);
 8006064:	491d      	ldr	r1, [pc, #116]	; (80060dc <HAL_RCC_ClockConfig+0x194>)
  SystemCoreClock = HAL_RCC_GetSysClockFreq() >> AHBPrescTable[(RCC->CFGR & RCC_CFGR_HPRE) >> RCC_CFGR_HPRE_Pos];
 8006066:	f3c2 1203 	ubfx	r2, r2, #4, #4
 800606a:	5c80      	ldrb	r0, [r0, r2]
 800606c:	4a1c      	ldr	r2, [pc, #112]	; (80060e0 <HAL_RCC_ClockConfig+0x198>)
 800606e:	40c3      	lsrs	r3, r0
  HAL_InitTick(uwTickPrio);
 8006070:	6808      	ldr	r0, [r1, #0]
  SystemCoreClock = HAL_RCC_GetSysClockFreq() >> AHBPrescTable[(RCC->CFGR & RCC_CFGR_HPRE) >> RCC_CFGR_HPRE_Pos];
 8006072:	6013      	str	r3, [r2, #0]
  HAL_InitTick(uwTickPrio);
 8006074:	f7ff f822 	bl	80050bc <HAL_InitTick>
  return HAL_OK;
 8006078:	2000      	movs	r0, #0
}
 800607a:	b006      	add	sp, #24
 800607c:	e8bd 81f0 	ldmia.w	sp!, {r4, r5, r6, r7, r8, pc}
      pllmul = aPLLMULFactorTable[(uint32_t)(tmpreg & RCC_CFGR_PLLMULL) >> RCC_CFGR_PLLMULL_Pos];
 8006080:	f3c2 4383 	ubfx	r3, r2, #18, #4
 8006084:	3318      	adds	r3, #24
 8006086:	446b      	add	r3, sp
      if ((tmpreg & RCC_CFGR_PLLSRC) != RCC_PLLSOURCE_HSI_DIV2)
 8006088:	03d2      	lsls	r2, r2, #15
      pllmul = aPLLMULFactorTable[(uint32_t)(tmpreg & RCC_CFGR_PLLMULL) >> RCC_CFGR_PLLMULL_Pos];
 800608a:	f813 3c10 	ldrb.w	r3, [r3, #-16]
      if ((tmpreg & RCC_CFGR_PLLSRC) != RCC_PLLSOURCE_HSI_DIV2)
 800608e:	d516      	bpl.n	80060be <HAL_RCC_ClockConfig+0x176>
        prediv = aPredivFactorTable[(uint32_t)(RCC->CFGR & RCC_CFGR_PLLXTPRE) >> RCC_CFGR_PLLXTPRE_Pos];
 8006090:	684a      	ldr	r2, [r1, #4]
        pllclk = (uint32_t)((HSE_VALUE  * pllmul) / prediv);
 8006092:	4910      	ldr	r1, [pc, #64]	; (80060d4 <HAL_RCC_ClockConfig+0x18c>)
        prediv = aPredivFactorTable[(uint32_t)(RCC->CFGR & RCC_CFGR_PLLXTPRE) >> RCC_CFGR_PLLXTPRE_Pos];
 8006094:	f3c2 4240 	ubfx	r2, r2, #17, #1
        pllclk = (uint32_t)((HSE_VALUE  * pllmul) / prediv);
 8006098:	fb01 f303 	mul.w	r3, r1, r3
        prediv = aPredivFactorTable[(uint32_t)(RCC->CFGR & RCC_CFGR_PLLXTPRE) >> RCC_CFGR_PLLXTPRE_Pos];
 800609c:	3218      	adds	r2, #24
 800609e:	446a      	add	r2, sp
 80060a0:	f812 2c14 	ldrb.w	r2, [r2, #-20]
        pllclk = (uint32_t)((HSE_VALUE  * pllmul) / prediv);
 80060a4:	fbb3 f3f2 	udiv	r3, r3, r2
 80060a8:	e7d9      	b.n	800605e <HAL_RCC_ClockConfig+0x116>
      if (__HAL_RCC_GET_FLAG(RCC_FLAG_PLLRDY) == RESET)
 80060aa:	019f      	lsls	r7, r3, #6
 80060ac:	d48b      	bmi.n	8005fc6 <HAL_RCC_ClockConfig+0x7e>
 80060ae:	e763      	b.n	8005f78 <HAL_RCC_ClockConfig+0x30>
    return HAL_ERROR;
 80060b0:	2001      	movs	r0, #1
}
 80060b2:	4770      	bx	lr
      if (__HAL_RCC_GET_FLAG(RCC_FLAG_HSERDY) == RESET)
 80060b4:	039b      	lsls	r3, r3, #14
 80060b6:	d486      	bmi.n	8005fc6 <HAL_RCC_ClockConfig+0x7e>
 80060b8:	e75e      	b.n	8005f78 <HAL_RCC_ClockConfig+0x30>
        return HAL_TIMEOUT;
 80060ba:	2003      	movs	r0, #3
 80060bc:	e75d      	b.n	8005f7a <HAL_RCC_ClockConfig+0x32>
        pllclk = (uint32_t)((HSI_VALUE >> 1) * pllmul);
 80060be:	4a09      	ldr	r2, [pc, #36]	; (80060e4 <HAL_RCC_ClockConfig+0x19c>)
 80060c0:	fb02 f303 	mul.w	r3, r2, r3
 80060c4:	e7cb      	b.n	800605e <HAL_RCC_ClockConfig+0x116>
 80060c6:	bf00      	nop
 80060c8:	40022000 	.word	0x40022000
 80060cc:	40021000 	.word	0x40021000
 80060d0:	0800a020 	.word	0x0800a020
 80060d4:	007a1200 	.word	0x007a1200
 80060d8:	08008e9c 	.word	0x08008e9c
 80060dc:	20000050 	.word	0x20000050
 80060e0:	20000008 	.word	0x20000008
 80060e4:	003d0900 	.word	0x003d0900

080060e8 <HAL_RCC_GetPCLK2Freq>:
  return (HAL_RCC_GetHCLKFreq() >> APBPrescTable[(RCC->CFGR & RCC_CFGR_PPRE2) >> RCC_CFGR_PPRE2_Pos]);
 80060e8:	4b04      	ldr	r3, [pc, #16]	; (80060fc <HAL_RCC_GetPCLK2Freq+0x14>)
  return SystemCoreClock;
 80060ea:	4a05      	ldr	r2, [pc, #20]	; (8006100 <HAL_RCC_GetPCLK2Freq+0x18>)
  return (HAL_RCC_GetHCLKFreq() >> APBPrescTable[(RCC->CFGR & RCC_CFGR_PPRE2) >> RCC_CFGR_PPRE2_Pos]);
 80060ec:	685b      	ldr	r3, [r3, #4]
 80060ee:	4905      	ldr	r1, [pc, #20]	; (8006104 <HAL_RCC_GetPCLK2Freq+0x1c>)
 80060f0:	f3c3 23c2 	ubfx	r3, r3, #11, #3
 80060f4:	5ccb      	ldrb	r3, [r1, r3]
 80060f6:	6810      	ldr	r0, [r2, #0]
}
 80060f8:	40d8      	lsrs	r0, r3
 80060fa:	4770      	bx	lr
 80060fc:	40021000 	.word	0x40021000
 8006100:	20000008 	.word	0x20000008
 8006104:	08008eac 	.word	0x08008eac

08006108 <HAL_RCCEx_PeriphCLKConfig>:
  *         manually disable it.
  *
  * @retval HAL status
  */
HAL_StatusTypeDef HAL_RCCEx_PeriphCLKConfig(RCC_PeriphCLKInitTypeDef  *PeriphClkInit)
{
 8006108:	e92d 41f0 	stmdb	sp!, {r4, r5, r6, r7, r8, lr}
 800610c:	4604      	mov	r4, r0

  /* Check the parameters */
  assert_param(IS_RCC_PERIPHCLOCK(PeriphClkInit->PeriphClockSelection));

  /*------------------------------- RTC/LCD Configuration ------------------------*/
  if ((((PeriphClkInit->PeriphClockSelection) & RCC_PERIPHCLK_RTC) == RCC_PERIPHCLK_RTC))
 800610e:	6800      	ldr	r0, [r0, #0]
{
 8006110:	b082      	sub	sp, #8
  if ((((PeriphClkInit->PeriphClockSelection) & RCC_PERIPHCLK_RTC) == RCC_PERIPHCLK_RTC))
 8006112:	07c1      	lsls	r1, r0, #31
 8006114:	d52c      	bpl.n	8006170 <HAL_RCCEx_PeriphCLKConfig+0x68>
    assert_param(IS_RCC_RTCCLKSOURCE(PeriphClkInit->RTCClockSelection));

    /* As soon as function is called to change RTC clock source, activation of the
       power domain is done. */
    /* Requires to enable write access to Backup Domain of necessary */
    if (__HAL_RCC_PWR_IS_CLK_DISABLED())
 8006116:	4b3a      	ldr	r3, [pc, #232]	; (8006200 <HAL_RCCEx_PeriphCLKConfig+0xf8>)
 8006118:	69da      	ldr	r2, [r3, #28]
 800611a:	00d2      	lsls	r2, r2, #3
 800611c:	d53f      	bpl.n	800619e <HAL_RCCEx_PeriphCLKConfig+0x96>
    {
      __HAL_RCC_PWR_CLK_ENABLE();
      pwrclkchanged = SET;
    }

    if (HAL_IS_BIT_CLR(PWR->CR, PWR_CR_DBP))
 800611e:	4d39      	ldr	r5, [pc, #228]	; (8006204 <HAL_RCCEx_PeriphCLKConfig+0xfc>)
    FlagStatus pwrclkchanged = RESET;
 8006120:	2600      	movs	r6, #0
    if (HAL_IS_BIT_CLR(PWR->CR, PWR_CR_DBP))
 8006122:	682b      	ldr	r3, [r5, #0]
 8006124:	05df      	lsls	r7, r3, #23
 8006126:	d548      	bpl.n	80061ba <HAL_RCCEx_PeriphCLKConfig+0xb2>
        }
      }
    }

    /* Reset the Backup domain only if the RTC Clock source selection is modified from reset value */
    temp_reg = (RCC->BDCR & RCC_BDCR_RTCSEL);
 8006128:	4d35      	ldr	r5, [pc, #212]	; (8006200 <HAL_RCCEx_PeriphCLKConfig+0xf8>)
 800612a:	6a2b      	ldr	r3, [r5, #32]
    if ((temp_reg != 0x00000000U) && (temp_reg != (PeriphClkInit->RTCClockSelection & RCC_BDCR_RTCSEL)))
 800612c:	f413 7340 	ands.w	r3, r3, #768	; 0x300
 8006130:	d011      	beq.n	8006156 <HAL_RCCEx_PeriphCLKConfig+0x4e>
 8006132:	6861      	ldr	r1, [r4, #4]
 8006134:	f401 7240 	and.w	r2, r1, #768	; 0x300
 8006138:	429a      	cmp	r2, r3
 800613a:	d00d      	beq.n	8006158 <HAL_RCCEx_PeriphCLKConfig+0x50>
    {
      /* Store the content of BDCR register before the reset of Backup Domain */
      temp_reg = (RCC->BDCR & ~(RCC_BDCR_RTCSEL));
      /* RTC Clock selection can be changed only if the Backup Domain is reset */
      __HAL_RCC_BACKUPRESET_FORCE();
 800613c:	2701      	movs	r7, #1
      __HAL_RCC_BACKUPRESET_RELEASE();
 800613e:	2000      	movs	r0, #0
      temp_reg = (RCC->BDCR & ~(RCC_BDCR_RTCSEL));
 8006140:	6a2b      	ldr	r3, [r5, #32]
      __HAL_RCC_BACKUPRESET_FORCE();
 8006142:	4a31      	ldr	r2, [pc, #196]	; (8006208 <HAL_RCCEx_PeriphCLKConfig+0x100>)
      temp_reg = (RCC->BDCR & ~(RCC_BDCR_RTCSEL));
 8006144:	f423 7140 	bic.w	r1, r3, #768	; 0x300
      __HAL_RCC_BACKUPRESET_FORCE();
 8006148:	f8c2 7440 	str.w	r7, [r2, #1088]	; 0x440
      __HAL_RCC_BACKUPRESET_RELEASE();
 800614c:	f8c2 0440 	str.w	r0, [r2, #1088]	; 0x440
      /* Restore the Content of BDCR register */
      RCC->BDCR = temp_reg;
 8006150:	6229      	str	r1, [r5, #32]

      /* Wait for LSERDY if LSE was enabled */
      if (HAL_IS_BIT_SET(temp_reg, RCC_BDCR_LSEON))
 8006152:	07d9      	lsls	r1, r3, #31
 8006154:	d444      	bmi.n	80061e0 <HAL_RCCEx_PeriphCLKConfig+0xd8>
            return HAL_TIMEOUT;
          }
        }
      }
    }
    __HAL_RCC_RTC_CONFIG(PeriphClkInit->RTCClockSelection);
 8006156:	6861      	ldr	r1, [r4, #4]
 8006158:	4a29      	ldr	r2, [pc, #164]	; (8006200 <HAL_RCCEx_PeriphCLKConfig+0xf8>)
 800615a:	6a13      	ldr	r3, [r2, #32]
 800615c:	f423 7340 	bic.w	r3, r3, #768	; 0x300
 8006160:	430b      	orrs	r3, r1
 8006162:	6213      	str	r3, [r2, #32]

    /* Require to disable power clock if necessary */
    if (pwrclkchanged == SET)
 8006164:	b11e      	cbz	r6, 800616e <HAL_RCCEx_PeriphCLKConfig+0x66>
    {
      __HAL_RCC_PWR_CLK_DISABLE();
 8006166:	69d3      	ldr	r3, [r2, #28]
 8006168:	f023 5380 	bic.w	r3, r3, #268435456	; 0x10000000
 800616c:	61d3      	str	r3, [r2, #28]
    }
  }

  /*------------------------------ ADC clock Configuration ------------------*/
  if (((PeriphClkInit->PeriphClockSelection) & RCC_PERIPHCLK_ADC) == RCC_PERIPHCLK_ADC)
 800616e:	6820      	ldr	r0, [r4, #0]
 8006170:	0783      	lsls	r3, r0, #30
 8006172:	d506      	bpl.n	8006182 <HAL_RCCEx_PeriphCLKConfig+0x7a>
  {
    /* Check the parameters */
    assert_param(IS_RCC_ADCPLLCLK_DIV(PeriphClkInit->AdcClockSelection));

    /* Configure the ADC clock source */
    __HAL_RCC_ADC_CONFIG(PeriphClkInit->AdcClockSelection);
 8006174:	4922      	ldr	r1, [pc, #136]	; (8006200 <HAL_RCCEx_PeriphCLKConfig+0xf8>)
 8006176:	68a3      	ldr	r3, [r4, #8]
 8006178:	684a      	ldr	r2, [r1, #4]
 800617a:	f422 4240 	bic.w	r2, r2, #49152	; 0xc000
 800617e:	431a      	orrs	r2, r3
 8006180:	604a      	str	r2, [r1, #4]

#if defined(STM32F102x6) || defined(STM32F102xB) || defined(STM32F103x6)\
 || defined(STM32F103xB) || defined(STM32F103xE) || defined(STM32F103xG)\
 || defined(STM32F105xC) || defined(STM32F107xC)
  /*------------------------------ USB clock Configuration ------------------*/
  if (((PeriphClkInit->PeriphClockSelection) & RCC_PERIPHCLK_USB) == RCC_PERIPHCLK_USB)
 8006182:	f010 0010 	ands.w	r0, r0, #16
 8006186:	d007      	beq.n	8006198 <HAL_RCCEx_PeriphCLKConfig+0x90>
    /* Configure the USB clock source */
    __HAL_RCC_USB_CONFIG(PeriphClkInit->UsbClockSelection);
  }
#endif /* STM32F102x6 || STM32F102xB || STM32F103x6 || STM32F103xB || STM32F103xE || STM32F103xG || STM32F105xC || STM32F107xC */

  return HAL_OK;
 8006188:	2000      	movs	r0, #0
    __HAL_RCC_USB_CONFIG(PeriphClkInit->UsbClockSelection);
 800618a:	4a1d      	ldr	r2, [pc, #116]	; (8006200 <HAL_RCCEx_PeriphCLKConfig+0xf8>)
 800618c:	68e1      	ldr	r1, [r4, #12]
 800618e:	6853      	ldr	r3, [r2, #4]
 8006190:	f423 0380 	bic.w	r3, r3, #4194304	; 0x400000
 8006194:	430b      	orrs	r3, r1
 8006196:	6053      	str	r3, [r2, #4]
}
 8006198:	b002      	add	sp, #8
 800619a:	e8bd 81f0 	ldmia.w	sp!, {r4, r5, r6, r7, r8, pc}
      __HAL_RCC_PWR_CLK_ENABLE();
 800619e:	69da      	ldr	r2, [r3, #28]
    if (HAL_IS_BIT_CLR(PWR->CR, PWR_CR_DBP))
 80061a0:	4d18      	ldr	r5, [pc, #96]	; (8006204 <HAL_RCCEx_PeriphCLKConfig+0xfc>)
      __HAL_RCC_PWR_CLK_ENABLE();
 80061a2:	f042 5280 	orr.w	r2, r2, #268435456	; 0x10000000
 80061a6:	61da      	str	r2, [r3, #28]
 80061a8:	69db      	ldr	r3, [r3, #28]
      pwrclkchanged = SET;
 80061aa:	2601      	movs	r6, #1
      __HAL_RCC_PWR_CLK_ENABLE();
 80061ac:	f003 5380 	and.w	r3, r3, #268435456	; 0x10000000
 80061b0:	9301      	str	r3, [sp, #4]
 80061b2:	9b01      	ldr	r3, [sp, #4]
    if (HAL_IS_BIT_CLR(PWR->CR, PWR_CR_DBP))
 80061b4:	682b      	ldr	r3, [r5, #0]
 80061b6:	05df      	lsls	r7, r3, #23
 80061b8:	d4b6      	bmi.n	8006128 <HAL_RCCEx_PeriphCLKConfig+0x20>
      SET_BIT(PWR->CR, PWR_CR_DBP);
 80061ba:	682b      	ldr	r3, [r5, #0]
 80061bc:	f443 7380 	orr.w	r3, r3, #256	; 0x100
 80061c0:	602b      	str	r3, [r5, #0]
      tickstart = HAL_GetTick();
 80061c2:	f7fe ffb1 	bl	8005128 <HAL_GetTick>
 80061c6:	4607      	mov	r7, r0
      while (HAL_IS_BIT_CLR(PWR->CR, PWR_CR_DBP))
 80061c8:	682b      	ldr	r3, [r5, #0]
 80061ca:	05d8      	lsls	r0, r3, #23
 80061cc:	d4ac      	bmi.n	8006128 <HAL_RCCEx_PeriphCLKConfig+0x20>
        if ((HAL_GetTick() - tickstart) > RCC_DBP_TIMEOUT_VALUE)
 80061ce:	f7fe ffab 	bl	8005128 <HAL_GetTick>
 80061d2:	1bc3      	subs	r3, r0, r7
 80061d4:	2b64      	cmp	r3, #100	; 0x64
 80061d6:	d9f7      	bls.n	80061c8 <HAL_RCCEx_PeriphCLKConfig+0xc0>
          return HAL_TIMEOUT;
 80061d8:	2003      	movs	r0, #3
}
 80061da:	b002      	add	sp, #8
 80061dc:	e8bd 81f0 	ldmia.w	sp!, {r4, r5, r6, r7, r8, pc}
        tickstart = HAL_GetTick();
 80061e0:	f7fe ffa2 	bl	8005128 <HAL_GetTick>
          if ((HAL_GetTick() - tickstart) > RCC_LSE_TIMEOUT_VALUE)
 80061e4:	f241 3888 	movw	r8, #5000	; 0x1388
        tickstart = HAL_GetTick();
 80061e8:	4607      	mov	r7, r0
        while (__HAL_RCC_GET_FLAG(RCC_FLAG_LSERDY) == RESET)
 80061ea:	e004      	b.n	80061f6 <HAL_RCCEx_PeriphCLKConfig+0xee>
          if ((HAL_GetTick() - tickstart) > RCC_LSE_TIMEOUT_VALUE)
 80061ec:	f7fe ff9c 	bl	8005128 <HAL_GetTick>
 80061f0:	1bc0      	subs	r0, r0, r7
 80061f2:	4540      	cmp	r0, r8
 80061f4:	d8f0      	bhi.n	80061d8 <HAL_RCCEx_PeriphCLKConfig+0xd0>
        while (__HAL_RCC_GET_FLAG(RCC_FLAG_LSERDY) == RESET)
 80061f6:	6a2b      	ldr	r3, [r5, #32]
 80061f8:	079a      	lsls	r2, r3, #30
 80061fa:	d5f7      	bpl.n	80061ec <HAL_RCCEx_PeriphCLKConfig+0xe4>
 80061fc:	e7ab      	b.n	8006156 <HAL_RCCEx_PeriphCLKConfig+0x4e>
 80061fe:	bf00      	nop
 8006200:	40021000 	.word	0x40021000
 8006204:	40007000 	.word	0x40007000
 8006208:	42420000 	.word	0x42420000

0800620c <HAL_RCCEx_GetPeriphCLKFreq>:
  *            @arg @ref RCC_PERIPHCLK_USB  USB peripheral clock
  @endif
  * @retval Frequency in Hz (0: means that no available frequency for the peripheral)
  */
uint32_t HAL_RCCEx_GetPeriphCLKFreq(uint32_t PeriphClk)
{
 800620c:	4684      	mov	ip, r0
 800620e:	b500      	push	{lr}
  uint32_t prediv1 = 0U, pllclk = 0U, pllmul = 0U;
  uint32_t pll2mul = 0U, pll3mul = 0U, prediv2 = 0U;
#endif /* STM32F105xC || STM32F107xC */
#if defined(STM32F102x6) || defined(STM32F102xB) || defined(STM32F103x6) || \
    defined(STM32F103xB) || defined(STM32F103xE) || defined(STM32F103xG)
  const uint8_t aPLLMULFactorTable[16] = {2, 3, 4, 5, 6, 7, 8, 9, 10, 11, 12, 13, 14, 15, 16, 16};
 8006210:	4b36      	ldr	r3, [pc, #216]	; (80062ec <HAL_RCCEx_GetPeriphCLKFreq+0xe0>)
{
 8006212:	b087      	sub	sp, #28
  const uint8_t aPLLMULFactorTable[16] = {2, 3, 4, 5, 6, 7, 8, 9, 10, 11, 12, 13, 14, 15, 16, 16};
 8006214:	f10d 0e18 	add.w	lr, sp, #24
 8006218:	cb0f      	ldmia	r3, {r0, r1, r2, r3}
 800621a:	e90e 000f 	stmdb	lr, {r0, r1, r2, r3}
{
 800621e:	4660      	mov	r0, ip
  const uint8_t aPredivFactorTable[2] = {1, 2};
 8006220:	f240 2301 	movw	r3, #513	; 0x201
  uint32_t temp_reg = 0U, frequency = 0U;

  /* Check the parameters */
  assert_param(IS_RCC_PERIPHCLOCK(PeriphClk));

  switch (PeriphClk)
 8006224:	2802      	cmp	r0, #2
  const uint8_t aPredivFactorTable[2] = {1, 2};
 8006226:	f8ad 3004 	strh.w	r3, [sp, #4]
  switch (PeriphClk)
 800622a:	d007      	beq.n	800623c <HAL_RCCEx_GetPeriphCLKFreq+0x30>
 800622c:	2810      	cmp	r0, #16
 800622e:	d02a      	beq.n	8006286 <HAL_RCCEx_GetPeriphCLKFreq+0x7a>
 8006230:	2801      	cmp	r0, #1
 8006232:	d010      	beq.n	8006256 <HAL_RCCEx_GetPeriphCLKFreq+0x4a>
  uint32_t temp_reg = 0U, frequency = 0U;
 8006234:	2000      	movs	r0, #0
    {
      break;
    }
  }
  return (frequency);
}
 8006236:	b007      	add	sp, #28
 8006238:	f85d fb04 	ldr.w	pc, [sp], #4
      frequency = HAL_RCC_GetPCLK2Freq() / (((__HAL_RCC_GET_ADC_SOURCE() >> RCC_CFGR_ADCPRE_Pos) + 1) * 2);
 800623c:	f7ff ff54 	bl	80060e8 <HAL_RCC_GetPCLK2Freq>
 8006240:	4b2b      	ldr	r3, [pc, #172]	; (80062f0 <HAL_RCCEx_GetPeriphCLKFreq+0xe4>)
 8006242:	685b      	ldr	r3, [r3, #4]
 8006244:	f3c3 3381 	ubfx	r3, r3, #14, #2
 8006248:	3301      	adds	r3, #1
 800624a:	005b      	lsls	r3, r3, #1
 800624c:	fbb0 f0f3 	udiv	r0, r0, r3
}
 8006250:	b007      	add	sp, #28
 8006252:	f85d fb04 	ldr.w	pc, [sp], #4
      if (((temp_reg & RCC_BDCR_RTCSEL) == RCC_RTCCLKSOURCE_LSE) && (HAL_IS_BIT_SET(temp_reg, RCC_BDCR_LSERDY)))
 8006256:	f240 3202 	movw	r2, #770	; 0x302
      temp_reg = RCC->BDCR;
 800625a:	4925      	ldr	r1, [pc, #148]	; (80062f0 <HAL_RCCEx_GetPeriphCLKFreq+0xe4>)
 800625c:	6a0b      	ldr	r3, [r1, #32]
      if (((temp_reg & RCC_BDCR_RTCSEL) == RCC_RTCCLKSOURCE_LSE) && (HAL_IS_BIT_SET(temp_reg, RCC_BDCR_LSERDY)))
 800625e:	401a      	ands	r2, r3
 8006260:	f5b2 7f81 	cmp.w	r2, #258	; 0x102
 8006264:	d033      	beq.n	80062ce <HAL_RCCEx_GetPeriphCLKFreq+0xc2>
      else if (((temp_reg & RCC_BDCR_RTCSEL) == RCC_RTCCLKSOURCE_LSI) && (HAL_IS_BIT_SET(RCC->CSR, RCC_CSR_LSIRDY)))
 8006266:	f403 7340 	and.w	r3, r3, #768	; 0x300
 800626a:	f5b3 7f00 	cmp.w	r3, #512	; 0x200
 800626e:	d031      	beq.n	80062d4 <HAL_RCCEx_GetPeriphCLKFreq+0xc8>
      else if (((temp_reg & RCC_BDCR_RTCSEL) == RCC_RTCCLKSOURCE_HSE_DIV128) && (HAL_IS_BIT_SET(RCC->CR, RCC_CR_HSERDY)))
 8006270:	f5b3 7f40 	cmp.w	r3, #768	; 0x300
 8006274:	d1de      	bne.n	8006234 <HAL_RCCEx_GetPeriphCLKFreq+0x28>
        frequency = HSE_VALUE / 128U;
 8006276:	f24f 4324 	movw	r3, #62500	; 0xf424
      else if (((temp_reg & RCC_BDCR_RTCSEL) == RCC_RTCCLKSOURCE_HSE_DIV128) && (HAL_IS_BIT_SET(RCC->CR, RCC_CR_HSERDY)))
 800627a:	6808      	ldr	r0, [r1, #0]
        frequency = HSE_VALUE / 128U;
 800627c:	f410 3000 	ands.w	r0, r0, #131072	; 0x20000
 8006280:	bf18      	it	ne
 8006282:	4618      	movne	r0, r3
 8006284:	e7d7      	b.n	8006236 <HAL_RCCEx_GetPeriphCLKFreq+0x2a>
      temp_reg = RCC->CFGR;
 8006286:	4b1a      	ldr	r3, [pc, #104]	; (80062f0 <HAL_RCCEx_GetPeriphCLKFreq+0xe4>)
 8006288:	685a      	ldr	r2, [r3, #4]
      if (HAL_IS_BIT_SET(RCC->CR, RCC_CR_PLLON))
 800628a:	6818      	ldr	r0, [r3, #0]
 800628c:	f010 7080 	ands.w	r0, r0, #16777216	; 0x1000000
 8006290:	d0d1      	beq.n	8006236 <HAL_RCCEx_GetPeriphCLKFreq+0x2a>
        pllmul = aPLLMULFactorTable[(uint32_t)(temp_reg & RCC_CFGR_PLLMULL) >> RCC_CFGR_PLLMULL_Pos];
 8006292:	f3c2 4183 	ubfx	r1, r2, #18, #4
 8006296:	3118      	adds	r1, #24
 8006298:	4469      	add	r1, sp
        if ((temp_reg & RCC_CFGR_PLLSRC) != RCC_PLLSOURCE_HSI_DIV2)
 800629a:	03d2      	lsls	r2, r2, #15
        pllmul = aPLLMULFactorTable[(uint32_t)(temp_reg & RCC_CFGR_PLLMULL) >> RCC_CFGR_PLLMULL_Pos];
 800629c:	f811 0c10 	ldrb.w	r0, [r1, #-16]
        if ((temp_reg & RCC_CFGR_PLLSRC) != RCC_PLLSOURCE_HSI_DIV2)
 80062a0:	d520      	bpl.n	80062e4 <HAL_RCCEx_GetPeriphCLKFreq+0xd8>
          prediv1 = aPredivFactorTable[(uint32_t)(RCC->CFGR & RCC_CFGR_PLLXTPRE) >> RCC_CFGR_PLLXTPRE_Pos];
 80062a2:	685b      	ldr	r3, [r3, #4]
            pllclk = (uint32_t)((HSE_VALUE / prediv1) * pllmul);
 80062a4:	4a13      	ldr	r2, [pc, #76]	; (80062f4 <HAL_RCCEx_GetPeriphCLKFreq+0xe8>)
          prediv1 = aPredivFactorTable[(uint32_t)(RCC->CFGR & RCC_CFGR_PLLXTPRE) >> RCC_CFGR_PLLXTPRE_Pos];
 80062a6:	f3c3 4340 	ubfx	r3, r3, #17, #1
 80062aa:	3318      	adds	r3, #24
 80062ac:	446b      	add	r3, sp
 80062ae:	f813 3c14 	ldrb.w	r3, [r3, #-20]
            pllclk = (uint32_t)((HSE_VALUE / prediv1) * pllmul);
 80062b2:	fbb2 f3f3 	udiv	r3, r2, r3
 80062b6:	fb03 f000 	mul.w	r0, r3, r0
        if (__HAL_RCC_GET_USB_SOURCE() == RCC_USBCLKSOURCE_PLL)
 80062ba:	4b0d      	ldr	r3, [pc, #52]	; (80062f0 <HAL_RCCEx_GetPeriphCLKFreq+0xe4>)
 80062bc:	685b      	ldr	r3, [r3, #4]
 80062be:	025b      	lsls	r3, r3, #9
 80062c0:	d4b9      	bmi.n	8006236 <HAL_RCCEx_GetPeriphCLKFreq+0x2a>
          frequency = (pllclk * 2) / 3;
 80062c2:	4b0d      	ldr	r3, [pc, #52]	; (80062f8 <HAL_RCCEx_GetPeriphCLKFreq+0xec>)
 80062c4:	0040      	lsls	r0, r0, #1
 80062c6:	fba3 3000 	umull	r3, r0, r3, r0
 80062ca:	0840      	lsrs	r0, r0, #1
 80062cc:	e7b3      	b.n	8006236 <HAL_RCCEx_GetPeriphCLKFreq+0x2a>
        frequency = LSE_VALUE;
 80062ce:	f44f 4000 	mov.w	r0, #32768	; 0x8000
 80062d2:	e7b0      	b.n	8006236 <HAL_RCCEx_GetPeriphCLKFreq+0x2a>
        frequency = LSI_VALUE;
 80062d4:	f649 4340 	movw	r3, #40000	; 0x9c40
      else if (((temp_reg & RCC_BDCR_RTCSEL) == RCC_RTCCLKSOURCE_LSI) && (HAL_IS_BIT_SET(RCC->CSR, RCC_CSR_LSIRDY)))
 80062d8:	6a48      	ldr	r0, [r1, #36]	; 0x24
        frequency = LSI_VALUE;
 80062da:	f010 0002 	ands.w	r0, r0, #2
 80062de:	bf18      	it	ne
 80062e0:	4618      	movne	r0, r3
 80062e2:	e7a8      	b.n	8006236 <HAL_RCCEx_GetPeriphCLKFreq+0x2a>
          pllclk = (uint32_t)((HSI_VALUE >> 1) * pllmul);
 80062e4:	4b05      	ldr	r3, [pc, #20]	; (80062fc <HAL_RCCEx_GetPeriphCLKFreq+0xf0>)
 80062e6:	fb03 f000 	mul.w	r0, r3, r0
 80062ea:	e7e6      	b.n	80062ba <HAL_RCCEx_GetPeriphCLKFreq+0xae>
 80062ec:	0800a020 	.word	0x0800a020
 80062f0:	40021000 	.word	0x40021000
 80062f4:	007a1200 	.word	0x007a1200
 80062f8:	aaaaaaab 	.word	0xaaaaaaab
 80062fc:	003d0900 	.word	0x003d0900

08006300 <RTC_WriteAlarmCounter>:
  *                the configuration information for RTC.
  * @param  AlarmCounter: Counter to write in RTC_ALR registers
  * @retval HAL status
  */
static HAL_StatusTypeDef RTC_WriteAlarmCounter(RTC_HandleTypeDef *hrtc, uint32_t AlarmCounter)
{
 8006300:	b570      	push	{r4, r5, r6, lr}
 8006302:	4604      	mov	r4, r0
 8006304:	460e      	mov	r6, r1
  */
static HAL_StatusTypeDef RTC_EnterInitMode(RTC_HandleTypeDef *hrtc)
{
  uint32_t tickstart = 0U;

  tickstart = HAL_GetTick();
 8006306:	f7fe ff0f 	bl	8005128 <HAL_GetTick>
 800630a:	4605      	mov	r5, r0
  /* Wait till RTC is in INIT state and if Time out is reached exit */
  while ((hrtc->Instance->CRL & RTC_CRL_RTOFF) == (uint32_t)RESET)
 800630c:	e005      	b.n	800631a <RTC_WriteAlarmCounter+0x1a>
  {
    if ((HAL_GetTick() - tickstart) >  RTC_TIMEOUT_VALUE)
 800630e:	f7fe ff0b 	bl	8005128 <HAL_GetTick>
 8006312:	1b40      	subs	r0, r0, r5
 8006314:	f5b0 7f7a 	cmp.w	r0, #1000	; 0x3e8
 8006318:	d81f      	bhi.n	800635a <RTC_WriteAlarmCounter+0x5a>
  while ((hrtc->Instance->CRL & RTC_CRL_RTOFF) == (uint32_t)RESET)
 800631a:	6823      	ldr	r3, [r4, #0]
 800631c:	685a      	ldr	r2, [r3, #4]
 800631e:	0692      	lsls	r2, r2, #26
 8006320:	d5f5      	bpl.n	800630e <RTC_WriteAlarmCounter+0xe>
      return HAL_TIMEOUT;
    }
  }

  /* Disable the write protection for RTC registers */
  __HAL_RTC_WRITEPROTECTION_DISABLE(hrtc);
 8006322:	685a      	ldr	r2, [r3, #4]
    WRITE_REG(hrtc->Instance->ALRH, (AlarmCounter >> 16U));
 8006324:	0c31      	lsrs	r1, r6, #16
  __HAL_RTC_WRITEPROTECTION_DISABLE(hrtc);
 8006326:	f042 0210 	orr.w	r2, r2, #16
    WRITE_REG(hrtc->Instance->ALRL, (AlarmCounter & RTC_ALRL_RTC_ALR));
 800632a:	b2b6      	uxth	r6, r6
  __HAL_RTC_WRITEPROTECTION_DISABLE(hrtc);
 800632c:	605a      	str	r2, [r3, #4]
    WRITE_REG(hrtc->Instance->ALRH, (AlarmCounter >> 16U));
 800632e:	6219      	str	r1, [r3, #32]
    WRITE_REG(hrtc->Instance->ALRL, (AlarmCounter & RTC_ALRL_RTC_ALR));
 8006330:	625e      	str	r6, [r3, #36]	; 0x24
static HAL_StatusTypeDef RTC_ExitInitMode(RTC_HandleTypeDef *hrtc)
{
  uint32_t tickstart = 0U;

  /* Disable the write protection for RTC registers */
  __HAL_RTC_WRITEPROTECTION_ENABLE(hrtc);
 8006332:	685a      	ldr	r2, [r3, #4]
 8006334:	f022 0210 	bic.w	r2, r2, #16
 8006338:	605a      	str	r2, [r3, #4]

  tickstart = HAL_GetTick();
 800633a:	f7fe fef5 	bl	8005128 <HAL_GetTick>
 800633e:	4605      	mov	r5, r0
  /* Wait till RTC is in INIT state and if Time out is reached exit */
  while ((hrtc->Instance->CRL & RTC_CRL_RTOFF) == (uint32_t)RESET)
 8006340:	e005      	b.n	800634e <RTC_WriteAlarmCounter+0x4e>
  {
    if ((HAL_GetTick() - tickstart) >  RTC_TIMEOUT_VALUE)
 8006342:	f7fe fef1 	bl	8005128 <HAL_GetTick>
 8006346:	1b40      	subs	r0, r0, r5
 8006348:	f5b0 7f7a 	cmp.w	r0, #1000	; 0x3e8
 800634c:	d805      	bhi.n	800635a <RTC_WriteAlarmCounter+0x5a>
  while ((hrtc->Instance->CRL & RTC_CRL_RTOFF) == (uint32_t)RESET)
 800634e:	6823      	ldr	r3, [r4, #0]
 8006350:	685b      	ldr	r3, [r3, #4]
 8006352:	069b      	lsls	r3, r3, #26
 8006354:	d5f5      	bpl.n	8006342 <RTC_WriteAlarmCounter+0x42>
  HAL_StatusTypeDef status = HAL_OK;
 8006356:	2000      	movs	r0, #0
}
 8006358:	bd70      	pop	{r4, r5, r6, pc}
    status = HAL_ERROR;
 800635a:	2001      	movs	r0, #1
}
 800635c:	bd70      	pop	{r4, r5, r6, pc}
 800635e:	bf00      	nop

08006360 <HAL_RTC_Init>:
  if (hrtc == NULL)
 8006360:	2800      	cmp	r0, #0
 8006362:	d079      	beq.n	8006458 <HAL_RTC_Init+0xf8>
{
 8006364:	b538      	push	{r3, r4, r5, lr}
  if (hrtc->State == HAL_RTC_STATE_RESET)
 8006366:	7c43      	ldrb	r3, [r0, #17]
 8006368:	4604      	mov	r4, r0
 800636a:	f003 02ff 	and.w	r2, r3, #255	; 0xff
 800636e:	2b00      	cmp	r3, #0
 8006370:	d066      	beq.n	8006440 <HAL_RTC_Init+0xe0>
  hrtc->State = HAL_RTC_STATE_BUSY;
 8006372:	2302      	movs	r3, #2
  CLEAR_BIT(hrtc->Instance->CRL, RTC_FLAG_RSF);
 8006374:	6822      	ldr	r2, [r4, #0]
  hrtc->State = HAL_RTC_STATE_BUSY;
 8006376:	7463      	strb	r3, [r4, #17]
  CLEAR_BIT(hrtc->Instance->CRL, RTC_FLAG_RSF);
 8006378:	6853      	ldr	r3, [r2, #4]
 800637a:	f023 0308 	bic.w	r3, r3, #8
 800637e:	6053      	str	r3, [r2, #4]
  tickstart = HAL_GetTick();
 8006380:	f7fe fed2 	bl	8005128 <HAL_GetTick>
 8006384:	4605      	mov	r5, r0
  while ((hrtc->Instance->CRL & RTC_FLAG_RSF) == (uint32_t)RESET)
 8006386:	e005      	b.n	8006394 <HAL_RTC_Init+0x34>
    if ((HAL_GetTick() - tickstart) >  RTC_TIMEOUT_VALUE)
 8006388:	f7fe fece 	bl	8005128 <HAL_GetTick>
 800638c:	1b40      	subs	r0, r0, r5
 800638e:	f5b0 7f7a 	cmp.w	r0, #1000	; 0x3e8
 8006392:	d851      	bhi.n	8006438 <HAL_RTC_Init+0xd8>
  while ((hrtc->Instance->CRL & RTC_FLAG_RSF) == (uint32_t)RESET)
 8006394:	6823      	ldr	r3, [r4, #0]
 8006396:	685b      	ldr	r3, [r3, #4]
 8006398:	0718      	lsls	r0, r3, #28
 800639a:	d5f5      	bpl.n	8006388 <HAL_RTC_Init+0x28>
  tickstart = HAL_GetTick();
 800639c:	f7fe fec4 	bl	8005128 <HAL_GetTick>
 80063a0:	4605      	mov	r5, r0
  while ((hrtc->Instance->CRL & RTC_CRL_RTOFF) == (uint32_t)RESET)
 80063a2:	e005      	b.n	80063b0 <HAL_RTC_Init+0x50>
    if ((HAL_GetTick() - tickstart) >  RTC_TIMEOUT_VALUE)
 80063a4:	f7fe fec0 	bl	8005128 <HAL_GetTick>
 80063a8:	1b40      	subs	r0, r0, r5
 80063aa:	f5b0 7f7a 	cmp.w	r0, #1000	; 0x3e8
 80063ae:	d843      	bhi.n	8006438 <HAL_RTC_Init+0xd8>
  while ((hrtc->Instance->CRL & RTC_CRL_RTOFF) == (uint32_t)RESET)
 80063b0:	6823      	ldr	r3, [r4, #0]
 80063b2:	685a      	ldr	r2, [r3, #4]
 80063b4:	0691      	lsls	r1, r2, #26
 80063b6:	d5f5      	bpl.n	80063a4 <HAL_RTC_Init+0x44>
  __HAL_RTC_WRITEPROTECTION_DISABLE(hrtc);
 80063b8:	6859      	ldr	r1, [r3, #4]
    if (hrtc->Init.OutPut != RTC_OUTPUTSOURCE_NONE)
 80063ba:	68a0      	ldr	r0, [r4, #8]
  __HAL_RTC_WRITEPROTECTION_DISABLE(hrtc);
 80063bc:	f041 0110 	orr.w	r1, r1, #16
 80063c0:	6059      	str	r1, [r3, #4]
    CLEAR_BIT(hrtc->Instance->CRL, (RTC_FLAG_OW | RTC_FLAG_ALRAF | RTC_FLAG_SEC));
 80063c2:	6859      	ldr	r1, [r3, #4]
 80063c4:	f021 0107 	bic.w	r1, r1, #7
 80063c8:	6059      	str	r1, [r3, #4]
    if (hrtc->Init.OutPut != RTC_OUTPUTSOURCE_NONE)
 80063ca:	b120      	cbz	r0, 80063d6 <HAL_RTC_Init+0x76>
      CLEAR_BIT(BKP->CR, BKP_CR_TPE);
 80063cc:	4923      	ldr	r1, [pc, #140]	; (800645c <HAL_RTC_Init+0xfc>)
 80063ce:	6b0a      	ldr	r2, [r1, #48]	; 0x30
 80063d0:	f022 0201 	bic.w	r2, r2, #1
 80063d4:	630a      	str	r2, [r1, #48]	; 0x30
    MODIFY_REG(BKP->RTCCR, (BKP_RTCCR_CCO | BKP_RTCCR_ASOE | BKP_RTCCR_ASOS), hrtc->Init.OutPut);
 80063d6:	4921      	ldr	r1, [pc, #132]	; (800645c <HAL_RTC_Init+0xfc>)
 80063d8:	6aca      	ldr	r2, [r1, #44]	; 0x2c
 80063da:	f422 7260 	bic.w	r2, r2, #896	; 0x380
 80063de:	4302      	orrs	r2, r0
 80063e0:	62ca      	str	r2, [r1, #44]	; 0x2c
    if (hrtc->Init.AsynchPrediv != RTC_AUTO_1_SECOND)
 80063e2:	6861      	ldr	r1, [r4, #4]
 80063e4:	1c4a      	adds	r2, r1, #1
 80063e6:	d02f      	beq.n	8006448 <HAL_RTC_Init+0xe8>
    MODIFY_REG(hrtc->Instance->PRLH, RTC_PRLH_PRL, (prescaler >> 16U));
 80063e8:	6898      	ldr	r0, [r3, #8]
    MODIFY_REG(hrtc->Instance->PRLL, RTC_PRLL_PRL, (prescaler & RTC_PRLL_PRL));
 80063ea:	b28d      	uxth	r5, r1
    MODIFY_REG(hrtc->Instance->PRLH, RTC_PRLH_PRL, (prescaler >> 16U));
 80063ec:	f020 000f 	bic.w	r0, r0, #15
 80063f0:	ea40 4111 	orr.w	r1, r0, r1, lsr #16
 80063f4:	6099      	str	r1, [r3, #8]
    MODIFY_REG(hrtc->Instance->PRLL, RTC_PRLL_PRL, (prescaler & RTC_PRLL_PRL));
 80063f6:	68da      	ldr	r2, [r3, #12]
 80063f8:	0c12      	lsrs	r2, r2, #16
 80063fa:	0412      	lsls	r2, r2, #16
 80063fc:	432a      	orrs	r2, r5
 80063fe:	60da      	str	r2, [r3, #12]
  __HAL_RTC_WRITEPROTECTION_ENABLE(hrtc);
 8006400:	685a      	ldr	r2, [r3, #4]
 8006402:	f022 0210 	bic.w	r2, r2, #16
 8006406:	605a      	str	r2, [r3, #4]
  tickstart = HAL_GetTick();
 8006408:	f7fe fe8e 	bl	8005128 <HAL_GetTick>
 800640c:	4605      	mov	r5, r0
  while ((hrtc->Instance->CRL & RTC_CRL_RTOFF) == (uint32_t)RESET)
 800640e:	e005      	b.n	800641c <HAL_RTC_Init+0xbc>
    if ((HAL_GetTick() - tickstart) >  RTC_TIMEOUT_VALUE)
 8006410:	f7fe fe8a 	bl	8005128 <HAL_GetTick>
 8006414:	1b40      	subs	r0, r0, r5
 8006416:	f5b0 7f7a 	cmp.w	r0, #1000	; 0x3e8
 800641a:	d80d      	bhi.n	8006438 <HAL_RTC_Init+0xd8>
  while ((hrtc->Instance->CRL & RTC_CRL_RTOFF) == (uint32_t)RESET)
 800641c:	6823      	ldr	r3, [r4, #0]
 800641e:	685b      	ldr	r3, [r3, #4]
 8006420:	069b      	lsls	r3, r3, #26
 8006422:	d5f5      	bpl.n	8006410 <HAL_RTC_Init+0xb0>
    hrtc->DateToUpdate.Year = 0x00U;
 8006424:	2300      	movs	r3, #0
    hrtc->DateToUpdate.Month = RTC_MONTH_JANUARY;
 8006426:	f240 1101 	movw	r1, #257	; 0x101
    hrtc->State = HAL_RTC_STATE_READY;
 800642a:	2201      	movs	r2, #1
    hrtc->DateToUpdate.Year = 0x00U;
 800642c:	73e3      	strb	r3, [r4, #15]
    hrtc->DateToUpdate.Month = RTC_MONTH_JANUARY;
 800642e:	f8a4 100d 	strh.w	r1, [r4, #13]
    hrtc->State = HAL_RTC_STATE_READY;
 8006432:	7462      	strb	r2, [r4, #17]
    return HAL_OK;
 8006434:	4618      	mov	r0, r3
}
 8006436:	bd38      	pop	{r3, r4, r5, pc}
    hrtc->State = HAL_RTC_STATE_ERROR;
 8006438:	2304      	movs	r3, #4
 800643a:	7463      	strb	r3, [r4, #17]
    return HAL_ERROR;
 800643c:	2001      	movs	r0, #1
}
 800643e:	bd38      	pop	{r3, r4, r5, pc}
    hrtc->Lock = HAL_UNLOCKED;
 8006440:	7402      	strb	r2, [r0, #16]
    HAL_RTC_MspInit(hrtc);
 8006442:	f7fc fba5 	bl	8002b90 <HAL_RTC_MspInit>
 8006446:	e794      	b.n	8006372 <HAL_RTC_Init+0x12>
      prescaler = HAL_RCCEx_GetPeriphCLKFreq(RCC_PERIPHCLK_RTC);
 8006448:	2001      	movs	r0, #1
 800644a:	f7ff fedf 	bl	800620c <HAL_RCCEx_GetPeriphCLKFreq>
      if (prescaler == 0U)
 800644e:	2800      	cmp	r0, #0
 8006450:	d0f2      	beq.n	8006438 <HAL_RTC_Init+0xd8>
    MODIFY_REG(hrtc->Instance->PRLH, RTC_PRLH_PRL, (prescaler >> 16U));
 8006452:	6823      	ldr	r3, [r4, #0]
        prescaler = prescaler - 1U;
 8006454:	1e41      	subs	r1, r0, #1
 8006456:	e7c7      	b.n	80063e8 <HAL_RTC_Init+0x88>
    return HAL_ERROR;
 8006458:	2001      	movs	r0, #1
}
 800645a:	4770      	bx	lr
 800645c:	40006c00 	.word	0x40006c00

08006460 <HAL_RTC_SetTime>:
  if ((hrtc == NULL) || (sTime == NULL))
 8006460:	2800      	cmp	r0, #0
 8006462:	f000 8085 	beq.w	8006570 <HAL_RTC_SetTime+0x110>
 8006466:	2900      	cmp	r1, #0
 8006468:	f000 8082 	beq.w	8006570 <HAL_RTC_SetTime+0x110>
{
 800646c:	b570      	push	{r4, r5, r6, lr}
  __HAL_LOCK(hrtc);
 800646e:	7c03      	ldrb	r3, [r0, #16]
 8006470:	4604      	mov	r4, r0
 8006472:	2b01      	cmp	r3, #1
 8006474:	d07e      	beq.n	8006574 <HAL_RTC_SetTime+0x114>
 8006476:	2001      	movs	r0, #1
  hrtc->State = HAL_RTC_STATE_BUSY;
 8006478:	2302      	movs	r3, #2
  __HAL_LOCK(hrtc);
 800647a:	7420      	strb	r0, [r4, #16]
  hrtc->State = HAL_RTC_STATE_BUSY;
 800647c:	7463      	strb	r3, [r4, #17]
  if (Format == RTC_FORMAT_BIN)
 800647e:	2a00      	cmp	r2, #0
 8006480:	d05b      	beq.n	800653a <HAL_RTC_SetTime+0xda>
    counter_time = (((uint32_t)(RTC_Bcd2ToByte(sTime->Hours)) * 3600U) + \
 8006482:	f44f 6661 	mov.w	r6, #3600	; 0xe10
                    ((uint32_t)(RTC_Bcd2ToByte(sTime->Minutes)) * 60U) + \
 8006486:	784a      	ldrb	r2, [r1, #1]
    counter_time = (((uint32_t)(RTC_Bcd2ToByte(sTime->Hours)) * 3600U) + \
 8006488:	7808      	ldrb	r0, [r1, #0]
  * @retval Converted word
  */
static uint8_t RTC_Bcd2ToByte(uint8_t Value)
{
  uint32_t tmp = 0U;
  tmp = ((uint8_t)(Value & (uint8_t)0xF0) >> (uint8_t)0x4) * 10U;
 800648a:	0913      	lsrs	r3, r2, #4
 800648c:	eb03 0583 	add.w	r5, r3, r3, lsl #2
  return (tmp + (Value & (uint8_t)0x0F));
 8006490:	f002 030f 	and.w	r3, r2, #15
 8006494:	eb03 0345 	add.w	r3, r3, r5, lsl #1
                    ((uint32_t)(RTC_Bcd2ToByte(sTime->Minutes)) * 60U) + \
 8006498:	b2db      	uxtb	r3, r3
 800649a:	ebc3 1303 	rsb	r3, r3, r3, lsl #4
 800649e:	009d      	lsls	r5, r3, #2
  tmp = ((uint8_t)(Value & (uint8_t)0xF0) >> (uint8_t)0x4) * 10U;
 80064a0:	0903      	lsrs	r3, r0, #4
 80064a2:	eb03 0283 	add.w	r2, r3, r3, lsl #2
  return (tmp + (Value & (uint8_t)0x0F));
 80064a6:	f000 030f 	and.w	r3, r0, #15
                    ((uint32_t)(RTC_Bcd2ToByte(sTime->Seconds))));
 80064aa:	7889      	ldrb	r1, [r1, #2]
  return (tmp + (Value & (uint8_t)0x0F));
 80064ac:	eb03 0342 	add.w	r3, r3, r2, lsl #1
    counter_time = (((uint32_t)(RTC_Bcd2ToByte(sTime->Hours)) * 3600U) + \
 80064b0:	b2db      	uxtb	r3, r3
 80064b2:	fb06 5503 	mla	r5, r6, r3, r5
  tmp = ((uint8_t)(Value & (uint8_t)0xF0) >> (uint8_t)0x4) * 10U;
 80064b6:	090b      	lsrs	r3, r1, #4
 80064b8:	eb03 0283 	add.w	r2, r3, r3, lsl #2
  return (tmp + (Value & (uint8_t)0x0F));
 80064bc:	f001 030f 	and.w	r3, r1, #15
 80064c0:	eb03 0342 	add.w	r3, r3, r2, lsl #1
                    ((uint32_t)(RTC_Bcd2ToByte(sTime->Seconds))));
 80064c4:	b2db      	uxtb	r3, r3
    counter_time = (((uint32_t)(RTC_Bcd2ToByte(sTime->Hours)) * 3600U) + \
 80064c6:	441d      	add	r5, r3
  tickstart = HAL_GetTick();
 80064c8:	f7fe fe2e 	bl	8005128 <HAL_GetTick>
 80064cc:	4606      	mov	r6, r0
  while ((hrtc->Instance->CRL & RTC_CRL_RTOFF) == (uint32_t)RESET)
 80064ce:	e005      	b.n	80064dc <HAL_RTC_SetTime+0x7c>
    if ((HAL_GetTick() - tickstart) >  RTC_TIMEOUT_VALUE)
 80064d0:	f7fe fe2a 	bl	8005128 <HAL_GetTick>
 80064d4:	1b83      	subs	r3, r0, r6
 80064d6:	f5b3 7f7a 	cmp.w	r3, #1000	; 0x3e8
 80064da:	d843      	bhi.n	8006564 <HAL_RTC_SetTime+0x104>
  while ((hrtc->Instance->CRL & RTC_CRL_RTOFF) == (uint32_t)RESET)
 80064dc:	6823      	ldr	r3, [r4, #0]
 80064de:	685a      	ldr	r2, [r3, #4]
 80064e0:	0691      	lsls	r1, r2, #26
 80064e2:	d5f5      	bpl.n	80064d0 <HAL_RTC_SetTime+0x70>
  __HAL_RTC_WRITEPROTECTION_DISABLE(hrtc);
 80064e4:	6859      	ldr	r1, [r3, #4]
    WRITE_REG(hrtc->Instance->CNTH, (TimeCounter >> 16U));
 80064e6:	0c2a      	lsrs	r2, r5, #16
  __HAL_RTC_WRITEPROTECTION_DISABLE(hrtc);
 80064e8:	f041 0110 	orr.w	r1, r1, #16
 80064ec:	6059      	str	r1, [r3, #4]
    WRITE_REG(hrtc->Instance->CNTH, (TimeCounter >> 16U));
 80064ee:	619a      	str	r2, [r3, #24]
    WRITE_REG(hrtc->Instance->CNTL, (TimeCounter & RTC_CNTL_RTC_CNT));
 80064f0:	b2aa      	uxth	r2, r5
 80064f2:	61da      	str	r2, [r3, #28]
  __HAL_RTC_WRITEPROTECTION_ENABLE(hrtc);
 80064f4:	685a      	ldr	r2, [r3, #4]
 80064f6:	f022 0210 	bic.w	r2, r2, #16
 80064fa:	605a      	str	r2, [r3, #4]
  tickstart = HAL_GetTick();
 80064fc:	f7fe fe14 	bl	8005128 <HAL_GetTick>
 8006500:	4606      	mov	r6, r0
  while ((hrtc->Instance->CRL & RTC_CRL_RTOFF) == (uint32_t)RESET)
 8006502:	e005      	b.n	8006510 <HAL_RTC_SetTime+0xb0>
    if ((HAL_GetTick() - tickstart) >  RTC_TIMEOUT_VALUE)
 8006504:	f7fe fe10 	bl	8005128 <HAL_GetTick>
 8006508:	1b80      	subs	r0, r0, r6
 800650a:	f5b0 7f7a 	cmp.w	r0, #1000	; 0x3e8
 800650e:	d829      	bhi.n	8006564 <HAL_RTC_SetTime+0x104>
  while ((hrtc->Instance->CRL & RTC_CRL_RTOFF) == (uint32_t)RESET)
 8006510:	6823      	ldr	r3, [r4, #0]
 8006512:	685a      	ldr	r2, [r3, #4]
 8006514:	0692      	lsls	r2, r2, #26
 8006516:	d5f5      	bpl.n	8006504 <HAL_RTC_SetTime+0xa4>
    CLEAR_BIT(hrtc->Instance->CRL, (RTC_FLAG_SEC | RTC_FLAG_OW));
 8006518:	685a      	ldr	r2, [r3, #4]
 800651a:	f022 0205 	bic.w	r2, r2, #5
 800651e:	605a      	str	r2, [r3, #4]
  high1 = READ_REG(hrtc->Instance->ALRH & RTC_CNTH_RTC_CNT);
 8006520:	6a1a      	ldr	r2, [r3, #32]
  low   = READ_REG(hrtc->Instance->ALRL & RTC_CNTL_RTC_CNT);
 8006522:	6a59      	ldr	r1, [r3, #36]	; 0x24
  return (((uint32_t) high1 << 16U) | low);
 8006524:	b289      	uxth	r1, r1
 8006526:	ea41 4102 	orr.w	r1, r1, r2, lsl #16
      if (counter_alarm < counter_time)
 800652a:	428d      	cmp	r5, r1
 800652c:	d811      	bhi.n	8006552 <HAL_RTC_SetTime+0xf2>
    __HAL_UNLOCK(hrtc);
 800652e:	2300      	movs	r3, #0
    hrtc->State = HAL_RTC_STATE_READY;
 8006530:	2201      	movs	r2, #1
    __HAL_UNLOCK(hrtc);
 8006532:	7423      	strb	r3, [r4, #16]
    hrtc->State = HAL_RTC_STATE_READY;
 8006534:	7462      	strb	r2, [r4, #17]
    return HAL_OK;
 8006536:	4618      	mov	r0, r3
}
 8006538:	bd70      	pop	{r4, r5, r6, pc}
    counter_time = (uint32_t)(((uint32_t)sTime->Hours * 3600U) + \
 800653a:	f44f 6061 	mov.w	r0, #3600	; 0xe10
                              ((uint32_t)sTime->Minutes * 60U) + \
 800653e:	784b      	ldrb	r3, [r1, #1]
    counter_time = (uint32_t)(((uint32_t)sTime->Hours * 3600U) + \
 8006540:	780a      	ldrb	r2, [r1, #0]
                              ((uint32_t)sTime->Minutes * 60U) + \
 8006542:	ebc3 1303 	rsb	r3, r3, r3, lsl #4
 8006546:	009d      	lsls	r5, r3, #2
    counter_time = (uint32_t)(((uint32_t)sTime->Hours * 3600U) + \
 8006548:	fb00 5502 	mla	r5, r0, r2, r5
                              ((uint32_t)sTime->Seconds));
 800654c:	788b      	ldrb	r3, [r1, #2]
    counter_time = (uint32_t)(((uint32_t)sTime->Hours * 3600U) + \
 800654e:	441d      	add	r5, r3
 8006550:	e7ba      	b.n	80064c8 <HAL_RTC_SetTime+0x68>
        if (RTC_WriteAlarmCounter(hrtc, counter_alarm) != HAL_OK)
 8006552:	f501 31a8 	add.w	r1, r1, #86016	; 0x15000
 8006556:	4620      	mov	r0, r4
 8006558:	f501 71c0 	add.w	r1, r1, #384	; 0x180
 800655c:	f7ff fed0 	bl	8006300 <RTC_WriteAlarmCounter>
 8006560:	2800      	cmp	r0, #0
 8006562:	d0e4      	beq.n	800652e <HAL_RTC_SetTime+0xce>
          hrtc->State = HAL_RTC_STATE_ERROR;
 8006564:	2204      	movs	r2, #4
          __HAL_UNLOCK(hrtc);
 8006566:	2300      	movs	r3, #0
          hrtc->State = HAL_RTC_STATE_ERROR;
 8006568:	7462      	strb	r2, [r4, #17]
          __HAL_UNLOCK(hrtc);
 800656a:	7423      	strb	r3, [r4, #16]
          return HAL_ERROR;
 800656c:	2001      	movs	r0, #1
}
 800656e:	bd70      	pop	{r4, r5, r6, pc}
    return HAL_ERROR;
 8006570:	2001      	movs	r0, #1
}
 8006572:	4770      	bx	lr
  __HAL_LOCK(hrtc);
 8006574:	2002      	movs	r0, #2
}
 8006576:	bd70      	pop	{r4, r5, r6, pc}

08006578 <HAL_RTC_SetDate>:
  if ((hrtc == NULL) || (sDate == NULL))
 8006578:	2800      	cmp	r0, #0
 800657a:	f000 808f 	beq.w	800669c <HAL_RTC_SetDate+0x124>
 800657e:	2900      	cmp	r1, #0
 8006580:	f000 808c 	beq.w	800669c <HAL_RTC_SetDate+0x124>
{
 8006584:	b570      	push	{r4, r5, r6, lr}
  __HAL_LOCK(hrtc);
 8006586:	7c03      	ldrb	r3, [r0, #16]
 8006588:	4604      	mov	r4, r0
 800658a:	2b01      	cmp	r3, #1
 800658c:	f000 80d3 	beq.w	8006736 <HAL_RTC_SetDate+0x1be>
 8006590:	2001      	movs	r0, #1
  hrtc->State = HAL_RTC_STATE_BUSY;
 8006592:	2302      	movs	r3, #2
  __HAL_LOCK(hrtc);
 8006594:	7420      	strb	r0, [r4, #16]
  hrtc->State = HAL_RTC_STATE_BUSY;
 8006596:	7463      	strb	r3, [r4, #17]
  if (Format == RTC_FORMAT_BIN)
 8006598:	2a00      	cmp	r2, #0
 800659a:	d05d      	beq.n	8006658 <HAL_RTC_SetDate+0xe0>
    hrtc->DateToUpdate.Year  = RTC_Bcd2ToByte(sDate->Year);
 800659c:	78cb      	ldrb	r3, [r1, #3]
  tmp = ((uint8_t)(Value & (uint8_t)0xF0) >> (uint8_t)0x4) * 10U;
 800659e:	ea4f 1c13 	mov.w	ip, r3, lsr #4
 80065a2:	eb0c 028c 	add.w	r2, ip, ip, lsl #2
  return (tmp + (Value & (uint8_t)0x0F));
 80065a6:	f003 0c0f 	and.w	ip, r3, #15
 80065aa:	eb0c 0c42 	add.w	ip, ip, r2, lsl #1
 80065ae:	fa5f fc8c 	uxtb.w	ip, ip
    hrtc->DateToUpdate.Year  = RTC_Bcd2ToByte(sDate->Year);
 80065b2:	f884 c00f 	strb.w	ip, [r4, #15]
    hrtc->DateToUpdate.Month = RTC_Bcd2ToByte(sDate->Month);
 80065b6:	784b      	ldrb	r3, [r1, #1]
  tmp = ((uint8_t)(Value & (uint8_t)0xF0) >> (uint8_t)0x4) * 10U;
 80065b8:	0918      	lsrs	r0, r3, #4
 80065ba:	eb00 0280 	add.w	r2, r0, r0, lsl #2
  return (tmp + (Value & (uint8_t)0x0F));
 80065be:	f003 000f 	and.w	r0, r3, #15
 80065c2:	eb00 0042 	add.w	r0, r0, r2, lsl #1
 80065c6:	b2c0      	uxtb	r0, r0
    hrtc->DateToUpdate.Month = RTC_Bcd2ToByte(sDate->Month);
 80065c8:	7360      	strb	r0, [r4, #13]
    hrtc->DateToUpdate.Date  = RTC_Bcd2ToByte(sDate->Date);
 80065ca:	788a      	ldrb	r2, [r1, #2]
{
  uint32_t year = 0U, weekday = 0U;

  year = 2000U + nYear;

  if (nMonth < 3U)
 80065cc:	2802      	cmp	r0, #2
  tmp = ((uint8_t)(Value & (uint8_t)0xF0) >> (uint8_t)0x4) * 10U;
 80065ce:	ea4f 1312 	mov.w	r3, r2, lsr #4
 80065d2:	eb03 0583 	add.w	r5, r3, r3, lsl #2
  return (tmp + (Value & (uint8_t)0x0F));
 80065d6:	f002 030f 	and.w	r3, r2, #15
 80065da:	eb03 0345 	add.w	r3, r3, r5, lsl #1
 80065de:	b2db      	uxtb	r3, r3
    hrtc->DateToUpdate.Date  = RTC_Bcd2ToByte(sDate->Date);
 80065e0:	73a3      	strb	r3, [r4, #14]
  year = 2000U + nYear;
 80065e2:	f50c 62fa 	add.w	r2, ip, #2000	; 0x7d0
  if (nMonth < 3U)
 80065e6:	d845      	bhi.n	8006674 <HAL_RTC_SetDate+0xfc>
  {
    /*D = { [(23 x month)/9] + day + 4 + year + [(year-1)/4] - [(year-1)/100] + [(year-1)/400] } mod 7*/
    weekday = (((23U * nMonth) / 9U) + nDay + 4U + year + ((year - 1U) / 4U) - ((year - 1U) / 100U) + ((year - 1U) / 400U)) % 7U;
 80065e8:	3304      	adds	r3, #4
 80065ea:	4413      	add	r3, r2
 80065ec:	4d53      	ldr	r5, [pc, #332]	; (800673c <HAL_RTC_SetDate+0x1c4>)
 80065ee:	eb00 0240 	add.w	r2, r0, r0, lsl #1
 80065f2:	ebc0 00c2 	rsb	r0, r0, r2, lsl #3
 80065f6:	fba5 2000 	umull	r2, r0, r5, r0
 80065fa:	4a51      	ldr	r2, [pc, #324]	; (8006740 <HAL_RTC_SetDate+0x1c8>)
 80065fc:	f20c 7ccf 	addw	ip, ip, #1999	; 0x7cf
 8006600:	eb03 0350 	add.w	r3, r3, r0, lsr #1
 8006604:	eb03 039c 	add.w	r3, r3, ip, lsr #2
 8006608:	fba2 2c0c 	umull	r2, ip, r2, ip
 800660c:	4a4d      	ldr	r2, [pc, #308]	; (8006744 <HAL_RTC_SetDate+0x1cc>)
 800660e:	eb03 13dc 	add.w	r3, r3, ip, lsr #7
 8006612:	eba3 135c 	sub.w	r3, r3, ip, lsr #5
  }
  else
  {
    /*D = { [(23 x month)/9] + day + 4 + year + [year/4] - [year/100] + [year/400] - 2 } mod 7*/
    weekday = (((23U * nMonth) / 9U) + nDay + 4U + year + (year / 4U) - (year / 100U) + (year / 400U) - 2U) % 7U;
 8006616:	fba2 0203 	umull	r0, r2, r2, r3
 800661a:	1a98      	subs	r0, r3, r2
 800661c:	eb02 0250 	add.w	r2, r2, r0, lsr #1
 8006620:	0892      	lsrs	r2, r2, #2
 8006622:	ebc2 02c2 	rsb	r2, r2, r2, lsl #3
 8006626:	1a9a      	subs	r2, r3, r2
  }

  return (uint8_t)weekday;
 8006628:	b2d2      	uxtb	r2, r2
  hrtc->DateToUpdate.WeekDay = RTC_WeekDayNum(hrtc->DateToUpdate.Year, hrtc->DateToUpdate.Month, hrtc->DateToUpdate.Date);
 800662a:	7322      	strb	r2, [r4, #12]
  sDate->WeekDay = hrtc->DateToUpdate.WeekDay;
 800662c:	700a      	strb	r2, [r1, #0]
  high1 = READ_REG(hrtc->Instance->CNTH & RTC_CNTH_RTC_CNT);
 800662e:	6823      	ldr	r3, [r4, #0]
 8006630:	6999      	ldr	r1, [r3, #24]
  low   = READ_REG(hrtc->Instance->CNTL & RTC_CNTL_RTC_CNT);
 8006632:	69dd      	ldr	r5, [r3, #28]
  high2 = READ_REG(hrtc->Instance->CNTH & RTC_CNTH_RTC_CNT);
 8006634:	699a      	ldr	r2, [r3, #24]
  if (high1 != high2)
 8006636:	b28e      	uxth	r6, r1
 8006638:	b290      	uxth	r0, r2
 800663a:	4286      	cmp	r6, r0
 800663c:	d030      	beq.n	80066a0 <HAL_RTC_SetDate+0x128>
    timecounter = (((uint32_t) high2 << 16U) | READ_REG(hrtc->Instance->CNTL & RTC_CNTL_RTC_CNT));
 800663e:	69dd      	ldr	r5, [r3, #28]
  if (hours > 24U)
 8006640:	4b41      	ldr	r3, [pc, #260]	; (8006748 <HAL_RTC_SetDate+0x1d0>)
    timecounter = (((uint32_t) high2 << 16U) | READ_REG(hrtc->Instance->CNTL & RTC_CNTL_RTC_CNT));
 8006642:	b2ad      	uxth	r5, r5
 8006644:	ea45 4502 	orr.w	r5, r5, r2, lsl #16
  if (hours > 24U)
 8006648:	429d      	cmp	r5, r3
 800664a:	d82f      	bhi.n	80066ac <HAL_RTC_SetDate+0x134>
  __HAL_UNLOCK(hrtc);
 800664c:	2300      	movs	r3, #0
  hrtc->State = HAL_RTC_STATE_READY ;
 800664e:	2201      	movs	r2, #1
  __HAL_UNLOCK(hrtc);
 8006650:	7423      	strb	r3, [r4, #16]
  hrtc->State = HAL_RTC_STATE_READY ;
 8006652:	7462      	strb	r2, [r4, #17]
  return HAL_OK;
 8006654:	4618      	mov	r0, r3
}
 8006656:	bd70      	pop	{r4, r5, r6, pc}
    hrtc->DateToUpdate.Year  = sDate->Year;
 8006658:	f891 c003 	ldrb.w	ip, [r1, #3]
 800665c:	f884 c00f 	strb.w	ip, [r4, #15]
    hrtc->DateToUpdate.Month = sDate->Month;
 8006660:	7848      	ldrb	r0, [r1, #1]
 8006662:	f8b1 2001 	ldrh.w	r2, [r1, #1]
  if (nMonth < 3U)
 8006666:	2802      	cmp	r0, #2
    hrtc->DateToUpdate.Date  = sDate->Date;
 8006668:	788b      	ldrb	r3, [r1, #2]
    hrtc->DateToUpdate.Month = sDate->Month;
 800666a:	f8a4 200d 	strh.w	r2, [r4, #13]
  year = 2000U + nYear;
 800666e:	f50c 62fa 	add.w	r2, ip, #2000	; 0x7d0
  if (nMonth < 3U)
 8006672:	d9b9      	bls.n	80065e8 <HAL_RTC_SetDate+0x70>
    weekday = (((23U * nMonth) / 9U) + nDay + 4U + year + (year / 4U) - (year / 100U) + (year / 400U) - 2U) % 7U;
 8006674:	4d31      	ldr	r5, [pc, #196]	; (800673c <HAL_RTC_SetDate+0x1c4>)
 8006676:	eb00 0640 	add.w	r6, r0, r0, lsl #1
 800667a:	ebc0 00c6 	rsb	r0, r0, r6, lsl #3
 800667e:	fba5 5000 	umull	r5, r0, r5, r0
 8006682:	3307      	adds	r3, #7
 8006684:	4413      	add	r3, r2
 8006686:	eb03 0350 	add.w	r3, r3, r0, lsr #1
 800668a:	482d      	ldr	r0, [pc, #180]	; (8006740 <HAL_RTC_SetDate+0x1c8>)
 800668c:	eb03 0392 	add.w	r3, r3, r2, lsr #2
 8006690:	fba0 2002 	umull	r2, r0, r0, r2
 8006694:	4a2b      	ldr	r2, [pc, #172]	; (8006744 <HAL_RTC_SetDate+0x1cc>)
 8006696:	eba3 1350 	sub.w	r3, r3, r0, lsr #5
 800669a:	e7bc      	b.n	8006616 <HAL_RTC_SetDate+0x9e>
    return HAL_ERROR;
 800669c:	2001      	movs	r0, #1
}
 800669e:	4770      	bx	lr
  if (hours > 24U)
 80066a0:	4b29      	ldr	r3, [pc, #164]	; (8006748 <HAL_RTC_SetDate+0x1d0>)
    timecounter = (((uint32_t) high1 << 16U) | low);
 80066a2:	b2ad      	uxth	r5, r5
 80066a4:	ea45 4501 	orr.w	r5, r5, r1, lsl #16
  if (hours > 24U)
 80066a8:	429d      	cmp	r5, r3
 80066aa:	d9cf      	bls.n	800664c <HAL_RTC_SetDate+0xd4>
  tickstart = HAL_GetTick();
 80066ac:	f7fe fd3c 	bl	8005128 <HAL_GetTick>
 80066b0:	4606      	mov	r6, r0
  while ((hrtc->Instance->CRL & RTC_CRL_RTOFF) == (uint32_t)RESET)
 80066b2:	e005      	b.n	80066c0 <HAL_RTC_SetDate+0x148>
    if ((HAL_GetTick() - tickstart) >  RTC_TIMEOUT_VALUE)
 80066b4:	f7fe fd38 	bl	8005128 <HAL_GetTick>
 80066b8:	1b80      	subs	r0, r0, r6
 80066ba:	f5b0 7f7a 	cmp.w	r0, #1000	; 0x3e8
 80066be:	d834      	bhi.n	800672a <HAL_RTC_SetDate+0x1b2>
  while ((hrtc->Instance->CRL & RTC_CRL_RTOFF) == (uint32_t)RESET)
 80066c0:	6823      	ldr	r3, [r4, #0]
 80066c2:	685a      	ldr	r2, [r3, #4]
 80066c4:	0691      	lsls	r1, r2, #26
 80066c6:	d5f5      	bpl.n	80066b4 <HAL_RTC_SetDate+0x13c>
 80066c8:	4e20      	ldr	r6, [pc, #128]	; (800674c <HAL_RTC_SetDate+0x1d4>)
 80066ca:	4a21      	ldr	r2, [pc, #132]	; (8006750 <HAL_RTC_SetDate+0x1d8>)
 80066cc:	fba6 1605 	umull	r1, r6, r6, r5
 80066d0:	0c36      	lsrs	r6, r6, #16
 80066d2:	fb02 5616 	mls	r6, r2, r6, r5
  __HAL_RTC_WRITEPROTECTION_DISABLE(hrtc);
 80066d6:	685a      	ldr	r2, [r3, #4]
    WRITE_REG(hrtc->Instance->CNTH, (TimeCounter >> 16U));
 80066d8:	0c31      	lsrs	r1, r6, #16
  __HAL_RTC_WRITEPROTECTION_DISABLE(hrtc);
 80066da:	f042 0210 	orr.w	r2, r2, #16
 80066de:	605a      	str	r2, [r3, #4]
    WRITE_REG(hrtc->Instance->CNTL, (TimeCounter & RTC_CNTL_RTC_CNT));
 80066e0:	b2b2      	uxth	r2, r6
    WRITE_REG(hrtc->Instance->CNTH, (TimeCounter >> 16U));
 80066e2:	6199      	str	r1, [r3, #24]
    WRITE_REG(hrtc->Instance->CNTL, (TimeCounter & RTC_CNTL_RTC_CNT));
 80066e4:	61da      	str	r2, [r3, #28]
  __HAL_RTC_WRITEPROTECTION_ENABLE(hrtc);
 80066e6:	685a      	ldr	r2, [r3, #4]
 80066e8:	f022 0210 	bic.w	r2, r2, #16
 80066ec:	605a      	str	r2, [r3, #4]
  tickstart = HAL_GetTick();
 80066ee:	f7fe fd1b 	bl	8005128 <HAL_GetTick>
 80066f2:	4605      	mov	r5, r0
  while ((hrtc->Instance->CRL & RTC_CRL_RTOFF) == (uint32_t)RESET)
 80066f4:	e005      	b.n	8006702 <HAL_RTC_SetDate+0x18a>
    if ((HAL_GetTick() - tickstart) >  RTC_TIMEOUT_VALUE)
 80066f6:	f7fe fd17 	bl	8005128 <HAL_GetTick>
 80066fa:	1b40      	subs	r0, r0, r5
 80066fc:	f5b0 7f7a 	cmp.w	r0, #1000	; 0x3e8
 8006700:	d813      	bhi.n	800672a <HAL_RTC_SetDate+0x1b2>
  while ((hrtc->Instance->CRL & RTC_CRL_RTOFF) == (uint32_t)RESET)
 8006702:	6823      	ldr	r3, [r4, #0]
 8006704:	685a      	ldr	r2, [r3, #4]
 8006706:	0692      	lsls	r2, r2, #26
 8006708:	d5f5      	bpl.n	80066f6 <HAL_RTC_SetDate+0x17e>
  high1 = READ_REG(hrtc->Instance->ALRH & RTC_CNTH_RTC_CNT);
 800670a:	6a1a      	ldr	r2, [r3, #32]
  low   = READ_REG(hrtc->Instance->ALRL & RTC_CNTL_RTC_CNT);
 800670c:	6a59      	ldr	r1, [r3, #36]	; 0x24
  return (((uint32_t) high1 << 16U) | low);
 800670e:	b289      	uxth	r1, r1
 8006710:	ea41 4102 	orr.w	r1, r1, r2, lsl #16
      if (counter_alarm < counter_time)
 8006714:	428e      	cmp	r6, r1
 8006716:	d999      	bls.n	800664c <HAL_RTC_SetDate+0xd4>
        if (RTC_WriteAlarmCounter(hrtc, counter_alarm) != HAL_OK)
 8006718:	f501 31a8 	add.w	r1, r1, #86016	; 0x15000
 800671c:	4620      	mov	r0, r4
 800671e:	f501 71c0 	add.w	r1, r1, #384	; 0x180
 8006722:	f7ff fded 	bl	8006300 <RTC_WriteAlarmCounter>
 8006726:	2800      	cmp	r0, #0
 8006728:	d090      	beq.n	800664c <HAL_RTC_SetDate+0xd4>
          hrtc->State = HAL_RTC_STATE_ERROR;
 800672a:	2204      	movs	r2, #4
          __HAL_UNLOCK(hrtc);
 800672c:	2300      	movs	r3, #0
          hrtc->State = HAL_RTC_STATE_ERROR;
 800672e:	7462      	strb	r2, [r4, #17]
          __HAL_UNLOCK(hrtc);
 8006730:	7423      	strb	r3, [r4, #16]
          return HAL_ERROR;
 8006732:	2001      	movs	r0, #1
}
 8006734:	bd70      	pop	{r4, r5, r6, pc}
  __HAL_LOCK(hrtc);
 8006736:	2002      	movs	r0, #2
}
 8006738:	bd70      	pop	{r4, r5, r6, pc}
 800673a:	bf00      	nop
 800673c:	38e38e39 	.word	0x38e38e39
 8006740:	51eb851f 	.word	0x51eb851f
 8006744:	24924925 	.word	0x24924925
 8006748:	00015f8f 	.word	0x00015f8f
 800674c:	c22e4507 	.word	0xc22e4507
 8006750:	00015180 	.word	0x00015180

08006754 <SPI_WaitFlagStateUntilTimeout.constprop.1>:
  * @param  State flag state to check
  * @param  Timeout Timeout duration
  * @param  Tickstart tick start value
  * @retval HAL status
  */
static HAL_StatusTypeDef SPI_WaitFlagStateUntilTimeout(SPI_HandleTypeDef *hspi, uint32_t Flag, FlagStatus State,
 8006754:	e92d 41f0 	stmdb	sp!, {r4, r5, r6, r7, r8, lr}
 8006758:	461d      	mov	r5, r3
 800675a:	4616      	mov	r6, r2
 800675c:	b082      	sub	sp, #8
 800675e:	460c      	mov	r4, r1
 8006760:	4607      	mov	r7, r0
  __IO uint32_t count;
  uint32_t tmp_timeout;
  uint32_t tmp_tickstart;

  /* Adjust Timeout value  in case of end of transfer */
  tmp_timeout   = Timeout - (HAL_GetTick() - Tickstart);
 8006762:	f7fe fce1 	bl	8005128 <HAL_GetTick>
 8006766:	4435      	add	r5, r6
 8006768:	1a2d      	subs	r5, r5, r0
  tmp_tickstart = HAL_GetTick();
 800676a:	f7fe fcdd 	bl	8005128 <HAL_GetTick>
 800676e:	4680      	mov	r8, r0

  /* Calculate Timeout based on a software loop to avoid blocking issue if Systick is disabled */
  count = tmp_timeout * ((SystemCoreClock * 32U) >> 20U);
 8006770:	4b26      	ldr	r3, [pc, #152]	; (800680c <SPI_WaitFlagStateUntilTimeout.constprop.1+0xb8>)
 8006772:	681b      	ldr	r3, [r3, #0]
 8006774:	f3c3 33cb 	ubfx	r3, r3, #15, #12
 8006778:	fb05 f303 	mul.w	r3, r5, r3
 800677c:	9301      	str	r3, [sp, #4]
 800677e:	1c73      	adds	r3, r6, #1

  while ((__HAL_SPI_GET_FLAG(hspi, Flag) ? SET : RESET) != State)
 8006780:	6839      	ldr	r1, [r7, #0]
 8006782:	d107      	bne.n	8006794 <SPI_WaitFlagStateUntilTimeout.constprop.1+0x40>
 8006784:	688b      	ldr	r3, [r1, #8]
 8006786:	ea34 0303 	bics.w	r3, r4, r3
 800678a:	d0fb      	beq.n	8006784 <SPI_WaitFlagStateUntilTimeout.constprop.1+0x30>
      }
      count--;
    }
  }

  return HAL_OK;
 800678c:	2000      	movs	r0, #0
}
 800678e:	b002      	add	sp, #8
 8006790:	e8bd 81f0 	ldmia.w	sp!, {r4, r5, r6, r7, r8, pc}
  while ((__HAL_SPI_GET_FLAG(hspi, Flag) ? SET : RESET) != State)
 8006794:	688b      	ldr	r3, [r1, #8]
 8006796:	ea34 0303 	bics.w	r3, r4, r3
 800679a:	d1f7      	bne.n	800678c <SPI_WaitFlagStateUntilTimeout.constprop.1+0x38>
      if (((HAL_GetTick() - tmp_tickstart) >= tmp_timeout) || (tmp_timeout == 0U))
 800679c:	f7fe fcc4 	bl	8005128 <HAL_GetTick>
 80067a0:	eba0 0308 	sub.w	r3, r0, r8
 80067a4:	42ab      	cmp	r3, r5
 80067a6:	d207      	bcs.n	80067b8 <SPI_WaitFlagStateUntilTimeout.constprop.1+0x64>
      if(count == 0U)
 80067a8:	9b01      	ldr	r3, [sp, #4]
        tmp_timeout = 0U;
 80067aa:	2b00      	cmp	r3, #0
      count--;
 80067ac:	9b01      	ldr	r3, [sp, #4]
        tmp_timeout = 0U;
 80067ae:	bf08      	it	eq
 80067b0:	2500      	moveq	r5, #0
      count--;
 80067b2:	3b01      	subs	r3, #1
 80067b4:	9301      	str	r3, [sp, #4]
 80067b6:	e7e2      	b.n	800677e <SPI_WaitFlagStateUntilTimeout.constprop.1+0x2a>
        if ((hspi->Init.Mode == SPI_MODE_MASTER) && ((hspi->Init.Direction == SPI_DIRECTION_1LINE)
 80067b8:	e9d7 3100 	ldrd	r3, r1, [r7]
        __HAL_SPI_DISABLE_IT(hspi, (SPI_IT_TXE | SPI_IT_RXNE | SPI_IT_ERR));
 80067bc:	685a      	ldr	r2, [r3, #4]
        if ((hspi->Init.Mode == SPI_MODE_MASTER) && ((hspi->Init.Direction == SPI_DIRECTION_1LINE)
 80067be:	f5b1 7f82 	cmp.w	r1, #260	; 0x104
        __HAL_SPI_DISABLE_IT(hspi, (SPI_IT_TXE | SPI_IT_RXNE | SPI_IT_ERR));
 80067c2:	f022 02e0 	bic.w	r2, r2, #224	; 0xe0
 80067c6:	605a      	str	r2, [r3, #4]
        if ((hspi->Init.Mode == SPI_MODE_MASTER) && ((hspi->Init.Direction == SPI_DIRECTION_1LINE)
 80067c8:	d014      	beq.n	80067f4 <SPI_WaitFlagStateUntilTimeout.constprop.1+0xa0>
        if (hspi->Init.CRCCalculation == SPI_CRCCALCULATION_ENABLE)
 80067ca:	6aba      	ldr	r2, [r7, #40]	; 0x28
 80067cc:	f5b2 5f00 	cmp.w	r2, #8192	; 0x2000
 80067d0:	d007      	beq.n	80067e2 <SPI_WaitFlagStateUntilTimeout.constprop.1+0x8e>
        hspi->State = HAL_SPI_STATE_READY;
 80067d2:	2201      	movs	r2, #1
        __HAL_UNLOCK(hspi);
 80067d4:	2300      	movs	r3, #0
 80067d6:	2003      	movs	r0, #3
        hspi->State = HAL_SPI_STATE_READY;
 80067d8:	f887 2051 	strb.w	r2, [r7, #81]	; 0x51
        __HAL_UNLOCK(hspi);
 80067dc:	f887 3050 	strb.w	r3, [r7, #80]	; 0x50
        return HAL_TIMEOUT;
 80067e0:	e7d5      	b.n	800678e <SPI_WaitFlagStateUntilTimeout.constprop.1+0x3a>
          SPI_RESET_CRC(hspi);
 80067e2:	681a      	ldr	r2, [r3, #0]
 80067e4:	f422 5200 	bic.w	r2, r2, #8192	; 0x2000
 80067e8:	601a      	str	r2, [r3, #0]
 80067ea:	681a      	ldr	r2, [r3, #0]
 80067ec:	f442 5200 	orr.w	r2, r2, #8192	; 0x2000
 80067f0:	601a      	str	r2, [r3, #0]
 80067f2:	e7ee      	b.n	80067d2 <SPI_WaitFlagStateUntilTimeout.constprop.1+0x7e>
        if ((hspi->Init.Mode == SPI_MODE_MASTER) && ((hspi->Init.Direction == SPI_DIRECTION_1LINE)
 80067f4:	68ba      	ldr	r2, [r7, #8]
 80067f6:	f5b2 4f00 	cmp.w	r2, #32768	; 0x8000
 80067fa:	d002      	beq.n	8006802 <SPI_WaitFlagStateUntilTimeout.constprop.1+0xae>
                                                     || (hspi->Init.Direction == SPI_DIRECTION_2LINES_RXONLY)))
 80067fc:	f5b2 6f80 	cmp.w	r2, #1024	; 0x400
 8006800:	d1e3      	bne.n	80067ca <SPI_WaitFlagStateUntilTimeout.constprop.1+0x76>
          __HAL_SPI_DISABLE(hspi);
 8006802:	681a      	ldr	r2, [r3, #0]
 8006804:	f022 0240 	bic.w	r2, r2, #64	; 0x40
 8006808:	601a      	str	r2, [r3, #0]
 800680a:	e7de      	b.n	80067ca <SPI_WaitFlagStateUntilTimeout.constprop.1+0x76>
 800680c:	20000008 	.word	0x20000008

08006810 <HAL_SPI_Init>:
  if (hspi == NULL)
 8006810:	2800      	cmp	r0, #0
 8006812:	d058      	beq.n	80068c6 <HAL_SPI_Init+0xb6>
{
 8006814:	b5f8      	push	{r3, r4, r5, r6, r7, lr}
  if (hspi->Init.TIMode == SPI_TIMODE_DISABLE)
 8006816:	6a43      	ldr	r3, [r0, #36]	; 0x24
 8006818:	4604      	mov	r4, r0
 800681a:	2b00      	cmp	r3, #0
 800681c:	d044      	beq.n	80068a8 <HAL_SPI_Init+0x98>
    hspi->Init.CLKPolarity = SPI_POLARITY_LOW;
 800681e:	2300      	movs	r3, #0
    hspi->Init.CLKPhase    = SPI_PHASE_1EDGE;
 8006820:	e9c0 3304 	strd	r3, r3, [r0, #16]
  hspi->Init.CRCCalculation = SPI_CRCCALCULATION_DISABLE;
 8006824:	2300      	movs	r3, #0
  if (hspi->State == HAL_SPI_STATE_RESET)
 8006826:	f894 2051 	ldrb.w	r2, [r4, #81]	; 0x51
  hspi->Init.CRCCalculation = SPI_CRCCALCULATION_DISABLE;
 800682a:	62a3      	str	r3, [r4, #40]	; 0x28
  if (hspi->State == HAL_SPI_STATE_RESET)
 800682c:	f002 01ff 	and.w	r1, r2, #255	; 0xff
 8006830:	2a00      	cmp	r2, #0
 8006832:	d03f      	beq.n	80068b4 <HAL_SPI_Init+0xa4>
 8006834:	469c      	mov	ip, r3
  WRITE_REG(hspi->Instance->CR1, ((hspi->Init.Mode & (SPI_CR1_MSTR | SPI_CR1_SSI)) |
 8006836:	e9d4 3201 	ldrd	r3, r2, [r4, #4]
  hspi->State = HAL_SPI_STATE_BUSY;
 800683a:	2602      	movs	r6, #2
  hspi->State     = HAL_SPI_STATE_READY;
 800683c:	f04f 0e01 	mov.w	lr, #1
  hspi->ErrorCode = HAL_SPI_ERROR_NONE;
 8006840:	2500      	movs	r5, #0
  WRITE_REG(hspi->Instance->CR1, ((hspi->Init.Mode & (SPI_CR1_MSTR | SPI_CR1_SSI)) |
 8006842:	f402 4204 	and.w	r2, r2, #33792	; 0x8400
 8006846:	f403 7382 	and.w	r3, r3, #260	; 0x104
 800684a:	4313      	orrs	r3, r2
 800684c:	68e2      	ldr	r2, [r4, #12]
 800684e:	69a0      	ldr	r0, [r4, #24]
 8006850:	f402 6200 	and.w	r2, r2, #2048	; 0x800
 8006854:	4313      	orrs	r3, r2
 8006856:	6922      	ldr	r2, [r4, #16]
  hspi->State = HAL_SPI_STATE_BUSY;
 8006858:	f884 6051 	strb.w	r6, [r4, #81]	; 0x51
  WRITE_REG(hspi->Instance->CR1, ((hspi->Init.Mode & (SPI_CR1_MSTR | SPI_CR1_SSI)) |
 800685c:	4032      	ands	r2, r6
 800685e:	4313      	orrs	r3, r2
 8006860:	6962      	ldr	r2, [r4, #20]
  __HAL_SPI_DISABLE(hspi);
 8006862:	6821      	ldr	r1, [r4, #0]
  WRITE_REG(hspi->Instance->CR1, ((hspi->Init.Mode & (SPI_CR1_MSTR | SPI_CR1_SSI)) |
 8006864:	ea02 020e 	and.w	r2, r2, lr
 8006868:	431a      	orrs	r2, r3
 800686a:	69e3      	ldr	r3, [r4, #28]
 800686c:	6a26      	ldr	r6, [r4, #32]
 800686e:	f003 0738 	and.w	r7, r3, #56	; 0x38
 8006872:	f400 7300 	and.w	r3, r0, #512	; 0x200
 8006876:	4313      	orrs	r3, r2
 8006878:	f006 0680 	and.w	r6, r6, #128	; 0x80
  __HAL_SPI_DISABLE(hspi);
 800687c:	680a      	ldr	r2, [r1, #0]
  WRITE_REG(hspi->Instance->CR1, ((hspi->Init.Mode & (SPI_CR1_MSTR | SPI_CR1_SSI)) |
 800687e:	433b      	orrs	r3, r7
 8006880:	4333      	orrs	r3, r6
  WRITE_REG(hspi->Instance->CR2, ((hspi->Init.NSS >> 16U) & SPI_CR2_SSOE));
 8006882:	0c00      	lsrs	r0, r0, #16
  WRITE_REG(hspi->Instance->CR1, ((hspi->Init.Mode & (SPI_CR1_MSTR | SPI_CR1_SSI)) |
 8006884:	ea43 030c 	orr.w	r3, r3, ip
  WRITE_REG(hspi->Instance->CR2, ((hspi->Init.NSS >> 16U) & SPI_CR2_SSOE));
 8006888:	f000 0004 	and.w	r0, r0, #4
  __HAL_SPI_DISABLE(hspi);
 800688c:	f022 0240 	bic.w	r2, r2, #64	; 0x40
 8006890:	600a      	str	r2, [r1, #0]
  WRITE_REG(hspi->Instance->CR1, ((hspi->Init.Mode & (SPI_CR1_MSTR | SPI_CR1_SSI)) |
 8006892:	600b      	str	r3, [r1, #0]
  WRITE_REG(hspi->Instance->CR2, ((hspi->Init.NSS >> 16U) & SPI_CR2_SSOE));
 8006894:	6048      	str	r0, [r1, #4]
  CLEAR_BIT(hspi->Instance->I2SCFGR, SPI_I2SCFGR_I2SMOD);
 8006896:	69cb      	ldr	r3, [r1, #28]
  return HAL_OK;
 8006898:	4628      	mov	r0, r5
  CLEAR_BIT(hspi->Instance->I2SCFGR, SPI_I2SCFGR_I2SMOD);
 800689a:	f423 6300 	bic.w	r3, r3, #2048	; 0x800
 800689e:	61cb      	str	r3, [r1, #28]
  hspi->ErrorCode = HAL_SPI_ERROR_NONE;
 80068a0:	6565      	str	r5, [r4, #84]	; 0x54
  hspi->State     = HAL_SPI_STATE_READY;
 80068a2:	f884 e051 	strb.w	lr, [r4, #81]	; 0x51
}
 80068a6:	bdf8      	pop	{r3, r4, r5, r6, r7, pc}
    if (hspi->Init.Mode == SPI_MODE_MASTER)
 80068a8:	6842      	ldr	r2, [r0, #4]
 80068aa:	f5b2 7f82 	cmp.w	r2, #260	; 0x104
 80068ae:	d0b9      	beq.n	8006824 <HAL_SPI_Init+0x14>
      hspi->Init.BaudRatePrescaler = SPI_BAUDRATEPRESCALER_2;
 80068b0:	61c3      	str	r3, [r0, #28]
 80068b2:	e7b7      	b.n	8006824 <HAL_SPI_Init+0x14>
    HAL_SPI_MspInit(hspi);
 80068b4:	4620      	mov	r0, r4
    hspi->Lock = HAL_UNLOCKED;
 80068b6:	f884 1050 	strb.w	r1, [r4, #80]	; 0x50
    HAL_SPI_MspInit(hspi);
 80068ba:	f7fc f989 	bl	8002bd0 <HAL_SPI_MspInit>
  WRITE_REG(hspi->Instance->CR1, ((hspi->Init.Mode & (SPI_CR1_MSTR | SPI_CR1_SSI)) |
 80068be:	6aa3      	ldr	r3, [r4, #40]	; 0x28
 80068c0:	f403 5c00 	and.w	ip, r3, #8192	; 0x2000
 80068c4:	e7b7      	b.n	8006836 <HAL_SPI_Init+0x26>
    return HAL_ERROR;
 80068c6:	2001      	movs	r0, #1
}
 80068c8:	4770      	bx	lr
 80068ca:	bf00      	nop

080068cc <HAL_SPI_Transmit>:
{
 80068cc:	e92d 41f0 	stmdb	sp!, {r4, r5, r6, r7, r8, lr}
 80068d0:	461d      	mov	r5, r3
  __HAL_LOCK(hspi);
 80068d2:	f890 3050 	ldrb.w	r3, [r0, #80]	; 0x50
{
 80068d6:	b082      	sub	sp, #8
  __HAL_LOCK(hspi);
 80068d8:	2b01      	cmp	r3, #1
 80068da:	d074      	beq.n	80069c6 <HAL_SPI_Transmit+0xfa>
 80068dc:	2301      	movs	r3, #1
 80068de:	4604      	mov	r4, r0
 80068e0:	f880 3050 	strb.w	r3, [r0, #80]	; 0x50
 80068e4:	4688      	mov	r8, r1
 80068e6:	4617      	mov	r7, r2
  tickstart = HAL_GetTick();
 80068e8:	f7fe fc1e 	bl	8005128 <HAL_GetTick>
  if (hspi->State != HAL_SPI_STATE_READY)
 80068ec:	f894 3051 	ldrb.w	r3, [r4, #81]	; 0x51
  tickstart = HAL_GetTick();
 80068f0:	4606      	mov	r6, r0
  if (hspi->State != HAL_SPI_STATE_READY)
 80068f2:	2b01      	cmp	r3, #1
 80068f4:	b2d8      	uxtb	r0, r3
 80068f6:	d009      	beq.n	800690c <HAL_SPI_Transmit+0x40>
    errorcode = HAL_BUSY;
 80068f8:	2002      	movs	r0, #2
  hspi->State = HAL_SPI_STATE_READY;
 80068fa:	2201      	movs	r2, #1
  __HAL_UNLOCK(hspi);
 80068fc:	2300      	movs	r3, #0
  hspi->State = HAL_SPI_STATE_READY;
 80068fe:	f884 2051 	strb.w	r2, [r4, #81]	; 0x51
  __HAL_UNLOCK(hspi);
 8006902:	f884 3050 	strb.w	r3, [r4, #80]	; 0x50
}
 8006906:	b002      	add	sp, #8
 8006908:	e8bd 81f0 	ldmia.w	sp!, {r4, r5, r6, r7, r8, pc}
  if ((pData == NULL) || (Size == 0U))
 800690c:	f1b8 0f00 	cmp.w	r8, #0
 8006910:	d0f3      	beq.n	80068fa <HAL_SPI_Transmit+0x2e>
 8006912:	2f00      	cmp	r7, #0
 8006914:	d0f1      	beq.n	80068fa <HAL_SPI_Transmit+0x2e>
  hspi->ErrorCode   = HAL_SPI_ERROR_NONE;
 8006916:	2300      	movs	r3, #0
  hspi->State       = HAL_SPI_STATE_BUSY_TX;
 8006918:	2203      	movs	r2, #3
  hspi->pRxBuffPtr  = (uint8_t *)NULL;
 800691a:	63a3      	str	r3, [r4, #56]	; 0x38
  hspi->State       = HAL_SPI_STATE_BUSY_TX;
 800691c:	f884 2051 	strb.w	r2, [r4, #81]	; 0x51
  hspi->RxXferSize  = 0U;
 8006920:	87a3      	strh	r3, [r4, #60]	; 0x3c
  hspi->ErrorCode   = HAL_SPI_ERROR_NONE;
 8006922:	6563      	str	r3, [r4, #84]	; 0x54
  hspi->TxISR       = NULL;
 8006924:	6463      	str	r3, [r4, #68]	; 0x44
  hspi->TxXferCount = Size;
 8006926:	86e7      	strh	r7, [r4, #54]	; 0x36
  hspi->RxISR       = NULL;
 8006928:	6423      	str	r3, [r4, #64]	; 0x40
  hspi->RxXferCount = 0U;
 800692a:	87e3      	strh	r3, [r4, #62]	; 0x3e
  if (hspi->Init.Direction == SPI_DIRECTION_1LINE)
 800692c:	68a3      	ldr	r3, [r4, #8]
    __HAL_SPI_DISABLE(hspi);
 800692e:	6820      	ldr	r0, [r4, #0]
  if (hspi->Init.Direction == SPI_DIRECTION_1LINE)
 8006930:	f5b3 4f00 	cmp.w	r3, #32768	; 0x8000
    __HAL_SPI_DISABLE(hspi);
 8006934:	4602      	mov	r2, r0
  hspi->pTxBuffPtr  = (uint8_t *)pData;
 8006936:	f8c4 8030 	str.w	r8, [r4, #48]	; 0x30
  hspi->TxXferSize  = Size;
 800693a:	86a7      	strh	r7, [r4, #52]	; 0x34
  if (hspi->Init.Direction == SPI_DIRECTION_1LINE)
 800693c:	d076      	beq.n	8006a2c <HAL_SPI_Transmit+0x160>
  if ((hspi->Instance->CR1 & SPI_CR1_SPE) != SPI_CR1_SPE)
 800693e:	6803      	ldr	r3, [r0, #0]
 8006940:	065b      	lsls	r3, r3, #25
 8006942:	d403      	bmi.n	800694c <HAL_SPI_Transmit+0x80>
    __HAL_SPI_ENABLE(hspi);
 8006944:	6803      	ldr	r3, [r0, #0]
 8006946:	f043 0340 	orr.w	r3, r3, #64	; 0x40
 800694a:	6003      	str	r3, [r0, #0]
  if (hspi->Init.DataSize == SPI_DATASIZE_16BIT)
 800694c:	68e3      	ldr	r3, [r4, #12]
 800694e:	f5b3 6f00 	cmp.w	r3, #2048	; 0x800
    if ((hspi->Init.Mode == SPI_MODE_SLAVE) || (initial_TxXferCount == 0x01U))
 8006952:	6863      	ldr	r3, [r4, #4]
  if (hspi->Init.DataSize == SPI_DATASIZE_16BIT)
 8006954:	d03b      	beq.n	80069ce <HAL_SPI_Transmit+0x102>
    if ((hspi->Init.Mode == SPI_MODE_SLAVE) || (initial_TxXferCount == 0x01U))
 8006956:	2b00      	cmp	r3, #0
 8006958:	f000 808a 	beq.w	8006a70 <HAL_SPI_Transmit+0x1a4>
 800695c:	2f01      	cmp	r7, #1
 800695e:	f000 8087 	beq.w	8006a70 <HAL_SPI_Transmit+0x1a4>
    while (hspi->TxXferCount > 0U)
 8006962:	8ee3      	ldrh	r3, [r4, #54]	; 0x36
 8006964:	b29b      	uxth	r3, r3
 8006966:	b1bb      	cbz	r3, 8006998 <HAL_SPI_Transmit+0xcc>
 8006968:	2d00      	cmp	r5, #0
 800696a:	f000 80be 	beq.w	8006aea <HAL_SPI_Transmit+0x21e>
 800696e:	1c6f      	adds	r7, r5, #1
 8006970:	d173      	bne.n	8006a5a <HAL_SPI_Transmit+0x18e>
      if (__HAL_SPI_GET_FLAG(hspi, SPI_FLAG_TXE))
 8006972:	6823      	ldr	r3, [r4, #0]
 8006974:	689a      	ldr	r2, [r3, #8]
 8006976:	0790      	lsls	r0, r2, #30
 8006978:	f140 8085 	bpl.w	8006a86 <HAL_SPI_Transmit+0x1ba>
        *((__IO uint8_t *)&hspi->Instance->DR) = (*hspi->pTxBuffPtr);
 800697c:	6b22      	ldr	r2, [r4, #48]	; 0x30
 800697e:	7812      	ldrb	r2, [r2, #0]
 8006980:	731a      	strb	r2, [r3, #12]
        hspi->TxXferCount--;
 8006982:	8ee1      	ldrh	r1, [r4, #54]	; 0x36
        hspi->pTxBuffPtr += sizeof(uint8_t);
 8006984:	6b23      	ldr	r3, [r4, #48]	; 0x30
        hspi->TxXferCount--;
 8006986:	3901      	subs	r1, #1
 8006988:	b289      	uxth	r1, r1
 800698a:	86e1      	strh	r1, [r4, #54]	; 0x36
    while (hspi->TxXferCount > 0U)
 800698c:	8ee1      	ldrh	r1, [r4, #54]	; 0x36
        hspi->pTxBuffPtr += sizeof(uint8_t);
 800698e:	3301      	adds	r3, #1
    while (hspi->TxXferCount > 0U)
 8006990:	b289      	uxth	r1, r1
        hspi->pTxBuffPtr += sizeof(uint8_t);
 8006992:	6323      	str	r3, [r4, #48]	; 0x30
    while (hspi->TxXferCount > 0U)
 8006994:	2900      	cmp	r1, #0
 8006996:	d1ec      	bne.n	8006972 <HAL_SPI_Transmit+0xa6>
  * @retval HAL status
  */
static HAL_StatusTypeDef SPI_EndRxTxTransaction(SPI_HandleTypeDef *hspi, uint32_t Timeout, uint32_t Tickstart)
{
  /* Control the BSY flag */
  if (SPI_WaitFlagStateUntilTimeout(hspi, SPI_FLAG_BSY, RESET, Timeout, Tickstart) != HAL_OK)
 8006998:	4633      	mov	r3, r6
 800699a:	462a      	mov	r2, r5
 800699c:	2180      	movs	r1, #128	; 0x80
 800699e:	4620      	mov	r0, r4
 80069a0:	f7ff fed8 	bl	8006754 <SPI_WaitFlagStateUntilTimeout.constprop.1>
 80069a4:	2800      	cmp	r0, #0
 80069a6:	f040 80b9 	bne.w	8006b1c <HAL_SPI_Transmit+0x250>
  if (hspi->Init.Direction == SPI_DIRECTION_2LINES)
 80069aa:	68a3      	ldr	r3, [r4, #8]
 80069ac:	b933      	cbnz	r3, 80069bc <HAL_SPI_Transmit+0xf0>
    __HAL_SPI_CLEAR_OVRFLAG(hspi);
 80069ae:	6822      	ldr	r2, [r4, #0]
 80069b0:	9301      	str	r3, [sp, #4]
 80069b2:	68d3      	ldr	r3, [r2, #12]
 80069b4:	9301      	str	r3, [sp, #4]
 80069b6:	6893      	ldr	r3, [r2, #8]
 80069b8:	9301      	str	r3, [sp, #4]
 80069ba:	9b01      	ldr	r3, [sp, #4]
  if (hspi->ErrorCode != HAL_SPI_ERROR_NONE)
 80069bc:	6d60      	ldr	r0, [r4, #84]	; 0x54
    errorcode = HAL_BUSY;
 80069be:	3800      	subs	r0, #0
 80069c0:	bf18      	it	ne
 80069c2:	2001      	movne	r0, #1
error:
 80069c4:	e799      	b.n	80068fa <HAL_SPI_Transmit+0x2e>
  __HAL_LOCK(hspi);
 80069c6:	2002      	movs	r0, #2
}
 80069c8:	b002      	add	sp, #8
 80069ca:	e8bd 81f0 	ldmia.w	sp!, {r4, r5, r6, r7, r8, pc}
    if ((hspi->Init.Mode == SPI_MODE_SLAVE) || (initial_TxXferCount == 0x01U))
 80069ce:	2b00      	cmp	r3, #0
 80069d0:	d179      	bne.n	8006ac6 <HAL_SPI_Transmit+0x1fa>
      hspi->Instance->DR = *((uint16_t *)hspi->pTxBuffPtr);
 80069d2:	4641      	mov	r1, r8
 80069d4:	f831 3b02 	ldrh.w	r3, [r1], #2
 80069d8:	60c3      	str	r3, [r0, #12]
      hspi->TxXferCount--;
 80069da:	8ee3      	ldrh	r3, [r4, #54]	; 0x36
      hspi->pTxBuffPtr += sizeof(uint16_t);
 80069dc:	6321      	str	r1, [r4, #48]	; 0x30
      hspi->TxXferCount--;
 80069de:	3b01      	subs	r3, #1
 80069e0:	b29b      	uxth	r3, r3
 80069e2:	86e3      	strh	r3, [r4, #54]	; 0x36
    while (hspi->TxXferCount > 0U)
 80069e4:	8ee3      	ldrh	r3, [r4, #54]	; 0x36
 80069e6:	b29b      	uxth	r3, r3
 80069e8:	2b00      	cmp	r3, #0
 80069ea:	d0d5      	beq.n	8006998 <HAL_SPI_Transmit+0xcc>
 80069ec:	2d00      	cmp	r5, #0
 80069ee:	f000 8091 	beq.w	8006b14 <HAL_SPI_Transmit+0x248>
 80069f2:	1c69      	adds	r1, r5, #1
 80069f4:	d15e      	bne.n	8006ab4 <HAL_SPI_Transmit+0x1e8>
      if (__HAL_SPI_GET_FLAG(hspi, SPI_FLAG_TXE))
 80069f6:	6883      	ldr	r3, [r0, #8]
 80069f8:	079a      	lsls	r2, r3, #30
 80069fa:	d50f      	bpl.n	8006a1c <HAL_SPI_Transmit+0x150>
        hspi->Instance->DR = *((uint16_t *)hspi->pTxBuffPtr);
 80069fc:	6b22      	ldr	r2, [r4, #48]	; 0x30
 80069fe:	f832 3b02 	ldrh.w	r3, [r2], #2
 8006a02:	60c3      	str	r3, [r0, #12]
        hspi->TxXferCount--;
 8006a04:	8ee3      	ldrh	r3, [r4, #54]	; 0x36
        hspi->pTxBuffPtr += sizeof(uint16_t);
 8006a06:	6322      	str	r2, [r4, #48]	; 0x30
        hspi->TxXferCount--;
 8006a08:	3b01      	subs	r3, #1
 8006a0a:	b29b      	uxth	r3, r3
 8006a0c:	86e3      	strh	r3, [r4, #54]	; 0x36
    while (hspi->TxXferCount > 0U)
 8006a0e:	8ee3      	ldrh	r3, [r4, #54]	; 0x36
 8006a10:	b29b      	uxth	r3, r3
 8006a12:	2b00      	cmp	r3, #0
 8006a14:	d0c0      	beq.n	8006998 <HAL_SPI_Transmit+0xcc>
      if (__HAL_SPI_GET_FLAG(hspi, SPI_FLAG_TXE))
 8006a16:	6883      	ldr	r3, [r0, #8]
 8006a18:	079a      	lsls	r2, r3, #30
 8006a1a:	d4ef      	bmi.n	80069fc <HAL_SPI_Transmit+0x130>
        if ((((HAL_GetTick() - tickstart) >=  Timeout) && (Timeout != HAL_MAX_DELAY)) || (Timeout == 0U))
 8006a1c:	f7fe fb84 	bl	8005128 <HAL_GetTick>
    while (hspi->TxXferCount > 0U)
 8006a20:	8ee3      	ldrh	r3, [r4, #54]	; 0x36
 8006a22:	b29b      	uxth	r3, r3
 8006a24:	2b00      	cmp	r3, #0
 8006a26:	d0b7      	beq.n	8006998 <HAL_SPI_Transmit+0xcc>
 8006a28:	6820      	ldr	r0, [r4, #0]
 8006a2a:	e7e4      	b.n	80069f6 <HAL_SPI_Transmit+0x12a>
    __HAL_SPI_DISABLE(hspi);
 8006a2c:	6803      	ldr	r3, [r0, #0]
 8006a2e:	f023 0340 	bic.w	r3, r3, #64	; 0x40
 8006a32:	6003      	str	r3, [r0, #0]
    SPI_1LINE_TX(hspi);
 8006a34:	6803      	ldr	r3, [r0, #0]
 8006a36:	f443 4380 	orr.w	r3, r3, #16384	; 0x4000
 8006a3a:	6003      	str	r3, [r0, #0]
 8006a3c:	e77f      	b.n	800693e <HAL_SPI_Transmit+0x72>
        *((__IO uint8_t *)&hspi->Instance->DR) = (*hspi->pTxBuffPtr);
 8006a3e:	6b22      	ldr	r2, [r4, #48]	; 0x30
 8006a40:	7812      	ldrb	r2, [r2, #0]
 8006a42:	731a      	strb	r2, [r3, #12]
        hspi->TxXferCount--;
 8006a44:	8ee3      	ldrh	r3, [r4, #54]	; 0x36
        hspi->pTxBuffPtr += sizeof(uint8_t);
 8006a46:	6b22      	ldr	r2, [r4, #48]	; 0x30
        hspi->TxXferCount--;
 8006a48:	3b01      	subs	r3, #1
        hspi->pTxBuffPtr += sizeof(uint8_t);
 8006a4a:	3201      	adds	r2, #1
        hspi->TxXferCount--;
 8006a4c:	b29b      	uxth	r3, r3
 8006a4e:	86e3      	strh	r3, [r4, #54]	; 0x36
        hspi->pTxBuffPtr += sizeof(uint8_t);
 8006a50:	6322      	str	r2, [r4, #48]	; 0x30
    while (hspi->TxXferCount > 0U)
 8006a52:	8ee3      	ldrh	r3, [r4, #54]	; 0x36
 8006a54:	b29b      	uxth	r3, r3
 8006a56:	2b00      	cmp	r3, #0
 8006a58:	d09e      	beq.n	8006998 <HAL_SPI_Transmit+0xcc>
      if (__HAL_SPI_GET_FLAG(hspi, SPI_FLAG_TXE))
 8006a5a:	6823      	ldr	r3, [r4, #0]
 8006a5c:	689a      	ldr	r2, [r3, #8]
 8006a5e:	0791      	lsls	r1, r2, #30
 8006a60:	d4ed      	bmi.n	8006a3e <HAL_SPI_Transmit+0x172>
        if ((((HAL_GetTick() - tickstart) >=  Timeout) && (Timeout != HAL_MAX_DELAY)) || (Timeout == 0U))
 8006a62:	f7fe fb61 	bl	8005128 <HAL_GetTick>
 8006a66:	1b83      	subs	r3, r0, r6
 8006a68:	429d      	cmp	r5, r3
 8006a6a:	d8f2      	bhi.n	8006a52 <HAL_SPI_Transmit+0x186>
          errorcode = HAL_TIMEOUT;
 8006a6c:	2003      	movs	r0, #3
 8006a6e:	e744      	b.n	80068fa <HAL_SPI_Transmit+0x2e>
      *((__IO uint8_t *)&hspi->Instance->DR) = (*hspi->pTxBuffPtr);
 8006a70:	f898 3000 	ldrb.w	r3, [r8]
 8006a74:	7303      	strb	r3, [r0, #12]
      hspi->TxXferCount--;
 8006a76:	8ee3      	ldrh	r3, [r4, #54]	; 0x36
      hspi->pTxBuffPtr += sizeof(uint8_t);
 8006a78:	6b22      	ldr	r2, [r4, #48]	; 0x30
      hspi->TxXferCount--;
 8006a7a:	3b01      	subs	r3, #1
      hspi->pTxBuffPtr += sizeof(uint8_t);
 8006a7c:	3201      	adds	r2, #1
      hspi->TxXferCount--;
 8006a7e:	b29b      	uxth	r3, r3
      hspi->pTxBuffPtr += sizeof(uint8_t);
 8006a80:	6322      	str	r2, [r4, #48]	; 0x30
      hspi->TxXferCount--;
 8006a82:	86e3      	strh	r3, [r4, #54]	; 0x36
 8006a84:	e76d      	b.n	8006962 <HAL_SPI_Transmit+0x96>
        if ((((HAL_GetTick() - tickstart) >=  Timeout) && (Timeout != HAL_MAX_DELAY)) || (Timeout == 0U))
 8006a86:	f7fe fb4f 	bl	8005128 <HAL_GetTick>
    while (hspi->TxXferCount > 0U)
 8006a8a:	8ee3      	ldrh	r3, [r4, #54]	; 0x36
 8006a8c:	b29b      	uxth	r3, r3
 8006a8e:	2b00      	cmp	r3, #0
 8006a90:	f47f af6f 	bne.w	8006972 <HAL_SPI_Transmit+0xa6>
 8006a94:	e780      	b.n	8006998 <HAL_SPI_Transmit+0xcc>
        hspi->Instance->DR = *((uint16_t *)hspi->pTxBuffPtr);
 8006a96:	6b21      	ldr	r1, [r4, #48]	; 0x30
 8006a98:	f831 3b02 	ldrh.w	r3, [r1], #2
 8006a9c:	60d3      	str	r3, [r2, #12]
        hspi->TxXferCount--;
 8006a9e:	8ee3      	ldrh	r3, [r4, #54]	; 0x36
        hspi->pTxBuffPtr += sizeof(uint16_t);
 8006aa0:	6321      	str	r1, [r4, #48]	; 0x30
        hspi->TxXferCount--;
 8006aa2:	3b01      	subs	r3, #1
 8006aa4:	b29b      	uxth	r3, r3
 8006aa6:	86e3      	strh	r3, [r4, #54]	; 0x36
    while (hspi->TxXferCount > 0U)
 8006aa8:	8ee3      	ldrh	r3, [r4, #54]	; 0x36
 8006aaa:	b29b      	uxth	r3, r3
 8006aac:	2b00      	cmp	r3, #0
 8006aae:	f43f af73 	beq.w	8006998 <HAL_SPI_Transmit+0xcc>
      if (__HAL_SPI_GET_FLAG(hspi, SPI_FLAG_TXE))
 8006ab2:	6822      	ldr	r2, [r4, #0]
 8006ab4:	6893      	ldr	r3, [r2, #8]
 8006ab6:	079b      	lsls	r3, r3, #30
 8006ab8:	d4ed      	bmi.n	8006a96 <HAL_SPI_Transmit+0x1ca>
        if ((((HAL_GetTick() - tickstart) >=  Timeout) && (Timeout != HAL_MAX_DELAY)) || (Timeout == 0U))
 8006aba:	f7fe fb35 	bl	8005128 <HAL_GetTick>
 8006abe:	1b83      	subs	r3, r0, r6
 8006ac0:	429d      	cmp	r5, r3
 8006ac2:	d9d3      	bls.n	8006a6c <HAL_SPI_Transmit+0x1a0>
 8006ac4:	e7f0      	b.n	8006aa8 <HAL_SPI_Transmit+0x1dc>
    if ((hspi->Init.Mode == SPI_MODE_SLAVE) || (initial_TxXferCount == 0x01U))
 8006ac6:	2f01      	cmp	r7, #1
 8006ac8:	d18c      	bne.n	80069e4 <HAL_SPI_Transmit+0x118>
 8006aca:	e782      	b.n	80069d2 <HAL_SPI_Transmit+0x106>
        *((__IO uint8_t *)&hspi->Instance->DR) = (*hspi->pTxBuffPtr);
 8006acc:	6b22      	ldr	r2, [r4, #48]	; 0x30
 8006ace:	7812      	ldrb	r2, [r2, #0]
 8006ad0:	731a      	strb	r2, [r3, #12]
        hspi->TxXferCount--;
 8006ad2:	8ee3      	ldrh	r3, [r4, #54]	; 0x36
        hspi->pTxBuffPtr += sizeof(uint8_t);
 8006ad4:	6b22      	ldr	r2, [r4, #48]	; 0x30
        hspi->TxXferCount--;
 8006ad6:	3b01      	subs	r3, #1
 8006ad8:	b29b      	uxth	r3, r3
 8006ada:	86e3      	strh	r3, [r4, #54]	; 0x36
    while (hspi->TxXferCount > 0U)
 8006adc:	8ee3      	ldrh	r3, [r4, #54]	; 0x36
        hspi->pTxBuffPtr += sizeof(uint8_t);
 8006ade:	3201      	adds	r2, #1
    while (hspi->TxXferCount > 0U)
 8006ae0:	b29b      	uxth	r3, r3
        hspi->pTxBuffPtr += sizeof(uint8_t);
 8006ae2:	6322      	str	r2, [r4, #48]	; 0x30
    while (hspi->TxXferCount > 0U)
 8006ae4:	2b00      	cmp	r3, #0
 8006ae6:	f43f af57 	beq.w	8006998 <HAL_SPI_Transmit+0xcc>
      if (__HAL_SPI_GET_FLAG(hspi, SPI_FLAG_TXE))
 8006aea:	6823      	ldr	r3, [r4, #0]
 8006aec:	689a      	ldr	r2, [r3, #8]
 8006aee:	0792      	lsls	r2, r2, #30
 8006af0:	d4ec      	bmi.n	8006acc <HAL_SPI_Transmit+0x200>
        if ((((HAL_GetTick() - tickstart) >=  Timeout) && (Timeout != HAL_MAX_DELAY)) || (Timeout == 0U))
 8006af2:	f7fe fb19 	bl	8005128 <HAL_GetTick>
 8006af6:	e7b9      	b.n	8006a6c <HAL_SPI_Transmit+0x1a0>
        hspi->Instance->DR = *((uint16_t *)hspi->pTxBuffPtr);
 8006af8:	6b22      	ldr	r2, [r4, #48]	; 0x30
 8006afa:	f832 3b02 	ldrh.w	r3, [r2], #2
 8006afe:	60c3      	str	r3, [r0, #12]
        hspi->TxXferCount--;
 8006b00:	8ee3      	ldrh	r3, [r4, #54]	; 0x36
        hspi->pTxBuffPtr += sizeof(uint16_t);
 8006b02:	6322      	str	r2, [r4, #48]	; 0x30
        hspi->TxXferCount--;
 8006b04:	3b01      	subs	r3, #1
 8006b06:	b29b      	uxth	r3, r3
 8006b08:	86e3      	strh	r3, [r4, #54]	; 0x36
    while (hspi->TxXferCount > 0U)
 8006b0a:	8ee3      	ldrh	r3, [r4, #54]	; 0x36
 8006b0c:	b29b      	uxth	r3, r3
 8006b0e:	2b00      	cmp	r3, #0
 8006b10:	f43f af42 	beq.w	8006998 <HAL_SPI_Transmit+0xcc>
      if (__HAL_SPI_GET_FLAG(hspi, SPI_FLAG_TXE))
 8006b14:	6883      	ldr	r3, [r0, #8]
 8006b16:	079f      	lsls	r7, r3, #30
 8006b18:	d5eb      	bpl.n	8006af2 <HAL_SPI_Transmit+0x226>
 8006b1a:	e7ed      	b.n	8006af8 <HAL_SPI_Transmit+0x22c>
    hspi->ErrorCode = HAL_SPI_ERROR_FLAG;
 8006b1c:	2220      	movs	r2, #32
  {
    SET_BIT(hspi->ErrorCode, HAL_SPI_ERROR_FLAG);
 8006b1e:	6d63      	ldr	r3, [r4, #84]	; 0x54
 8006b20:	4313      	orrs	r3, r2
 8006b22:	6563      	str	r3, [r4, #84]	; 0x54
    hspi->ErrorCode = HAL_SPI_ERROR_FLAG;
 8006b24:	6562      	str	r2, [r4, #84]	; 0x54
 8006b26:	e740      	b.n	80069aa <HAL_SPI_Transmit+0xde>

08006b28 <HAL_TIM_Base_Init>:
  * @retval HAL status
  */
HAL_StatusTypeDef HAL_TIM_Base_Init(TIM_HandleTypeDef *htim)
{
  /* Check the TIM handle allocation */
  if (htim == NULL)
 8006b28:	2800      	cmp	r0, #0
 8006b2a:	d066      	beq.n	8006bfa <HAL_TIM_Base_Init+0xd2>
{
 8006b2c:	b510      	push	{r4, lr}
  assert_param(IS_TIM_INSTANCE(htim->Instance));
  assert_param(IS_TIM_COUNTER_MODE(htim->Init.CounterMode));
  assert_param(IS_TIM_CLOCKDIVISION_DIV(htim->Init.ClockDivision));
  assert_param(IS_TIM_AUTORELOAD_PRELOAD(htim->Init.AutoReloadPreload));

  if (htim->State == HAL_TIM_STATE_RESET)
 8006b2e:	f890 303d 	ldrb.w	r3, [r0, #61]	; 0x3d
 8006b32:	4604      	mov	r4, r0
 8006b34:	f003 02ff 	and.w	r2, r3, #255	; 0xff
 8006b38:	2b00      	cmp	r3, #0
 8006b3a:	d045      	beq.n	8006bc8 <HAL_TIM_Base_Init+0xa0>
    HAL_TIM_Base_MspInit(htim);
#endif /* USE_HAL_TIM_REGISTER_CALLBACKS */
  }

  /* Set the TIM state */
  htim->State = HAL_TIM_STATE_BUSY;
 8006b3c:	2302      	movs	r3, #2

  /* Set the Time Base configuration */
  TIM_Base_SetConfig(htim->Instance, &htim->Init);
 8006b3e:	6822      	ldr	r2, [r4, #0]
{
  uint32_t tmpcr1;
  tmpcr1 = TIMx->CR1;

  /* Set TIM Time Base Unit parameters ---------------------------------------*/
  if (IS_TIM_COUNTER_MODE_SELECT_INSTANCE(TIMx))
 8006b40:	492f      	ldr	r1, [pc, #188]	; (8006c00 <HAL_TIM_Base_Init+0xd8>)
  htim->State = HAL_TIM_STATE_BUSY;
 8006b42:	f884 303d 	strb.w	r3, [r4, #61]	; 0x3d
  if (IS_TIM_COUNTER_MODE_SELECT_INSTANCE(TIMx))
 8006b46:	428a      	cmp	r2, r1
  tmpcr1 = TIMx->CR1;
 8006b48:	6813      	ldr	r3, [r2, #0]
  if (IS_TIM_COUNTER_MODE_SELECT_INSTANCE(TIMx))
 8006b4a:	d042      	beq.n	8006bd2 <HAL_TIM_Base_Init+0xaa>
 8006b4c:	f1b2 4f80 	cmp.w	r2, #1073741824	; 0x40000000
 8006b50:	d011      	beq.n	8006b76 <HAL_TIM_Base_Init+0x4e>
 8006b52:	f5a1 3194 	sub.w	r1, r1, #75776	; 0x12800
 8006b56:	428a      	cmp	r2, r1
 8006b58:	d00d      	beq.n	8006b76 <HAL_TIM_Base_Init+0x4e>
 8006b5a:	f501 6180 	add.w	r1, r1, #1024	; 0x400
 8006b5e:	428a      	cmp	r2, r1
 8006b60:	d009      	beq.n	8006b76 <HAL_TIM_Base_Init+0x4e>
    tmpcr1 &= ~TIM_CR1_CKD;
    tmpcr1 |= (uint32_t)Structure->ClockDivision;
  }

  /* Set the auto-reload preload */
  MODIFY_REG(tmpcr1, TIM_CR1_ARPE, Structure->AutoReloadPreload);
 8006b62:	69a0      	ldr	r0, [r4, #24]
 8006b64:	f023 0380 	bic.w	r3, r3, #128	; 0x80
 8006b68:	4303      	orrs	r3, r0

  TIMx->CR1 = tmpcr1;

  /* Set the Autoreload value */
  TIMx->ARR = (uint32_t)Structure->Period ;
 8006b6a:	68e1      	ldr	r1, [r4, #12]
  TIMx->CR1 = tmpcr1;
 8006b6c:	6013      	str	r3, [r2, #0]

  /* Set the Prescaler value */
  TIMx->PSC = Structure->Prescaler;
 8006b6e:	6863      	ldr	r3, [r4, #4]
  TIMx->ARR = (uint32_t)Structure->Period ;
 8006b70:	62d1      	str	r1, [r2, #44]	; 0x2c
  TIMx->PSC = Structure->Prescaler;
 8006b72:	6293      	str	r3, [r2, #40]	; 0x28

  if (IS_TIM_REPETITION_COUNTER_INSTANCE(TIMx))
 8006b74:	e010      	b.n	8006b98 <HAL_TIM_Base_Init+0x70>
    tmpcr1 |= Structure->CounterMode;
 8006b76:	68a1      	ldr	r1, [r4, #8]
    tmpcr1 &= ~(TIM_CR1_DIR | TIM_CR1_CMS);
 8006b78:	f023 0370 	bic.w	r3, r3, #112	; 0x70
    tmpcr1 |= (uint32_t)Structure->ClockDivision;
 8006b7c:	6920      	ldr	r0, [r4, #16]
    tmpcr1 |= Structure->CounterMode;
 8006b7e:	430b      	orrs	r3, r1
    tmpcr1 &= ~TIM_CR1_CKD;
 8006b80:	f423 7340 	bic.w	r3, r3, #768	; 0x300
  MODIFY_REG(tmpcr1, TIM_CR1_ARPE, Structure->AutoReloadPreload);
 8006b84:	69a1      	ldr	r1, [r4, #24]
    tmpcr1 |= (uint32_t)Structure->ClockDivision;
 8006b86:	4303      	orrs	r3, r0
  MODIFY_REG(tmpcr1, TIM_CR1_ARPE, Structure->AutoReloadPreload);
 8006b88:	f023 0380 	bic.w	r3, r3, #128	; 0x80
  TIMx->ARR = (uint32_t)Structure->Period ;
 8006b8c:	68e0      	ldr	r0, [r4, #12]
  MODIFY_REG(tmpcr1, TIM_CR1_ARPE, Structure->AutoReloadPreload);
 8006b8e:	430b      	orrs	r3, r1
  TIMx->PSC = Structure->Prescaler;
 8006b90:	6861      	ldr	r1, [r4, #4]
  TIMx->CR1 = tmpcr1;
 8006b92:	6013      	str	r3, [r2, #0]
  TIMx->ARR = (uint32_t)Structure->Period ;
 8006b94:	62d0      	str	r0, [r2, #44]	; 0x2c
  TIMx->PSC = Structure->Prescaler;
 8006b96:	6291      	str	r1, [r2, #40]	; 0x28
    TIMx->RCR = Structure->RepetitionCounter;
  }

  /* Generate an update event to reload the Prescaler
     and the repetition counter (only for advanced timer) value immediately */
  TIMx->EGR = TIM_EGR_UG;
 8006b98:	2301      	movs	r3, #1
 8006b9a:	6153      	str	r3, [r2, #20]
  htim->DMABurstState = HAL_DMA_BURST_STATE_READY;
 8006b9c:	f884 3046 	strb.w	r3, [r4, #70]	; 0x46
  TIM_CHANNEL_STATE_SET_ALL(htim, HAL_TIM_CHANNEL_STATE_READY);
 8006ba0:	f884 303e 	strb.w	r3, [r4, #62]	; 0x3e
 8006ba4:	f884 303f 	strb.w	r3, [r4, #63]	; 0x3f
 8006ba8:	f884 3040 	strb.w	r3, [r4, #64]	; 0x40
 8006bac:	f884 3041 	strb.w	r3, [r4, #65]	; 0x41
  TIM_CHANNEL_N_STATE_SET_ALL(htim, HAL_TIM_CHANNEL_STATE_READY);
 8006bb0:	f884 3042 	strb.w	r3, [r4, #66]	; 0x42
 8006bb4:	f884 3043 	strb.w	r3, [r4, #67]	; 0x43
 8006bb8:	f884 3044 	strb.w	r3, [r4, #68]	; 0x44
 8006bbc:	f884 3045 	strb.w	r3, [r4, #69]	; 0x45
  htim->State = HAL_TIM_STATE_READY;
 8006bc0:	f884 303d 	strb.w	r3, [r4, #61]	; 0x3d
  return HAL_OK;
 8006bc4:	2000      	movs	r0, #0
}
 8006bc6:	bd10      	pop	{r4, pc}
    htim->Lock = HAL_UNLOCKED;
 8006bc8:	f880 203c 	strb.w	r2, [r0, #60]	; 0x3c
    HAL_TIM_Base_MspInit(htim);
 8006bcc:	f7fc f834 	bl	8002c38 <HAL_TIM_Base_MspInit>
 8006bd0:	e7b4      	b.n	8006b3c <HAL_TIM_Base_Init+0x14>
    tmpcr1 |= Structure->CounterMode;
 8006bd2:	68a0      	ldr	r0, [r4, #8]
    tmpcr1 &= ~(TIM_CR1_DIR | TIM_CR1_CMS);
 8006bd4:	f023 0370 	bic.w	r3, r3, #112	; 0x70
    tmpcr1 |= (uint32_t)Structure->ClockDivision;
 8006bd8:	6921      	ldr	r1, [r4, #16]
    tmpcr1 |= Structure->CounterMode;
 8006bda:	4303      	orrs	r3, r0
    tmpcr1 &= ~TIM_CR1_CKD;
 8006bdc:	f423 7340 	bic.w	r3, r3, #768	; 0x300
    tmpcr1 |= (uint32_t)Structure->ClockDivision;
 8006be0:	430b      	orrs	r3, r1
  MODIFY_REG(tmpcr1, TIM_CR1_ARPE, Structure->AutoReloadPreload);
 8006be2:	69a1      	ldr	r1, [r4, #24]
 8006be4:	f023 0380 	bic.w	r3, r3, #128	; 0x80
 8006be8:	430b      	orrs	r3, r1
  TIMx->CR1 = tmpcr1;
 8006bea:	6013      	str	r3, [r2, #0]
  TIMx->ARR = (uint32_t)Structure->Period ;
 8006bec:	68e3      	ldr	r3, [r4, #12]
 8006bee:	62d3      	str	r3, [r2, #44]	; 0x2c
  TIMx->PSC = Structure->Prescaler;
 8006bf0:	6863      	ldr	r3, [r4, #4]
 8006bf2:	6293      	str	r3, [r2, #40]	; 0x28
    TIMx->RCR = Structure->RepetitionCounter;
 8006bf4:	6963      	ldr	r3, [r4, #20]
 8006bf6:	6313      	str	r3, [r2, #48]	; 0x30
 8006bf8:	e7ce      	b.n	8006b98 <HAL_TIM_Base_Init+0x70>
    return HAL_ERROR;
 8006bfa:	2001      	movs	r0, #1
}
 8006bfc:	4770      	bx	lr
 8006bfe:	bf00      	nop
 8006c00:	40012c00 	.word	0x40012c00

08006c04 <HAL_TIM_PWM_MspInit>:
 8006c04:	4770      	bx	lr
 8006c06:	bf00      	nop

08006c08 <HAL_TIM_PWM_Init>:
  if (htim == NULL)
 8006c08:	2800      	cmp	r0, #0
 8006c0a:	d066      	beq.n	8006cda <HAL_TIM_PWM_Init+0xd2>
{
 8006c0c:	b510      	push	{r4, lr}
  if (htim->State == HAL_TIM_STATE_RESET)
 8006c0e:	f890 303d 	ldrb.w	r3, [r0, #61]	; 0x3d
 8006c12:	4604      	mov	r4, r0
 8006c14:	f003 02ff 	and.w	r2, r3, #255	; 0xff
 8006c18:	2b00      	cmp	r3, #0
 8006c1a:	d045      	beq.n	8006ca8 <HAL_TIM_PWM_Init+0xa0>
  htim->State = HAL_TIM_STATE_BUSY;
 8006c1c:	2302      	movs	r3, #2
  TIM_Base_SetConfig(htim->Instance, &htim->Init);
 8006c1e:	6822      	ldr	r2, [r4, #0]
  if (IS_TIM_COUNTER_MODE_SELECT_INSTANCE(TIMx))
 8006c20:	492f      	ldr	r1, [pc, #188]	; (8006ce0 <HAL_TIM_PWM_Init+0xd8>)
  htim->State = HAL_TIM_STATE_BUSY;
 8006c22:	f884 303d 	strb.w	r3, [r4, #61]	; 0x3d
  if (IS_TIM_COUNTER_MODE_SELECT_INSTANCE(TIMx))
 8006c26:	428a      	cmp	r2, r1
  tmpcr1 = TIMx->CR1;
 8006c28:	6813      	ldr	r3, [r2, #0]
  if (IS_TIM_COUNTER_MODE_SELECT_INSTANCE(TIMx))
 8006c2a:	d042      	beq.n	8006cb2 <HAL_TIM_PWM_Init+0xaa>
 8006c2c:	f1b2 4f80 	cmp.w	r2, #1073741824	; 0x40000000
 8006c30:	d011      	beq.n	8006c56 <HAL_TIM_PWM_Init+0x4e>
 8006c32:	f5a1 3194 	sub.w	r1, r1, #75776	; 0x12800
 8006c36:	428a      	cmp	r2, r1
 8006c38:	d00d      	beq.n	8006c56 <HAL_TIM_PWM_Init+0x4e>
 8006c3a:	f501 6180 	add.w	r1, r1, #1024	; 0x400
 8006c3e:	428a      	cmp	r2, r1
 8006c40:	d009      	beq.n	8006c56 <HAL_TIM_PWM_Init+0x4e>
  MODIFY_REG(tmpcr1, TIM_CR1_ARPE, Structure->AutoReloadPreload);
 8006c42:	69a0      	ldr	r0, [r4, #24]
 8006c44:	f023 0380 	bic.w	r3, r3, #128	; 0x80
 8006c48:	4303      	orrs	r3, r0
  TIMx->ARR = (uint32_t)Structure->Period ;
 8006c4a:	68e1      	ldr	r1, [r4, #12]
  TIMx->CR1 = tmpcr1;
 8006c4c:	6013      	str	r3, [r2, #0]
  TIMx->PSC = Structure->Prescaler;
 8006c4e:	6863      	ldr	r3, [r4, #4]
  TIMx->ARR = (uint32_t)Structure->Period ;
 8006c50:	62d1      	str	r1, [r2, #44]	; 0x2c
  TIMx->PSC = Structure->Prescaler;
 8006c52:	6293      	str	r3, [r2, #40]	; 0x28
  if (IS_TIM_REPETITION_COUNTER_INSTANCE(TIMx))
 8006c54:	e010      	b.n	8006c78 <HAL_TIM_PWM_Init+0x70>
    tmpcr1 |= Structure->CounterMode;
 8006c56:	68a1      	ldr	r1, [r4, #8]
    tmpcr1 &= ~(TIM_CR1_DIR | TIM_CR1_CMS);
 8006c58:	f023 0370 	bic.w	r3, r3, #112	; 0x70
    tmpcr1 |= (uint32_t)Structure->ClockDivision;
 8006c5c:	6920      	ldr	r0, [r4, #16]
    tmpcr1 |= Structure->CounterMode;
 8006c5e:	430b      	orrs	r3, r1
    tmpcr1 &= ~TIM_CR1_CKD;
 8006c60:	f423 7340 	bic.w	r3, r3, #768	; 0x300
  MODIFY_REG(tmpcr1, TIM_CR1_ARPE, Structure->AutoReloadPreload);
 8006c64:	69a1      	ldr	r1, [r4, #24]
    tmpcr1 |= (uint32_t)Structure->ClockDivision;
 8006c66:	4303      	orrs	r3, r0
  MODIFY_REG(tmpcr1, TIM_CR1_ARPE, Structure->AutoReloadPreload);
 8006c68:	f023 0380 	bic.w	r3, r3, #128	; 0x80
  TIMx->ARR = (uint32_t)Structure->Period ;
 8006c6c:	68e0      	ldr	r0, [r4, #12]
  MODIFY_REG(tmpcr1, TIM_CR1_ARPE, Structure->AutoReloadPreload);
 8006c6e:	430b      	orrs	r3, r1
  TIMx->PSC = Structure->Prescaler;
 8006c70:	6861      	ldr	r1, [r4, #4]
  TIMx->CR1 = tmpcr1;
 8006c72:	6013      	str	r3, [r2, #0]
  TIMx->ARR = (uint32_t)Structure->Period ;
 8006c74:	62d0      	str	r0, [r2, #44]	; 0x2c
  TIMx->PSC = Structure->Prescaler;
 8006c76:	6291      	str	r1, [r2, #40]	; 0x28
  TIMx->EGR = TIM_EGR_UG;
 8006c78:	2301      	movs	r3, #1
 8006c7a:	6153      	str	r3, [r2, #20]
  htim->DMABurstState = HAL_DMA_BURST_STATE_READY;
 8006c7c:	f884 3046 	strb.w	r3, [r4, #70]	; 0x46
  TIM_CHANNEL_STATE_SET_ALL(htim, HAL_TIM_CHANNEL_STATE_READY);
 8006c80:	f884 303e 	strb.w	r3, [r4, #62]	; 0x3e
 8006c84:	f884 303f 	strb.w	r3, [r4, #63]	; 0x3f
 8006c88:	f884 3040 	strb.w	r3, [r4, #64]	; 0x40
 8006c8c:	f884 3041 	strb.w	r3, [r4, #65]	; 0x41
  TIM_CHANNEL_N_STATE_SET_ALL(htim, HAL_TIM_CHANNEL_STATE_READY);
 8006c90:	f884 3042 	strb.w	r3, [r4, #66]	; 0x42
 8006c94:	f884 3043 	strb.w	r3, [r4, #67]	; 0x43
 8006c98:	f884 3044 	strb.w	r3, [r4, #68]	; 0x44
 8006c9c:	f884 3045 	strb.w	r3, [r4, #69]	; 0x45
  htim->State = HAL_TIM_STATE_READY;
 8006ca0:	f884 303d 	strb.w	r3, [r4, #61]	; 0x3d
  return HAL_OK;
 8006ca4:	2000      	movs	r0, #0
}
 8006ca6:	bd10      	pop	{r4, pc}
    htim->Lock = HAL_UNLOCKED;
 8006ca8:	f880 203c 	strb.w	r2, [r0, #60]	; 0x3c
    HAL_TIM_PWM_MspInit(htim);
 8006cac:	f7ff ffaa 	bl	8006c04 <HAL_TIM_PWM_MspInit>
 8006cb0:	e7b4      	b.n	8006c1c <HAL_TIM_PWM_Init+0x14>
    tmpcr1 |= Structure->CounterMode;
 8006cb2:	68a0      	ldr	r0, [r4, #8]
    tmpcr1 &= ~(TIM_CR1_DIR | TIM_CR1_CMS);
 8006cb4:	f023 0370 	bic.w	r3, r3, #112	; 0x70
    tmpcr1 |= (uint32_t)Structure->ClockDivision;
 8006cb8:	6921      	ldr	r1, [r4, #16]
    tmpcr1 |= Structure->CounterMode;
 8006cba:	4303      	orrs	r3, r0
    tmpcr1 &= ~TIM_CR1_CKD;
 8006cbc:	f423 7340 	bic.w	r3, r3, #768	; 0x300
    tmpcr1 |= (uint32_t)Structure->ClockDivision;
 8006cc0:	430b      	orrs	r3, r1
  MODIFY_REG(tmpcr1, TIM_CR1_ARPE, Structure->AutoReloadPreload);
 8006cc2:	69a1      	ldr	r1, [r4, #24]
 8006cc4:	f023 0380 	bic.w	r3, r3, #128	; 0x80
 8006cc8:	430b      	orrs	r3, r1
  TIMx->CR1 = tmpcr1;
 8006cca:	6013      	str	r3, [r2, #0]
  TIMx->ARR = (uint32_t)Structure->Period ;
 8006ccc:	68e3      	ldr	r3, [r4, #12]
 8006cce:	62d3      	str	r3, [r2, #44]	; 0x2c
  TIMx->PSC = Structure->Prescaler;
 8006cd0:	6863      	ldr	r3, [r4, #4]
 8006cd2:	6293      	str	r3, [r2, #40]	; 0x28
    TIMx->RCR = Structure->RepetitionCounter;
 8006cd4:	6963      	ldr	r3, [r4, #20]
 8006cd6:	6313      	str	r3, [r2, #48]	; 0x30
 8006cd8:	e7ce      	b.n	8006c78 <HAL_TIM_PWM_Init+0x70>
    return HAL_ERROR;
 8006cda:	2001      	movs	r0, #1
}
 8006cdc:	4770      	bx	lr
 8006cde:	bf00      	nop
 8006ce0:	40012c00 	.word	0x40012c00

08006ce4 <HAL_TIM_PWM_Start>:
 8006ce4:	bb41      	cbnz	r1, 8006d38 <HAL_TIM_PWM_Start+0x54>
 8006ce6:	f890 303e 	ldrb.w	r3, [r0, #62]	; 0x3e
 8006cea:	2b01      	cmp	r3, #1
 8006cec:	d138      	bne.n	8006d60 <HAL_TIM_PWM_Start+0x7c>
 8006cee:	2302      	movs	r3, #2
 8006cf0:	f880 303e 	strb.w	r3, [r0, #62]	; 0x3e
 8006cf4:	2201      	movs	r2, #1
 8006cf6:	6803      	ldr	r3, [r0, #0]
 8006cf8:	f001 011f 	and.w	r1, r1, #31
 8006cfc:	6a18      	ldr	r0, [r3, #32]
 8006cfe:	fa02 f101 	lsl.w	r1, r2, r1
 8006d02:	ea20 0001 	bic.w	r0, r0, r1
 8006d06:	b410      	push	{r4}
 8006d08:	6218      	str	r0, [r3, #32]
 8006d0a:	6a1a      	ldr	r2, [r3, #32]
 8006d0c:	4c21      	ldr	r4, [pc, #132]	; (8006d94 <HAL_TIM_PWM_Start+0xb0>)
 8006d0e:	4311      	orrs	r1, r2
 8006d10:	42a3      	cmp	r3, r4
 8006d12:	6219      	str	r1, [r3, #32]
 8006d14:	d026      	beq.n	8006d64 <HAL_TIM_PWM_Start+0x80>
 8006d16:	f1b3 4f80 	cmp.w	r3, #1073741824	; 0x40000000
 8006d1a:	d027      	beq.n	8006d6c <HAL_TIM_PWM_Start+0x88>
 8006d1c:	4a1e      	ldr	r2, [pc, #120]	; (8006d98 <HAL_TIM_PWM_Start+0xb4>)
 8006d1e:	4293      	cmp	r3, r2
 8006d20:	d024      	beq.n	8006d6c <HAL_TIM_PWM_Start+0x88>
 8006d22:	f502 6280 	add.w	r2, r2, #1024	; 0x400
 8006d26:	4293      	cmp	r3, r2
 8006d28:	d020      	beq.n	8006d6c <HAL_TIM_PWM_Start+0x88>
 8006d2a:	681a      	ldr	r2, [r3, #0]
 8006d2c:	2000      	movs	r0, #0
 8006d2e:	f042 0201 	orr.w	r2, r2, #1
 8006d32:	bc10      	pop	{r4}
 8006d34:	601a      	str	r2, [r3, #0]
 8006d36:	4770      	bx	lr
 8006d38:	2904      	cmp	r1, #4
 8006d3a:	d01f      	beq.n	8006d7c <HAL_TIM_PWM_Start+0x98>
 8006d3c:	2908      	cmp	r1, #8
 8006d3e:	d00b      	beq.n	8006d58 <HAL_TIM_PWM_Start+0x74>
 8006d40:	f890 3041 	ldrb.w	r3, [r0, #65]	; 0x41
 8006d44:	2b01      	cmp	r3, #1
 8006d46:	d10b      	bne.n	8006d60 <HAL_TIM_PWM_Start+0x7c>
 8006d48:	2904      	cmp	r1, #4
 8006d4a:	d01b      	beq.n	8006d84 <HAL_TIM_PWM_Start+0xa0>
 8006d4c:	2908      	cmp	r1, #8
 8006d4e:	d01d      	beq.n	8006d8c <HAL_TIM_PWM_Start+0xa8>
 8006d50:	2302      	movs	r3, #2
 8006d52:	f880 3041 	strb.w	r3, [r0, #65]	; 0x41
 8006d56:	e7cd      	b.n	8006cf4 <HAL_TIM_PWM_Start+0x10>
 8006d58:	f890 3040 	ldrb.w	r3, [r0, #64]	; 0x40
 8006d5c:	2b01      	cmp	r3, #1
 8006d5e:	d015      	beq.n	8006d8c <HAL_TIM_PWM_Start+0xa8>
 8006d60:	2001      	movs	r0, #1
 8006d62:	4770      	bx	lr
 8006d64:	6c5a      	ldr	r2, [r3, #68]	; 0x44
 8006d66:	f442 4200 	orr.w	r2, r2, #32768	; 0x8000
 8006d6a:	645a      	str	r2, [r3, #68]	; 0x44
 8006d6c:	689a      	ldr	r2, [r3, #8]
 8006d6e:	f002 0207 	and.w	r2, r2, #7
 8006d72:	2a06      	cmp	r2, #6
 8006d74:	d1d9      	bne.n	8006d2a <HAL_TIM_PWM_Start+0x46>
 8006d76:	2000      	movs	r0, #0
 8006d78:	bc10      	pop	{r4}
 8006d7a:	4770      	bx	lr
 8006d7c:	f890 303f 	ldrb.w	r3, [r0, #63]	; 0x3f
 8006d80:	2b01      	cmp	r3, #1
 8006d82:	d1ed      	bne.n	8006d60 <HAL_TIM_PWM_Start+0x7c>
 8006d84:	2302      	movs	r3, #2
 8006d86:	f880 303f 	strb.w	r3, [r0, #63]	; 0x3f
 8006d8a:	e7b3      	b.n	8006cf4 <HAL_TIM_PWM_Start+0x10>
 8006d8c:	2302      	movs	r3, #2
 8006d8e:	f880 3040 	strb.w	r3, [r0, #64]	; 0x40
 8006d92:	e7af      	b.n	8006cf4 <HAL_TIM_PWM_Start+0x10>
 8006d94:	40012c00 	.word	0x40012c00
 8006d98:	40000400 	.word	0x40000400

08006d9c <HAL_TIM_PWM_ConfigChannel>:
{
 8006d9c:	4603      	mov	r3, r0
  __HAL_LOCK(htim);
 8006d9e:	f890 003c 	ldrb.w	r0, [r0, #60]	; 0x3c
 8006da2:	2801      	cmp	r0, #1
 8006da4:	f000 80c0 	beq.w	8006f28 <HAL_TIM_PWM_ConfigChannel+0x18c>
 8006da8:	2001      	movs	r0, #1
{
 8006daa:	b4f0      	push	{r4, r5, r6, r7}
  __HAL_LOCK(htim);
 8006dac:	f883 003c 	strb.w	r0, [r3, #60]	; 0x3c
  switch (Channel)
 8006db0:	2a0c      	cmp	r2, #12
 8006db2:	d82d      	bhi.n	8006e10 <HAL_TIM_PWM_ConfigChannel+0x74>
 8006db4:	e8df f002 	tbb	[pc, r2]
 8006db8:	2c2c2c07 	.word	0x2c2c2c07
 8006dbc:	2c2c2c60 	.word	0x2c2c2c60
 8006dc0:	2c2c2c8d 	.word	0x2c2c2c8d
 8006dc4:	32          	.byte	0x32
 8006dc5:	00          	.byte	0x00
      TIM_OC1_SetConfig(htim->Instance, sConfig);
 8006dc6:	681a      	ldr	r2, [r3, #0]

  /* Reset the Output Compare Mode Bits */
  tmpccmrx &= ~TIM_CCMR1_OC1M;
  tmpccmrx &= ~TIM_CCMR1_CC1S;
  /* Select the Output Compare Mode */
  tmpccmrx |= OC_Config->OCMode;
 8006dc8:	680e      	ldr	r6, [r1, #0]
  TIMx->CCER &= ~TIM_CCER_CC1E;
 8006dca:	6a10      	ldr	r0, [r2, #32]
 8006dcc:	f020 0001 	bic.w	r0, r0, #1
 8006dd0:	6210      	str	r0, [r2, #32]
  tmpccer = TIMx->CCER;
 8006dd2:	6a10      	ldr	r0, [r2, #32]
  tmpcr2 =  TIMx->CR2;
 8006dd4:	6855      	ldr	r5, [r2, #4]
  tmpccmrx = TIMx->CCMR1;
 8006dd6:	6994      	ldr	r4, [r2, #24]

  /* Reset the Output Polarity level */
  tmpccer &= ~TIM_CCER_CC1P;
 8006dd8:	f020 0002 	bic.w	r0, r0, #2
  tmpccmrx &= ~TIM_CCMR1_CC1S;
 8006ddc:	f024 0473 	bic.w	r4, r4, #115	; 0x73
  tmpccmrx |= OC_Config->OCMode;
 8006de0:	4334      	orrs	r4, r6
  /* Set the Output Compare Polarity */
  tmpccer |= OC_Config->OCPolarity;
 8006de2:	688e      	ldr	r6, [r1, #8]
 8006de4:	4330      	orrs	r0, r6

  if (IS_TIM_CCXN_INSTANCE(TIMx, TIM_CHANNEL_1))
 8006de6:	4e6a      	ldr	r6, [pc, #424]	; (8006f90 <HAL_TIM_PWM_ConfigChannel+0x1f4>)
 8006de8:	42b2      	cmp	r2, r6
 8006dea:	f000 809f 	beq.w	8006f2c <HAL_TIM_PWM_ConfigChannel+0x190>
    /* Set the Output N Idle state */
    tmpcr2 |= OC_Config->OCNIdleState;
  }

  /* Write to TIMx CR2 */
  TIMx->CR2 = tmpcr2;
 8006dee:	6055      	str	r5, [r2, #4]

  /* Write to TIMx CCMR1 */
  TIMx->CCMR1 = tmpccmrx;

  /* Set the Capture Compare Register value */
  TIMx->CCR1 = OC_Config->Pulse;
 8006df0:	684d      	ldr	r5, [r1, #4]
  TIMx->CCMR1 = tmpccmrx;
 8006df2:	6194      	str	r4, [r2, #24]
      htim->Instance->CCMR1 |= sConfig->OCFastMode;
 8006df4:	690c      	ldr	r4, [r1, #16]
  TIMx->CCR1 = OC_Config->Pulse;
 8006df6:	6355      	str	r5, [r2, #52]	; 0x34

  /* Write to TIMx CCER */
  TIMx->CCER = tmpccer;
 8006df8:	6210      	str	r0, [r2, #32]
      htim->Instance->CCMR1 |= TIM_CCMR1_OC1PE;
 8006dfa:	6990      	ldr	r0, [r2, #24]
 8006dfc:	f040 0008 	orr.w	r0, r0, #8
 8006e00:	6190      	str	r0, [r2, #24]
      htim->Instance->CCMR1 &= ~TIM_CCMR1_OC1FE;
 8006e02:	6990      	ldr	r0, [r2, #24]
 8006e04:	f020 0004 	bic.w	r0, r0, #4
 8006e08:	6190      	str	r0, [r2, #24]
      htim->Instance->CCMR1 |= sConfig->OCFastMode;
 8006e0a:	6991      	ldr	r1, [r2, #24]
 8006e0c:	4321      	orrs	r1, r4
 8006e0e:	6191      	str	r1, [r2, #24]
  __HAL_UNLOCK(htim);
 8006e10:	2200      	movs	r2, #0
 8006e12:	f883 203c 	strb.w	r2, [r3, #60]	; 0x3c
  return HAL_OK;
 8006e16:	4610      	mov	r0, r2
}
 8006e18:	bcf0      	pop	{r4, r5, r6, r7}
 8006e1a:	4770      	bx	lr
      TIM_OC4_SetConfig(htim->Instance, sConfig);
 8006e1c:	681a      	ldr	r2, [r3, #0]
  /* Reset the Output Compare mode and Capture/Compare selection Bits */
  tmpccmrx &= ~TIM_CCMR2_OC4M;
  tmpccmrx &= ~TIM_CCMR2_CC4S;

  /* Select the Output Compare Mode */
  tmpccmrx |= (OC_Config->OCMode << 8U);
 8006e1e:	680e      	ldr	r6, [r1, #0]
  TIMx->CCER &= ~TIM_CCER_CC4E;
 8006e20:	6a10      	ldr	r0, [r2, #32]
 8006e22:	f420 5080 	bic.w	r0, r0, #4096	; 0x1000
 8006e26:	6210      	str	r0, [r2, #32]
  tmpccer = TIMx->CCER;
 8006e28:	6a10      	ldr	r0, [r2, #32]
  tmpcr2 =  TIMx->CR2;
 8006e2a:	6855      	ldr	r5, [r2, #4]
  tmpccmrx = TIMx->CCMR2;
 8006e2c:	69d4      	ldr	r4, [r2, #28]

  /* Reset the Output Polarity level */
  tmpccer &= ~TIM_CCER_CC4P;
 8006e2e:	f420 5000 	bic.w	r0, r0, #8192	; 0x2000
  tmpccmrx &= ~TIM_CCMR2_CC4S;
 8006e32:	f424 44e6 	bic.w	r4, r4, #29440	; 0x7300
  tmpccmrx |= (OC_Config->OCMode << 8U);
 8006e36:	ea44 2406 	orr.w	r4, r4, r6, lsl #8
  /* Set the Output Compare Polarity */
  tmpccer |= (OC_Config->OCPolarity << 12U);
 8006e3a:	688e      	ldr	r6, [r1, #8]
 8006e3c:	ea40 3006 	orr.w	r0, r0, r6, lsl #12

  if (IS_TIM_BREAK_INSTANCE(TIMx))
 8006e40:	4e53      	ldr	r6, [pc, #332]	; (8006f90 <HAL_TIM_PWM_ConfigChannel+0x1f4>)
 8006e42:	42b2      	cmp	r2, r6
 8006e44:	f000 808e 	beq.w	8006f64 <HAL_TIM_PWM_ConfigChannel+0x1c8>
    /* Set the Output Idle state */
    tmpcr2 |= (OC_Config->OCIdleState << 6U);
  }

  /* Write to TIMx CR2 */
  TIMx->CR2 = tmpcr2;
 8006e48:	6055      	str	r5, [r2, #4]

  /* Write to TIMx CCMR2 */
  TIMx->CCMR2 = tmpccmrx;

  /* Set the Capture Compare Register value */
  TIMx->CCR4 = OC_Config->Pulse;
 8006e4a:	684d      	ldr	r5, [r1, #4]
  TIMx->CCMR2 = tmpccmrx;
 8006e4c:	61d4      	str	r4, [r2, #28]
      htim->Instance->CCMR2 |= sConfig->OCFastMode << 8U;
 8006e4e:	690c      	ldr	r4, [r1, #16]
  TIMx->CCR4 = OC_Config->Pulse;
 8006e50:	6415      	str	r5, [r2, #64]	; 0x40

  /* Write to TIMx CCER */
  TIMx->CCER = tmpccer;
 8006e52:	6210      	str	r0, [r2, #32]
      htim->Instance->CCMR2 |= TIM_CCMR2_OC4PE;
 8006e54:	69d0      	ldr	r0, [r2, #28]
 8006e56:	f440 6000 	orr.w	r0, r0, #2048	; 0x800
 8006e5a:	61d0      	str	r0, [r2, #28]
      htim->Instance->CCMR2 &= ~TIM_CCMR2_OC4FE;
 8006e5c:	69d0      	ldr	r0, [r2, #28]
 8006e5e:	f420 6080 	bic.w	r0, r0, #1024	; 0x400
 8006e62:	61d0      	str	r0, [r2, #28]
      htim->Instance->CCMR2 |= sConfig->OCFastMode << 8U;
 8006e64:	69d1      	ldr	r1, [r2, #28]
 8006e66:	ea41 2104 	orr.w	r1, r1, r4, lsl #8
 8006e6a:	61d1      	str	r1, [r2, #28]
  __HAL_UNLOCK(htim);
 8006e6c:	2200      	movs	r2, #0
 8006e6e:	f883 203c 	strb.w	r2, [r3, #60]	; 0x3c
  return HAL_OK;
 8006e72:	4610      	mov	r0, r2
}
 8006e74:	bcf0      	pop	{r4, r5, r6, r7}
 8006e76:	4770      	bx	lr
      TIM_OC2_SetConfig(htim->Instance, sConfig);
 8006e78:	681a      	ldr	r2, [r3, #0]
  tmpccmrx |= (OC_Config->OCMode << 8U);
 8006e7a:	680e      	ldr	r6, [r1, #0]
  TIMx->CCER &= ~TIM_CCER_CC2E;
 8006e7c:	6a10      	ldr	r0, [r2, #32]
 8006e7e:	f020 0010 	bic.w	r0, r0, #16
 8006e82:	6210      	str	r0, [r2, #32]
  tmpccer = TIMx->CCER;
 8006e84:	6a10      	ldr	r0, [r2, #32]
  tmpcr2 =  TIMx->CR2;
 8006e86:	6855      	ldr	r5, [r2, #4]
  tmpccmrx = TIMx->CCMR1;
 8006e88:	6994      	ldr	r4, [r2, #24]
  tmpccer &= ~TIM_CCER_CC2P;
 8006e8a:	f020 0020 	bic.w	r0, r0, #32
  tmpccmrx &= ~TIM_CCMR1_CC2S;
 8006e8e:	f424 44e6 	bic.w	r4, r4, #29440	; 0x7300
  tmpccmrx |= (OC_Config->OCMode << 8U);
 8006e92:	ea44 2406 	orr.w	r4, r4, r6, lsl #8
  tmpccer |= (OC_Config->OCPolarity << 4U);
 8006e96:	688e      	ldr	r6, [r1, #8]
 8006e98:	ea40 1006 	orr.w	r0, r0, r6, lsl #4
  if (IS_TIM_CCXN_INSTANCE(TIMx, TIM_CHANNEL_2))
 8006e9c:	4e3c      	ldr	r6, [pc, #240]	; (8006f90 <HAL_TIM_PWM_ConfigChannel+0x1f4>)
 8006e9e:	42b2      	cmp	r2, r6
 8006ea0:	d051      	beq.n	8006f46 <HAL_TIM_PWM_ConfigChannel+0x1aa>
  TIMx->CR2 = tmpcr2;
 8006ea2:	6055      	str	r5, [r2, #4]
  TIMx->CCR2 = OC_Config->Pulse;
 8006ea4:	684d      	ldr	r5, [r1, #4]
  TIMx->CCMR1 = tmpccmrx;
 8006ea6:	6194      	str	r4, [r2, #24]
      htim->Instance->CCMR1 |= sConfig->OCFastMode << 8U;
 8006ea8:	690c      	ldr	r4, [r1, #16]
  TIMx->CCR2 = OC_Config->Pulse;
 8006eaa:	6395      	str	r5, [r2, #56]	; 0x38
  TIMx->CCER = tmpccer;
 8006eac:	6210      	str	r0, [r2, #32]
      htim->Instance->CCMR1 |= TIM_CCMR1_OC2PE;
 8006eae:	6990      	ldr	r0, [r2, #24]
 8006eb0:	f440 6000 	orr.w	r0, r0, #2048	; 0x800
 8006eb4:	6190      	str	r0, [r2, #24]
      htim->Instance->CCMR1 &= ~TIM_CCMR1_OC2FE;
 8006eb6:	6990      	ldr	r0, [r2, #24]
 8006eb8:	f420 6080 	bic.w	r0, r0, #1024	; 0x400
 8006ebc:	6190      	str	r0, [r2, #24]
      htim->Instance->CCMR1 |= sConfig->OCFastMode << 8U;
 8006ebe:	6991      	ldr	r1, [r2, #24]
 8006ec0:	ea41 2104 	orr.w	r1, r1, r4, lsl #8
 8006ec4:	6191      	str	r1, [r2, #24]
  __HAL_UNLOCK(htim);
 8006ec6:	2200      	movs	r2, #0
 8006ec8:	f883 203c 	strb.w	r2, [r3, #60]	; 0x3c
  return HAL_OK;
 8006ecc:	4610      	mov	r0, r2
}
 8006ece:	bcf0      	pop	{r4, r5, r6, r7}
 8006ed0:	4770      	bx	lr
      TIM_OC3_SetConfig(htim->Instance, sConfig);
 8006ed2:	681a      	ldr	r2, [r3, #0]
  tmpccmrx |= OC_Config->OCMode;
 8006ed4:	680e      	ldr	r6, [r1, #0]
  TIMx->CCER &= ~TIM_CCER_CC3E;
 8006ed6:	6a10      	ldr	r0, [r2, #32]
 8006ed8:	f420 7080 	bic.w	r0, r0, #256	; 0x100
 8006edc:	6210      	str	r0, [r2, #32]
  tmpccer = TIMx->CCER;
 8006ede:	6a10      	ldr	r0, [r2, #32]
  tmpcr2 =  TIMx->CR2;
 8006ee0:	6855      	ldr	r5, [r2, #4]
  tmpccmrx = TIMx->CCMR2;
 8006ee2:	69d4      	ldr	r4, [r2, #28]
  tmpccer &= ~TIM_CCER_CC3P;
 8006ee4:	f420 7000 	bic.w	r0, r0, #512	; 0x200
  tmpccmrx &= ~TIM_CCMR2_CC3S;
 8006ee8:	f024 0473 	bic.w	r4, r4, #115	; 0x73
  tmpccmrx |= OC_Config->OCMode;
 8006eec:	4334      	orrs	r4, r6
  tmpccer |= (OC_Config->OCPolarity << 8U);
 8006eee:	688e      	ldr	r6, [r1, #8]
 8006ef0:	ea40 2006 	orr.w	r0, r0, r6, lsl #8
  if (IS_TIM_CCXN_INSTANCE(TIMx, TIM_CHANNEL_3))
 8006ef4:	4e26      	ldr	r6, [pc, #152]	; (8006f90 <HAL_TIM_PWM_ConfigChannel+0x1f4>)
 8006ef6:	42b2      	cmp	r2, r6
 8006ef8:	d03a      	beq.n	8006f70 <HAL_TIM_PWM_ConfigChannel+0x1d4>
  TIMx->CR2 = tmpcr2;
 8006efa:	6055      	str	r5, [r2, #4]
  TIMx->CCR3 = OC_Config->Pulse;
 8006efc:	684d      	ldr	r5, [r1, #4]
  TIMx->CCMR2 = tmpccmrx;
 8006efe:	61d4      	str	r4, [r2, #28]
      htim->Instance->CCMR2 |= sConfig->OCFastMode;
 8006f00:	690c      	ldr	r4, [r1, #16]
  TIMx->CCR3 = OC_Config->Pulse;
 8006f02:	63d5      	str	r5, [r2, #60]	; 0x3c
  TIMx->CCER = tmpccer;
 8006f04:	6210      	str	r0, [r2, #32]
      htim->Instance->CCMR2 |= TIM_CCMR2_OC3PE;
 8006f06:	69d0      	ldr	r0, [r2, #28]
 8006f08:	f040 0008 	orr.w	r0, r0, #8
 8006f0c:	61d0      	str	r0, [r2, #28]
      htim->Instance->CCMR2 &= ~TIM_CCMR2_OC3FE;
 8006f0e:	69d0      	ldr	r0, [r2, #28]
 8006f10:	f020 0004 	bic.w	r0, r0, #4
 8006f14:	61d0      	str	r0, [r2, #28]
      htim->Instance->CCMR2 |= sConfig->OCFastMode;
 8006f16:	69d1      	ldr	r1, [r2, #28]
 8006f18:	4321      	orrs	r1, r4
 8006f1a:	61d1      	str	r1, [r2, #28]
  __HAL_UNLOCK(htim);
 8006f1c:	2200      	movs	r2, #0
 8006f1e:	f883 203c 	strb.w	r2, [r3, #60]	; 0x3c
  return HAL_OK;
 8006f22:	4610      	mov	r0, r2
}
 8006f24:	bcf0      	pop	{r4, r5, r6, r7}
 8006f26:	4770      	bx	lr
  __HAL_LOCK(htim);
 8006f28:	2002      	movs	r0, #2
}
 8006f2a:	4770      	bx	lr
    tmpccer |= OC_Config->OCNPolarity;
 8006f2c:	68ce      	ldr	r6, [r1, #12]
    tmpccer &= ~TIM_CCER_CC1NP;
 8006f2e:	f020 0008 	bic.w	r0, r0, #8
    tmpccer |= OC_Config->OCNPolarity;
 8006f32:	4330      	orrs	r0, r6
    tmpcr2 &= ~TIM_CR2_OIS1N;
 8006f34:	f425 7540 	bic.w	r5, r5, #768	; 0x300
    tmpcr2 |= OC_Config->OCNIdleState;
 8006f38:	e9d1 6705 	ldrd	r6, r7, [r1, #20]
 8006f3c:	433e      	orrs	r6, r7
    tmpccer &= ~TIM_CCER_CC1NE;
 8006f3e:	f020 0004 	bic.w	r0, r0, #4
    tmpcr2 |= OC_Config->OCNIdleState;
 8006f42:	4335      	orrs	r5, r6
 8006f44:	e753      	b.n	8006dee <HAL_TIM_PWM_ConfigChannel+0x52>
    tmpccer |= (OC_Config->OCNPolarity << 4U);
 8006f46:	68ce      	ldr	r6, [r1, #12]
    tmpccer &= ~TIM_CCER_CC2NP;
 8006f48:	f020 0080 	bic.w	r0, r0, #128	; 0x80
    tmpccer |= (OC_Config->OCNPolarity << 4U);
 8006f4c:	ea40 1006 	orr.w	r0, r0, r6, lsl #4
    tmpcr2 &= ~TIM_CR2_OIS2N;
 8006f50:	f425 6540 	bic.w	r5, r5, #3072	; 0xc00
    tmpcr2 |= (OC_Config->OCNIdleState << 2U);
 8006f54:	e9d1 6705 	ldrd	r6, r7, [r1, #20]
 8006f58:	433e      	orrs	r6, r7
    tmpccer &= ~TIM_CCER_CC2NE;
 8006f5a:	f020 0040 	bic.w	r0, r0, #64	; 0x40
    tmpcr2 |= (OC_Config->OCNIdleState << 2U);
 8006f5e:	ea45 0586 	orr.w	r5, r5, r6, lsl #2
 8006f62:	e79e      	b.n	8006ea2 <HAL_TIM_PWM_ConfigChannel+0x106>
    tmpcr2 |= (OC_Config->OCIdleState << 6U);
 8006f64:	694e      	ldr	r6, [r1, #20]
    tmpcr2 &= ~TIM_CR2_OIS4;
 8006f66:	f425 4580 	bic.w	r5, r5, #16384	; 0x4000
    tmpcr2 |= (OC_Config->OCIdleState << 6U);
 8006f6a:	ea45 1586 	orr.w	r5, r5, r6, lsl #6
 8006f6e:	e76b      	b.n	8006e48 <HAL_TIM_PWM_ConfigChannel+0xac>
    tmpccer |= (OC_Config->OCNPolarity << 8U);
 8006f70:	68ce      	ldr	r6, [r1, #12]
    tmpccer &= ~TIM_CCER_CC3NP;
 8006f72:	f420 6000 	bic.w	r0, r0, #2048	; 0x800
    tmpccer |= (OC_Config->OCNPolarity << 8U);
 8006f76:	ea40 2006 	orr.w	r0, r0, r6, lsl #8
    tmpcr2 &= ~TIM_CR2_OIS3N;
 8006f7a:	f425 5540 	bic.w	r5, r5, #12288	; 0x3000
    tmpcr2 |= (OC_Config->OCNIdleState << 4U);
 8006f7e:	e9d1 6705 	ldrd	r6, r7, [r1, #20]
 8006f82:	433e      	orrs	r6, r7
    tmpccer &= ~TIM_CCER_CC3NE;
 8006f84:	f420 6080 	bic.w	r0, r0, #1024	; 0x400
    tmpcr2 |= (OC_Config->OCNIdleState << 4U);
 8006f88:	ea45 1506 	orr.w	r5, r5, r6, lsl #4
 8006f8c:	e7b5      	b.n	8006efa <HAL_TIM_PWM_ConfigChannel+0x15e>
 8006f8e:	bf00      	nop
 8006f90:	40012c00 	.word	0x40012c00

08006f94 <HAL_TIM_ConfigClockSource>:
  __HAL_LOCK(htim);
 8006f94:	f890 203c 	ldrb.w	r2, [r0, #60]	; 0x3c
 8006f98:	2a01      	cmp	r2, #1
 8006f9a:	d075      	beq.n	8007088 <HAL_TIM_ConfigClockSource+0xf4>
{
 8006f9c:	b430      	push	{r4, r5}
 8006f9e:	4603      	mov	r3, r0
  __HAL_LOCK(htim);
 8006fa0:	2401      	movs	r4, #1
  htim->State = HAL_TIM_STATE_BUSY;
 8006fa2:	2202      	movs	r2, #2
  tmpsmcr = htim->Instance->SMCR;
 8006fa4:	6800      	ldr	r0, [r0, #0]
  __HAL_LOCK(htim);
 8006fa6:	f883 403c 	strb.w	r4, [r3, #60]	; 0x3c
  htim->State = HAL_TIM_STATE_BUSY;
 8006faa:	f883 203d 	strb.w	r2, [r3, #61]	; 0x3d
  tmpsmcr = htim->Instance->SMCR;
 8006fae:	6884      	ldr	r4, [r0, #8]
  switch (sClockSourceConfig->ClockSource)
 8006fb0:	680a      	ldr	r2, [r1, #0]
  tmpsmcr &= ~(TIM_SMCR_ETF | TIM_SMCR_ETPS | TIM_SMCR_ECE | TIM_SMCR_ETP);
 8006fb2:	f424 447f 	bic.w	r4, r4, #65280	; 0xff00
 8006fb6:	f024 0477 	bic.w	r4, r4, #119	; 0x77
  switch (sClockSourceConfig->ClockSource)
 8006fba:	2a60      	cmp	r2, #96	; 0x60
  htim->Instance->SMCR = tmpsmcr;
 8006fbc:	6084      	str	r4, [r0, #8]
  switch (sClockSourceConfig->ClockSource)
 8006fbe:	d065      	beq.n	800708c <HAL_TIM_ConfigClockSource+0xf8>
 8006fc0:	d831      	bhi.n	8007026 <HAL_TIM_ConfigClockSource+0x92>
 8006fc2:	2a40      	cmp	r2, #64	; 0x40
 8006fc4:	d048      	beq.n	8007058 <HAL_TIM_ConfigClockSource+0xc4>
 8006fc6:	d921      	bls.n	800700c <HAL_TIM_ConfigClockSource+0x78>
 8006fc8:	2a50      	cmp	r2, #80	; 0x50
 8006fca:	d116      	bne.n	8006ffa <HAL_TIM_ConfigClockSource+0x66>
      TIM_TI1_ConfigInputStage(htim->Instance,
 8006fcc:	684c      	ldr	r4, [r1, #4]
 8006fce:	68cd      	ldr	r5, [r1, #12]
{
  uint32_t tmpccmr1;
  uint32_t tmpccer;

  /* Disable the Channel 1: Reset the CC1E Bit */
  tmpccer = TIMx->CCER;
 8006fd0:	6a01      	ldr	r1, [r0, #32]
  /* Set the filter */
  tmpccmr1 &= ~TIM_CCMR1_IC1F;
  tmpccmr1 |= (TIM_ICFilter << 4U);

  /* Select the Polarity and set the CC1E Bit */
  tmpccer &= ~(TIM_CCER_CC1P | TIM_CCER_CC1NP);
 8006fd2:	f021 010a 	bic.w	r1, r1, #10
  tmpccer |= TIM_ICPolarity;
 8006fd6:	4321      	orrs	r1, r4
  TIMx->CCER &= ~TIM_CCER_CC1E;
 8006fd8:	6a04      	ldr	r4, [r0, #32]
 8006fda:	f024 0401 	bic.w	r4, r4, #1
 8006fde:	6204      	str	r4, [r0, #32]
  tmpccmr1 = TIMx->CCMR1;
 8006fe0:	6982      	ldr	r2, [r0, #24]
  tmpccmr1 &= ~TIM_CCMR1_IC1F;
 8006fe2:	f022 02f0 	bic.w	r2, r2, #240	; 0xf0
  tmpccmr1 |= (TIM_ICFilter << 4U);
 8006fe6:	ea42 1205 	orr.w	r2, r2, r5, lsl #4

  /* Write to TIMx CCMR1 and CCER registers */
  TIMx->CCMR1 = tmpccmr1;
 8006fea:	6182      	str	r2, [r0, #24]
  TIMx->CCER = tmpccer;
 8006fec:	6201      	str	r1, [r0, #32]
static void TIM_ITRx_SetConfig(TIM_TypeDef *TIMx, uint32_t InputTriggerSource)
{
  uint32_t tmpsmcr;

  /* Get the TIMx SMCR register value */
  tmpsmcr = TIMx->SMCR;
 8006fee:	6882      	ldr	r2, [r0, #8]
  /* Reset the TS Bits */
  tmpsmcr &= ~TIM_SMCR_TS;
 8006ff0:	f022 0270 	bic.w	r2, r2, #112	; 0x70
  /* Set the Input Trigger source and the slave mode*/
  tmpsmcr |= (InputTriggerSource | TIM_SLAVEMODE_EXTERNAL1);
 8006ff4:	f042 0257 	orr.w	r2, r2, #87	; 0x57
  /* Write to TIMx SMCR */
  TIMx->SMCR = tmpsmcr;
 8006ff8:	6082      	str	r2, [r0, #8]
  __HAL_UNLOCK(htim);
 8006ffa:	2200      	movs	r2, #0
  htim->State = HAL_TIM_STATE_READY;
 8006ffc:	2101      	movs	r1, #1
  __HAL_UNLOCK(htim);
 8006ffe:	f883 203c 	strb.w	r2, [r3, #60]	; 0x3c
  htim->State = HAL_TIM_STATE_READY;
 8007002:	f883 103d 	strb.w	r1, [r3, #61]	; 0x3d
  return HAL_OK;
 8007006:	4610      	mov	r0, r2
}
 8007008:	bc30      	pop	{r4, r5}
 800700a:	4770      	bx	lr
  switch (sClockSourceConfig->ClockSource)
 800700c:	2a20      	cmp	r2, #32
 800700e:	d002      	beq.n	8007016 <HAL_TIM_ConfigClockSource+0x82>
 8007010:	d91e      	bls.n	8007050 <HAL_TIM_ConfigClockSource+0xbc>
 8007012:	2a30      	cmp	r2, #48	; 0x30
 8007014:	d1f1      	bne.n	8006ffa <HAL_TIM_ConfigClockSource+0x66>
  tmpsmcr = TIMx->SMCR;
 8007016:	6881      	ldr	r1, [r0, #8]
  tmpsmcr &= ~TIM_SMCR_TS;
 8007018:	f021 0170 	bic.w	r1, r1, #112	; 0x70
  tmpsmcr |= (InputTriggerSource | TIM_SLAVEMODE_EXTERNAL1);
 800701c:	430a      	orrs	r2, r1
 800701e:	f042 0207 	orr.w	r2, r2, #7
  TIMx->SMCR = tmpsmcr;
 8007022:	6082      	str	r2, [r0, #8]
}
 8007024:	e7e9      	b.n	8006ffa <HAL_TIM_ConfigClockSource+0x66>
  switch (sClockSourceConfig->ClockSource)
 8007026:	2a70      	cmp	r2, #112	; 0x70
 8007028:	d049      	beq.n	80070be <HAL_TIM_ConfigClockSource+0x12a>
 800702a:	f5b2 5f00 	cmp.w	r2, #8192	; 0x2000
 800702e:	d1e4      	bne.n	8006ffa <HAL_TIM_ConfigClockSource+0x66>

  /* Reset the ETR Bits */
  tmpsmcr &= ~(TIM_SMCR_ETF | TIM_SMCR_ETPS | TIM_SMCR_ECE | TIM_SMCR_ETP);

  /* Set the Prescaler, the Filter value and the Polarity */
  tmpsmcr |= (uint32_t)(TIM_ExtTRGPrescaler | (TIM_ExtTRGPolarity | (ExtTRGFilter << 8U)));
 8007030:	e9d1 5201 	ldrd	r5, r2, [r1, #4]
  tmpsmcr = TIMx->SMCR;
 8007034:	6884      	ldr	r4, [r0, #8]
  tmpsmcr |= (uint32_t)(TIM_ExtTRGPrescaler | (TIM_ExtTRGPolarity | (ExtTRGFilter << 8U)));
 8007036:	432a      	orrs	r2, r5
 8007038:	68cd      	ldr	r5, [r1, #12]
  tmpsmcr &= ~(TIM_SMCR_ETF | TIM_SMCR_ETPS | TIM_SMCR_ECE | TIM_SMCR_ETP);
 800703a:	f424 417f 	bic.w	r1, r4, #65280	; 0xff00
  tmpsmcr |= (uint32_t)(TIM_ExtTRGPrescaler | (TIM_ExtTRGPolarity | (ExtTRGFilter << 8U)));
 800703e:	ea42 2205 	orr.w	r2, r2, r5, lsl #8
 8007042:	430a      	orrs	r2, r1

  /* Write to TIMx SMCR */
  TIMx->SMCR = tmpsmcr;
 8007044:	6082      	str	r2, [r0, #8]
      htim->Instance->SMCR |= TIM_SMCR_ECE;
 8007046:	6882      	ldr	r2, [r0, #8]
 8007048:	f442 4280 	orr.w	r2, r2, #16384	; 0x4000
 800704c:	6082      	str	r2, [r0, #8]
      break;
 800704e:	e7d4      	b.n	8006ffa <HAL_TIM_ConfigClockSource+0x66>
  switch (sClockSourceConfig->ClockSource)
 8007050:	f032 0110 	bics.w	r1, r2, #16
 8007054:	d1d1      	bne.n	8006ffa <HAL_TIM_ConfigClockSource+0x66>
 8007056:	e7de      	b.n	8007016 <HAL_TIM_ConfigClockSource+0x82>
      TIM_TI1_ConfigInputStage(htim->Instance,
 8007058:	684c      	ldr	r4, [r1, #4]
 800705a:	68cd      	ldr	r5, [r1, #12]
  tmpccer = TIMx->CCER;
 800705c:	6a01      	ldr	r1, [r0, #32]
  tmpccer &= ~(TIM_CCER_CC1P | TIM_CCER_CC1NP);
 800705e:	f021 010a 	bic.w	r1, r1, #10
  tmpccer |= TIM_ICPolarity;
 8007062:	4321      	orrs	r1, r4
  TIMx->CCER &= ~TIM_CCER_CC1E;
 8007064:	6a04      	ldr	r4, [r0, #32]
 8007066:	f024 0401 	bic.w	r4, r4, #1
 800706a:	6204      	str	r4, [r0, #32]
  tmpccmr1 = TIMx->CCMR1;
 800706c:	6982      	ldr	r2, [r0, #24]
  tmpccmr1 &= ~TIM_CCMR1_IC1F;
 800706e:	f022 02f0 	bic.w	r2, r2, #240	; 0xf0
  tmpccmr1 |= (TIM_ICFilter << 4U);
 8007072:	ea42 1205 	orr.w	r2, r2, r5, lsl #4
  TIMx->CCMR1 = tmpccmr1;
 8007076:	6182      	str	r2, [r0, #24]
  TIMx->CCER = tmpccer;
 8007078:	6201      	str	r1, [r0, #32]
  tmpsmcr = TIMx->SMCR;
 800707a:	6882      	ldr	r2, [r0, #8]
  tmpsmcr &= ~TIM_SMCR_TS;
 800707c:	f022 0270 	bic.w	r2, r2, #112	; 0x70
  tmpsmcr |= (InputTriggerSource | TIM_SLAVEMODE_EXTERNAL1);
 8007080:	f042 0247 	orr.w	r2, r2, #71	; 0x47
  TIMx->SMCR = tmpsmcr;
 8007084:	6082      	str	r2, [r0, #8]
}
 8007086:	e7b8      	b.n	8006ffa <HAL_TIM_ConfigClockSource+0x66>
  __HAL_LOCK(htim);
 8007088:	2002      	movs	r0, #2
}
 800708a:	4770      	bx	lr
  TIMx->CCER &= ~TIM_CCER_CC2E;
 800708c:	6a04      	ldr	r4, [r0, #32]
      TIM_TI2_ConfigInputStage(htim->Instance,
 800708e:	68ca      	ldr	r2, [r1, #12]
  TIMx->CCER &= ~TIM_CCER_CC2E;
 8007090:	f024 0410 	bic.w	r4, r4, #16
      TIM_TI2_ConfigInputStage(htim->Instance,
 8007094:	684d      	ldr	r5, [r1, #4]
  TIMx->CCER &= ~TIM_CCER_CC2E;
 8007096:	6204      	str	r4, [r0, #32]
  tmpccmr1 = TIMx->CCMR1;
 8007098:	6981      	ldr	r1, [r0, #24]
  tmpccmr1 &= ~TIM_CCMR1_IC2F;
 800709a:	f421 4170 	bic.w	r1, r1, #61440	; 0xf000
  tmpccmr1 |= (TIM_ICFilter << 12U);
 800709e:	ea41 3102 	orr.w	r1, r1, r2, lsl #12
  tmpccer = TIMx->CCER;
 80070a2:	6a02      	ldr	r2, [r0, #32]
  TIMx->CCMR1 = tmpccmr1 ;
 80070a4:	6181      	str	r1, [r0, #24]
  tmpccer &= ~(TIM_CCER_CC2P | TIM_CCER_CC2NP);
 80070a6:	f022 02a0 	bic.w	r2, r2, #160	; 0xa0
  tmpccer |= (TIM_ICPolarity << 4U);
 80070aa:	ea42 1205 	orr.w	r2, r2, r5, lsl #4
  TIMx->CCER = tmpccer;
 80070ae:	6202      	str	r2, [r0, #32]
  tmpsmcr = TIMx->SMCR;
 80070b0:	6882      	ldr	r2, [r0, #8]
  tmpsmcr &= ~TIM_SMCR_TS;
 80070b2:	f022 0270 	bic.w	r2, r2, #112	; 0x70
  tmpsmcr |= (InputTriggerSource | TIM_SLAVEMODE_EXTERNAL1);
 80070b6:	f042 0267 	orr.w	r2, r2, #103	; 0x67
  TIMx->SMCR = tmpsmcr;
 80070ba:	6082      	str	r2, [r0, #8]
}
 80070bc:	e79d      	b.n	8006ffa <HAL_TIM_ConfigClockSource+0x66>
  tmpsmcr |= (uint32_t)(TIM_ExtTRGPrescaler | (TIM_ExtTRGPolarity | (ExtTRGFilter << 8U)));
 80070be:	e9d1 5201 	ldrd	r5, r2, [r1, #4]
  tmpsmcr = TIMx->SMCR;
 80070c2:	6884      	ldr	r4, [r0, #8]
  tmpsmcr |= (uint32_t)(TIM_ExtTRGPrescaler | (TIM_ExtTRGPolarity | (ExtTRGFilter << 8U)));
 80070c4:	432a      	orrs	r2, r5
 80070c6:	68cd      	ldr	r5, [r1, #12]
  tmpsmcr &= ~(TIM_SMCR_ETF | TIM_SMCR_ETPS | TIM_SMCR_ECE | TIM_SMCR_ETP);
 80070c8:	f424 417f 	bic.w	r1, r4, #65280	; 0xff00
  tmpsmcr |= (uint32_t)(TIM_ExtTRGPrescaler | (TIM_ExtTRGPolarity | (ExtTRGFilter << 8U)));
 80070cc:	ea42 2205 	orr.w	r2, r2, r5, lsl #8
 80070d0:	430a      	orrs	r2, r1
  TIMx->SMCR = tmpsmcr;
 80070d2:	6082      	str	r2, [r0, #8]
      tmpsmcr = htim->Instance->SMCR;
 80070d4:	6882      	ldr	r2, [r0, #8]
      tmpsmcr |= (TIM_SLAVEMODE_EXTERNAL1 | TIM_CLOCKSOURCE_ETRMODE1);
 80070d6:	f042 0277 	orr.w	r2, r2, #119	; 0x77
      htim->Instance->SMCR = tmpsmcr;
 80070da:	6082      	str	r2, [r0, #8]
      break;
 80070dc:	e78d      	b.n	8006ffa <HAL_TIM_ConfigClockSource+0x66>
 80070de:	bf00      	nop

080070e0 <HAL_TIMEx_MasterConfigSynchronization>:
  assert_param(IS_TIM_MASTER_INSTANCE(htim->Instance));
  assert_param(IS_TIM_TRGO_SOURCE(sMasterConfig->MasterOutputTrigger));
  assert_param(IS_TIM_MSM_STATE(sMasterConfig->MasterSlaveMode));

  /* Check input state */
  __HAL_LOCK(htim);
 80070e0:	f890 203c 	ldrb.w	r2, [r0, #60]	; 0x3c
 80070e4:	2a01      	cmp	r2, #1
 80070e6:	d027      	beq.n	8007138 <HAL_TIMEx_MasterConfigSynchronization+0x58>
 80070e8:	4603      	mov	r3, r0

  /* Change the handler state */
  htim->State = HAL_TIM_STATE_BUSY;
 80070ea:	2002      	movs	r0, #2

  /* Get the TIMx CR2 register value */
  tmpcr2 = htim->Instance->CR2;
 80070ec:	681a      	ldr	r2, [r3, #0]
{
 80070ee:	b430      	push	{r4, r5}
  htim->State = HAL_TIM_STATE_BUSY;
 80070f0:	f883 003d 	strb.w	r0, [r3, #61]	; 0x3d
  tmpcr2 = htim->Instance->CR2;
 80070f4:	6850      	ldr	r0, [r2, #4]
  tmpsmcr = htim->Instance->SMCR;

  /* Reset the MMS Bits */
  tmpcr2 &= ~TIM_CR2_MMS;
  /* Select the TRGO source */
  tmpcr2 |=  sMasterConfig->MasterOutputTrigger;
 80070f6:	680c      	ldr	r4, [r1, #0]

  /* Update TIMx CR2 */
  htim->Instance->CR2 = tmpcr2;

  if (IS_TIM_SLAVE_INSTANCE(htim->Instance))
 80070f8:	4d10      	ldr	r5, [pc, #64]	; (800713c <HAL_TIMEx_MasterConfigSynchronization+0x5c>)
  tmpcr2 &= ~TIM_CR2_MMS;
 80070fa:	f020 0070 	bic.w	r0, r0, #112	; 0x70
  tmpcr2 |=  sMasterConfig->MasterOutputTrigger;
 80070fe:	4320      	orrs	r0, r4
  if (IS_TIM_SLAVE_INSTANCE(htim->Instance))
 8007100:	42aa      	cmp	r2, r5
  tmpsmcr = htim->Instance->SMCR;
 8007102:	6894      	ldr	r4, [r2, #8]
  htim->Instance->CR2 = tmpcr2;
 8007104:	6050      	str	r0, [r2, #4]
  if (IS_TIM_SLAVE_INSTANCE(htim->Instance))
 8007106:	d009      	beq.n	800711c <HAL_TIMEx_MasterConfigSynchronization+0x3c>
 8007108:	f1b2 4f80 	cmp.w	r2, #1073741824	; 0x40000000
 800710c:	d006      	beq.n	800711c <HAL_TIMEx_MasterConfigSynchronization+0x3c>
 800710e:	480c      	ldr	r0, [pc, #48]	; (8007140 <HAL_TIMEx_MasterConfigSynchronization+0x60>)
 8007110:	4282      	cmp	r2, r0
 8007112:	d003      	beq.n	800711c <HAL_TIMEx_MasterConfigSynchronization+0x3c>
 8007114:	f500 6080 	add.w	r0, r0, #1024	; 0x400
 8007118:	4282      	cmp	r2, r0
 800711a:	d104      	bne.n	8007126 <HAL_TIMEx_MasterConfigSynchronization+0x46>
  {
    /* Reset the MSM Bit */
    tmpsmcr &= ~TIM_SMCR_MSM;
    /* Set master mode */
    tmpsmcr |= sMasterConfig->MasterSlaveMode;
 800711c:	6849      	ldr	r1, [r1, #4]
    tmpsmcr &= ~TIM_SMCR_MSM;
 800711e:	f024 0480 	bic.w	r4, r4, #128	; 0x80
    tmpsmcr |= sMasterConfig->MasterSlaveMode;
 8007122:	430c      	orrs	r4, r1

    /* Update TIMx SMCR */
    htim->Instance->SMCR = tmpsmcr;
 8007124:	6094      	str	r4, [r2, #8]
  }

  /* Change the htim state */
  htim->State = HAL_TIM_STATE_READY;

  __HAL_UNLOCK(htim);
 8007126:	2200      	movs	r2, #0
  htim->State = HAL_TIM_STATE_READY;
 8007128:	2101      	movs	r1, #1
  __HAL_UNLOCK(htim);
 800712a:	f883 203c 	strb.w	r2, [r3, #60]	; 0x3c
  htim->State = HAL_TIM_STATE_READY;
 800712e:	f883 103d 	strb.w	r1, [r3, #61]	; 0x3d

  return HAL_OK;
 8007132:	4610      	mov	r0, r2
}
 8007134:	bc30      	pop	{r4, r5}
 8007136:	4770      	bx	lr
  __HAL_LOCK(htim);
 8007138:	2002      	movs	r0, #2
}
 800713a:	4770      	bx	lr
 800713c:	40012c00 	.word	0x40012c00
 8007140:	40000400 	.word	0x40000400

08007144 <HAL_TIMEx_ConfigBreakDeadTime>:
  assert_param(IS_TIM_BREAK_STATE(sBreakDeadTimeConfig->BreakState));
  assert_param(IS_TIM_BREAK_POLARITY(sBreakDeadTimeConfig->BreakPolarity));
  assert_param(IS_TIM_AUTOMATIC_OUTPUT_STATE(sBreakDeadTimeConfig->AutomaticOutput));

  /* Check input state */
  __HAL_LOCK(htim);
 8007144:	f890 303c 	ldrb.w	r3, [r0, #60]	; 0x3c
 8007148:	2b01      	cmp	r3, #1
 800714a:	d023      	beq.n	8007194 <HAL_TIMEx_ConfigBreakDeadTime+0x50>
 800714c:	4602      	mov	r2, r0
  /* Set the Lock level, the Break enable Bit and the Polarity, the OSSR State,
     the OSSI State, the dead time value and the Automatic Output Enable Bit */

  /* Set the BDTR bits */
  MODIFY_REG(tmpbdtr, TIM_BDTR_DTG, sBreakDeadTimeConfig->DeadTime);
  MODIFY_REG(tmpbdtr, TIM_BDTR_LOCK, sBreakDeadTimeConfig->LockLevel);
 800714e:	e9d1 0302 	ldrd	r0, r3, [r1, #8]


  /* Set TIMx_BDTR */
  htim->Instance->BDTR = tmpbdtr;

  __HAL_UNLOCK(htim);
 8007152:	f04f 0c00 	mov.w	ip, #0
  MODIFY_REG(tmpbdtr, TIM_BDTR_LOCK, sBreakDeadTimeConfig->LockLevel);
 8007156:	f423 7340 	bic.w	r3, r3, #768	; 0x300
 800715a:	4303      	orrs	r3, r0
  MODIFY_REG(tmpbdtr, TIM_BDTR_OSSI, sBreakDeadTimeConfig->OffStateIDLEMode);
 800715c:	6848      	ldr	r0, [r1, #4]
 800715e:	f423 6380 	bic.w	r3, r3, #1024	; 0x400
 8007162:	4303      	orrs	r3, r0
  MODIFY_REG(tmpbdtr, TIM_BDTR_OSSR, sBreakDeadTimeConfig->OffStateRunMode);
 8007164:	6808      	ldr	r0, [r1, #0]
 8007166:	f423 6300 	bic.w	r3, r3, #2048	; 0x800
 800716a:	4303      	orrs	r3, r0
  MODIFY_REG(tmpbdtr, TIM_BDTR_BKE, sBreakDeadTimeConfig->BreakState);
 800716c:	6908      	ldr	r0, [r1, #16]
 800716e:	f423 5380 	bic.w	r3, r3, #4096	; 0x1000
{
 8007172:	b410      	push	{r4}
  MODIFY_REG(tmpbdtr, TIM_BDTR_BKE, sBreakDeadTimeConfig->BreakState);
 8007174:	4303      	orrs	r3, r0
  MODIFY_REG(tmpbdtr, TIM_BDTR_BKP, sBreakDeadTimeConfig->BreakPolarity);
 8007176:	694c      	ldr	r4, [r1, #20]
 8007178:	f423 5300 	bic.w	r3, r3, #8192	; 0x2000
  MODIFY_REG(tmpbdtr, TIM_BDTR_AOE, sBreakDeadTimeConfig->AutomaticOutput);
 800717c:	69c8      	ldr	r0, [r1, #28]
  MODIFY_REG(tmpbdtr, TIM_BDTR_BKP, sBreakDeadTimeConfig->BreakPolarity);
 800717e:	4323      	orrs	r3, r4
  htim->Instance->BDTR = tmpbdtr;
 8007180:	6811      	ldr	r1, [r2, #0]
  MODIFY_REG(tmpbdtr, TIM_BDTR_AOE, sBreakDeadTimeConfig->AutomaticOutput);
 8007182:	f423 4380 	bic.w	r3, r3, #16384	; 0x4000
 8007186:	4303      	orrs	r3, r0
  htim->Instance->BDTR = tmpbdtr;
 8007188:	644b      	str	r3, [r1, #68]	; 0x44
  __HAL_UNLOCK(htim);
 800718a:	f882 c03c 	strb.w	ip, [r2, #60]	; 0x3c

  return HAL_OK;
 800718e:	4660      	mov	r0, ip
}
 8007190:	bc10      	pop	{r4}
 8007192:	4770      	bx	lr
  __HAL_LOCK(htim);
 8007194:	2002      	movs	r0, #2
}
 8007196:	4770      	bx	lr

08007198 <__errno>:
 8007198:	4b01      	ldr	r3, [pc, #4]	; (80071a0 <__errno+0x8>)
 800719a:	6818      	ldr	r0, [r3, #0]
 800719c:	4770      	bx	lr
 800719e:	bf00      	nop
 80071a0:	20000054 	.word	0x20000054

080071a4 <__libc_init_array>:
 80071a4:	b570      	push	{r4, r5, r6, lr}
 80071a6:	2600      	movs	r6, #0
 80071a8:	4d0c      	ldr	r5, [pc, #48]	; (80071dc <__libc_init_array+0x38>)
 80071aa:	4c0d      	ldr	r4, [pc, #52]	; (80071e0 <__libc_init_array+0x3c>)
 80071ac:	1b64      	subs	r4, r4, r5
 80071ae:	10a4      	asrs	r4, r4, #2
 80071b0:	42a6      	cmp	r6, r4
 80071b2:	d109      	bne.n	80071c8 <__libc_init_array+0x24>
 80071b4:	f001 f88e 	bl	80082d4 <_init>
 80071b8:	2600      	movs	r6, #0
 80071ba:	4d0a      	ldr	r5, [pc, #40]	; (80071e4 <__libc_init_array+0x40>)
 80071bc:	4c0a      	ldr	r4, [pc, #40]	; (80071e8 <__libc_init_array+0x44>)
 80071be:	1b64      	subs	r4, r4, r5
 80071c0:	10a4      	asrs	r4, r4, #2
 80071c2:	42a6      	cmp	r6, r4
 80071c4:	d105      	bne.n	80071d2 <__libc_init_array+0x2e>
 80071c6:	bd70      	pop	{r4, r5, r6, pc}
 80071c8:	f855 3b04 	ldr.w	r3, [r5], #4
 80071cc:	4798      	blx	r3
 80071ce:	3601      	adds	r6, #1
 80071d0:	e7ee      	b.n	80071b0 <__libc_init_array+0xc>
 80071d2:	f855 3b04 	ldr.w	r3, [r5], #4
 80071d6:	4798      	blx	r3
 80071d8:	3601      	adds	r6, #1
 80071da:	e7f2      	b.n	80071c2 <__libc_init_array+0x1e>
 80071dc:	0800a17c 	.word	0x0800a17c
 80071e0:	0800a17c 	.word	0x0800a17c
 80071e4:	0800a17c 	.word	0x0800a17c
 80071e8:	0800a180 	.word	0x0800a180

080071ec <memset>:
 80071ec:	4603      	mov	r3, r0
 80071ee:	4402      	add	r2, r0
 80071f0:	4293      	cmp	r3, r2
 80071f2:	d100      	bne.n	80071f6 <memset+0xa>
 80071f4:	4770      	bx	lr
 80071f6:	f803 1b01 	strb.w	r1, [r3], #1
 80071fa:	e7f9      	b.n	80071f0 <memset+0x4>

080071fc <srand>:
 80071fc:	b538      	push	{r3, r4, r5, lr}
 80071fe:	4b10      	ldr	r3, [pc, #64]	; (8007240 <srand+0x44>)
 8007200:	4604      	mov	r4, r0
 8007202:	681d      	ldr	r5, [r3, #0]
 8007204:	6bab      	ldr	r3, [r5, #56]	; 0x38
 8007206:	b9b3      	cbnz	r3, 8007236 <srand+0x3a>
 8007208:	2018      	movs	r0, #24
 800720a:	f000 f893 	bl	8007334 <malloc>
 800720e:	4602      	mov	r2, r0
 8007210:	63a8      	str	r0, [r5, #56]	; 0x38
 8007212:	b920      	cbnz	r0, 800721e <srand+0x22>
 8007214:	2142      	movs	r1, #66	; 0x42
 8007216:	4b0b      	ldr	r3, [pc, #44]	; (8007244 <srand+0x48>)
 8007218:	480b      	ldr	r0, [pc, #44]	; (8007248 <srand+0x4c>)
 800721a:	f000 f85b 	bl	80072d4 <__assert_func>
 800721e:	490b      	ldr	r1, [pc, #44]	; (800724c <srand+0x50>)
 8007220:	4b0b      	ldr	r3, [pc, #44]	; (8007250 <srand+0x54>)
 8007222:	e9c0 1300 	strd	r1, r3, [r0]
 8007226:	4b0b      	ldr	r3, [pc, #44]	; (8007254 <srand+0x58>)
 8007228:	2100      	movs	r1, #0
 800722a:	6083      	str	r3, [r0, #8]
 800722c:	230b      	movs	r3, #11
 800722e:	8183      	strh	r3, [r0, #12]
 8007230:	2001      	movs	r0, #1
 8007232:	e9c2 0104 	strd	r0, r1, [r2, #16]
 8007236:	2200      	movs	r2, #0
 8007238:	6bab      	ldr	r3, [r5, #56]	; 0x38
 800723a:	611c      	str	r4, [r3, #16]
 800723c:	615a      	str	r2, [r3, #20]
 800723e:	bd38      	pop	{r3, r4, r5, pc}
 8007240:	20000054 	.word	0x20000054
 8007244:	0800a038 	.word	0x0800a038
 8007248:	0800a04f 	.word	0x0800a04f
 800724c:	abcd330e 	.word	0xabcd330e
 8007250:	e66d1234 	.word	0xe66d1234
 8007254:	0005deec 	.word	0x0005deec

08007258 <rand>:
 8007258:	4b16      	ldr	r3, [pc, #88]	; (80072b4 <rand+0x5c>)
 800725a:	b510      	push	{r4, lr}
 800725c:	681c      	ldr	r4, [r3, #0]
 800725e:	6ba3      	ldr	r3, [r4, #56]	; 0x38
 8007260:	b9b3      	cbnz	r3, 8007290 <rand+0x38>
 8007262:	2018      	movs	r0, #24
 8007264:	f000 f866 	bl	8007334 <malloc>
 8007268:	4602      	mov	r2, r0
 800726a:	63a0      	str	r0, [r4, #56]	; 0x38
 800726c:	b920      	cbnz	r0, 8007278 <rand+0x20>
 800726e:	214e      	movs	r1, #78	; 0x4e
 8007270:	4b11      	ldr	r3, [pc, #68]	; (80072b8 <rand+0x60>)
 8007272:	4812      	ldr	r0, [pc, #72]	; (80072bc <rand+0x64>)
 8007274:	f000 f82e 	bl	80072d4 <__assert_func>
 8007278:	4911      	ldr	r1, [pc, #68]	; (80072c0 <rand+0x68>)
 800727a:	4b12      	ldr	r3, [pc, #72]	; (80072c4 <rand+0x6c>)
 800727c:	e9c0 1300 	strd	r1, r3, [r0]
 8007280:	4b11      	ldr	r3, [pc, #68]	; (80072c8 <rand+0x70>)
 8007282:	2100      	movs	r1, #0
 8007284:	6083      	str	r3, [r0, #8]
 8007286:	230b      	movs	r3, #11
 8007288:	8183      	strh	r3, [r0, #12]
 800728a:	2001      	movs	r0, #1
 800728c:	e9c2 0104 	strd	r0, r1, [r2, #16]
 8007290:	6ba4      	ldr	r4, [r4, #56]	; 0x38
 8007292:	4a0e      	ldr	r2, [pc, #56]	; (80072cc <rand+0x74>)
 8007294:	6920      	ldr	r0, [r4, #16]
 8007296:	6963      	ldr	r3, [r4, #20]
 8007298:	4342      	muls	r2, r0
 800729a:	490d      	ldr	r1, [pc, #52]	; (80072d0 <rand+0x78>)
 800729c:	fb01 2203 	mla	r2, r1, r3, r2
 80072a0:	fba0 0101 	umull	r0, r1, r0, r1
 80072a4:	1c43      	adds	r3, r0, #1
 80072a6:	eb42 0001 	adc.w	r0, r2, r1
 80072aa:	e9c4 3004 	strd	r3, r0, [r4, #16]
 80072ae:	f020 4000 	bic.w	r0, r0, #2147483648	; 0x80000000
 80072b2:	bd10      	pop	{r4, pc}
 80072b4:	20000054 	.word	0x20000054
 80072b8:	0800a038 	.word	0x0800a038
 80072bc:	0800a04f 	.word	0x0800a04f
 80072c0:	abcd330e 	.word	0xabcd330e
 80072c4:	e66d1234 	.word	0xe66d1234
 80072c8:	0005deec 	.word	0x0005deec
 80072cc:	5851f42d 	.word	0x5851f42d
 80072d0:	4c957f2d 	.word	0x4c957f2d

080072d4 <__assert_func>:
 80072d4:	b51f      	push	{r0, r1, r2, r3, r4, lr}
 80072d6:	4614      	mov	r4, r2
 80072d8:	461a      	mov	r2, r3
 80072da:	4b09      	ldr	r3, [pc, #36]	; (8007300 <__assert_func+0x2c>)
 80072dc:	4605      	mov	r5, r0
 80072de:	681b      	ldr	r3, [r3, #0]
 80072e0:	68d8      	ldr	r0, [r3, #12]
 80072e2:	b14c      	cbz	r4, 80072f8 <__assert_func+0x24>
 80072e4:	4b07      	ldr	r3, [pc, #28]	; (8007304 <__assert_func+0x30>)
 80072e6:	e9cd 3401 	strd	r3, r4, [sp, #4]
 80072ea:	9100      	str	r1, [sp, #0]
 80072ec:	462b      	mov	r3, r5
 80072ee:	4906      	ldr	r1, [pc, #24]	; (8007308 <__assert_func+0x34>)
 80072f0:	f000 f80e 	bl	8007310 <fiprintf>
 80072f4:	f000 fcc0 	bl	8007c78 <abort>
 80072f8:	4b04      	ldr	r3, [pc, #16]	; (800730c <__assert_func+0x38>)
 80072fa:	461c      	mov	r4, r3
 80072fc:	e7f3      	b.n	80072e6 <__assert_func+0x12>
 80072fe:	bf00      	nop
 8007300:	20000054 	.word	0x20000054
 8007304:	0800a0aa 	.word	0x0800a0aa
 8007308:	0800a0b7 	.word	0x0800a0b7
 800730c:	0800a0e5 	.word	0x0800a0e5

08007310 <fiprintf>:
 8007310:	b40e      	push	{r1, r2, r3}
 8007312:	b503      	push	{r0, r1, lr}
 8007314:	4601      	mov	r1, r0
 8007316:	ab03      	add	r3, sp, #12
 8007318:	4805      	ldr	r0, [pc, #20]	; (8007330 <fiprintf+0x20>)
 800731a:	f853 2b04 	ldr.w	r2, [r3], #4
 800731e:	6800      	ldr	r0, [r0, #0]
 8007320:	9301      	str	r3, [sp, #4]
 8007322:	f000 f913 	bl	800754c <_vfiprintf_r>
 8007326:	b002      	add	sp, #8
 8007328:	f85d eb04 	ldr.w	lr, [sp], #4
 800732c:	b003      	add	sp, #12
 800732e:	4770      	bx	lr
 8007330:	20000054 	.word	0x20000054

08007334 <malloc>:
 8007334:	4b02      	ldr	r3, [pc, #8]	; (8007340 <malloc+0xc>)
 8007336:	4601      	mov	r1, r0
 8007338:	6818      	ldr	r0, [r3, #0]
 800733a:	f000 b86b 	b.w	8007414 <_malloc_r>
 800733e:	bf00      	nop
 8007340:	20000054 	.word	0x20000054

08007344 <_free_r>:
 8007344:	b538      	push	{r3, r4, r5, lr}
 8007346:	4605      	mov	r5, r0
 8007348:	2900      	cmp	r1, #0
 800734a:	d040      	beq.n	80073ce <_free_r+0x8a>
 800734c:	f851 3c04 	ldr.w	r3, [r1, #-4]
 8007350:	1f0c      	subs	r4, r1, #4
 8007352:	2b00      	cmp	r3, #0
 8007354:	bfb8      	it	lt
 8007356:	18e4      	addlt	r4, r4, r3
 8007358:	f000 fec0 	bl	80080dc <__malloc_lock>
 800735c:	4a1c      	ldr	r2, [pc, #112]	; (80073d0 <_free_r+0x8c>)
 800735e:	6813      	ldr	r3, [r2, #0]
 8007360:	b933      	cbnz	r3, 8007370 <_free_r+0x2c>
 8007362:	6063      	str	r3, [r4, #4]
 8007364:	6014      	str	r4, [r2, #0]
 8007366:	4628      	mov	r0, r5
 8007368:	e8bd 4038 	ldmia.w	sp!, {r3, r4, r5, lr}
 800736c:	f000 bebc 	b.w	80080e8 <__malloc_unlock>
 8007370:	42a3      	cmp	r3, r4
 8007372:	d908      	bls.n	8007386 <_free_r+0x42>
 8007374:	6820      	ldr	r0, [r4, #0]
 8007376:	1821      	adds	r1, r4, r0
 8007378:	428b      	cmp	r3, r1
 800737a:	bf01      	itttt	eq
 800737c:	6819      	ldreq	r1, [r3, #0]
 800737e:	685b      	ldreq	r3, [r3, #4]
 8007380:	1809      	addeq	r1, r1, r0
 8007382:	6021      	streq	r1, [r4, #0]
 8007384:	e7ed      	b.n	8007362 <_free_r+0x1e>
 8007386:	461a      	mov	r2, r3
 8007388:	685b      	ldr	r3, [r3, #4]
 800738a:	b10b      	cbz	r3, 8007390 <_free_r+0x4c>
 800738c:	42a3      	cmp	r3, r4
 800738e:	d9fa      	bls.n	8007386 <_free_r+0x42>
 8007390:	6811      	ldr	r1, [r2, #0]
 8007392:	1850      	adds	r0, r2, r1
 8007394:	42a0      	cmp	r0, r4
 8007396:	d10b      	bne.n	80073b0 <_free_r+0x6c>
 8007398:	6820      	ldr	r0, [r4, #0]
 800739a:	4401      	add	r1, r0
 800739c:	1850      	adds	r0, r2, r1
 800739e:	4283      	cmp	r3, r0
 80073a0:	6011      	str	r1, [r2, #0]
 80073a2:	d1e0      	bne.n	8007366 <_free_r+0x22>
 80073a4:	6818      	ldr	r0, [r3, #0]
 80073a6:	685b      	ldr	r3, [r3, #4]
 80073a8:	4401      	add	r1, r0
 80073aa:	6011      	str	r1, [r2, #0]
 80073ac:	6053      	str	r3, [r2, #4]
 80073ae:	e7da      	b.n	8007366 <_free_r+0x22>
 80073b0:	d902      	bls.n	80073b8 <_free_r+0x74>
 80073b2:	230c      	movs	r3, #12
 80073b4:	602b      	str	r3, [r5, #0]
 80073b6:	e7d6      	b.n	8007366 <_free_r+0x22>
 80073b8:	6820      	ldr	r0, [r4, #0]
 80073ba:	1821      	adds	r1, r4, r0
 80073bc:	428b      	cmp	r3, r1
 80073be:	bf01      	itttt	eq
 80073c0:	6819      	ldreq	r1, [r3, #0]
 80073c2:	685b      	ldreq	r3, [r3, #4]
 80073c4:	1809      	addeq	r1, r1, r0
 80073c6:	6021      	streq	r1, [r4, #0]
 80073c8:	6063      	str	r3, [r4, #4]
 80073ca:	6054      	str	r4, [r2, #4]
 80073cc:	e7cb      	b.n	8007366 <_free_r+0x22>
 80073ce:	bd38      	pop	{r3, r4, r5, pc}
 80073d0:	200008c0 	.word	0x200008c0

080073d4 <sbrk_aligned>:
 80073d4:	b570      	push	{r4, r5, r6, lr}
 80073d6:	4e0e      	ldr	r6, [pc, #56]	; (8007410 <sbrk_aligned+0x3c>)
 80073d8:	460c      	mov	r4, r1
 80073da:	6831      	ldr	r1, [r6, #0]
 80073dc:	4605      	mov	r5, r0
 80073de:	b911      	cbnz	r1, 80073e6 <sbrk_aligned+0x12>
 80073e0:	f000 fb7a 	bl	8007ad8 <_sbrk_r>
 80073e4:	6030      	str	r0, [r6, #0]
 80073e6:	4621      	mov	r1, r4
 80073e8:	4628      	mov	r0, r5
 80073ea:	f000 fb75 	bl	8007ad8 <_sbrk_r>
 80073ee:	1c43      	adds	r3, r0, #1
 80073f0:	d00a      	beq.n	8007408 <sbrk_aligned+0x34>
 80073f2:	1cc4      	adds	r4, r0, #3
 80073f4:	f024 0403 	bic.w	r4, r4, #3
 80073f8:	42a0      	cmp	r0, r4
 80073fa:	d007      	beq.n	800740c <sbrk_aligned+0x38>
 80073fc:	1a21      	subs	r1, r4, r0
 80073fe:	4628      	mov	r0, r5
 8007400:	f000 fb6a 	bl	8007ad8 <_sbrk_r>
 8007404:	3001      	adds	r0, #1
 8007406:	d101      	bne.n	800740c <sbrk_aligned+0x38>
 8007408:	f04f 34ff 	mov.w	r4, #4294967295
 800740c:	4620      	mov	r0, r4
 800740e:	bd70      	pop	{r4, r5, r6, pc}
 8007410:	200008c4 	.word	0x200008c4

08007414 <_malloc_r>:
 8007414:	e92d 41f0 	stmdb	sp!, {r4, r5, r6, r7, r8, lr}
 8007418:	1ccd      	adds	r5, r1, #3
 800741a:	f025 0503 	bic.w	r5, r5, #3
 800741e:	3508      	adds	r5, #8
 8007420:	2d0c      	cmp	r5, #12
 8007422:	bf38      	it	cc
 8007424:	250c      	movcc	r5, #12
 8007426:	2d00      	cmp	r5, #0
 8007428:	4607      	mov	r7, r0
 800742a:	db01      	blt.n	8007430 <_malloc_r+0x1c>
 800742c:	42a9      	cmp	r1, r5
 800742e:	d905      	bls.n	800743c <_malloc_r+0x28>
 8007430:	230c      	movs	r3, #12
 8007432:	2600      	movs	r6, #0
 8007434:	603b      	str	r3, [r7, #0]
 8007436:	4630      	mov	r0, r6
 8007438:	e8bd 81f0 	ldmia.w	sp!, {r4, r5, r6, r7, r8, pc}
 800743c:	4e2e      	ldr	r6, [pc, #184]	; (80074f8 <_malloc_r+0xe4>)
 800743e:	f000 fe4d 	bl	80080dc <__malloc_lock>
 8007442:	6833      	ldr	r3, [r6, #0]
 8007444:	461c      	mov	r4, r3
 8007446:	bb34      	cbnz	r4, 8007496 <_malloc_r+0x82>
 8007448:	4629      	mov	r1, r5
 800744a:	4638      	mov	r0, r7
 800744c:	f7ff ffc2 	bl	80073d4 <sbrk_aligned>
 8007450:	1c43      	adds	r3, r0, #1
 8007452:	4604      	mov	r4, r0
 8007454:	d14d      	bne.n	80074f2 <_malloc_r+0xde>
 8007456:	6834      	ldr	r4, [r6, #0]
 8007458:	4626      	mov	r6, r4
 800745a:	2e00      	cmp	r6, #0
 800745c:	d140      	bne.n	80074e0 <_malloc_r+0xcc>
 800745e:	6823      	ldr	r3, [r4, #0]
 8007460:	4631      	mov	r1, r6
 8007462:	4638      	mov	r0, r7
 8007464:	eb04 0803 	add.w	r8, r4, r3
 8007468:	f000 fb36 	bl	8007ad8 <_sbrk_r>
 800746c:	4580      	cmp	r8, r0
 800746e:	d13a      	bne.n	80074e6 <_malloc_r+0xd2>
 8007470:	6821      	ldr	r1, [r4, #0]
 8007472:	3503      	adds	r5, #3
 8007474:	1a6d      	subs	r5, r5, r1
 8007476:	f025 0503 	bic.w	r5, r5, #3
 800747a:	3508      	adds	r5, #8
 800747c:	2d0c      	cmp	r5, #12
 800747e:	bf38      	it	cc
 8007480:	250c      	movcc	r5, #12
 8007482:	4638      	mov	r0, r7
 8007484:	4629      	mov	r1, r5
 8007486:	f7ff ffa5 	bl	80073d4 <sbrk_aligned>
 800748a:	3001      	adds	r0, #1
 800748c:	d02b      	beq.n	80074e6 <_malloc_r+0xd2>
 800748e:	6823      	ldr	r3, [r4, #0]
 8007490:	442b      	add	r3, r5
 8007492:	6023      	str	r3, [r4, #0]
 8007494:	e00e      	b.n	80074b4 <_malloc_r+0xa0>
 8007496:	6822      	ldr	r2, [r4, #0]
 8007498:	1b52      	subs	r2, r2, r5
 800749a:	d41e      	bmi.n	80074da <_malloc_r+0xc6>
 800749c:	2a0b      	cmp	r2, #11
 800749e:	d916      	bls.n	80074ce <_malloc_r+0xba>
 80074a0:	1961      	adds	r1, r4, r5
 80074a2:	42a3      	cmp	r3, r4
 80074a4:	6025      	str	r5, [r4, #0]
 80074a6:	bf18      	it	ne
 80074a8:	6059      	strne	r1, [r3, #4]
 80074aa:	6863      	ldr	r3, [r4, #4]
 80074ac:	bf08      	it	eq
 80074ae:	6031      	streq	r1, [r6, #0]
 80074b0:	5162      	str	r2, [r4, r5]
 80074b2:	604b      	str	r3, [r1, #4]
 80074b4:	4638      	mov	r0, r7
 80074b6:	f104 060b 	add.w	r6, r4, #11
 80074ba:	f000 fe15 	bl	80080e8 <__malloc_unlock>
 80074be:	f026 0607 	bic.w	r6, r6, #7
 80074c2:	1d23      	adds	r3, r4, #4
 80074c4:	1af2      	subs	r2, r6, r3
 80074c6:	d0b6      	beq.n	8007436 <_malloc_r+0x22>
 80074c8:	1b9b      	subs	r3, r3, r6
 80074ca:	50a3      	str	r3, [r4, r2]
 80074cc:	e7b3      	b.n	8007436 <_malloc_r+0x22>
 80074ce:	6862      	ldr	r2, [r4, #4]
 80074d0:	42a3      	cmp	r3, r4
 80074d2:	bf0c      	ite	eq
 80074d4:	6032      	streq	r2, [r6, #0]
 80074d6:	605a      	strne	r2, [r3, #4]
 80074d8:	e7ec      	b.n	80074b4 <_malloc_r+0xa0>
 80074da:	4623      	mov	r3, r4
 80074dc:	6864      	ldr	r4, [r4, #4]
 80074de:	e7b2      	b.n	8007446 <_malloc_r+0x32>
 80074e0:	4634      	mov	r4, r6
 80074e2:	6876      	ldr	r6, [r6, #4]
 80074e4:	e7b9      	b.n	800745a <_malloc_r+0x46>
 80074e6:	230c      	movs	r3, #12
 80074e8:	4638      	mov	r0, r7
 80074ea:	603b      	str	r3, [r7, #0]
 80074ec:	f000 fdfc 	bl	80080e8 <__malloc_unlock>
 80074f0:	e7a1      	b.n	8007436 <_malloc_r+0x22>
 80074f2:	6025      	str	r5, [r4, #0]
 80074f4:	e7de      	b.n	80074b4 <_malloc_r+0xa0>
 80074f6:	bf00      	nop
 80074f8:	200008c0 	.word	0x200008c0

080074fc <__sfputc_r>:
 80074fc:	6893      	ldr	r3, [r2, #8]
 80074fe:	b410      	push	{r4}
 8007500:	3b01      	subs	r3, #1
 8007502:	2b00      	cmp	r3, #0
 8007504:	6093      	str	r3, [r2, #8]
 8007506:	da07      	bge.n	8007518 <__sfputc_r+0x1c>
 8007508:	6994      	ldr	r4, [r2, #24]
 800750a:	42a3      	cmp	r3, r4
 800750c:	db01      	blt.n	8007512 <__sfputc_r+0x16>
 800750e:	290a      	cmp	r1, #10
 8007510:	d102      	bne.n	8007518 <__sfputc_r+0x1c>
 8007512:	bc10      	pop	{r4}
 8007514:	f000 baf0 	b.w	8007af8 <__swbuf_r>
 8007518:	6813      	ldr	r3, [r2, #0]
 800751a:	1c58      	adds	r0, r3, #1
 800751c:	6010      	str	r0, [r2, #0]
 800751e:	7019      	strb	r1, [r3, #0]
 8007520:	4608      	mov	r0, r1
 8007522:	bc10      	pop	{r4}
 8007524:	4770      	bx	lr

08007526 <__sfputs_r>:
 8007526:	b5f8      	push	{r3, r4, r5, r6, r7, lr}
 8007528:	4606      	mov	r6, r0
 800752a:	460f      	mov	r7, r1
 800752c:	4614      	mov	r4, r2
 800752e:	18d5      	adds	r5, r2, r3
 8007530:	42ac      	cmp	r4, r5
 8007532:	d101      	bne.n	8007538 <__sfputs_r+0x12>
 8007534:	2000      	movs	r0, #0
 8007536:	e007      	b.n	8007548 <__sfputs_r+0x22>
 8007538:	463a      	mov	r2, r7
 800753a:	4630      	mov	r0, r6
 800753c:	f814 1b01 	ldrb.w	r1, [r4], #1
 8007540:	f7ff ffdc 	bl	80074fc <__sfputc_r>
 8007544:	1c43      	adds	r3, r0, #1
 8007546:	d1f3      	bne.n	8007530 <__sfputs_r+0xa>
 8007548:	bdf8      	pop	{r3, r4, r5, r6, r7, pc}
	...

0800754c <_vfiprintf_r>:
 800754c:	e92d 4ff0 	stmdb	sp!, {r4, r5, r6, r7, r8, r9, sl, fp, lr}
 8007550:	460d      	mov	r5, r1
 8007552:	4614      	mov	r4, r2
 8007554:	4698      	mov	r8, r3
 8007556:	4606      	mov	r6, r0
 8007558:	b09d      	sub	sp, #116	; 0x74
 800755a:	b118      	cbz	r0, 8007564 <_vfiprintf_r+0x18>
 800755c:	6983      	ldr	r3, [r0, #24]
 800755e:	b90b      	cbnz	r3, 8007564 <_vfiprintf_r+0x18>
 8007560:	f000 fca8 	bl	8007eb4 <__sinit>
 8007564:	4b89      	ldr	r3, [pc, #548]	; (800778c <_vfiprintf_r+0x240>)
 8007566:	429d      	cmp	r5, r3
 8007568:	d11b      	bne.n	80075a2 <_vfiprintf_r+0x56>
 800756a:	6875      	ldr	r5, [r6, #4]
 800756c:	6e6b      	ldr	r3, [r5, #100]	; 0x64
 800756e:	07d9      	lsls	r1, r3, #31
 8007570:	d405      	bmi.n	800757e <_vfiprintf_r+0x32>
 8007572:	89ab      	ldrh	r3, [r5, #12]
 8007574:	059a      	lsls	r2, r3, #22
 8007576:	d402      	bmi.n	800757e <_vfiprintf_r+0x32>
 8007578:	6da8      	ldr	r0, [r5, #88]	; 0x58
 800757a:	f000 fd39 	bl	8007ff0 <__retarget_lock_acquire_recursive>
 800757e:	89ab      	ldrh	r3, [r5, #12]
 8007580:	071b      	lsls	r3, r3, #28
 8007582:	d501      	bpl.n	8007588 <_vfiprintf_r+0x3c>
 8007584:	692b      	ldr	r3, [r5, #16]
 8007586:	b9eb      	cbnz	r3, 80075c4 <_vfiprintf_r+0x78>
 8007588:	4629      	mov	r1, r5
 800758a:	4630      	mov	r0, r6
 800758c:	f000 fb06 	bl	8007b9c <__swsetup_r>
 8007590:	b1c0      	cbz	r0, 80075c4 <_vfiprintf_r+0x78>
 8007592:	6e6b      	ldr	r3, [r5, #100]	; 0x64
 8007594:	07dc      	lsls	r4, r3, #31
 8007596:	d50e      	bpl.n	80075b6 <_vfiprintf_r+0x6a>
 8007598:	f04f 30ff 	mov.w	r0, #4294967295
 800759c:	b01d      	add	sp, #116	; 0x74
 800759e:	e8bd 8ff0 	ldmia.w	sp!, {r4, r5, r6, r7, r8, r9, sl, fp, pc}
 80075a2:	4b7b      	ldr	r3, [pc, #492]	; (8007790 <_vfiprintf_r+0x244>)
 80075a4:	429d      	cmp	r5, r3
 80075a6:	d101      	bne.n	80075ac <_vfiprintf_r+0x60>
 80075a8:	68b5      	ldr	r5, [r6, #8]
 80075aa:	e7df      	b.n	800756c <_vfiprintf_r+0x20>
 80075ac:	4b79      	ldr	r3, [pc, #484]	; (8007794 <_vfiprintf_r+0x248>)
 80075ae:	429d      	cmp	r5, r3
 80075b0:	bf08      	it	eq
 80075b2:	68f5      	ldreq	r5, [r6, #12]
 80075b4:	e7da      	b.n	800756c <_vfiprintf_r+0x20>
 80075b6:	89ab      	ldrh	r3, [r5, #12]
 80075b8:	0598      	lsls	r0, r3, #22
 80075ba:	d4ed      	bmi.n	8007598 <_vfiprintf_r+0x4c>
 80075bc:	6da8      	ldr	r0, [r5, #88]	; 0x58
 80075be:	f000 fd18 	bl	8007ff2 <__retarget_lock_release_recursive>
 80075c2:	e7e9      	b.n	8007598 <_vfiprintf_r+0x4c>
 80075c4:	2300      	movs	r3, #0
 80075c6:	9309      	str	r3, [sp, #36]	; 0x24
 80075c8:	2320      	movs	r3, #32
 80075ca:	f88d 3029 	strb.w	r3, [sp, #41]	; 0x29
 80075ce:	2330      	movs	r3, #48	; 0x30
 80075d0:	f04f 0901 	mov.w	r9, #1
 80075d4:	f8cd 800c 	str.w	r8, [sp, #12]
 80075d8:	f8df 81bc 	ldr.w	r8, [pc, #444]	; 8007798 <_vfiprintf_r+0x24c>
 80075dc:	f88d 302a 	strb.w	r3, [sp, #42]	; 0x2a
 80075e0:	4623      	mov	r3, r4
 80075e2:	469a      	mov	sl, r3
 80075e4:	f813 2b01 	ldrb.w	r2, [r3], #1
 80075e8:	b10a      	cbz	r2, 80075ee <_vfiprintf_r+0xa2>
 80075ea:	2a25      	cmp	r2, #37	; 0x25
 80075ec:	d1f9      	bne.n	80075e2 <_vfiprintf_r+0x96>
 80075ee:	ebba 0b04 	subs.w	fp, sl, r4
 80075f2:	d00b      	beq.n	800760c <_vfiprintf_r+0xc0>
 80075f4:	465b      	mov	r3, fp
 80075f6:	4622      	mov	r2, r4
 80075f8:	4629      	mov	r1, r5
 80075fa:	4630      	mov	r0, r6
 80075fc:	f7ff ff93 	bl	8007526 <__sfputs_r>
 8007600:	3001      	adds	r0, #1
 8007602:	f000 80aa 	beq.w	800775a <_vfiprintf_r+0x20e>
 8007606:	9a09      	ldr	r2, [sp, #36]	; 0x24
 8007608:	445a      	add	r2, fp
 800760a:	9209      	str	r2, [sp, #36]	; 0x24
 800760c:	f89a 3000 	ldrb.w	r3, [sl]
 8007610:	2b00      	cmp	r3, #0
 8007612:	f000 80a2 	beq.w	800775a <_vfiprintf_r+0x20e>
 8007616:	2300      	movs	r3, #0
 8007618:	f04f 32ff 	mov.w	r2, #4294967295
 800761c:	e9cd 2305 	strd	r2, r3, [sp, #20]
 8007620:	f10a 0a01 	add.w	sl, sl, #1
 8007624:	9304      	str	r3, [sp, #16]
 8007626:	9307      	str	r3, [sp, #28]
 8007628:	f88d 3053 	strb.w	r3, [sp, #83]	; 0x53
 800762c:	931a      	str	r3, [sp, #104]	; 0x68
 800762e:	4654      	mov	r4, sl
 8007630:	2205      	movs	r2, #5
 8007632:	f814 1b01 	ldrb.w	r1, [r4], #1
 8007636:	4858      	ldr	r0, [pc, #352]	; (8007798 <_vfiprintf_r+0x24c>)
 8007638:	f000 fd42 	bl	80080c0 <memchr>
 800763c:	9a04      	ldr	r2, [sp, #16]
 800763e:	b9d8      	cbnz	r0, 8007678 <_vfiprintf_r+0x12c>
 8007640:	06d1      	lsls	r1, r2, #27
 8007642:	bf44      	itt	mi
 8007644:	2320      	movmi	r3, #32
 8007646:	f88d 3053 	strbmi.w	r3, [sp, #83]	; 0x53
 800764a:	0713      	lsls	r3, r2, #28
 800764c:	bf44      	itt	mi
 800764e:	232b      	movmi	r3, #43	; 0x2b
 8007650:	f88d 3053 	strbmi.w	r3, [sp, #83]	; 0x53
 8007654:	f89a 3000 	ldrb.w	r3, [sl]
 8007658:	2b2a      	cmp	r3, #42	; 0x2a
 800765a:	d015      	beq.n	8007688 <_vfiprintf_r+0x13c>
 800765c:	4654      	mov	r4, sl
 800765e:	2000      	movs	r0, #0
 8007660:	f04f 0c0a 	mov.w	ip, #10
 8007664:	9a07      	ldr	r2, [sp, #28]
 8007666:	4621      	mov	r1, r4
 8007668:	f811 3b01 	ldrb.w	r3, [r1], #1
 800766c:	3b30      	subs	r3, #48	; 0x30
 800766e:	2b09      	cmp	r3, #9
 8007670:	d94e      	bls.n	8007710 <_vfiprintf_r+0x1c4>
 8007672:	b1b0      	cbz	r0, 80076a2 <_vfiprintf_r+0x156>
 8007674:	9207      	str	r2, [sp, #28]
 8007676:	e014      	b.n	80076a2 <_vfiprintf_r+0x156>
 8007678:	eba0 0308 	sub.w	r3, r0, r8
 800767c:	fa09 f303 	lsl.w	r3, r9, r3
 8007680:	4313      	orrs	r3, r2
 8007682:	46a2      	mov	sl, r4
 8007684:	9304      	str	r3, [sp, #16]
 8007686:	e7d2      	b.n	800762e <_vfiprintf_r+0xe2>
 8007688:	9b03      	ldr	r3, [sp, #12]
 800768a:	1d19      	adds	r1, r3, #4
 800768c:	681b      	ldr	r3, [r3, #0]
 800768e:	9103      	str	r1, [sp, #12]
 8007690:	2b00      	cmp	r3, #0
 8007692:	bfbb      	ittet	lt
 8007694:	425b      	neglt	r3, r3
 8007696:	f042 0202 	orrlt.w	r2, r2, #2
 800769a:	9307      	strge	r3, [sp, #28]
 800769c:	9307      	strlt	r3, [sp, #28]
 800769e:	bfb8      	it	lt
 80076a0:	9204      	strlt	r2, [sp, #16]
 80076a2:	7823      	ldrb	r3, [r4, #0]
 80076a4:	2b2e      	cmp	r3, #46	; 0x2e
 80076a6:	d10c      	bne.n	80076c2 <_vfiprintf_r+0x176>
 80076a8:	7863      	ldrb	r3, [r4, #1]
 80076aa:	2b2a      	cmp	r3, #42	; 0x2a
 80076ac:	d135      	bne.n	800771a <_vfiprintf_r+0x1ce>
 80076ae:	9b03      	ldr	r3, [sp, #12]
 80076b0:	3402      	adds	r4, #2
 80076b2:	1d1a      	adds	r2, r3, #4
 80076b4:	681b      	ldr	r3, [r3, #0]
 80076b6:	9203      	str	r2, [sp, #12]
 80076b8:	2b00      	cmp	r3, #0
 80076ba:	bfb8      	it	lt
 80076bc:	f04f 33ff 	movlt.w	r3, #4294967295
 80076c0:	9305      	str	r3, [sp, #20]
 80076c2:	f8df a0d8 	ldr.w	sl, [pc, #216]	; 800779c <_vfiprintf_r+0x250>
 80076c6:	2203      	movs	r2, #3
 80076c8:	4650      	mov	r0, sl
 80076ca:	7821      	ldrb	r1, [r4, #0]
 80076cc:	f000 fcf8 	bl	80080c0 <memchr>
 80076d0:	b140      	cbz	r0, 80076e4 <_vfiprintf_r+0x198>
 80076d2:	2340      	movs	r3, #64	; 0x40
 80076d4:	eba0 000a 	sub.w	r0, r0, sl
 80076d8:	fa03 f000 	lsl.w	r0, r3, r0
 80076dc:	9b04      	ldr	r3, [sp, #16]
 80076de:	3401      	adds	r4, #1
 80076e0:	4303      	orrs	r3, r0
 80076e2:	9304      	str	r3, [sp, #16]
 80076e4:	f814 1b01 	ldrb.w	r1, [r4], #1
 80076e8:	2206      	movs	r2, #6
 80076ea:	482d      	ldr	r0, [pc, #180]	; (80077a0 <_vfiprintf_r+0x254>)
 80076ec:	f88d 1028 	strb.w	r1, [sp, #40]	; 0x28
 80076f0:	f000 fce6 	bl	80080c0 <memchr>
 80076f4:	2800      	cmp	r0, #0
 80076f6:	d03f      	beq.n	8007778 <_vfiprintf_r+0x22c>
 80076f8:	4b2a      	ldr	r3, [pc, #168]	; (80077a4 <_vfiprintf_r+0x258>)
 80076fa:	bb1b      	cbnz	r3, 8007744 <_vfiprintf_r+0x1f8>
 80076fc:	9b03      	ldr	r3, [sp, #12]
 80076fe:	3307      	adds	r3, #7
 8007700:	f023 0307 	bic.w	r3, r3, #7
 8007704:	3308      	adds	r3, #8
 8007706:	9303      	str	r3, [sp, #12]
 8007708:	9b09      	ldr	r3, [sp, #36]	; 0x24
 800770a:	443b      	add	r3, r7
 800770c:	9309      	str	r3, [sp, #36]	; 0x24
 800770e:	e767      	b.n	80075e0 <_vfiprintf_r+0x94>
 8007710:	460c      	mov	r4, r1
 8007712:	2001      	movs	r0, #1
 8007714:	fb0c 3202 	mla	r2, ip, r2, r3
 8007718:	e7a5      	b.n	8007666 <_vfiprintf_r+0x11a>
 800771a:	2300      	movs	r3, #0
 800771c:	f04f 0c0a 	mov.w	ip, #10
 8007720:	4619      	mov	r1, r3
 8007722:	3401      	adds	r4, #1
 8007724:	9305      	str	r3, [sp, #20]
 8007726:	4620      	mov	r0, r4
 8007728:	f810 2b01 	ldrb.w	r2, [r0], #1
 800772c:	3a30      	subs	r2, #48	; 0x30
 800772e:	2a09      	cmp	r2, #9
 8007730:	d903      	bls.n	800773a <_vfiprintf_r+0x1ee>
 8007732:	2b00      	cmp	r3, #0
 8007734:	d0c5      	beq.n	80076c2 <_vfiprintf_r+0x176>
 8007736:	9105      	str	r1, [sp, #20]
 8007738:	e7c3      	b.n	80076c2 <_vfiprintf_r+0x176>
 800773a:	4604      	mov	r4, r0
 800773c:	2301      	movs	r3, #1
 800773e:	fb0c 2101 	mla	r1, ip, r1, r2
 8007742:	e7f0      	b.n	8007726 <_vfiprintf_r+0x1da>
 8007744:	ab03      	add	r3, sp, #12
 8007746:	9300      	str	r3, [sp, #0]
 8007748:	462a      	mov	r2, r5
 800774a:	4630      	mov	r0, r6
 800774c:	4b16      	ldr	r3, [pc, #88]	; (80077a8 <_vfiprintf_r+0x25c>)
 800774e:	a904      	add	r1, sp, #16
 8007750:	f3af 8000 	nop.w
 8007754:	4607      	mov	r7, r0
 8007756:	1c78      	adds	r0, r7, #1
 8007758:	d1d6      	bne.n	8007708 <_vfiprintf_r+0x1bc>
 800775a:	6e6b      	ldr	r3, [r5, #100]	; 0x64
 800775c:	07d9      	lsls	r1, r3, #31
 800775e:	d405      	bmi.n	800776c <_vfiprintf_r+0x220>
 8007760:	89ab      	ldrh	r3, [r5, #12]
 8007762:	059a      	lsls	r2, r3, #22
 8007764:	d402      	bmi.n	800776c <_vfiprintf_r+0x220>
 8007766:	6da8      	ldr	r0, [r5, #88]	; 0x58
 8007768:	f000 fc43 	bl	8007ff2 <__retarget_lock_release_recursive>
 800776c:	89ab      	ldrh	r3, [r5, #12]
 800776e:	065b      	lsls	r3, r3, #25
 8007770:	f53f af12 	bmi.w	8007598 <_vfiprintf_r+0x4c>
 8007774:	9809      	ldr	r0, [sp, #36]	; 0x24
 8007776:	e711      	b.n	800759c <_vfiprintf_r+0x50>
 8007778:	ab03      	add	r3, sp, #12
 800777a:	9300      	str	r3, [sp, #0]
 800777c:	462a      	mov	r2, r5
 800777e:	4630      	mov	r0, r6
 8007780:	4b09      	ldr	r3, [pc, #36]	; (80077a8 <_vfiprintf_r+0x25c>)
 8007782:	a904      	add	r1, sp, #16
 8007784:	f000 f882 	bl	800788c <_printf_i>
 8007788:	e7e4      	b.n	8007754 <_vfiprintf_r+0x208>
 800778a:	bf00      	nop
 800778c:	0800a13c 	.word	0x0800a13c
 8007790:	0800a15c 	.word	0x0800a15c
 8007794:	0800a11c 	.word	0x0800a11c
 8007798:	0800a0e6 	.word	0x0800a0e6
 800779c:	0800a0ec 	.word	0x0800a0ec
 80077a0:	0800a0f0 	.word	0x0800a0f0
 80077a4:	00000000 	.word	0x00000000
 80077a8:	08007527 	.word	0x08007527

080077ac <_printf_common>:
 80077ac:	e92d 47f0 	stmdb	sp!, {r4, r5, r6, r7, r8, r9, sl, lr}
 80077b0:	4616      	mov	r6, r2
 80077b2:	4699      	mov	r9, r3
 80077b4:	688a      	ldr	r2, [r1, #8]
 80077b6:	690b      	ldr	r3, [r1, #16]
 80077b8:	4607      	mov	r7, r0
 80077ba:	4293      	cmp	r3, r2
 80077bc:	bfb8      	it	lt
 80077be:	4613      	movlt	r3, r2
 80077c0:	6033      	str	r3, [r6, #0]
 80077c2:	f891 2043 	ldrb.w	r2, [r1, #67]	; 0x43
 80077c6:	460c      	mov	r4, r1
 80077c8:	f8dd 8020 	ldr.w	r8, [sp, #32]
 80077cc:	b10a      	cbz	r2, 80077d2 <_printf_common+0x26>
 80077ce:	3301      	adds	r3, #1
 80077d0:	6033      	str	r3, [r6, #0]
 80077d2:	6823      	ldr	r3, [r4, #0]
 80077d4:	0699      	lsls	r1, r3, #26
 80077d6:	bf42      	ittt	mi
 80077d8:	6833      	ldrmi	r3, [r6, #0]
 80077da:	3302      	addmi	r3, #2
 80077dc:	6033      	strmi	r3, [r6, #0]
 80077de:	6825      	ldr	r5, [r4, #0]
 80077e0:	f015 0506 	ands.w	r5, r5, #6
 80077e4:	d106      	bne.n	80077f4 <_printf_common+0x48>
 80077e6:	f104 0a19 	add.w	sl, r4, #25
 80077ea:	68e3      	ldr	r3, [r4, #12]
 80077ec:	6832      	ldr	r2, [r6, #0]
 80077ee:	1a9b      	subs	r3, r3, r2
 80077f0:	42ab      	cmp	r3, r5
 80077f2:	dc28      	bgt.n	8007846 <_printf_common+0x9a>
 80077f4:	f894 2043 	ldrb.w	r2, [r4, #67]	; 0x43
 80077f8:	1e13      	subs	r3, r2, #0
 80077fa:	6822      	ldr	r2, [r4, #0]
 80077fc:	bf18      	it	ne
 80077fe:	2301      	movne	r3, #1
 8007800:	0692      	lsls	r2, r2, #26
 8007802:	d42d      	bmi.n	8007860 <_printf_common+0xb4>
 8007804:	4649      	mov	r1, r9
 8007806:	4638      	mov	r0, r7
 8007808:	f104 0243 	add.w	r2, r4, #67	; 0x43
 800780c:	47c0      	blx	r8
 800780e:	3001      	adds	r0, #1
 8007810:	d020      	beq.n	8007854 <_printf_common+0xa8>
 8007812:	6823      	ldr	r3, [r4, #0]
 8007814:	68e5      	ldr	r5, [r4, #12]
 8007816:	f003 0306 	and.w	r3, r3, #6
 800781a:	2b04      	cmp	r3, #4
 800781c:	bf18      	it	ne
 800781e:	2500      	movne	r5, #0
 8007820:	6832      	ldr	r2, [r6, #0]
 8007822:	f04f 0600 	mov.w	r6, #0
 8007826:	68a3      	ldr	r3, [r4, #8]
 8007828:	bf08      	it	eq
 800782a:	1aad      	subeq	r5, r5, r2
 800782c:	6922      	ldr	r2, [r4, #16]
 800782e:	bf08      	it	eq
 8007830:	ea25 75e5 	biceq.w	r5, r5, r5, asr #31
 8007834:	4293      	cmp	r3, r2
 8007836:	bfc4      	itt	gt
 8007838:	1a9b      	subgt	r3, r3, r2
 800783a:	18ed      	addgt	r5, r5, r3
 800783c:	341a      	adds	r4, #26
 800783e:	42b5      	cmp	r5, r6
 8007840:	d11a      	bne.n	8007878 <_printf_common+0xcc>
 8007842:	2000      	movs	r0, #0
 8007844:	e008      	b.n	8007858 <_printf_common+0xac>
 8007846:	2301      	movs	r3, #1
 8007848:	4652      	mov	r2, sl
 800784a:	4649      	mov	r1, r9
 800784c:	4638      	mov	r0, r7
 800784e:	47c0      	blx	r8
 8007850:	3001      	adds	r0, #1
 8007852:	d103      	bne.n	800785c <_printf_common+0xb0>
 8007854:	f04f 30ff 	mov.w	r0, #4294967295
 8007858:	e8bd 87f0 	ldmia.w	sp!, {r4, r5, r6, r7, r8, r9, sl, pc}
 800785c:	3501      	adds	r5, #1
 800785e:	e7c4      	b.n	80077ea <_printf_common+0x3e>
 8007860:	2030      	movs	r0, #48	; 0x30
 8007862:	18e1      	adds	r1, r4, r3
 8007864:	f881 0043 	strb.w	r0, [r1, #67]	; 0x43
 8007868:	1c5a      	adds	r2, r3, #1
 800786a:	f894 1045 	ldrb.w	r1, [r4, #69]	; 0x45
 800786e:	4422      	add	r2, r4
 8007870:	3302      	adds	r3, #2
 8007872:	f882 1043 	strb.w	r1, [r2, #67]	; 0x43
 8007876:	e7c5      	b.n	8007804 <_printf_common+0x58>
 8007878:	2301      	movs	r3, #1
 800787a:	4622      	mov	r2, r4
 800787c:	4649      	mov	r1, r9
 800787e:	4638      	mov	r0, r7
 8007880:	47c0      	blx	r8
 8007882:	3001      	adds	r0, #1
 8007884:	d0e6      	beq.n	8007854 <_printf_common+0xa8>
 8007886:	3601      	adds	r6, #1
 8007888:	e7d9      	b.n	800783e <_printf_common+0x92>
	...

0800788c <_printf_i>:
 800788c:	e92d 47ff 	stmdb	sp!, {r0, r1, r2, r3, r4, r5, r6, r7, r8, r9, sl, lr}
 8007890:	7e0f      	ldrb	r7, [r1, #24]
 8007892:	4691      	mov	r9, r2
 8007894:	2f78      	cmp	r7, #120	; 0x78
 8007896:	4680      	mov	r8, r0
 8007898:	460c      	mov	r4, r1
 800789a:	469a      	mov	sl, r3
 800789c:	9d0c      	ldr	r5, [sp, #48]	; 0x30
 800789e:	f101 0243 	add.w	r2, r1, #67	; 0x43
 80078a2:	d807      	bhi.n	80078b4 <_printf_i+0x28>
 80078a4:	2f62      	cmp	r7, #98	; 0x62
 80078a6:	d80a      	bhi.n	80078be <_printf_i+0x32>
 80078a8:	2f00      	cmp	r7, #0
 80078aa:	f000 80d9 	beq.w	8007a60 <_printf_i+0x1d4>
 80078ae:	2f58      	cmp	r7, #88	; 0x58
 80078b0:	f000 80a4 	beq.w	80079fc <_printf_i+0x170>
 80078b4:	f104 0542 	add.w	r5, r4, #66	; 0x42
 80078b8:	f884 7042 	strb.w	r7, [r4, #66]	; 0x42
 80078bc:	e03a      	b.n	8007934 <_printf_i+0xa8>
 80078be:	f1a7 0363 	sub.w	r3, r7, #99	; 0x63
 80078c2:	2b15      	cmp	r3, #21
 80078c4:	d8f6      	bhi.n	80078b4 <_printf_i+0x28>
 80078c6:	a101      	add	r1, pc, #4	; (adr r1, 80078cc <_printf_i+0x40>)
 80078c8:	f851 f023 	ldr.w	pc, [r1, r3, lsl #2]
 80078cc:	08007925 	.word	0x08007925
 80078d0:	08007939 	.word	0x08007939
 80078d4:	080078b5 	.word	0x080078b5
 80078d8:	080078b5 	.word	0x080078b5
 80078dc:	080078b5 	.word	0x080078b5
 80078e0:	080078b5 	.word	0x080078b5
 80078e4:	08007939 	.word	0x08007939
 80078e8:	080078b5 	.word	0x080078b5
 80078ec:	080078b5 	.word	0x080078b5
 80078f0:	080078b5 	.word	0x080078b5
 80078f4:	080078b5 	.word	0x080078b5
 80078f8:	08007a47 	.word	0x08007a47
 80078fc:	08007969 	.word	0x08007969
 8007900:	08007a29 	.word	0x08007a29
 8007904:	080078b5 	.word	0x080078b5
 8007908:	080078b5 	.word	0x080078b5
 800790c:	08007a69 	.word	0x08007a69
 8007910:	080078b5 	.word	0x080078b5
 8007914:	08007969 	.word	0x08007969
 8007918:	080078b5 	.word	0x080078b5
 800791c:	080078b5 	.word	0x080078b5
 8007920:	08007a31 	.word	0x08007a31
 8007924:	682b      	ldr	r3, [r5, #0]
 8007926:	1d1a      	adds	r2, r3, #4
 8007928:	681b      	ldr	r3, [r3, #0]
 800792a:	602a      	str	r2, [r5, #0]
 800792c:	f104 0542 	add.w	r5, r4, #66	; 0x42
 8007930:	f884 3042 	strb.w	r3, [r4, #66]	; 0x42
 8007934:	2301      	movs	r3, #1
 8007936:	e0a4      	b.n	8007a82 <_printf_i+0x1f6>
 8007938:	6820      	ldr	r0, [r4, #0]
 800793a:	6829      	ldr	r1, [r5, #0]
 800793c:	0606      	lsls	r6, r0, #24
 800793e:	f101 0304 	add.w	r3, r1, #4
 8007942:	d50a      	bpl.n	800795a <_printf_i+0xce>
 8007944:	680e      	ldr	r6, [r1, #0]
 8007946:	602b      	str	r3, [r5, #0]
 8007948:	2e00      	cmp	r6, #0
 800794a:	da03      	bge.n	8007954 <_printf_i+0xc8>
 800794c:	232d      	movs	r3, #45	; 0x2d
 800794e:	4276      	negs	r6, r6
 8007950:	f884 3043 	strb.w	r3, [r4, #67]	; 0x43
 8007954:	230a      	movs	r3, #10
 8007956:	485e      	ldr	r0, [pc, #376]	; (8007ad0 <_printf_i+0x244>)
 8007958:	e019      	b.n	800798e <_printf_i+0x102>
 800795a:	680e      	ldr	r6, [r1, #0]
 800795c:	f010 0f40 	tst.w	r0, #64	; 0x40
 8007960:	602b      	str	r3, [r5, #0]
 8007962:	bf18      	it	ne
 8007964:	b236      	sxthne	r6, r6
 8007966:	e7ef      	b.n	8007948 <_printf_i+0xbc>
 8007968:	682b      	ldr	r3, [r5, #0]
 800796a:	6820      	ldr	r0, [r4, #0]
 800796c:	1d19      	adds	r1, r3, #4
 800796e:	6029      	str	r1, [r5, #0]
 8007970:	0601      	lsls	r1, r0, #24
 8007972:	d501      	bpl.n	8007978 <_printf_i+0xec>
 8007974:	681e      	ldr	r6, [r3, #0]
 8007976:	e002      	b.n	800797e <_printf_i+0xf2>
 8007978:	0646      	lsls	r6, r0, #25
 800797a:	d5fb      	bpl.n	8007974 <_printf_i+0xe8>
 800797c:	881e      	ldrh	r6, [r3, #0]
 800797e:	2f6f      	cmp	r7, #111	; 0x6f
 8007980:	bf0c      	ite	eq
 8007982:	2308      	moveq	r3, #8
 8007984:	230a      	movne	r3, #10
 8007986:	4852      	ldr	r0, [pc, #328]	; (8007ad0 <_printf_i+0x244>)
 8007988:	2100      	movs	r1, #0
 800798a:	f884 1043 	strb.w	r1, [r4, #67]	; 0x43
 800798e:	6865      	ldr	r5, [r4, #4]
 8007990:	2d00      	cmp	r5, #0
 8007992:	bfa8      	it	ge
 8007994:	6821      	ldrge	r1, [r4, #0]
 8007996:	60a5      	str	r5, [r4, #8]
 8007998:	bfa4      	itt	ge
 800799a:	f021 0104 	bicge.w	r1, r1, #4
 800799e:	6021      	strge	r1, [r4, #0]
 80079a0:	b90e      	cbnz	r6, 80079a6 <_printf_i+0x11a>
 80079a2:	2d00      	cmp	r5, #0
 80079a4:	d04d      	beq.n	8007a42 <_printf_i+0x1b6>
 80079a6:	4615      	mov	r5, r2
 80079a8:	fbb6 f1f3 	udiv	r1, r6, r3
 80079ac:	fb03 6711 	mls	r7, r3, r1, r6
 80079b0:	5dc7      	ldrb	r7, [r0, r7]
 80079b2:	f805 7d01 	strb.w	r7, [r5, #-1]!
 80079b6:	4637      	mov	r7, r6
 80079b8:	42bb      	cmp	r3, r7
 80079ba:	460e      	mov	r6, r1
 80079bc:	d9f4      	bls.n	80079a8 <_printf_i+0x11c>
 80079be:	2b08      	cmp	r3, #8
 80079c0:	d10b      	bne.n	80079da <_printf_i+0x14e>
 80079c2:	6823      	ldr	r3, [r4, #0]
 80079c4:	07de      	lsls	r6, r3, #31
 80079c6:	d508      	bpl.n	80079da <_printf_i+0x14e>
 80079c8:	6923      	ldr	r3, [r4, #16]
 80079ca:	6861      	ldr	r1, [r4, #4]
 80079cc:	4299      	cmp	r1, r3
 80079ce:	bfde      	ittt	le
 80079d0:	2330      	movle	r3, #48	; 0x30
 80079d2:	f805 3c01 	strble.w	r3, [r5, #-1]
 80079d6:	f105 35ff 	addle.w	r5, r5, #4294967295
 80079da:	1b52      	subs	r2, r2, r5
 80079dc:	6122      	str	r2, [r4, #16]
 80079de:	464b      	mov	r3, r9
 80079e0:	4621      	mov	r1, r4
 80079e2:	4640      	mov	r0, r8
 80079e4:	f8cd a000 	str.w	sl, [sp]
 80079e8:	aa03      	add	r2, sp, #12
 80079ea:	f7ff fedf 	bl	80077ac <_printf_common>
 80079ee:	3001      	adds	r0, #1
 80079f0:	d14c      	bne.n	8007a8c <_printf_i+0x200>
 80079f2:	f04f 30ff 	mov.w	r0, #4294967295
 80079f6:	b004      	add	sp, #16
 80079f8:	e8bd 87f0 	ldmia.w	sp!, {r4, r5, r6, r7, r8, r9, sl, pc}
 80079fc:	4834      	ldr	r0, [pc, #208]	; (8007ad0 <_printf_i+0x244>)
 80079fe:	f881 7045 	strb.w	r7, [r1, #69]	; 0x45
 8007a02:	6829      	ldr	r1, [r5, #0]
 8007a04:	6823      	ldr	r3, [r4, #0]
 8007a06:	f851 6b04 	ldr.w	r6, [r1], #4
 8007a0a:	6029      	str	r1, [r5, #0]
 8007a0c:	061d      	lsls	r5, r3, #24
 8007a0e:	d514      	bpl.n	8007a3a <_printf_i+0x1ae>
 8007a10:	07df      	lsls	r7, r3, #31
 8007a12:	bf44      	itt	mi
 8007a14:	f043 0320 	orrmi.w	r3, r3, #32
 8007a18:	6023      	strmi	r3, [r4, #0]
 8007a1a:	b91e      	cbnz	r6, 8007a24 <_printf_i+0x198>
 8007a1c:	6823      	ldr	r3, [r4, #0]
 8007a1e:	f023 0320 	bic.w	r3, r3, #32
 8007a22:	6023      	str	r3, [r4, #0]
 8007a24:	2310      	movs	r3, #16
 8007a26:	e7af      	b.n	8007988 <_printf_i+0xfc>
 8007a28:	6823      	ldr	r3, [r4, #0]
 8007a2a:	f043 0320 	orr.w	r3, r3, #32
 8007a2e:	6023      	str	r3, [r4, #0]
 8007a30:	2378      	movs	r3, #120	; 0x78
 8007a32:	4828      	ldr	r0, [pc, #160]	; (8007ad4 <_printf_i+0x248>)
 8007a34:	f884 3045 	strb.w	r3, [r4, #69]	; 0x45
 8007a38:	e7e3      	b.n	8007a02 <_printf_i+0x176>
 8007a3a:	0659      	lsls	r1, r3, #25
 8007a3c:	bf48      	it	mi
 8007a3e:	b2b6      	uxthmi	r6, r6
 8007a40:	e7e6      	b.n	8007a10 <_printf_i+0x184>
 8007a42:	4615      	mov	r5, r2
 8007a44:	e7bb      	b.n	80079be <_printf_i+0x132>
 8007a46:	682b      	ldr	r3, [r5, #0]
 8007a48:	6826      	ldr	r6, [r4, #0]
 8007a4a:	1d18      	adds	r0, r3, #4
 8007a4c:	6961      	ldr	r1, [r4, #20]
 8007a4e:	6028      	str	r0, [r5, #0]
 8007a50:	0635      	lsls	r5, r6, #24
 8007a52:	681b      	ldr	r3, [r3, #0]
 8007a54:	d501      	bpl.n	8007a5a <_printf_i+0x1ce>
 8007a56:	6019      	str	r1, [r3, #0]
 8007a58:	e002      	b.n	8007a60 <_printf_i+0x1d4>
 8007a5a:	0670      	lsls	r0, r6, #25
 8007a5c:	d5fb      	bpl.n	8007a56 <_printf_i+0x1ca>
 8007a5e:	8019      	strh	r1, [r3, #0]
 8007a60:	2300      	movs	r3, #0
 8007a62:	4615      	mov	r5, r2
 8007a64:	6123      	str	r3, [r4, #16]
 8007a66:	e7ba      	b.n	80079de <_printf_i+0x152>
 8007a68:	682b      	ldr	r3, [r5, #0]
 8007a6a:	2100      	movs	r1, #0
 8007a6c:	1d1a      	adds	r2, r3, #4
 8007a6e:	602a      	str	r2, [r5, #0]
 8007a70:	681d      	ldr	r5, [r3, #0]
 8007a72:	6862      	ldr	r2, [r4, #4]
 8007a74:	4628      	mov	r0, r5
 8007a76:	f000 fb23 	bl	80080c0 <memchr>
 8007a7a:	b108      	cbz	r0, 8007a80 <_printf_i+0x1f4>
 8007a7c:	1b40      	subs	r0, r0, r5
 8007a7e:	6060      	str	r0, [r4, #4]
 8007a80:	6863      	ldr	r3, [r4, #4]
 8007a82:	6123      	str	r3, [r4, #16]
 8007a84:	2300      	movs	r3, #0
 8007a86:	f884 3043 	strb.w	r3, [r4, #67]	; 0x43
 8007a8a:	e7a8      	b.n	80079de <_printf_i+0x152>
 8007a8c:	462a      	mov	r2, r5
 8007a8e:	4649      	mov	r1, r9
 8007a90:	4640      	mov	r0, r8
 8007a92:	6923      	ldr	r3, [r4, #16]
 8007a94:	47d0      	blx	sl
 8007a96:	3001      	adds	r0, #1
 8007a98:	d0ab      	beq.n	80079f2 <_printf_i+0x166>
 8007a9a:	6823      	ldr	r3, [r4, #0]
 8007a9c:	079b      	lsls	r3, r3, #30
 8007a9e:	d413      	bmi.n	8007ac8 <_printf_i+0x23c>
 8007aa0:	68e0      	ldr	r0, [r4, #12]
 8007aa2:	9b03      	ldr	r3, [sp, #12]
 8007aa4:	4298      	cmp	r0, r3
 8007aa6:	bfb8      	it	lt
 8007aa8:	4618      	movlt	r0, r3
 8007aaa:	e7a4      	b.n	80079f6 <_printf_i+0x16a>
 8007aac:	2301      	movs	r3, #1
 8007aae:	4632      	mov	r2, r6
 8007ab0:	4649      	mov	r1, r9
 8007ab2:	4640      	mov	r0, r8
 8007ab4:	47d0      	blx	sl
 8007ab6:	3001      	adds	r0, #1
 8007ab8:	d09b      	beq.n	80079f2 <_printf_i+0x166>
 8007aba:	3501      	adds	r5, #1
 8007abc:	68e3      	ldr	r3, [r4, #12]
 8007abe:	9903      	ldr	r1, [sp, #12]
 8007ac0:	1a5b      	subs	r3, r3, r1
 8007ac2:	42ab      	cmp	r3, r5
 8007ac4:	dcf2      	bgt.n	8007aac <_printf_i+0x220>
 8007ac6:	e7eb      	b.n	8007aa0 <_printf_i+0x214>
 8007ac8:	2500      	movs	r5, #0
 8007aca:	f104 0619 	add.w	r6, r4, #25
 8007ace:	e7f5      	b.n	8007abc <_printf_i+0x230>
 8007ad0:	0800a0f7 	.word	0x0800a0f7
 8007ad4:	0800a108 	.word	0x0800a108

08007ad8 <_sbrk_r>:
 8007ad8:	b538      	push	{r3, r4, r5, lr}
 8007ada:	2300      	movs	r3, #0
 8007adc:	4d05      	ldr	r5, [pc, #20]	; (8007af4 <_sbrk_r+0x1c>)
 8007ade:	4604      	mov	r4, r0
 8007ae0:	4608      	mov	r0, r1
 8007ae2:	602b      	str	r3, [r5, #0]
 8007ae4:	f7fb f930 	bl	8002d48 <_sbrk>
 8007ae8:	1c43      	adds	r3, r0, #1
 8007aea:	d102      	bne.n	8007af2 <_sbrk_r+0x1a>
 8007aec:	682b      	ldr	r3, [r5, #0]
 8007aee:	b103      	cbz	r3, 8007af2 <_sbrk_r+0x1a>
 8007af0:	6023      	str	r3, [r4, #0]
 8007af2:	bd38      	pop	{r3, r4, r5, pc}
 8007af4:	200008cc 	.word	0x200008cc

08007af8 <__swbuf_r>:
 8007af8:	b5f8      	push	{r3, r4, r5, r6, r7, lr}
 8007afa:	460e      	mov	r6, r1
 8007afc:	4614      	mov	r4, r2
 8007afe:	4605      	mov	r5, r0
 8007b00:	b118      	cbz	r0, 8007b0a <__swbuf_r+0x12>
 8007b02:	6983      	ldr	r3, [r0, #24]
 8007b04:	b90b      	cbnz	r3, 8007b0a <__swbuf_r+0x12>
 8007b06:	f000 f9d5 	bl	8007eb4 <__sinit>
 8007b0a:	4b21      	ldr	r3, [pc, #132]	; (8007b90 <__swbuf_r+0x98>)
 8007b0c:	429c      	cmp	r4, r3
 8007b0e:	d12b      	bne.n	8007b68 <__swbuf_r+0x70>
 8007b10:	686c      	ldr	r4, [r5, #4]
 8007b12:	69a3      	ldr	r3, [r4, #24]
 8007b14:	60a3      	str	r3, [r4, #8]
 8007b16:	89a3      	ldrh	r3, [r4, #12]
 8007b18:	071a      	lsls	r2, r3, #28
 8007b1a:	d52f      	bpl.n	8007b7c <__swbuf_r+0x84>
 8007b1c:	6923      	ldr	r3, [r4, #16]
 8007b1e:	b36b      	cbz	r3, 8007b7c <__swbuf_r+0x84>
 8007b20:	6923      	ldr	r3, [r4, #16]
 8007b22:	6820      	ldr	r0, [r4, #0]
 8007b24:	b2f6      	uxtb	r6, r6
 8007b26:	1ac0      	subs	r0, r0, r3
 8007b28:	6963      	ldr	r3, [r4, #20]
 8007b2a:	4637      	mov	r7, r6
 8007b2c:	4283      	cmp	r3, r0
 8007b2e:	dc04      	bgt.n	8007b3a <__swbuf_r+0x42>
 8007b30:	4621      	mov	r1, r4
 8007b32:	4628      	mov	r0, r5
 8007b34:	f000 f92a 	bl	8007d8c <_fflush_r>
 8007b38:	bb30      	cbnz	r0, 8007b88 <__swbuf_r+0x90>
 8007b3a:	68a3      	ldr	r3, [r4, #8]
 8007b3c:	3001      	adds	r0, #1
 8007b3e:	3b01      	subs	r3, #1
 8007b40:	60a3      	str	r3, [r4, #8]
 8007b42:	6823      	ldr	r3, [r4, #0]
 8007b44:	1c5a      	adds	r2, r3, #1
 8007b46:	6022      	str	r2, [r4, #0]
 8007b48:	701e      	strb	r6, [r3, #0]
 8007b4a:	6963      	ldr	r3, [r4, #20]
 8007b4c:	4283      	cmp	r3, r0
 8007b4e:	d004      	beq.n	8007b5a <__swbuf_r+0x62>
 8007b50:	89a3      	ldrh	r3, [r4, #12]
 8007b52:	07db      	lsls	r3, r3, #31
 8007b54:	d506      	bpl.n	8007b64 <__swbuf_r+0x6c>
 8007b56:	2e0a      	cmp	r6, #10
 8007b58:	d104      	bne.n	8007b64 <__swbuf_r+0x6c>
 8007b5a:	4621      	mov	r1, r4
 8007b5c:	4628      	mov	r0, r5
 8007b5e:	f000 f915 	bl	8007d8c <_fflush_r>
 8007b62:	b988      	cbnz	r0, 8007b88 <__swbuf_r+0x90>
 8007b64:	4638      	mov	r0, r7
 8007b66:	bdf8      	pop	{r3, r4, r5, r6, r7, pc}
 8007b68:	4b0a      	ldr	r3, [pc, #40]	; (8007b94 <__swbuf_r+0x9c>)
 8007b6a:	429c      	cmp	r4, r3
 8007b6c:	d101      	bne.n	8007b72 <__swbuf_r+0x7a>
 8007b6e:	68ac      	ldr	r4, [r5, #8]
 8007b70:	e7cf      	b.n	8007b12 <__swbuf_r+0x1a>
 8007b72:	4b09      	ldr	r3, [pc, #36]	; (8007b98 <__swbuf_r+0xa0>)
 8007b74:	429c      	cmp	r4, r3
 8007b76:	bf08      	it	eq
 8007b78:	68ec      	ldreq	r4, [r5, #12]
 8007b7a:	e7ca      	b.n	8007b12 <__swbuf_r+0x1a>
 8007b7c:	4621      	mov	r1, r4
 8007b7e:	4628      	mov	r0, r5
 8007b80:	f000 f80c 	bl	8007b9c <__swsetup_r>
 8007b84:	2800      	cmp	r0, #0
 8007b86:	d0cb      	beq.n	8007b20 <__swbuf_r+0x28>
 8007b88:	f04f 37ff 	mov.w	r7, #4294967295
 8007b8c:	e7ea      	b.n	8007b64 <__swbuf_r+0x6c>
 8007b8e:	bf00      	nop
 8007b90:	0800a13c 	.word	0x0800a13c
 8007b94:	0800a15c 	.word	0x0800a15c
 8007b98:	0800a11c 	.word	0x0800a11c

08007b9c <__swsetup_r>:
 8007b9c:	4b32      	ldr	r3, [pc, #200]	; (8007c68 <__swsetup_r+0xcc>)
 8007b9e:	b570      	push	{r4, r5, r6, lr}
 8007ba0:	681d      	ldr	r5, [r3, #0]
 8007ba2:	4606      	mov	r6, r0
 8007ba4:	460c      	mov	r4, r1
 8007ba6:	b125      	cbz	r5, 8007bb2 <__swsetup_r+0x16>
 8007ba8:	69ab      	ldr	r3, [r5, #24]
 8007baa:	b913      	cbnz	r3, 8007bb2 <__swsetup_r+0x16>
 8007bac:	4628      	mov	r0, r5
 8007bae:	f000 f981 	bl	8007eb4 <__sinit>
 8007bb2:	4b2e      	ldr	r3, [pc, #184]	; (8007c6c <__swsetup_r+0xd0>)
 8007bb4:	429c      	cmp	r4, r3
 8007bb6:	d10f      	bne.n	8007bd8 <__swsetup_r+0x3c>
 8007bb8:	686c      	ldr	r4, [r5, #4]
 8007bba:	89a3      	ldrh	r3, [r4, #12]
 8007bbc:	f9b4 200c 	ldrsh.w	r2, [r4, #12]
 8007bc0:	0719      	lsls	r1, r3, #28
 8007bc2:	d42c      	bmi.n	8007c1e <__swsetup_r+0x82>
 8007bc4:	06dd      	lsls	r5, r3, #27
 8007bc6:	d411      	bmi.n	8007bec <__swsetup_r+0x50>
 8007bc8:	2309      	movs	r3, #9
 8007bca:	6033      	str	r3, [r6, #0]
 8007bcc:	f042 0340 	orr.w	r3, r2, #64	; 0x40
 8007bd0:	f04f 30ff 	mov.w	r0, #4294967295
 8007bd4:	81a3      	strh	r3, [r4, #12]
 8007bd6:	e03e      	b.n	8007c56 <__swsetup_r+0xba>
 8007bd8:	4b25      	ldr	r3, [pc, #148]	; (8007c70 <__swsetup_r+0xd4>)
 8007bda:	429c      	cmp	r4, r3
 8007bdc:	d101      	bne.n	8007be2 <__swsetup_r+0x46>
 8007bde:	68ac      	ldr	r4, [r5, #8]
 8007be0:	e7eb      	b.n	8007bba <__swsetup_r+0x1e>
 8007be2:	4b24      	ldr	r3, [pc, #144]	; (8007c74 <__swsetup_r+0xd8>)
 8007be4:	429c      	cmp	r4, r3
 8007be6:	bf08      	it	eq
 8007be8:	68ec      	ldreq	r4, [r5, #12]
 8007bea:	e7e6      	b.n	8007bba <__swsetup_r+0x1e>
 8007bec:	0758      	lsls	r0, r3, #29
 8007bee:	d512      	bpl.n	8007c16 <__swsetup_r+0x7a>
 8007bf0:	6b61      	ldr	r1, [r4, #52]	; 0x34
 8007bf2:	b141      	cbz	r1, 8007c06 <__swsetup_r+0x6a>
 8007bf4:	f104 0344 	add.w	r3, r4, #68	; 0x44
 8007bf8:	4299      	cmp	r1, r3
 8007bfa:	d002      	beq.n	8007c02 <__swsetup_r+0x66>
 8007bfc:	4630      	mov	r0, r6
 8007bfe:	f7ff fba1 	bl	8007344 <_free_r>
 8007c02:	2300      	movs	r3, #0
 8007c04:	6363      	str	r3, [r4, #52]	; 0x34
 8007c06:	89a3      	ldrh	r3, [r4, #12]
 8007c08:	f023 0324 	bic.w	r3, r3, #36	; 0x24
 8007c0c:	81a3      	strh	r3, [r4, #12]
 8007c0e:	2300      	movs	r3, #0
 8007c10:	6063      	str	r3, [r4, #4]
 8007c12:	6923      	ldr	r3, [r4, #16]
 8007c14:	6023      	str	r3, [r4, #0]
 8007c16:	89a3      	ldrh	r3, [r4, #12]
 8007c18:	f043 0308 	orr.w	r3, r3, #8
 8007c1c:	81a3      	strh	r3, [r4, #12]
 8007c1e:	6923      	ldr	r3, [r4, #16]
 8007c20:	b94b      	cbnz	r3, 8007c36 <__swsetup_r+0x9a>
 8007c22:	89a3      	ldrh	r3, [r4, #12]
 8007c24:	f403 7320 	and.w	r3, r3, #640	; 0x280
 8007c28:	f5b3 7f00 	cmp.w	r3, #512	; 0x200
 8007c2c:	d003      	beq.n	8007c36 <__swsetup_r+0x9a>
 8007c2e:	4621      	mov	r1, r4
 8007c30:	4630      	mov	r0, r6
 8007c32:	f000 fa05 	bl	8008040 <__smakebuf_r>
 8007c36:	89a0      	ldrh	r0, [r4, #12]
 8007c38:	f9b4 200c 	ldrsh.w	r2, [r4, #12]
 8007c3c:	f010 0301 	ands.w	r3, r0, #1
 8007c40:	d00a      	beq.n	8007c58 <__swsetup_r+0xbc>
 8007c42:	2300      	movs	r3, #0
 8007c44:	60a3      	str	r3, [r4, #8]
 8007c46:	6963      	ldr	r3, [r4, #20]
 8007c48:	425b      	negs	r3, r3
 8007c4a:	61a3      	str	r3, [r4, #24]
 8007c4c:	6923      	ldr	r3, [r4, #16]
 8007c4e:	b943      	cbnz	r3, 8007c62 <__swsetup_r+0xc6>
 8007c50:	f010 0080 	ands.w	r0, r0, #128	; 0x80
 8007c54:	d1ba      	bne.n	8007bcc <__swsetup_r+0x30>
 8007c56:	bd70      	pop	{r4, r5, r6, pc}
 8007c58:	0781      	lsls	r1, r0, #30
 8007c5a:	bf58      	it	pl
 8007c5c:	6963      	ldrpl	r3, [r4, #20]
 8007c5e:	60a3      	str	r3, [r4, #8]
 8007c60:	e7f4      	b.n	8007c4c <__swsetup_r+0xb0>
 8007c62:	2000      	movs	r0, #0
 8007c64:	e7f7      	b.n	8007c56 <__swsetup_r+0xba>
 8007c66:	bf00      	nop
 8007c68:	20000054 	.word	0x20000054
 8007c6c:	0800a13c 	.word	0x0800a13c
 8007c70:	0800a15c 	.word	0x0800a15c
 8007c74:	0800a11c 	.word	0x0800a11c

08007c78 <abort>:
 8007c78:	2006      	movs	r0, #6
 8007c7a:	b508      	push	{r3, lr}
 8007c7c:	f000 fa62 	bl	8008144 <raise>
 8007c80:	2001      	movs	r0, #1
 8007c82:	f7fb f83f 	bl	8002d04 <_exit>
	...

08007c88 <__sflush_r>:
 8007c88:	898a      	ldrh	r2, [r1, #12]
 8007c8a:	b5f8      	push	{r3, r4, r5, r6, r7, lr}
 8007c8c:	4605      	mov	r5, r0
 8007c8e:	0710      	lsls	r0, r2, #28
 8007c90:	460c      	mov	r4, r1
 8007c92:	d457      	bmi.n	8007d44 <__sflush_r+0xbc>
 8007c94:	684b      	ldr	r3, [r1, #4]
 8007c96:	2b00      	cmp	r3, #0
 8007c98:	dc04      	bgt.n	8007ca4 <__sflush_r+0x1c>
 8007c9a:	6c0b      	ldr	r3, [r1, #64]	; 0x40
 8007c9c:	2b00      	cmp	r3, #0
 8007c9e:	dc01      	bgt.n	8007ca4 <__sflush_r+0x1c>
 8007ca0:	2000      	movs	r0, #0
 8007ca2:	bdf8      	pop	{r3, r4, r5, r6, r7, pc}
 8007ca4:	6ae6      	ldr	r6, [r4, #44]	; 0x2c
 8007ca6:	2e00      	cmp	r6, #0
 8007ca8:	d0fa      	beq.n	8007ca0 <__sflush_r+0x18>
 8007caa:	2300      	movs	r3, #0
 8007cac:	f412 5280 	ands.w	r2, r2, #4096	; 0x1000
 8007cb0:	682f      	ldr	r7, [r5, #0]
 8007cb2:	602b      	str	r3, [r5, #0]
 8007cb4:	d032      	beq.n	8007d1c <__sflush_r+0x94>
 8007cb6:	6d60      	ldr	r0, [r4, #84]	; 0x54
 8007cb8:	89a3      	ldrh	r3, [r4, #12]
 8007cba:	075a      	lsls	r2, r3, #29
 8007cbc:	d505      	bpl.n	8007cca <__sflush_r+0x42>
 8007cbe:	6863      	ldr	r3, [r4, #4]
 8007cc0:	1ac0      	subs	r0, r0, r3
 8007cc2:	6b63      	ldr	r3, [r4, #52]	; 0x34
 8007cc4:	b10b      	cbz	r3, 8007cca <__sflush_r+0x42>
 8007cc6:	6c23      	ldr	r3, [r4, #64]	; 0x40
 8007cc8:	1ac0      	subs	r0, r0, r3
 8007cca:	2300      	movs	r3, #0
 8007ccc:	4602      	mov	r2, r0
 8007cce:	6ae6      	ldr	r6, [r4, #44]	; 0x2c
 8007cd0:	4628      	mov	r0, r5
 8007cd2:	6a21      	ldr	r1, [r4, #32]
 8007cd4:	47b0      	blx	r6
 8007cd6:	1c43      	adds	r3, r0, #1
 8007cd8:	89a3      	ldrh	r3, [r4, #12]
 8007cda:	d106      	bne.n	8007cea <__sflush_r+0x62>
 8007cdc:	6829      	ldr	r1, [r5, #0]
 8007cde:	291d      	cmp	r1, #29
 8007ce0:	d82c      	bhi.n	8007d3c <__sflush_r+0xb4>
 8007ce2:	4a29      	ldr	r2, [pc, #164]	; (8007d88 <__sflush_r+0x100>)
 8007ce4:	40ca      	lsrs	r2, r1
 8007ce6:	07d6      	lsls	r6, r2, #31
 8007ce8:	d528      	bpl.n	8007d3c <__sflush_r+0xb4>
 8007cea:	2200      	movs	r2, #0
 8007cec:	6062      	str	r2, [r4, #4]
 8007cee:	6922      	ldr	r2, [r4, #16]
 8007cf0:	04d9      	lsls	r1, r3, #19
 8007cf2:	6022      	str	r2, [r4, #0]
 8007cf4:	d504      	bpl.n	8007d00 <__sflush_r+0x78>
 8007cf6:	1c42      	adds	r2, r0, #1
 8007cf8:	d101      	bne.n	8007cfe <__sflush_r+0x76>
 8007cfa:	682b      	ldr	r3, [r5, #0]
 8007cfc:	b903      	cbnz	r3, 8007d00 <__sflush_r+0x78>
 8007cfe:	6560      	str	r0, [r4, #84]	; 0x54
 8007d00:	6b61      	ldr	r1, [r4, #52]	; 0x34
 8007d02:	602f      	str	r7, [r5, #0]
 8007d04:	2900      	cmp	r1, #0
 8007d06:	d0cb      	beq.n	8007ca0 <__sflush_r+0x18>
 8007d08:	f104 0344 	add.w	r3, r4, #68	; 0x44
 8007d0c:	4299      	cmp	r1, r3
 8007d0e:	d002      	beq.n	8007d16 <__sflush_r+0x8e>
 8007d10:	4628      	mov	r0, r5
 8007d12:	f7ff fb17 	bl	8007344 <_free_r>
 8007d16:	2000      	movs	r0, #0
 8007d18:	6360      	str	r0, [r4, #52]	; 0x34
 8007d1a:	e7c2      	b.n	8007ca2 <__sflush_r+0x1a>
 8007d1c:	6a21      	ldr	r1, [r4, #32]
 8007d1e:	2301      	movs	r3, #1
 8007d20:	4628      	mov	r0, r5
 8007d22:	47b0      	blx	r6
 8007d24:	1c41      	adds	r1, r0, #1
 8007d26:	d1c7      	bne.n	8007cb8 <__sflush_r+0x30>
 8007d28:	682b      	ldr	r3, [r5, #0]
 8007d2a:	2b00      	cmp	r3, #0
 8007d2c:	d0c4      	beq.n	8007cb8 <__sflush_r+0x30>
 8007d2e:	2b1d      	cmp	r3, #29
 8007d30:	d001      	beq.n	8007d36 <__sflush_r+0xae>
 8007d32:	2b16      	cmp	r3, #22
 8007d34:	d101      	bne.n	8007d3a <__sflush_r+0xb2>
 8007d36:	602f      	str	r7, [r5, #0]
 8007d38:	e7b2      	b.n	8007ca0 <__sflush_r+0x18>
 8007d3a:	89a3      	ldrh	r3, [r4, #12]
 8007d3c:	f043 0340 	orr.w	r3, r3, #64	; 0x40
 8007d40:	81a3      	strh	r3, [r4, #12]
 8007d42:	e7ae      	b.n	8007ca2 <__sflush_r+0x1a>
 8007d44:	690f      	ldr	r7, [r1, #16]
 8007d46:	2f00      	cmp	r7, #0
 8007d48:	d0aa      	beq.n	8007ca0 <__sflush_r+0x18>
 8007d4a:	0793      	lsls	r3, r2, #30
 8007d4c:	bf18      	it	ne
 8007d4e:	2300      	movne	r3, #0
 8007d50:	680e      	ldr	r6, [r1, #0]
 8007d52:	bf08      	it	eq
 8007d54:	694b      	ldreq	r3, [r1, #20]
 8007d56:	1bf6      	subs	r6, r6, r7
 8007d58:	600f      	str	r7, [r1, #0]
 8007d5a:	608b      	str	r3, [r1, #8]
 8007d5c:	2e00      	cmp	r6, #0
 8007d5e:	dd9f      	ble.n	8007ca0 <__sflush_r+0x18>
 8007d60:	4633      	mov	r3, r6
 8007d62:	463a      	mov	r2, r7
 8007d64:	4628      	mov	r0, r5
 8007d66:	6a21      	ldr	r1, [r4, #32]
 8007d68:	f8d4 c028 	ldr.w	ip, [r4, #40]	; 0x28
 8007d6c:	47e0      	blx	ip
 8007d6e:	2800      	cmp	r0, #0
 8007d70:	dc06      	bgt.n	8007d80 <__sflush_r+0xf8>
 8007d72:	89a3      	ldrh	r3, [r4, #12]
 8007d74:	f04f 30ff 	mov.w	r0, #4294967295
 8007d78:	f043 0340 	orr.w	r3, r3, #64	; 0x40
 8007d7c:	81a3      	strh	r3, [r4, #12]
 8007d7e:	e790      	b.n	8007ca2 <__sflush_r+0x1a>
 8007d80:	4407      	add	r7, r0
 8007d82:	1a36      	subs	r6, r6, r0
 8007d84:	e7ea      	b.n	8007d5c <__sflush_r+0xd4>
 8007d86:	bf00      	nop
 8007d88:	20400001 	.word	0x20400001

08007d8c <_fflush_r>:
 8007d8c:	b538      	push	{r3, r4, r5, lr}
 8007d8e:	690b      	ldr	r3, [r1, #16]
 8007d90:	4605      	mov	r5, r0
 8007d92:	460c      	mov	r4, r1
 8007d94:	b913      	cbnz	r3, 8007d9c <_fflush_r+0x10>
 8007d96:	2500      	movs	r5, #0
 8007d98:	4628      	mov	r0, r5
 8007d9a:	bd38      	pop	{r3, r4, r5, pc}
 8007d9c:	b118      	cbz	r0, 8007da6 <_fflush_r+0x1a>
 8007d9e:	6983      	ldr	r3, [r0, #24]
 8007da0:	b90b      	cbnz	r3, 8007da6 <_fflush_r+0x1a>
 8007da2:	f000 f887 	bl	8007eb4 <__sinit>
 8007da6:	4b14      	ldr	r3, [pc, #80]	; (8007df8 <_fflush_r+0x6c>)
 8007da8:	429c      	cmp	r4, r3
 8007daa:	d11b      	bne.n	8007de4 <_fflush_r+0x58>
 8007dac:	686c      	ldr	r4, [r5, #4]
 8007dae:	f9b4 300c 	ldrsh.w	r3, [r4, #12]
 8007db2:	2b00      	cmp	r3, #0
 8007db4:	d0ef      	beq.n	8007d96 <_fflush_r+0xa>
 8007db6:	6e62      	ldr	r2, [r4, #100]	; 0x64
 8007db8:	07d0      	lsls	r0, r2, #31
 8007dba:	d404      	bmi.n	8007dc6 <_fflush_r+0x3a>
 8007dbc:	0599      	lsls	r1, r3, #22
 8007dbe:	d402      	bmi.n	8007dc6 <_fflush_r+0x3a>
 8007dc0:	6da0      	ldr	r0, [r4, #88]	; 0x58
 8007dc2:	f000 f915 	bl	8007ff0 <__retarget_lock_acquire_recursive>
 8007dc6:	4628      	mov	r0, r5
 8007dc8:	4621      	mov	r1, r4
 8007dca:	f7ff ff5d 	bl	8007c88 <__sflush_r>
 8007dce:	6e63      	ldr	r3, [r4, #100]	; 0x64
 8007dd0:	4605      	mov	r5, r0
 8007dd2:	07da      	lsls	r2, r3, #31
 8007dd4:	d4e0      	bmi.n	8007d98 <_fflush_r+0xc>
 8007dd6:	89a3      	ldrh	r3, [r4, #12]
 8007dd8:	059b      	lsls	r3, r3, #22
 8007dda:	d4dd      	bmi.n	8007d98 <_fflush_r+0xc>
 8007ddc:	6da0      	ldr	r0, [r4, #88]	; 0x58
 8007dde:	f000 f908 	bl	8007ff2 <__retarget_lock_release_recursive>
 8007de2:	e7d9      	b.n	8007d98 <_fflush_r+0xc>
 8007de4:	4b05      	ldr	r3, [pc, #20]	; (8007dfc <_fflush_r+0x70>)
 8007de6:	429c      	cmp	r4, r3
 8007de8:	d101      	bne.n	8007dee <_fflush_r+0x62>
 8007dea:	68ac      	ldr	r4, [r5, #8]
 8007dec:	e7df      	b.n	8007dae <_fflush_r+0x22>
 8007dee:	4b04      	ldr	r3, [pc, #16]	; (8007e00 <_fflush_r+0x74>)
 8007df0:	429c      	cmp	r4, r3
 8007df2:	bf08      	it	eq
 8007df4:	68ec      	ldreq	r4, [r5, #12]
 8007df6:	e7da      	b.n	8007dae <_fflush_r+0x22>
 8007df8:	0800a13c 	.word	0x0800a13c
 8007dfc:	0800a15c 	.word	0x0800a15c
 8007e00:	0800a11c 	.word	0x0800a11c

08007e04 <std>:
 8007e04:	2300      	movs	r3, #0
 8007e06:	b510      	push	{r4, lr}
 8007e08:	4604      	mov	r4, r0
 8007e0a:	e9c0 3300 	strd	r3, r3, [r0]
 8007e0e:	e9c0 3304 	strd	r3, r3, [r0, #16]
 8007e12:	6083      	str	r3, [r0, #8]
 8007e14:	8181      	strh	r1, [r0, #12]
 8007e16:	6643      	str	r3, [r0, #100]	; 0x64
 8007e18:	81c2      	strh	r2, [r0, #14]
 8007e1a:	6183      	str	r3, [r0, #24]
 8007e1c:	4619      	mov	r1, r3
 8007e1e:	2208      	movs	r2, #8
 8007e20:	305c      	adds	r0, #92	; 0x5c
 8007e22:	f7ff f9e3 	bl	80071ec <memset>
 8007e26:	4b05      	ldr	r3, [pc, #20]	; (8007e3c <std+0x38>)
 8007e28:	6224      	str	r4, [r4, #32]
 8007e2a:	6263      	str	r3, [r4, #36]	; 0x24
 8007e2c:	4b04      	ldr	r3, [pc, #16]	; (8007e40 <std+0x3c>)
 8007e2e:	62a3      	str	r3, [r4, #40]	; 0x28
 8007e30:	4b04      	ldr	r3, [pc, #16]	; (8007e44 <std+0x40>)
 8007e32:	62e3      	str	r3, [r4, #44]	; 0x2c
 8007e34:	4b04      	ldr	r3, [pc, #16]	; (8007e48 <std+0x44>)
 8007e36:	6323      	str	r3, [r4, #48]	; 0x30
 8007e38:	bd10      	pop	{r4, pc}
 8007e3a:	bf00      	nop
 8007e3c:	0800817d 	.word	0x0800817d
 8007e40:	0800819f 	.word	0x0800819f
 8007e44:	080081d7 	.word	0x080081d7
 8007e48:	080081fb 	.word	0x080081fb

08007e4c <_cleanup_r>:
 8007e4c:	4901      	ldr	r1, [pc, #4]	; (8007e54 <_cleanup_r+0x8>)
 8007e4e:	f000 b8af 	b.w	8007fb0 <_fwalk_reent>
 8007e52:	bf00      	nop
 8007e54:	08007d8d 	.word	0x08007d8d

08007e58 <__sfmoreglue>:
 8007e58:	2268      	movs	r2, #104	; 0x68
 8007e5a:	b570      	push	{r4, r5, r6, lr}
 8007e5c:	1e4d      	subs	r5, r1, #1
 8007e5e:	4355      	muls	r5, r2
 8007e60:	460e      	mov	r6, r1
 8007e62:	f105 0174 	add.w	r1, r5, #116	; 0x74
 8007e66:	f7ff fad5 	bl	8007414 <_malloc_r>
 8007e6a:	4604      	mov	r4, r0
 8007e6c:	b140      	cbz	r0, 8007e80 <__sfmoreglue+0x28>
 8007e6e:	2100      	movs	r1, #0
 8007e70:	e9c0 1600 	strd	r1, r6, [r0]
 8007e74:	300c      	adds	r0, #12
 8007e76:	60a0      	str	r0, [r4, #8]
 8007e78:	f105 0268 	add.w	r2, r5, #104	; 0x68
 8007e7c:	f7ff f9b6 	bl	80071ec <memset>
 8007e80:	4620      	mov	r0, r4
 8007e82:	bd70      	pop	{r4, r5, r6, pc}

08007e84 <__sfp_lock_acquire>:
 8007e84:	4801      	ldr	r0, [pc, #4]	; (8007e8c <__sfp_lock_acquire+0x8>)
 8007e86:	f000 b8b3 	b.w	8007ff0 <__retarget_lock_acquire_recursive>
 8007e8a:	bf00      	nop
 8007e8c:	200008c9 	.word	0x200008c9

08007e90 <__sfp_lock_release>:
 8007e90:	4801      	ldr	r0, [pc, #4]	; (8007e98 <__sfp_lock_release+0x8>)
 8007e92:	f000 b8ae 	b.w	8007ff2 <__retarget_lock_release_recursive>
 8007e96:	bf00      	nop
 8007e98:	200008c9 	.word	0x200008c9

08007e9c <__sinit_lock_acquire>:
 8007e9c:	4801      	ldr	r0, [pc, #4]	; (8007ea4 <__sinit_lock_acquire+0x8>)
 8007e9e:	f000 b8a7 	b.w	8007ff0 <__retarget_lock_acquire_recursive>
 8007ea2:	bf00      	nop
 8007ea4:	200008ca 	.word	0x200008ca

08007ea8 <__sinit_lock_release>:
 8007ea8:	4801      	ldr	r0, [pc, #4]	; (8007eb0 <__sinit_lock_release+0x8>)
 8007eaa:	f000 b8a2 	b.w	8007ff2 <__retarget_lock_release_recursive>
 8007eae:	bf00      	nop
 8007eb0:	200008ca 	.word	0x200008ca

08007eb4 <__sinit>:
 8007eb4:	b510      	push	{r4, lr}
 8007eb6:	4604      	mov	r4, r0
 8007eb8:	f7ff fff0 	bl	8007e9c <__sinit_lock_acquire>
 8007ebc:	69a3      	ldr	r3, [r4, #24]
 8007ebe:	b11b      	cbz	r3, 8007ec8 <__sinit+0x14>
 8007ec0:	e8bd 4010 	ldmia.w	sp!, {r4, lr}
 8007ec4:	f7ff bff0 	b.w	8007ea8 <__sinit_lock_release>
 8007ec8:	e9c4 3312 	strd	r3, r3, [r4, #72]	; 0x48
 8007ecc:	6523      	str	r3, [r4, #80]	; 0x50
 8007ece:	4b13      	ldr	r3, [pc, #76]	; (8007f1c <__sinit+0x68>)
 8007ed0:	4a13      	ldr	r2, [pc, #76]	; (8007f20 <__sinit+0x6c>)
 8007ed2:	681b      	ldr	r3, [r3, #0]
 8007ed4:	62a2      	str	r2, [r4, #40]	; 0x28
 8007ed6:	42a3      	cmp	r3, r4
 8007ed8:	bf08      	it	eq
 8007eda:	2301      	moveq	r3, #1
 8007edc:	4620      	mov	r0, r4
 8007ede:	bf08      	it	eq
 8007ee0:	61a3      	streq	r3, [r4, #24]
 8007ee2:	f000 f81f 	bl	8007f24 <__sfp>
 8007ee6:	6060      	str	r0, [r4, #4]
 8007ee8:	4620      	mov	r0, r4
 8007eea:	f000 f81b 	bl	8007f24 <__sfp>
 8007eee:	60a0      	str	r0, [r4, #8]
 8007ef0:	4620      	mov	r0, r4
 8007ef2:	f000 f817 	bl	8007f24 <__sfp>
 8007ef6:	2200      	movs	r2, #0
 8007ef8:	2104      	movs	r1, #4
 8007efa:	60e0      	str	r0, [r4, #12]
 8007efc:	6860      	ldr	r0, [r4, #4]
 8007efe:	f7ff ff81 	bl	8007e04 <std>
 8007f02:	2201      	movs	r2, #1
 8007f04:	2109      	movs	r1, #9
 8007f06:	68a0      	ldr	r0, [r4, #8]
 8007f08:	f7ff ff7c 	bl	8007e04 <std>
 8007f0c:	2202      	movs	r2, #2
 8007f0e:	2112      	movs	r1, #18
 8007f10:	68e0      	ldr	r0, [r4, #12]
 8007f12:	f7ff ff77 	bl	8007e04 <std>
 8007f16:	2301      	movs	r3, #1
 8007f18:	61a3      	str	r3, [r4, #24]
 8007f1a:	e7d1      	b.n	8007ec0 <__sinit+0xc>
 8007f1c:	0800a034 	.word	0x0800a034
 8007f20:	08007e4d 	.word	0x08007e4d

08007f24 <__sfp>:
 8007f24:	b5f8      	push	{r3, r4, r5, r6, r7, lr}
 8007f26:	4607      	mov	r7, r0
 8007f28:	f7ff ffac 	bl	8007e84 <__sfp_lock_acquire>
 8007f2c:	4b1e      	ldr	r3, [pc, #120]	; (8007fa8 <__sfp+0x84>)
 8007f2e:	681e      	ldr	r6, [r3, #0]
 8007f30:	69b3      	ldr	r3, [r6, #24]
 8007f32:	b913      	cbnz	r3, 8007f3a <__sfp+0x16>
 8007f34:	4630      	mov	r0, r6
 8007f36:	f7ff ffbd 	bl	8007eb4 <__sinit>
 8007f3a:	3648      	adds	r6, #72	; 0x48
 8007f3c:	e9d6 3401 	ldrd	r3, r4, [r6, #4]
 8007f40:	3b01      	subs	r3, #1
 8007f42:	d503      	bpl.n	8007f4c <__sfp+0x28>
 8007f44:	6833      	ldr	r3, [r6, #0]
 8007f46:	b30b      	cbz	r3, 8007f8c <__sfp+0x68>
 8007f48:	6836      	ldr	r6, [r6, #0]
 8007f4a:	e7f7      	b.n	8007f3c <__sfp+0x18>
 8007f4c:	f9b4 500c 	ldrsh.w	r5, [r4, #12]
 8007f50:	b9d5      	cbnz	r5, 8007f88 <__sfp+0x64>
 8007f52:	4b16      	ldr	r3, [pc, #88]	; (8007fac <__sfp+0x88>)
 8007f54:	f104 0058 	add.w	r0, r4, #88	; 0x58
 8007f58:	60e3      	str	r3, [r4, #12]
 8007f5a:	6665      	str	r5, [r4, #100]	; 0x64
 8007f5c:	f000 f847 	bl	8007fee <__retarget_lock_init_recursive>
 8007f60:	f7ff ff96 	bl	8007e90 <__sfp_lock_release>
 8007f64:	2208      	movs	r2, #8
 8007f66:	4629      	mov	r1, r5
 8007f68:	e9c4 5501 	strd	r5, r5, [r4, #4]
 8007f6c:	e9c4 5504 	strd	r5, r5, [r4, #16]
 8007f70:	6025      	str	r5, [r4, #0]
 8007f72:	61a5      	str	r5, [r4, #24]
 8007f74:	f104 005c 	add.w	r0, r4, #92	; 0x5c
 8007f78:	f7ff f938 	bl	80071ec <memset>
 8007f7c:	e9c4 550d 	strd	r5, r5, [r4, #52]	; 0x34
 8007f80:	e9c4 5512 	strd	r5, r5, [r4, #72]	; 0x48
 8007f84:	4620      	mov	r0, r4
 8007f86:	bdf8      	pop	{r3, r4, r5, r6, r7, pc}
 8007f88:	3468      	adds	r4, #104	; 0x68
 8007f8a:	e7d9      	b.n	8007f40 <__sfp+0x1c>
 8007f8c:	2104      	movs	r1, #4
 8007f8e:	4638      	mov	r0, r7
 8007f90:	f7ff ff62 	bl	8007e58 <__sfmoreglue>
 8007f94:	4604      	mov	r4, r0
 8007f96:	6030      	str	r0, [r6, #0]
 8007f98:	2800      	cmp	r0, #0
 8007f9a:	d1d5      	bne.n	8007f48 <__sfp+0x24>
 8007f9c:	f7ff ff78 	bl	8007e90 <__sfp_lock_release>
 8007fa0:	230c      	movs	r3, #12
 8007fa2:	603b      	str	r3, [r7, #0]
 8007fa4:	e7ee      	b.n	8007f84 <__sfp+0x60>
 8007fa6:	bf00      	nop
 8007fa8:	0800a034 	.word	0x0800a034
 8007fac:	ffff0001 	.word	0xffff0001

08007fb0 <_fwalk_reent>:
 8007fb0:	e92d 43f8 	stmdb	sp!, {r3, r4, r5, r6, r7, r8, r9, lr}
 8007fb4:	4606      	mov	r6, r0
 8007fb6:	4688      	mov	r8, r1
 8007fb8:	2700      	movs	r7, #0
 8007fba:	f100 0448 	add.w	r4, r0, #72	; 0x48
 8007fbe:	e9d4 9501 	ldrd	r9, r5, [r4, #4]
 8007fc2:	f1b9 0901 	subs.w	r9, r9, #1
 8007fc6:	d505      	bpl.n	8007fd4 <_fwalk_reent+0x24>
 8007fc8:	6824      	ldr	r4, [r4, #0]
 8007fca:	2c00      	cmp	r4, #0
 8007fcc:	d1f7      	bne.n	8007fbe <_fwalk_reent+0xe>
 8007fce:	4638      	mov	r0, r7
 8007fd0:	e8bd 83f8 	ldmia.w	sp!, {r3, r4, r5, r6, r7, r8, r9, pc}
 8007fd4:	89ab      	ldrh	r3, [r5, #12]
 8007fd6:	2b01      	cmp	r3, #1
 8007fd8:	d907      	bls.n	8007fea <_fwalk_reent+0x3a>
 8007fda:	f9b5 300e 	ldrsh.w	r3, [r5, #14]
 8007fde:	3301      	adds	r3, #1
 8007fe0:	d003      	beq.n	8007fea <_fwalk_reent+0x3a>
 8007fe2:	4629      	mov	r1, r5
 8007fe4:	4630      	mov	r0, r6
 8007fe6:	47c0      	blx	r8
 8007fe8:	4307      	orrs	r7, r0
 8007fea:	3568      	adds	r5, #104	; 0x68
 8007fec:	e7e9      	b.n	8007fc2 <_fwalk_reent+0x12>

08007fee <__retarget_lock_init_recursive>:
 8007fee:	4770      	bx	lr

08007ff0 <__retarget_lock_acquire_recursive>:
 8007ff0:	4770      	bx	lr

08007ff2 <__retarget_lock_release_recursive>:
 8007ff2:	4770      	bx	lr

08007ff4 <__swhatbuf_r>:
 8007ff4:	b570      	push	{r4, r5, r6, lr}
 8007ff6:	460e      	mov	r6, r1
 8007ff8:	f9b1 100e 	ldrsh.w	r1, [r1, #14]
 8007ffc:	4614      	mov	r4, r2
 8007ffe:	2900      	cmp	r1, #0
 8008000:	461d      	mov	r5, r3
 8008002:	b096      	sub	sp, #88	; 0x58
 8008004:	da08      	bge.n	8008018 <__swhatbuf_r+0x24>
 8008006:	2200      	movs	r2, #0
 8008008:	f9b6 300c 	ldrsh.w	r3, [r6, #12]
 800800c:	602a      	str	r2, [r5, #0]
 800800e:	061a      	lsls	r2, r3, #24
 8008010:	d410      	bmi.n	8008034 <__swhatbuf_r+0x40>
 8008012:	f44f 6380 	mov.w	r3, #1024	; 0x400
 8008016:	e00e      	b.n	8008036 <__swhatbuf_r+0x42>
 8008018:	466a      	mov	r2, sp
 800801a:	f000 f915 	bl	8008248 <_fstat_r>
 800801e:	2800      	cmp	r0, #0
 8008020:	dbf1      	blt.n	8008006 <__swhatbuf_r+0x12>
 8008022:	9a01      	ldr	r2, [sp, #4]
 8008024:	f402 4270 	and.w	r2, r2, #61440	; 0xf000
 8008028:	f5a2 5300 	sub.w	r3, r2, #8192	; 0x2000
 800802c:	425a      	negs	r2, r3
 800802e:	415a      	adcs	r2, r3
 8008030:	602a      	str	r2, [r5, #0]
 8008032:	e7ee      	b.n	8008012 <__swhatbuf_r+0x1e>
 8008034:	2340      	movs	r3, #64	; 0x40
 8008036:	2000      	movs	r0, #0
 8008038:	6023      	str	r3, [r4, #0]
 800803a:	b016      	add	sp, #88	; 0x58
 800803c:	bd70      	pop	{r4, r5, r6, pc}
	...

08008040 <__smakebuf_r>:
 8008040:	898b      	ldrh	r3, [r1, #12]
 8008042:	b573      	push	{r0, r1, r4, r5, r6, lr}
 8008044:	079d      	lsls	r5, r3, #30
 8008046:	4606      	mov	r6, r0
 8008048:	460c      	mov	r4, r1
 800804a:	d507      	bpl.n	800805c <__smakebuf_r+0x1c>
 800804c:	f104 0347 	add.w	r3, r4, #71	; 0x47
 8008050:	6023      	str	r3, [r4, #0]
 8008052:	6123      	str	r3, [r4, #16]
 8008054:	2301      	movs	r3, #1
 8008056:	6163      	str	r3, [r4, #20]
 8008058:	b002      	add	sp, #8
 800805a:	bd70      	pop	{r4, r5, r6, pc}
 800805c:	466a      	mov	r2, sp
 800805e:	ab01      	add	r3, sp, #4
 8008060:	f7ff ffc8 	bl	8007ff4 <__swhatbuf_r>
 8008064:	9900      	ldr	r1, [sp, #0]
 8008066:	4605      	mov	r5, r0
 8008068:	4630      	mov	r0, r6
 800806a:	f7ff f9d3 	bl	8007414 <_malloc_r>
 800806e:	b948      	cbnz	r0, 8008084 <__smakebuf_r+0x44>
 8008070:	f9b4 300c 	ldrsh.w	r3, [r4, #12]
 8008074:	059a      	lsls	r2, r3, #22
 8008076:	d4ef      	bmi.n	8008058 <__smakebuf_r+0x18>
 8008078:	f023 0303 	bic.w	r3, r3, #3
 800807c:	f043 0302 	orr.w	r3, r3, #2
 8008080:	81a3      	strh	r3, [r4, #12]
 8008082:	e7e3      	b.n	800804c <__smakebuf_r+0xc>
 8008084:	4b0d      	ldr	r3, [pc, #52]	; (80080bc <__smakebuf_r+0x7c>)
 8008086:	62b3      	str	r3, [r6, #40]	; 0x28
 8008088:	89a3      	ldrh	r3, [r4, #12]
 800808a:	6020      	str	r0, [r4, #0]
 800808c:	f043 0380 	orr.w	r3, r3, #128	; 0x80
 8008090:	81a3      	strh	r3, [r4, #12]
 8008092:	9b00      	ldr	r3, [sp, #0]
 8008094:	6120      	str	r0, [r4, #16]
 8008096:	6163      	str	r3, [r4, #20]
 8008098:	9b01      	ldr	r3, [sp, #4]
 800809a:	b15b      	cbz	r3, 80080b4 <__smakebuf_r+0x74>
 800809c:	4630      	mov	r0, r6
 800809e:	f9b4 100e 	ldrsh.w	r1, [r4, #14]
 80080a2:	f000 f8e3 	bl	800826c <_isatty_r>
 80080a6:	b128      	cbz	r0, 80080b4 <__smakebuf_r+0x74>
 80080a8:	89a3      	ldrh	r3, [r4, #12]
 80080aa:	f023 0303 	bic.w	r3, r3, #3
 80080ae:	f043 0301 	orr.w	r3, r3, #1
 80080b2:	81a3      	strh	r3, [r4, #12]
 80080b4:	89a0      	ldrh	r0, [r4, #12]
 80080b6:	4305      	orrs	r5, r0
 80080b8:	81a5      	strh	r5, [r4, #12]
 80080ba:	e7cd      	b.n	8008058 <__smakebuf_r+0x18>
 80080bc:	08007e4d 	.word	0x08007e4d

080080c0 <memchr>:
 80080c0:	4603      	mov	r3, r0
 80080c2:	b510      	push	{r4, lr}
 80080c4:	b2c9      	uxtb	r1, r1
 80080c6:	4402      	add	r2, r0
 80080c8:	4293      	cmp	r3, r2
 80080ca:	4618      	mov	r0, r3
 80080cc:	d101      	bne.n	80080d2 <memchr+0x12>
 80080ce:	2000      	movs	r0, #0
 80080d0:	e003      	b.n	80080da <memchr+0x1a>
 80080d2:	7804      	ldrb	r4, [r0, #0]
 80080d4:	3301      	adds	r3, #1
 80080d6:	428c      	cmp	r4, r1
 80080d8:	d1f6      	bne.n	80080c8 <memchr+0x8>
 80080da:	bd10      	pop	{r4, pc}

080080dc <__malloc_lock>:
 80080dc:	4801      	ldr	r0, [pc, #4]	; (80080e4 <__malloc_lock+0x8>)
 80080de:	f7ff bf87 	b.w	8007ff0 <__retarget_lock_acquire_recursive>
 80080e2:	bf00      	nop
 80080e4:	200008c8 	.word	0x200008c8

080080e8 <__malloc_unlock>:
 80080e8:	4801      	ldr	r0, [pc, #4]	; (80080f0 <__malloc_unlock+0x8>)
 80080ea:	f7ff bf82 	b.w	8007ff2 <__retarget_lock_release_recursive>
 80080ee:	bf00      	nop
 80080f0:	200008c8 	.word	0x200008c8

080080f4 <_raise_r>:
 80080f4:	291f      	cmp	r1, #31
 80080f6:	b538      	push	{r3, r4, r5, lr}
 80080f8:	4604      	mov	r4, r0
 80080fa:	460d      	mov	r5, r1
 80080fc:	d904      	bls.n	8008108 <_raise_r+0x14>
 80080fe:	2316      	movs	r3, #22
 8008100:	6003      	str	r3, [r0, #0]
 8008102:	f04f 30ff 	mov.w	r0, #4294967295
 8008106:	bd38      	pop	{r3, r4, r5, pc}
 8008108:	6c42      	ldr	r2, [r0, #68]	; 0x44
 800810a:	b112      	cbz	r2, 8008112 <_raise_r+0x1e>
 800810c:	f852 3021 	ldr.w	r3, [r2, r1, lsl #2]
 8008110:	b94b      	cbnz	r3, 8008126 <_raise_r+0x32>
 8008112:	4620      	mov	r0, r4
 8008114:	f000 f830 	bl	8008178 <_getpid_r>
 8008118:	462a      	mov	r2, r5
 800811a:	4601      	mov	r1, r0
 800811c:	4620      	mov	r0, r4
 800811e:	e8bd 4038 	ldmia.w	sp!, {r3, r4, r5, lr}
 8008122:	f000 b817 	b.w	8008154 <_kill_r>
 8008126:	2b01      	cmp	r3, #1
 8008128:	d00a      	beq.n	8008140 <_raise_r+0x4c>
 800812a:	1c59      	adds	r1, r3, #1
 800812c:	d103      	bne.n	8008136 <_raise_r+0x42>
 800812e:	2316      	movs	r3, #22
 8008130:	6003      	str	r3, [r0, #0]
 8008132:	2001      	movs	r0, #1
 8008134:	e7e7      	b.n	8008106 <_raise_r+0x12>
 8008136:	2400      	movs	r4, #0
 8008138:	4628      	mov	r0, r5
 800813a:	f842 4025 	str.w	r4, [r2, r5, lsl #2]
 800813e:	4798      	blx	r3
 8008140:	2000      	movs	r0, #0
 8008142:	e7e0      	b.n	8008106 <_raise_r+0x12>

08008144 <raise>:
 8008144:	4b02      	ldr	r3, [pc, #8]	; (8008150 <raise+0xc>)
 8008146:	4601      	mov	r1, r0
 8008148:	6818      	ldr	r0, [r3, #0]
 800814a:	f7ff bfd3 	b.w	80080f4 <_raise_r>
 800814e:	bf00      	nop
 8008150:	20000054 	.word	0x20000054

08008154 <_kill_r>:
 8008154:	b538      	push	{r3, r4, r5, lr}
 8008156:	2300      	movs	r3, #0
 8008158:	4d06      	ldr	r5, [pc, #24]	; (8008174 <_kill_r+0x20>)
 800815a:	4604      	mov	r4, r0
 800815c:	4608      	mov	r0, r1
 800815e:	4611      	mov	r1, r2
 8008160:	602b      	str	r3, [r5, #0]
 8008162:	f7fa fdc5 	bl	8002cf0 <_kill>
 8008166:	1c43      	adds	r3, r0, #1
 8008168:	d102      	bne.n	8008170 <_kill_r+0x1c>
 800816a:	682b      	ldr	r3, [r5, #0]
 800816c:	b103      	cbz	r3, 8008170 <_kill_r+0x1c>
 800816e:	6023      	str	r3, [r4, #0]
 8008170:	bd38      	pop	{r3, r4, r5, pc}
 8008172:	bf00      	nop
 8008174:	200008cc 	.word	0x200008cc

08008178 <_getpid_r>:
 8008178:	f7fa bdb8 	b.w	8002cec <_getpid>

0800817c <__sread>:
 800817c:	b510      	push	{r4, lr}
 800817e:	460c      	mov	r4, r1
 8008180:	f9b1 100e 	ldrsh.w	r1, [r1, #14]
 8008184:	f000 f894 	bl	80082b0 <_read_r>
 8008188:	2800      	cmp	r0, #0
 800818a:	bfab      	itete	ge
 800818c:	6d63      	ldrge	r3, [r4, #84]	; 0x54
 800818e:	89a3      	ldrhlt	r3, [r4, #12]
 8008190:	181b      	addge	r3, r3, r0
 8008192:	f423 5380 	biclt.w	r3, r3, #4096	; 0x1000
 8008196:	bfac      	ite	ge
 8008198:	6563      	strge	r3, [r4, #84]	; 0x54
 800819a:	81a3      	strhlt	r3, [r4, #12]
 800819c:	bd10      	pop	{r4, pc}

0800819e <__swrite>:
 800819e:	e92d 41f0 	stmdb	sp!, {r4, r5, r6, r7, r8, lr}
 80081a2:	461f      	mov	r7, r3
 80081a4:	898b      	ldrh	r3, [r1, #12]
 80081a6:	4605      	mov	r5, r0
 80081a8:	05db      	lsls	r3, r3, #23
 80081aa:	460c      	mov	r4, r1
 80081ac:	4616      	mov	r6, r2
 80081ae:	d505      	bpl.n	80081bc <__swrite+0x1e>
 80081b0:	2302      	movs	r3, #2
 80081b2:	2200      	movs	r2, #0
 80081b4:	f9b1 100e 	ldrsh.w	r1, [r1, #14]
 80081b8:	f000 f868 	bl	800828c <_lseek_r>
 80081bc:	89a3      	ldrh	r3, [r4, #12]
 80081be:	4632      	mov	r2, r6
 80081c0:	f423 5380 	bic.w	r3, r3, #4096	; 0x1000
 80081c4:	81a3      	strh	r3, [r4, #12]
 80081c6:	4628      	mov	r0, r5
 80081c8:	463b      	mov	r3, r7
 80081ca:	f9b4 100e 	ldrsh.w	r1, [r4, #14]
 80081ce:	e8bd 41f0 	ldmia.w	sp!, {r4, r5, r6, r7, r8, lr}
 80081d2:	f000 b817 	b.w	8008204 <_write_r>

080081d6 <__sseek>:
 80081d6:	b510      	push	{r4, lr}
 80081d8:	460c      	mov	r4, r1
 80081da:	f9b1 100e 	ldrsh.w	r1, [r1, #14]
 80081de:	f000 f855 	bl	800828c <_lseek_r>
 80081e2:	1c43      	adds	r3, r0, #1
 80081e4:	89a3      	ldrh	r3, [r4, #12]
 80081e6:	bf15      	itete	ne
 80081e8:	6560      	strne	r0, [r4, #84]	; 0x54
 80081ea:	f423 5380 	biceq.w	r3, r3, #4096	; 0x1000
 80081ee:	f443 5380 	orrne.w	r3, r3, #4096	; 0x1000
 80081f2:	81a3      	strheq	r3, [r4, #12]
 80081f4:	bf18      	it	ne
 80081f6:	81a3      	strhne	r3, [r4, #12]
 80081f8:	bd10      	pop	{r4, pc}

080081fa <__sclose>:
 80081fa:	f9b1 100e 	ldrsh.w	r1, [r1, #14]
 80081fe:	f000 b813 	b.w	8008228 <_close_r>
	...

08008204 <_write_r>:
 8008204:	b538      	push	{r3, r4, r5, lr}
 8008206:	4604      	mov	r4, r0
 8008208:	4608      	mov	r0, r1
 800820a:	4611      	mov	r1, r2
 800820c:	2200      	movs	r2, #0
 800820e:	4d05      	ldr	r5, [pc, #20]	; (8008224 <_write_r+0x20>)
 8008210:	602a      	str	r2, [r5, #0]
 8008212:	461a      	mov	r2, r3
 8008214:	f7f9 fb78 	bl	8001908 <_write>
 8008218:	1c43      	adds	r3, r0, #1
 800821a:	d102      	bne.n	8008222 <_write_r+0x1e>
 800821c:	682b      	ldr	r3, [r5, #0]
 800821e:	b103      	cbz	r3, 8008222 <_write_r+0x1e>
 8008220:	6023      	str	r3, [r4, #0]
 8008222:	bd38      	pop	{r3, r4, r5, pc}
 8008224:	200008cc 	.word	0x200008cc

08008228 <_close_r>:
 8008228:	b538      	push	{r3, r4, r5, lr}
 800822a:	2300      	movs	r3, #0
 800822c:	4d05      	ldr	r5, [pc, #20]	; (8008244 <_close_r+0x1c>)
 800822e:	4604      	mov	r4, r0
 8008230:	4608      	mov	r0, r1
 8008232:	602b      	str	r3, [r5, #0]
 8008234:	f7fa fd7a 	bl	8002d2c <_close>
 8008238:	1c43      	adds	r3, r0, #1
 800823a:	d102      	bne.n	8008242 <_close_r+0x1a>
 800823c:	682b      	ldr	r3, [r5, #0]
 800823e:	b103      	cbz	r3, 8008242 <_close_r+0x1a>
 8008240:	6023      	str	r3, [r4, #0]
 8008242:	bd38      	pop	{r3, r4, r5, pc}
 8008244:	200008cc 	.word	0x200008cc

08008248 <_fstat_r>:
 8008248:	b538      	push	{r3, r4, r5, lr}
 800824a:	2300      	movs	r3, #0
 800824c:	4d06      	ldr	r5, [pc, #24]	; (8008268 <_fstat_r+0x20>)
 800824e:	4604      	mov	r4, r0
 8008250:	4608      	mov	r0, r1
 8008252:	4611      	mov	r1, r2
 8008254:	602b      	str	r3, [r5, #0]
 8008256:	f7fa fd6d 	bl	8002d34 <_fstat>
 800825a:	1c43      	adds	r3, r0, #1
 800825c:	d102      	bne.n	8008264 <_fstat_r+0x1c>
 800825e:	682b      	ldr	r3, [r5, #0]
 8008260:	b103      	cbz	r3, 8008264 <_fstat_r+0x1c>
 8008262:	6023      	str	r3, [r4, #0]
 8008264:	bd38      	pop	{r3, r4, r5, pc}
 8008266:	bf00      	nop
 8008268:	200008cc 	.word	0x200008cc

0800826c <_isatty_r>:
 800826c:	b538      	push	{r3, r4, r5, lr}
 800826e:	2300      	movs	r3, #0
 8008270:	4d05      	ldr	r5, [pc, #20]	; (8008288 <_isatty_r+0x1c>)
 8008272:	4604      	mov	r4, r0
 8008274:	4608      	mov	r0, r1
 8008276:	602b      	str	r3, [r5, #0]
 8008278:	f7fa fd62 	bl	8002d40 <_isatty>
 800827c:	1c43      	adds	r3, r0, #1
 800827e:	d102      	bne.n	8008286 <_isatty_r+0x1a>
 8008280:	682b      	ldr	r3, [r5, #0]
 8008282:	b103      	cbz	r3, 8008286 <_isatty_r+0x1a>
 8008284:	6023      	str	r3, [r4, #0]
 8008286:	bd38      	pop	{r3, r4, r5, pc}
 8008288:	200008cc 	.word	0x200008cc

0800828c <_lseek_r>:
 800828c:	b538      	push	{r3, r4, r5, lr}
 800828e:	4604      	mov	r4, r0
 8008290:	4608      	mov	r0, r1
 8008292:	4611      	mov	r1, r2
 8008294:	2200      	movs	r2, #0
 8008296:	4d05      	ldr	r5, [pc, #20]	; (80082ac <_lseek_r+0x20>)
 8008298:	602a      	str	r2, [r5, #0]
 800829a:	461a      	mov	r2, r3
 800829c:	f7fa fd52 	bl	8002d44 <_lseek>
 80082a0:	1c43      	adds	r3, r0, #1
 80082a2:	d102      	bne.n	80082aa <_lseek_r+0x1e>
 80082a4:	682b      	ldr	r3, [r5, #0]
 80082a6:	b103      	cbz	r3, 80082aa <_lseek_r+0x1e>
 80082a8:	6023      	str	r3, [r4, #0]
 80082aa:	bd38      	pop	{r3, r4, r5, pc}
 80082ac:	200008cc 	.word	0x200008cc

080082b0 <_read_r>:
 80082b0:	b538      	push	{r3, r4, r5, lr}
 80082b2:	4604      	mov	r4, r0
 80082b4:	4608      	mov	r0, r1
 80082b6:	4611      	mov	r1, r2
 80082b8:	2200      	movs	r2, #0
 80082ba:	4d05      	ldr	r5, [pc, #20]	; (80082d0 <_read_r+0x20>)
 80082bc:	602a      	str	r2, [r5, #0]
 80082be:	461a      	mov	r2, r3
 80082c0:	f7fa fd26 	bl	8002d10 <_read>
 80082c4:	1c43      	adds	r3, r0, #1
 80082c6:	d102      	bne.n	80082ce <_read_r+0x1e>
 80082c8:	682b      	ldr	r3, [r5, #0]
 80082ca:	b103      	cbz	r3, 80082ce <_read_r+0x1e>
 80082cc:	6023      	str	r3, [r4, #0]
 80082ce:	bd38      	pop	{r3, r4, r5, pc}
 80082d0:	200008cc 	.word	0x200008cc

080082d4 <_init>:
 80082d4:	b5f8      	push	{r3, r4, r5, r6, r7, lr}
 80082d6:	bf00      	nop
 80082d8:	bcf8      	pop	{r3, r4, r5, r6, r7}
 80082da:	bc08      	pop	{r3}
 80082dc:	469e      	mov	lr, r3
 80082de:	4770      	bx	lr

080082e0 <_fini>:
 80082e0:	b5f8      	push	{r3, r4, r5, r6, r7, lr}
 80082e2:	bf00      	nop
 80082e4:	bcf8      	pop	{r3, r4, r5, r6, r7}
 80082e6:	bc08      	pop	{r3}
 80082e8:	469e      	mov	lr, r3
 80082ea:	4770      	bx	lr
