
GameBox.elf:     file format elf32-littlearm

Sections:
Idx Name          Size      VMA       LMA       File off  Algn
  0 .isr_vector   0000010c  08000000  08000000  00001000  2**0
                  CONTENTS, ALLOC, LOAD, READONLY, DATA
  1 .text         00006838  0800010c  0800010c  0000110c  2**2
                  CONTENTS, ALLOC, LOAD, READONLY, CODE
  2 .rodata       00001dbc  08006944  08006944  00007944  2**2
                  CONTENTS, ALLOC, LOAD, READONLY, DATA
  3 .ARM.extab    00000000  08008700  08008700  0000a0b4  2**0
                  CONTENTS
  4 .ARM          00000000  08008700  08008700  0000a0b4  2**0
                  CONTENTS
  5 .preinit_array 00000000  08008700  08008700  0000a0b4  2**0
                  CONTENTS, ALLOC, LOAD, DATA
  6 .init_array   00000004  08008700  08008700  00009700  2**2
                  CONTENTS, ALLOC, LOAD, READONLY, DATA
  7 .fini_array   00000004  08008704  08008704  00009704  2**2
                  CONTENTS, ALLOC, LOAD, READONLY, DATA
  8 .data         000000b4  20000000  08008708  0000a000  2**2
                  CONTENTS, ALLOC, LOAD, DATA
  9 .bss          00000af0  200000b4  080087bc  0000a0b4  2**2
                  ALLOC
 10 ._user_heap_stack 00000604  20000ba4  080087bc  0000aba4  2**0
                  ALLOC
 11 .ARM.attributes 00000029  00000000  00000000  0000a0b4  2**0
                  CONTENTS, READONLY
 12 .debug_info   00019bad  00000000  00000000  0000a0dd  2**0
                  CONTENTS, READONLY, DEBUGGING, OCTETS
 13 .debug_abbrev 00004021  00000000  00000000  00023c8a  2**0
                  CONTENTS, READONLY, DEBUGGING, OCTETS
 14 .debug_loclists 000081bb  00000000  00000000  00027cab  2**0
                  CONTENTS, READONLY, DEBUGGING, OCTETS
 15 .debug_aranges 00001288  00000000  00000000  0002fe68  2**3
                  CONTENTS, READONLY, DEBUGGING, OCTETS
 16 .debug_rnglists 000013f1  00000000  00000000  000310f0  2**0
                  CONTENTS, READONLY, DEBUGGING, OCTETS
 17 .debug_macro  0001a7ca  00000000  00000000  000324e1  2**0
                  CONTENTS, READONLY, DEBUGGING, OCTETS
 18 .debug_line   0001ae0b  00000000  00000000  0004ccab  2**0
                  CONTENTS, READONLY, DEBUGGING, OCTETS
 19 .debug_str    00094d18  00000000  00000000  00067ab6  2**0
                  CONTENTS, READONLY, DEBUGGING, OCTETS
 20 .comment      00000043  00000000  00000000  000fc7ce  2**0
                  CONTENTS, READONLY
 21 .debug_frame  00003af0  00000000  00000000  000fc814  2**2
                  CONTENTS, READONLY, DEBUGGING, OCTETS
 22 .debug_line_str 0000004e  00000000  00000000  00100304  2**0
                  CONTENTS, READONLY, DEBUGGING, OCTETS

Disassembly of section .text:

0800010c <__do_global_dtors_aux>:
 800010c:	b510      	push	{r4, lr}
 800010e:	4c05      	ldr	r4, [pc, #20]	@ (8000124 <__do_global_dtors_aux+0x18>)
 8000110:	7823      	ldrb	r3, [r4, #0]
 8000112:	b933      	cbnz	r3, 8000122 <__do_global_dtors_aux+0x16>
 8000114:	4b04      	ldr	r3, [pc, #16]	@ (8000128 <__do_global_dtors_aux+0x1c>)
 8000116:	b113      	cbz	r3, 800011e <__do_global_dtors_aux+0x12>
 8000118:	4804      	ldr	r0, [pc, #16]	@ (800012c <__do_global_dtors_aux+0x20>)
 800011a:	f3af 8000 	nop.w
 800011e:	2301      	movs	r3, #1
 8000120:	7023      	strb	r3, [r4, #0]
 8000122:	bd10      	pop	{r4, pc}
 8000124:	200000b4 	.word	0x200000b4
 8000128:	00000000 	.word	0x00000000
 800012c:	0800692c 	.word	0x0800692c

08000130 <frame_dummy>:
 8000130:	b508      	push	{r3, lr}
 8000132:	4b03      	ldr	r3, [pc, #12]	@ (8000140 <frame_dummy+0x10>)
 8000134:	b11b      	cbz	r3, 800013e <frame_dummy+0xe>
 8000136:	4903      	ldr	r1, [pc, #12]	@ (8000144 <frame_dummy+0x14>)
 8000138:	4803      	ldr	r0, [pc, #12]	@ (8000148 <frame_dummy+0x18>)
 800013a:	f3af 8000 	nop.w
 800013e:	bd08      	pop	{r3, pc}
 8000140:	00000000 	.word	0x00000000
 8000144:	200000b8 	.word	0x200000b8
 8000148:	0800692c 	.word	0x0800692c

0800014c <randinit>:
  return val;
}

void randinit(void)
{
  srand((uint8)timestamp);
 800014c:	4b01      	ldr	r3, [pc, #4]	@ (8000154 <randinit+0x8>)
 800014e:	7818      	ldrb	r0, [r3, #0]
 8000150:	f005 bbd6 	b.w	8005900 <srand>
 8000154:	200000e4 	.word	0x200000e4

08000158 <getrand>:
}

uint8 getrand(uint8 N)
{
 8000158:	b510      	push	{r4, lr}
 800015a:	4604      	mov	r4, r0
  return (rand() % (N + 1));
 800015c:	f005 fbfe 	bl	800595c <rand>
 8000160:	1c63      	adds	r3, r4, #1
 8000162:	fb90 f2f3 	sdiv	r2, r0, r3
 8000166:	fb02 0013 	mls	r0, r2, r3, r0
}
 800016a:	b2c0      	uxtb	r0, r0
 800016c:	bd10      	pop	{r4, pc}

0800016e <dig_to_smb>:

uint8 dig_to_smb(uint8 dig)
{
  switch (dig)
 800016e:	2809      	cmp	r0, #9
 8000170:	bf9a      	itte	ls
 8000172:	3030      	addls	r0, #48	@ 0x30
 8000174:	b2c0      	uxtbls	r0, r0
{
 8000176:	2000      	movhi	r0, #0
    case 7: return '7'; 
    case 8: return '8';
    case 9: return '9';
  }
  return 0;
}
 8000178:	4770      	bx	lr

0800017a <u16_to_str>:

void u16_to_str(uint8* str, uint16 num, uint8 N)
{ 
 800017a:	b530      	push	{r4, r5, lr}
  //sprintf((char*)str, "%u", num);
  
  str[0] = dig_to_smb((uint8)(num/10000));
 800017c:	f242 7410 	movw	r4, #10000	@ 0x2710
 8000180:	fbb1 f3f4 	udiv	r3, r1, r4
 8000184:	b2db      	uxtb	r3, r3
 8000186:	2b09      	cmp	r3, #9
 8000188:	bf8e      	itee	hi
 800018a:	2300      	movhi	r3, #0
 800018c:	3330      	addls	r3, #48	@ 0x30
 800018e:	b2db      	uxtbls	r3, r3
 8000190:	7003      	strb	r3, [r0, #0]
  num %= 10000;
 8000192:	fbb1 f3f4 	udiv	r3, r1, r4
 8000196:	fb04 1113 	mls	r1, r4, r3, r1
  str[1] = dig_to_smb((uint8)(num/1000));
 800019a:	f44f 747a 	mov.w	r4, #1000	@ 0x3e8
 800019e:	fbb1 f3f4 	udiv	r3, r1, r4
  num %= 1000;
 80001a2:	fb04 1113 	mls	r1, r4, r3, r1
  str[2] = dig_to_smb((uint8)(num/100));
 80001a6:	2464      	movs	r4, #100	@ 0x64
  str[1] = dig_to_smb((uint8)(num/1000));
 80001a8:	f103 0530 	add.w	r5, r3, #48	@ 0x30
  str[2] = dig_to_smb((uint8)(num/100));
 80001ac:	fbb1 f3f4 	udiv	r3, r1, r4
  num %= 100;
 80001b0:	fb04 1113 	mls	r1, r4, r3, r1
  str[3] = dig_to_smb((uint8)(num/10));
 80001b4:	240a      	movs	r4, #10
  str[1] = dig_to_smb((uint8)(num/1000));
 80001b6:	7045      	strb	r5, [r0, #1]
  str[2] = dig_to_smb((uint8)(num/100));
 80001b8:	f103 0530 	add.w	r5, r3, #48	@ 0x30
  str[3] = dig_to_smb((uint8)(num/10));
 80001bc:	fbb1 f3f4 	udiv	r3, r1, r4
  str[2] = dig_to_smb((uint8)(num/100));
 80001c0:	7085      	strb	r5, [r0, #2]
  str[4] = dig_to_smb((uint8)(num%10));
 80001c2:	fb04 1113 	mls	r1, r4, r3, r1
  str[3] = dig_to_smb((uint8)(num/10));
 80001c6:	f103 0530 	add.w	r5, r3, #48	@ 0x30
  str[5] = '\0';
 80001ca:	2300      	movs	r3, #0
  str[4] = dig_to_smb((uint8)(num%10));
 80001cc:	3130      	adds	r1, #48	@ 0x30
  
  if(N == 10)
 80001ce:	42a2      	cmp	r2, r4
  str[3] = dig_to_smb((uint8)(num/10));
 80001d0:	70c5      	strb	r5, [r0, #3]
  str[4] = dig_to_smb((uint8)(num%10));
 80001d2:	7101      	strb	r1, [r0, #4]
  str[5] = '\0';
 80001d4:	7143      	strb	r3, [r0, #5]
  if(N == 10)
 80001d6:	d112      	bne.n	80001fe <u16_to_str+0x84>
 80001d8:	1e42      	subs	r2, r0, #1
 80001da:	1d44      	adds	r4, r0, #5
  {
    uint8 chars = 0;
    for(int i = 0; i < 6; i++)
    {
      if((str[i] == '0') && !chars) continue;
 80001dc:	f812 1f01 	ldrb.w	r1, [r2, #1]!
 80001e0:	2930      	cmp	r1, #48	@ 0x30
 80001e2:	d100      	bne.n	80001e6 <u16_to_str+0x6c>
 80001e4:	b113      	cbz	r3, 80001ec <u16_to_str+0x72>
      str[chars] = str[i];
 80001e6:	54c1      	strb	r1, [r0, r3]
      chars++;
 80001e8:	3301      	adds	r3, #1
 80001ea:	b2db      	uxtb	r3, r3
    for(int i = 0; i < 6; i++)
 80001ec:	4294      	cmp	r4, r2
 80001ee:	d1f5      	bne.n	80001dc <u16_to_str+0x62>
    }
    if(chars == 1) 
 80001f0:	2b01      	cmp	r3, #1
 80001f2:	d103      	bne.n	80001fc <u16_to_str+0x82>
    {
      str[0] = '0';
 80001f4:	2330      	movs	r3, #48	@ 0x30
 80001f6:	7003      	strb	r3, [r0, #0]
      str[1] = '\0';
 80001f8:	2300      	movs	r3, #0
 80001fa:	7043      	strb	r3, [r0, #1]
  if((N < 5) && (N > 0))
  {
    for(uint8 i = 0; i <= N; i++) 
      str[i] = str[5 - N + i];
  }
}
 80001fc:	bd30      	pop	{r4, r5, pc}
  if((N < 5) && (N > 0))
 80001fe:	1e53      	subs	r3, r2, #1
 8000200:	2b03      	cmp	r3, #3
 8000202:	d8fb      	bhi.n	80001fc <u16_to_str+0x82>
 8000204:	f1c2 0205 	rsb	r2, r2, #5
 8000208:	4402      	add	r2, r0
 800020a:	1e43      	subs	r3, r0, #1
 800020c:	3006      	adds	r0, #6
      str[i] = str[5 - N + i];
 800020e:	f812 1b01 	ldrb.w	r1, [r2], #1
    for(uint8 i = 0; i <= N; i++) 
 8000212:	4282      	cmp	r2, r0
      str[i] = str[5 - N + i];
 8000214:	f803 1f01 	strb.w	r1, [r3, #1]!
    for(uint8 i = 0; i <= N; i++) 
 8000218:	d1f9      	bne.n	800020e <u16_to_str+0x94>
 800021a:	e7ef      	b.n	80001fc <u16_to_str+0x82>

0800021c <initbuttons>:
  //brightPWM = EEPROM_readbyte(PWM_MEMADR);
}

void initbuttons(void)
{
  B1 = CreateBtn(BTN_1_GPIO_Port, BTN_1_Pin, &timestamp);
 800021c:	2340      	movs	r3, #64	@ 0x40
 800021e:	4a12      	ldr	r2, [pc, #72]	@ (8000268 <initbuttons+0x4c>)
 8000220:	4812      	ldr	r0, [pc, #72]	@ (800026c <initbuttons+0x50>)
{
 8000222:	b510      	push	{r4, lr}
  B1 = CreateBtn(BTN_1_GPIO_Port, BTN_1_Pin, &timestamp);
 8000224:	e9c2 0300 	strd	r0, r3, [r2]
 8000228:	2300      	movs	r3, #0
  B2 = CreateBtn(BTN_2_GPIO_Port, BTN_2_Pin, &timestamp);
 800022a:	2480      	movs	r4, #128	@ 0x80
  B1 = CreateBtn(BTN_1_GPIO_Port, BTN_1_Pin, &timestamp);
 800022c:	4910      	ldr	r1, [pc, #64]	@ (8000270 <initbuttons+0x54>)
 800022e:	e9c2 3303 	strd	r3, r3, [r2, #12]
 8000232:	6091      	str	r1, [r2, #8]
 8000234:	7513      	strb	r3, [r2, #20]
  B2 = CreateBtn(BTN_2_GPIO_Port, BTN_2_Pin, &timestamp);
 8000236:	4a0f      	ldr	r2, [pc, #60]	@ (8000274 <initbuttons+0x58>)
 8000238:	e9c2 4101 	strd	r4, r1, [r2, #4]
  B3 = CreateBtn(BTN_3_GPIO_Port, BTN_3_Pin, &timestamp);
 800023c:	2410      	movs	r4, #16
  B2 = CreateBtn(BTN_2_GPIO_Port, BTN_2_Pin, &timestamp);
 800023e:	6010      	str	r0, [r2, #0]
 8000240:	e9c2 3303 	strd	r3, r3, [r2, #12]
 8000244:	7513      	strb	r3, [r2, #20]
  B3 = CreateBtn(BTN_3_GPIO_Port, BTN_3_Pin, &timestamp);
 8000246:	4a0c      	ldr	r2, [pc, #48]	@ (8000278 <initbuttons+0x5c>)
 8000248:	6010      	str	r0, [r2, #0]
 800024a:	e9c2 4101 	strd	r4, r1, [r2, #4]
 800024e:	e9c2 3303 	strd	r3, r3, [r2, #12]
 8000252:	7513      	strb	r3, [r2, #20]
  B4 = CreateBtn(BTN_4_GPIO_Port, BTN_4_Pin, &timestamp);
 8000254:	4a09      	ldr	r2, [pc, #36]	@ (800027c <initbuttons+0x60>)
 8000256:	6010      	str	r0, [r2, #0]
 8000258:	2020      	movs	r0, #32
 800025a:	e9c2 3303 	strd	r3, r3, [r2, #12]
 800025e:	7513      	strb	r3, [r2, #20]
 8000260:	e9c2 0101 	strd	r0, r1, [r2, #4]
}
 8000264:	bd10      	pop	{r4, pc}
 8000266:	bf00      	nop
 8000268:	20000134 	.word	0x20000134
 800026c:	40010c00 	.word	0x40010c00
 8000270:	200000e4 	.word	0x200000e4
 8000274:	2000011c 	.word	0x2000011c
 8000278:	20000104 	.word	0x20000104
 800027c:	200000ec 	.word	0x200000ec

08000280 <getbatlvl>:
{
  uint8 lvl = (240 - Ub) / 14;
  static uint8 Umax = 241;
  static uint8 Umin = 220;
  static uint8 reslvl = 0;
  if(Ub < 157) return 100; // bat to low, immediately shotdown code - 100
 8000280:	289c      	cmp	r0, #156	@ 0x9c
{
 8000282:	b510      	push	{r4, lr}
  if(Ub < 157) return 100; // bat to low, immediately shotdown code - 100
 8000284:	d946      	bls.n	8000314 <getbatlvl+0x94>
  Ub = clamp(Ub, 157, 241);
 8000286:	28f1      	cmp	r0, #241	@ 0xf1
 8000288:	4601      	mov	r1, r0
 800028a:	bf28      	it	cs
 800028c:	21f1      	movcs	r1, #241	@ 0xf1
  if((Ub <= Umax) && (Ub >= Umin)) return reslvl;
 800028e:	4a22      	ldr	r2, [pc, #136]	@ (8000318 <getbatlvl+0x98>)
 8000290:	7813      	ldrb	r3, [r2, #0]
 8000292:	428b      	cmp	r3, r1
 8000294:	4b21      	ldr	r3, [pc, #132]	@ (800031c <getbatlvl+0x9c>)
 8000296:	d305      	bcc.n	80002a4 <getbatlvl+0x24>
 8000298:	4c21      	ldr	r4, [pc, #132]	@ (8000320 <getbatlvl+0xa0>)
 800029a:	7824      	ldrb	r4, [r4, #0]
 800029c:	428c      	cmp	r4, r1
 800029e:	d801      	bhi.n	80002a4 <getbatlvl+0x24>
      case 3: Umin = 178; Umax = 199; reslvl = 3; break;
      case 4: Umin = 164; Umax = 185; reslvl = 4; break;
      case 5: Umin = 157; Umax = 171; reslvl = 5; break;
    }
  }
  return reslvl;
 80002a0:	7818      	ldrb	r0, [r3, #0]
}
 80002a2:	bd10      	pop	{r4, pc}
  uint8 lvl = (240 - Ub) / 14;
 80002a4:	210e      	movs	r1, #14
 80002a6:	f1c0 00f0 	rsb	r0, r0, #240	@ 0xf0
 80002aa:	fb90 f0f1 	sdiv	r0, r0, r1
    switch(lvl)
 80002ae:	b2c0      	uxtb	r0, r0
 80002b0:	2805      	cmp	r0, #5
 80002b2:	d8f5      	bhi.n	80002a0 <getbatlvl+0x20>
 80002b4:	e8df f000 	tbb	[pc, r0]
 80002b8:	19120b03 	.word	0x19120b03
 80002bc:	2720      	.short	0x2720
      case 0: Umin = 220; Umax = 241; reslvl = 0; break;
 80002be:	20dc      	movs	r0, #220	@ 0xdc
 80002c0:	4917      	ldr	r1, [pc, #92]	@ (8000320 <getbatlvl+0xa0>)
 80002c2:	7008      	strb	r0, [r1, #0]
 80002c4:	21f1      	movs	r1, #241	@ 0xf1
 80002c6:	7011      	strb	r1, [r2, #0]
 80002c8:	2200      	movs	r2, #0
      case 5: Umin = 157; Umax = 171; reslvl = 5; break;
 80002ca:	701a      	strb	r2, [r3, #0]
 80002cc:	e7e8      	b.n	80002a0 <getbatlvl+0x20>
      case 1: Umin = 206; Umax = 227; reslvl = 1; break;
 80002ce:	20ce      	movs	r0, #206	@ 0xce
 80002d0:	4913      	ldr	r1, [pc, #76]	@ (8000320 <getbatlvl+0xa0>)
 80002d2:	7008      	strb	r0, [r1, #0]
 80002d4:	21e3      	movs	r1, #227	@ 0xe3
 80002d6:	7011      	strb	r1, [r2, #0]
 80002d8:	2201      	movs	r2, #1
 80002da:	e7f6      	b.n	80002ca <getbatlvl+0x4a>
      case 2: Umin = 192; Umax = 213; reslvl = 2; break;
 80002dc:	20c0      	movs	r0, #192	@ 0xc0
 80002de:	4910      	ldr	r1, [pc, #64]	@ (8000320 <getbatlvl+0xa0>)
 80002e0:	7008      	strb	r0, [r1, #0]
 80002e2:	21d5      	movs	r1, #213	@ 0xd5
 80002e4:	7011      	strb	r1, [r2, #0]
 80002e6:	2202      	movs	r2, #2
 80002e8:	e7ef      	b.n	80002ca <getbatlvl+0x4a>
      case 3: Umin = 178; Umax = 199; reslvl = 3; break;
 80002ea:	20b2      	movs	r0, #178	@ 0xb2
 80002ec:	490c      	ldr	r1, [pc, #48]	@ (8000320 <getbatlvl+0xa0>)
 80002ee:	7008      	strb	r0, [r1, #0]
 80002f0:	21c7      	movs	r1, #199	@ 0xc7
 80002f2:	7011      	strb	r1, [r2, #0]
 80002f4:	2203      	movs	r2, #3
 80002f6:	e7e8      	b.n	80002ca <getbatlvl+0x4a>
      case 4: Umin = 164; Umax = 185; reslvl = 4; break;
 80002f8:	20a4      	movs	r0, #164	@ 0xa4
 80002fa:	4909      	ldr	r1, [pc, #36]	@ (8000320 <getbatlvl+0xa0>)
 80002fc:	7008      	strb	r0, [r1, #0]
 80002fe:	21b9      	movs	r1, #185	@ 0xb9
 8000300:	7011      	strb	r1, [r2, #0]
 8000302:	2204      	movs	r2, #4
 8000304:	e7e1      	b.n	80002ca <getbatlvl+0x4a>
      case 5: Umin = 157; Umax = 171; reslvl = 5; break;
 8000306:	209d      	movs	r0, #157	@ 0x9d
 8000308:	4905      	ldr	r1, [pc, #20]	@ (8000320 <getbatlvl+0xa0>)
 800030a:	7008      	strb	r0, [r1, #0]
 800030c:	21ab      	movs	r1, #171	@ 0xab
 800030e:	7011      	strb	r1, [r2, #0]
 8000310:	2205      	movs	r2, #5
 8000312:	e7da      	b.n	80002ca <getbatlvl+0x4a>
  if(Ub < 157) return 100; // bat to low, immediately shotdown code - 100
 8000314:	2064      	movs	r0, #100	@ 0x64
 8000316:	e7c4      	b.n	80002a2 <getbatlvl+0x22>
 8000318:	20000001 	.word	0x20000001
 800031c:	200000d0 	.word	0x200000d0
 8000320:	20000000 	.word	0x20000000

08000324 <batcheck>:

void batcheck(void)
{
 8000324:	b508      	push	{r3, lr}
  batlvl = getbatlvl(Ubat);
 8000326:	4b03      	ldr	r3, [pc, #12]	@ (8000334 <batcheck+0x10>)
 8000328:	7818      	ldrb	r0, [r3, #0]
 800032a:	f7ff ffa9 	bl	8000280 <getbatlvl>
 800032e:	4b02      	ldr	r3, [pc, #8]	@ (8000338 <batcheck+0x14>)
 8000330:	7018      	strb	r0, [r3, #0]
  if(batlvl == 100) ShutDownLB();
}
 8000332:	bd08      	pop	{r3, pc}
 8000334:	200000d3 	.word	0x200000d3
 8000338:	200000d2 	.word	0x200000d2

0800033c <ShutDown>:
  LCD_bufupload_buferase();
  while(1);*/
}

void ShutDown(void)
{
 800033c:	b508      	push	{r3, lr}
  LCD_bufupload_buferase();
 800033e:	f000 faf5 	bl	800092c <LCD_bufupload_buferase>
  HAL_GPIO_WritePin(SHUTDOWN_GPIO_Port, SHUTDOWN_Pin, RESET);
 8000342:	2200      	movs	r2, #0
 8000344:	f44f 5100 	mov.w	r1, #8192	@ 0x2000
 8000348:	4805      	ldr	r0, [pc, #20]	@ (8000360 <ShutDown+0x24>)
 800034a:	f004 f885 	bl	8004458 <HAL_GPIO_WritePin>
  LCD_printstr8x5((uint8*)"Выключение...", 3, 0);
 800034e:	2200      	movs	r2, #0
 8000350:	2103      	movs	r1, #3
 8000352:	4804      	ldr	r0, [pc, #16]	@ (8000364 <ShutDown+0x28>)
 8000354:	f000 fa8a 	bl	800086c <LCD_printstr8x5>
  LCD_bufupload_buferase();
 8000358:	f000 fae8 	bl	800092c <LCD_bufupload_buferase>
  while(1);
 800035c:	e7fe      	b.n	800035c <ShutDown+0x20>
 800035e:	bf00      	nop
 8000360:	40011000 	.word	0x40011000
 8000364:	08006951 	.word	0x08006951

08000368 <getbrightlvl>:
}

void getbrightlvl(void)
{
  brightlvl = ((brightPWM - 10) / 30) - 1;
 8000368:	221e      	movs	r2, #30
 800036a:	4b04      	ldr	r3, [pc, #16]	@ (800037c <getbrightlvl+0x14>)
 800036c:	781b      	ldrb	r3, [r3, #0]
 800036e:	3b0a      	subs	r3, #10
 8000370:	fb93 f3f2 	sdiv	r3, r3, r2
 8000374:	4a02      	ldr	r2, [pc, #8]	@ (8000380 <getbrightlvl+0x18>)
 8000376:	3b01      	subs	r3, #1
 8000378:	7013      	strb	r3, [r2, #0]
}
 800037a:	4770      	bx	lr
 800037c:	2000000c 	.word	0x2000000c
 8000380:	200000d1 	.word	0x200000d1

08000384 <decbright>:

void decbright(void)
{
  if(brightPWM <= 40) brightPWM = 70; 
 8000384:	4b04      	ldr	r3, [pc, #16]	@ (8000398 <decbright+0x14>)
 8000386:	781a      	ldrb	r2, [r3, #0]
 8000388:	2a28      	cmp	r2, #40	@ 0x28
 800038a:	bf9c      	itt	ls
 800038c:	2246      	movls	r2, #70	@ 0x46
 800038e:	701a      	strbls	r2, [r3, #0]
  brightPWM -=30;
 8000390:	781a      	ldrb	r2, [r3, #0]
 8000392:	3a1e      	subs	r2, #30
 8000394:	701a      	strb	r2, [r3, #0]
  //EEPROM_writebyte(PWM_MEMADR, brightPWM);
}
 8000396:	4770      	bx	lr
 8000398:	2000000c 	.word	0x2000000c

0800039c <incbright>:

void incbright(void)
{
  if(brightPWM >= 250) brightPWM = 220; 
 800039c:	4b04      	ldr	r3, [pc, #16]	@ (80003b0 <incbright+0x14>)
 800039e:	781a      	ldrb	r2, [r3, #0]
 80003a0:	2af9      	cmp	r2, #249	@ 0xf9
 80003a2:	bf84      	itt	hi
 80003a4:	22dc      	movhi	r2, #220	@ 0xdc
 80003a6:	701a      	strbhi	r2, [r3, #0]
  brightPWM +=30;
 80003a8:	781a      	ldrb	r2, [r3, #0]
 80003aa:	321e      	adds	r2, #30
 80003ac:	701a      	strb	r2, [r3, #0]
  //EEPROM_writebyte(PWM_MEMADR, brightPWM);
}
 80003ae:	4770      	bx	lr
 80003b0:	2000000c 	.word	0x2000000c

080003b4 <BrightPWMgen>:

extern TIM_HandleTypeDef htim1;
void BrightPWMgen(uint8 duty_cycle)
{
	uint16 dutyCycle = duty_cycle * 255;
 80003b4:	ebc0 2300 	rsb	r3, r0, r0, lsl #8
	__HAL_TIM_SET_COMPARE(&htim1, TIM_CHANNEL_1, dutyCycle);
 80003b8:	4802      	ldr	r0, [pc, #8]	@ (80003c4 <BrightPWMgen+0x10>)
	HAL_TIM_PWM_Start(&htim1, TIM_CHANNEL_1);
 80003ba:	2100      	movs	r1, #0
	__HAL_TIM_SET_COMPARE(&htim1, TIM_CHANNEL_1, dutyCycle);
 80003bc:	6802      	ldr	r2, [r0, #0]
 80003be:	6353      	str	r3, [r2, #52]	@ 0x34
	HAL_TIM_PWM_Start(&htim1, TIM_CHANNEL_1);
 80003c0:	f005 ba48 	b.w	8005854 <HAL_TIM_PWM_Start>
 80003c4:	2000055c 	.word	0x2000055c

080003c8 <commoninit>:
{
 80003c8:	b508      	push	{r3, lr}
  HAL_GPIO_WritePin(SHUTDOWN_GPIO_Port, SHUTDOWN_Pin, SET);
 80003ca:	2201      	movs	r2, #1
 80003cc:	f44f 5100 	mov.w	r1, #8192	@ 0x2000
 80003d0:	4806      	ldr	r0, [pc, #24]	@ (80003ec <commoninit+0x24>)
 80003d2:	f004 f841 	bl	8004458 <HAL_GPIO_WritePin>
  HAL_GPIO_WritePin(SOUND_OUT_GPIO_Port, SOUND_OUT_Pin, RESET);
 80003d6:	4806      	ldr	r0, [pc, #24]	@ (80003f0 <commoninit+0x28>)
 80003d8:	2200      	movs	r2, #0
 80003da:	f44f 5180 	mov.w	r1, #4096	@ 0x1000
 80003de:	f004 f83b 	bl	8004458 <HAL_GPIO_WritePin>
}
 80003e2:	e8bd 4008 	ldmia.w	sp!, {r3, lr}
  BrightPWMgen(220);
 80003e6:	20dc      	movs	r0, #220	@ 0xdc
 80003e8:	f7ff bfe4 	b.w	80003b4 <BrightPWMgen>
 80003ec:	40011000 	.word	0x40011000
 80003f0:	40010800 	.word	0x40010800

080003f4 <Sounds>:
}

void Sounds(uint16 delay)
{
 80003f4:	b5f7      	push	{r0, r1, r2, r4, r5, r6, r7, lr}
  volatile uint32 j;
  for(uint16 i = 0; i < (15000/delay); i++)
 80003f6:	f643 2698 	movw	r6, #15000	@ 0x3a98
  {  
  	HAL_GPIO_WritePin(SOUND_OUT_GPIO_Port, SOUND_OUT_Pin, SET);
    j = delay * 6;
 80003fa:	2306      	movs	r3, #6
  for(uint16 i = 0; i < (15000/delay); i++)
 80003fc:	fbb6 f6f0 	udiv	r6, r6, r0
 8000400:	2500      	movs	r5, #0
    j = delay * 6;
 8000402:	fb03 f400 	mul.w	r4, r3, r0
  	HAL_GPIO_WritePin(SOUND_OUT_GPIO_Port, SOUND_OUT_Pin, SET);
 8000406:	4f0f      	ldr	r7, [pc, #60]	@ (8000444 <Sounds+0x50>)
  for(uint16 i = 0; i < (15000/delay); i++)
 8000408:	42ae      	cmp	r6, r5
 800040a:	d101      	bne.n	8000410 <Sounds+0x1c>
    while(--j);
    HAL_GPIO_WritePin(SOUND_OUT_GPIO_Port, SOUND_OUT_Pin, RESET);
    j = delay * 6;
    while(--j);
  }
}
 800040c:	b003      	add	sp, #12
 800040e:	bdf0      	pop	{r4, r5, r6, r7, pc}
  	HAL_GPIO_WritePin(SOUND_OUT_GPIO_Port, SOUND_OUT_Pin, SET);
 8000410:	2201      	movs	r2, #1
 8000412:	f44f 5180 	mov.w	r1, #4096	@ 0x1000
 8000416:	4638      	mov	r0, r7
 8000418:	f004 f81e 	bl	8004458 <HAL_GPIO_WritePin>
    j = delay * 6;
 800041c:	9401      	str	r4, [sp, #4]
    while(--j);
 800041e:	9a01      	ldr	r2, [sp, #4]
 8000420:	3a01      	subs	r2, #1
 8000422:	9201      	str	r2, [sp, #4]
 8000424:	2a00      	cmp	r2, #0
 8000426:	d1fa      	bne.n	800041e <Sounds+0x2a>
    HAL_GPIO_WritePin(SOUND_OUT_GPIO_Port, SOUND_OUT_Pin, RESET);
 8000428:	f44f 5180 	mov.w	r1, #4096	@ 0x1000
 800042c:	4638      	mov	r0, r7
 800042e:	f004 f813 	bl	8004458 <HAL_GPIO_WritePin>
    j = delay * 6;
 8000432:	9401      	str	r4, [sp, #4]
    while(--j);
 8000434:	9b01      	ldr	r3, [sp, #4]
 8000436:	3b01      	subs	r3, #1
 8000438:	9301      	str	r3, [sp, #4]
 800043a:	2b00      	cmp	r3, #0
 800043c:	d1fa      	bne.n	8000434 <Sounds+0x40>
  for(uint16 i = 0; i < (15000/delay); i++)
 800043e:	3501      	adds	r5, #1
 8000440:	e7e2      	b.n	8000408 <Sounds+0x14>
 8000442:	bf00      	nop
 8000444:	40010800 	.word	0x40010800

08000448 <RTCgetdata>:

void RTCgetdata(tRTC* RTCdat)
{
  RTC_TimeTypeDef sTime = {0};
 8000448:	2300      	movs	r3, #0
{
 800044a:	b537      	push	{r0, r1, r2, r4, r5, lr}
 800044c:	4604      	mov	r4, r0
  RTC_DateTypeDef sDate = {0};
  HAL_RTC_GetDate(&hrtc, &sDate, RTC_FORMAT_BCD);
 800044e:	4d13      	ldr	r5, [pc, #76]	@ (800049c <RTCgetdata+0x54>)
 8000450:	a901      	add	r1, sp, #4
 8000452:	2201      	movs	r2, #1
 8000454:	4628      	mov	r0, r5
  RTC_TimeTypeDef sTime = {0};
 8000456:	f8ad 3000 	strh.w	r3, [sp]
 800045a:	f88d 3002 	strb.w	r3, [sp, #2]
  RTC_DateTypeDef sDate = {0};
 800045e:	9301      	str	r3, [sp, #4]
  HAL_RTC_GetDate(&hrtc, &sDate, RTC_FORMAT_BCD);
 8000460:	f004 fd5c 	bl	8004f1c <HAL_RTC_GetDate>
  HAL_RTC_GetTime(&hrtc, &sTime, RTC_FORMAT_BCD);
 8000464:	2201      	movs	r2, #1
 8000466:	4669      	mov	r1, sp
 8000468:	4628      	mov	r0, r5
 800046a:	f004 fc4d 	bl	8004d08 <HAL_RTC_GetTime>
  RTCdat->sec = sTime.Seconds;
 800046e:	f89d 3002 	ldrb.w	r3, [sp, #2]
 8000472:	7023      	strb	r3, [r4, #0]
  RTCdat->min = sTime.Minutes;
 8000474:	f89d 3001 	ldrb.w	r3, [sp, #1]
 8000478:	7063      	strb	r3, [r4, #1]
  RTCdat->hour = sTime.Hours;
 800047a:	f89d 3000 	ldrb.w	r3, [sp]
 800047e:	70a3      	strb	r3, [r4, #2]
  RTCdat->day = sDate.Date;
 8000480:	f89d 3006 	ldrb.w	r3, [sp, #6]
 8000484:	70e3      	strb	r3, [r4, #3]
  RTCdat->month = sDate.Month;
 8000486:	f89d 3005 	ldrb.w	r3, [sp, #5]
 800048a:	7163      	strb	r3, [r4, #5]
  RTCdat->weekday = sDate.WeekDay;
 800048c:	f89d 3004 	ldrb.w	r3, [sp, #4]
 8000490:	7123      	strb	r3, [r4, #4]
  RTCdat->year = sDate.Year;
 8000492:	f89d 3007 	ldrb.w	r3, [sp, #7]
 8000496:	71a3      	strb	r3, [r4, #6]
}
 8000498:	b003      	add	sp, #12
 800049a:	bd30      	pop	{r4, r5, pc}
 800049c:	20000654 	.word	0x20000654

080004a0 <RTCsenddata>:

void RTCsenddata(tRTC* RTCdat)
{
 80004a0:	b513      	push	{r0, r1, r4, lr}
  RTC_TimeTypeDef sTime = {0};
  RTC_DateTypeDef sDate = {0};
  sTime.Seconds = RTCdat->sec;
 80004a2:	7803      	ldrb	r3, [r0, #0]
  sTime.Hours = RTCdat->hour;
  sDate.Date = RTCdat->day;
  sDate.Month = RTCdat->month;
  sDate.WeekDay = RTCdat->weekday;
  sDate.Year = RTCdat->year;
  HAL_RTC_SetTime(&hrtc, &sTime, RTC_FORMAT_BCD);
 80004a4:	4c10      	ldr	r4, [pc, #64]	@ (80004e8 <RTCsenddata+0x48>)
  sTime.Seconds = RTCdat->sec;
 80004a6:	f88d 3002 	strb.w	r3, [sp, #2]
  sTime.Minutes = RTCdat->min;
 80004aa:	7843      	ldrb	r3, [r0, #1]
  HAL_RTC_SetTime(&hrtc, &sTime, RTC_FORMAT_BCD);
 80004ac:	4669      	mov	r1, sp
  sTime.Minutes = RTCdat->min;
 80004ae:	f88d 3001 	strb.w	r3, [sp, #1]
  sTime.Hours = RTCdat->hour;
 80004b2:	7883      	ldrb	r3, [r0, #2]
  HAL_RTC_SetTime(&hrtc, &sTime, RTC_FORMAT_BCD);
 80004b4:	2201      	movs	r2, #1
  sTime.Hours = RTCdat->hour;
 80004b6:	f88d 3000 	strb.w	r3, [sp]
  sDate.Date = RTCdat->day;
 80004ba:	78c3      	ldrb	r3, [r0, #3]
 80004bc:	f88d 3006 	strb.w	r3, [sp, #6]
  sDate.Month = RTCdat->month;
 80004c0:	7943      	ldrb	r3, [r0, #5]
 80004c2:	f88d 3005 	strb.w	r3, [sp, #5]
  sDate.WeekDay = RTCdat->weekday;
 80004c6:	7903      	ldrb	r3, [r0, #4]
 80004c8:	f88d 3004 	strb.w	r3, [sp, #4]
  sDate.Year = RTCdat->year;
 80004cc:	7983      	ldrb	r3, [r0, #6]
  HAL_RTC_SetTime(&hrtc, &sTime, RTC_FORMAT_BCD);
 80004ce:	4620      	mov	r0, r4
  sDate.Year = RTCdat->year;
 80004d0:	f88d 3007 	strb.w	r3, [sp, #7]
  HAL_RTC_SetTime(&hrtc, &sTime, RTC_FORMAT_BCD);
 80004d4:	f004 fbc6 	bl	8004c64 <HAL_RTC_SetTime>
  HAL_RTC_SetDate(&hrtc, &sDate, RTC_FORMAT_BCD);
 80004d8:	2201      	movs	r2, #1
 80004da:	4620      	mov	r0, r4
 80004dc:	a901      	add	r1, sp, #4
 80004de:	f004 fcc7 	bl	8004e70 <HAL_RTC_SetDate>
}
 80004e2:	b002      	add	sp, #8
 80004e4:	bd10      	pop	{r4, pc}
 80004e6:	bf00      	nop
 80004e8:	20000654 	.word	0x20000654

080004ec <rtcrawtobcd>:

void rtcrawtobcd(void)
{
  rtcbcd.year = (uint8)((rtcraw.year / 10) << 4) | (rtcraw.year % 10);
 80004ec:	230a      	movs	r3, #10
 80004ee:	481c      	ldr	r0, [pc, #112]	@ (8000560 <rtcrawtobcd+0x74>)
{
 80004f0:	b510      	push	{r4, lr}
  rtcbcd.year = (uint8)((rtcraw.year / 10) << 4) | (rtcraw.year % 10);
 80004f2:	7982      	ldrb	r2, [r0, #6]
 80004f4:	491b      	ldr	r1, [pc, #108]	@ (8000564 <rtcrawtobcd+0x78>)
 80004f6:	fbb2 f4f3 	udiv	r4, r2, r3
 80004fa:	fb03 2214 	mls	r2, r3, r4, r2
 80004fe:	ea42 1204 	orr.w	r2, r2, r4, lsl #4
 8000502:	718a      	strb	r2, [r1, #6]
  rtcbcd.month = (0x80 | (uint8)((rtcraw.month / 10) << 4)) | rtcraw.month % 10;
 8000504:	7942      	ldrb	r2, [r0, #5]
 8000506:	fbb2 f4f3 	udiv	r4, r2, r3
 800050a:	fb03 2214 	mls	r2, r3, r4, r2
 800050e:	ea42 1204 	orr.w	r2, r2, r4, lsl #4
 8000512:	f062 027f 	orn	r2, r2, #127	@ 0x7f
 8000516:	714a      	strb	r2, [r1, #5]
  rtcbcd.day = (uint8)((rtcraw.day / 10) << 4) | (rtcraw.day % 10);
 8000518:	78c2      	ldrb	r2, [r0, #3]
 800051a:	fbb2 f4f3 	udiv	r4, r2, r3
 800051e:	fb03 2214 	mls	r2, r3, r4, r2
 8000522:	ea42 1204 	orr.w	r2, r2, r4, lsl #4
 8000526:	70ca      	strb	r2, [r1, #3]
  rtcbcd.weekday = rtcraw.weekday;
 8000528:	7902      	ldrb	r2, [r0, #4]
 800052a:	710a      	strb	r2, [r1, #4]
  rtcbcd.hour = (uint8)((rtcraw.hour / 10) << 4) | (rtcraw.hour % 10);
 800052c:	7882      	ldrb	r2, [r0, #2]
 800052e:	fbb2 f4f3 	udiv	r4, r2, r3
 8000532:	fb03 2214 	mls	r2, r3, r4, r2
 8000536:	ea42 1204 	orr.w	r2, r2, r4, lsl #4
 800053a:	708a      	strb	r2, [r1, #2]
  rtcbcd.min = (uint8)((rtcraw.min / 10) << 4) | (rtcraw.min % 10);
 800053c:	7842      	ldrb	r2, [r0, #1]
 800053e:	fbb2 f4f3 	udiv	r4, r2, r3
 8000542:	fb03 2214 	mls	r2, r3, r4, r2
 8000546:	ea42 1204 	orr.w	r2, r2, r4, lsl #4
 800054a:	704a      	strb	r2, [r1, #1]
  rtcbcd.sec = (uint8)((rtcraw.sec / 10) << 4) | (rtcraw.sec % 10);
 800054c:	7802      	ldrb	r2, [r0, #0]
 800054e:	fbb2 f0f3 	udiv	r0, r2, r3
 8000552:	fb03 2210 	mls	r2, r3, r0, r2
 8000556:	ea42 1200 	orr.w	r2, r2, r0, lsl #4
 800055a:	700a      	strb	r2, [r1, #0]
}
 800055c:	bd10      	pop	{r4, pc}
 800055e:	bf00      	nop
 8000560:	200000d4 	.word	0x200000d4
 8000564:	200000db 	.word	0x200000db

08000568 <rtcbcdtoraw>:

void rtcbcdtoraw(void)
{
  rtcraw.year = (rtcbcd.year >> 4) * 10 + (rtcbcd.year & 0x0F);
 8000568:	4a20      	ldr	r2, [pc, #128]	@ (80005ec <rtcbcdtoraw+0x84>)
 800056a:	4b21      	ldr	r3, [pc, #132]	@ (80005f0 <rtcbcdtoraw+0x88>)
 800056c:	7991      	ldrb	r1, [r2, #6]
 800056e:	0908      	lsrs	r0, r1, #4
 8000570:	eb00 0080 	add.w	r0, r0, r0, lsl #2
 8000574:	f001 010f 	and.w	r1, r1, #15
 8000578:	eb01 0140 	add.w	r1, r1, r0, lsl #1
 800057c:	7199      	strb	r1, [r3, #6]
  rtcraw.month = ((rtcbcd.month & 0x1F) >> 4) * 10 + (rtcbcd.month & 0x0F);
 800057e:	7951      	ldrb	r1, [r2, #5]
 8000580:	f3c1 1000 	ubfx	r0, r1, #4, #1
 8000584:	eb00 0080 	add.w	r0, r0, r0, lsl #2
 8000588:	f001 010f 	and.w	r1, r1, #15
 800058c:	eb01 0140 	add.w	r1, r1, r0, lsl #1
 8000590:	7159      	strb	r1, [r3, #5]
  rtcraw.day = ((rtcbcd.day & 0x3F) >> 4) * 10 + (rtcbcd.day & 0x0F);
 8000592:	78d1      	ldrb	r1, [r2, #3]
 8000594:	f3c1 1001 	ubfx	r0, r1, #4, #2
 8000598:	eb00 0080 	add.w	r0, r0, r0, lsl #2
 800059c:	f001 010f 	and.w	r1, r1, #15
 80005a0:	eb01 0140 	add.w	r1, r1, r0, lsl #1
 80005a4:	70d9      	strb	r1, [r3, #3]
  rtcraw.weekday = rtcbcd.weekday & 0x07;
 80005a6:	7911      	ldrb	r1, [r2, #4]
 80005a8:	f001 0107 	and.w	r1, r1, #7
 80005ac:	7119      	strb	r1, [r3, #4]
  rtcraw.hour = ((rtcbcd.hour & 0x3F) >> 4) * 10 + (rtcbcd.hour & 0x0F);
 80005ae:	7891      	ldrb	r1, [r2, #2]
 80005b0:	f3c1 1001 	ubfx	r0, r1, #4, #2
 80005b4:	eb00 0080 	add.w	r0, r0, r0, lsl #2
 80005b8:	f001 010f 	and.w	r1, r1, #15
 80005bc:	eb01 0140 	add.w	r1, r1, r0, lsl #1
 80005c0:	7099      	strb	r1, [r3, #2]
  rtcraw.min = ((rtcbcd.min & 0x7F) >> 4) * 10 + (rtcbcd.min & 0x0F);
 80005c2:	7851      	ldrb	r1, [r2, #1]
  rtcraw.sec = ((rtcbcd.sec & 0x7F) >> 4) * 10 + (rtcbcd.sec & 0x0F);
 80005c4:	7812      	ldrb	r2, [r2, #0]
  rtcraw.min = ((rtcbcd.min & 0x7F) >> 4) * 10 + (rtcbcd.min & 0x0F);
 80005c6:	f3c1 1002 	ubfx	r0, r1, #4, #3
 80005ca:	eb00 0080 	add.w	r0, r0, r0, lsl #2
 80005ce:	f001 010f 	and.w	r1, r1, #15
 80005d2:	eb01 0140 	add.w	r1, r1, r0, lsl #1
 80005d6:	7059      	strb	r1, [r3, #1]
  rtcraw.sec = ((rtcbcd.sec & 0x7F) >> 4) * 10 + (rtcbcd.sec & 0x0F);
 80005d8:	f3c2 1102 	ubfx	r1, r2, #4, #3
 80005dc:	eb01 0181 	add.w	r1, r1, r1, lsl #2
 80005e0:	f002 020f 	and.w	r2, r2, #15
 80005e4:	eb02 0241 	add.w	r2, r2, r1, lsl #1
 80005e8:	701a      	strb	r2, [r3, #0]
}
 80005ea:	4770      	bx	lr
 80005ec:	200000db 	.word	0x200000db
 80005f0:	200000d4 	.word	0x200000d4

080005f4 <TestBtn>:
  TestBtn(&B4);
  checkjoydir();
}

void TestBtn(tButton* btn)
{
 80005f4:	b510      	push	{r4, lr}
  if (!HAL_GPIO_ReadPin(btn->Port, btn->Pin) && !btn->BtnFl && ((*(btn->timecounter) - btn->btnTimer) > 30)) {
 80005f6:	8881      	ldrh	r1, [r0, #4]
{
 80005f8:	4604      	mov	r4, r0
  if (!HAL_GPIO_ReadPin(btn->Port, btn->Pin) && !btn->BtnFl && ((*(btn->timecounter) - btn->btnTimer) > 30)) {
 80005fa:	6800      	ldr	r0, [r0, #0]
 80005fc:	f003 ff26 	bl	800444c <HAL_GPIO_ReadPin>
 8000600:	b980      	cbnz	r0, 8000624 <TestBtn+0x30>
 8000602:	7c23      	ldrb	r3, [r4, #16]
 8000604:	b973      	cbnz	r3, 8000624 <TestBtn+0x30>
 8000606:	68a3      	ldr	r3, [r4, #8]
 8000608:	681a      	ldr	r2, [r3, #0]
 800060a:	68e3      	ldr	r3, [r4, #12]
 800060c:	1ad3      	subs	r3, r2, r3
 800060e:	2b1e      	cmp	r3, #30
 8000610:	d908      	bls.n	8000624 <TestBtn+0x30>
    if(btn->Toggle) btn->Toggle = 0; 
 8000612:	7ca3      	ldrb	r3, [r4, #18]
    else btn->Toggle = 1;
    btn->BtnFl = 1;
    btn->btnTimer = *(btn->timecounter); 
 8000614:	60e2      	str	r2, [r4, #12]
    if(btn->Toggle) btn->Toggle = 0; 
 8000616:	fab3 f383 	clz	r3, r3
 800061a:	095b      	lsrs	r3, r3, #5
 800061c:	74a3      	strb	r3, [r4, #18]
    btn->BtnFl = 1;
 800061e:	f240 1301 	movw	r3, #257	@ 0x101
 8000622:	8223      	strh	r3, [r4, #16]
    btn->BtnON = 1;
  }
  if (HAL_GPIO_ReadPin(btn->Port, btn->Pin) && ((*(btn->timecounter) - btn->btnTimer) > 30)) {
 8000624:	88a1      	ldrh	r1, [r4, #4]
 8000626:	6820      	ldr	r0, [r4, #0]
 8000628:	f003 ff10 	bl	800444c <HAL_GPIO_ReadPin>
 800062c:	b150      	cbz	r0, 8000644 <TestBtn+0x50>
 800062e:	68a3      	ldr	r3, [r4, #8]
 8000630:	681a      	ldr	r2, [r3, #0]
 8000632:	68e3      	ldr	r3, [r4, #12]
 8000634:	1ad3      	subs	r3, r2, r3
 8000636:	2b1e      	cmp	r3, #30
 8000638:	d904      	bls.n	8000644 <TestBtn+0x50>
    btn->BtnFl = 0;
 800063a:	2300      	movs	r3, #0
    btn->HoldON = 0;
    btn->StuckON = 0;
    btn->btnTimer = *(btn->timecounter);
 800063c:	60e2      	str	r2, [r4, #12]
    btn->BtnFl = 0;
 800063e:	7423      	strb	r3, [r4, #16]
    btn->HoldON = 0;
 8000640:	74e3      	strb	r3, [r4, #19]
    btn->StuckON = 0;
 8000642:	7523      	strb	r3, [r4, #20]
  }
  if (!HAL_GPIO_ReadPin(btn->Port, btn->Pin) && btn->BtnFl && ((*(btn->timecounter) - btn->btnTimer) > BTN_HOLD_ON_DELAY) && ((*(btn->timecounter) - btn->btnTimer) <= BTN_STUCK_ON_DELAY)) {
 8000644:	88a1      	ldrh	r1, [r4, #4]
 8000646:	6820      	ldr	r0, [r4, #0]
 8000648:	f003 ff00 	bl	800444c <HAL_GPIO_ReadPin>
 800064c:	b9a0      	cbnz	r0, 8000678 <TestBtn+0x84>
 800064e:	7c23      	ldrb	r3, [r4, #16]
 8000650:	b193      	cbz	r3, 8000678 <TestBtn+0x84>
 8000652:	68a3      	ldr	r3, [r4, #8]
 8000654:	68e2      	ldr	r2, [r4, #12]
 8000656:	681b      	ldr	r3, [r3, #0]
 8000658:	1a9b      	subs	r3, r3, r2
 800065a:	4a13      	ldr	r2, [pc, #76]	@ (80006a8 <TestBtn+0xb4>)
 800065c:	6812      	ldr	r2, [r2, #0]
 800065e:	4293      	cmp	r3, r2
 8000660:	d90a      	bls.n	8000678 <TestBtn+0x84>
 8000662:	4a12      	ldr	r2, [pc, #72]	@ (80006ac <TestBtn+0xb8>)
 8000664:	6812      	ldr	r2, [r2, #0]
 8000666:	4293      	cmp	r3, r2
 8000668:	d806      	bhi.n	8000678 <TestBtn+0x84>
    btn->HoldON = 1;
 800066a:	2301      	movs	r3, #1
    if(btn->Toggle) btn->Toggle = 0; 
 800066c:	7ca2      	ldrb	r2, [r4, #18]
    btn->HoldON = 1;
 800066e:	74e3      	strb	r3, [r4, #19]
    if(btn->Toggle) btn->Toggle = 0; 
 8000670:	2a00      	cmp	r2, #0
 8000672:	bf18      	it	ne
 8000674:	4603      	movne	r3, r0
 8000676:	74a3      	strb	r3, [r4, #18]
    else btn->Toggle = 1;
  }
  if (!HAL_GPIO_ReadPin(btn->Port, btn->Pin) && btn->BtnFl && ((*(btn->timecounter) - btn->btnTimer) > BTN_STUCK_ON_DELAY)) {
 8000678:	88a1      	ldrh	r1, [r4, #4]
 800067a:	6820      	ldr	r0, [r4, #0]
 800067c:	f003 fee6 	bl	800444c <HAL_GPIO_ReadPin>
 8000680:	b988      	cbnz	r0, 80006a6 <TestBtn+0xb2>
 8000682:	7c23      	ldrb	r3, [r4, #16]
 8000684:	b17b      	cbz	r3, 80006a6 <TestBtn+0xb2>
 8000686:	68a3      	ldr	r3, [r4, #8]
 8000688:	68e2      	ldr	r2, [r4, #12]
 800068a:	681b      	ldr	r3, [r3, #0]
 800068c:	1a9b      	subs	r3, r3, r2
 800068e:	4a07      	ldr	r2, [pc, #28]	@ (80006ac <TestBtn+0xb8>)
 8000690:	6812      	ldr	r2, [r2, #0]
 8000692:	4293      	cmp	r3, r2
 8000694:	d907      	bls.n	80006a6 <TestBtn+0xb2>
    btn->HoldON = 0;
    btn->StuckON = 1;
 8000696:	2301      	movs	r3, #1
    if(btn->Toggle) btn->Toggle = 0; 
 8000698:	7ca2      	ldrb	r2, [r4, #18]
    btn->StuckON = 1;
 800069a:	7523      	strb	r3, [r4, #20]
    if(btn->Toggle) btn->Toggle = 0; 
 800069c:	2a00      	cmp	r2, #0
 800069e:	bf18      	it	ne
 80006a0:	4603      	movne	r3, r0
    btn->HoldON = 0;
 80006a2:	74e0      	strb	r0, [r4, #19]
    if(btn->Toggle) btn->Toggle = 0; 
 80006a4:	74a3      	strb	r3, [r4, #18]
    else btn->Toggle = 1;
  }
}
 80006a6:	bd10      	pop	{r4, pc}
 80006a8:	20000008 	.word	0x20000008
 80006ac:	20000004 	.word	0x20000004

080006b0 <checkjoydir>:

void checkjoydir(void)
{
    if(joystick.oy > 150 && joystick.joyFl == 0) {
 80006b0:	4b1b      	ldr	r3, [pc, #108]	@ (8000720 <checkjoydir+0x70>)
 80006b2:	7899      	ldrb	r1, [r3, #2]
 80006b4:	2996      	cmp	r1, #150	@ 0x96
 80006b6:	d91e      	bls.n	80006f6 <checkjoydir+0x46>
 80006b8:	781a      	ldrb	r2, [r3, #0]
 80006ba:	06d0      	lsls	r0, r2, #27
 80006bc:	d404      	bmi.n	80006c8 <checkjoydir+0x18>
        joystick.up = 1; 
 80006be:	f022 0211 	bic.w	r2, r2, #17
 80006c2:	f042 0211 	orr.w	r2, r2, #17
        joystick.joyFl = 1;
    }
    if(joystick.oy < 100 && joystick.joyFl == 0) {
        joystick.down = 1; 
 80006c6:	701a      	strb	r2, [r3, #0]
        joystick.joyFl = 1;
    }
    if(joystick.ox > 150 && joystick.joyFl == 0) {
 80006c8:	7858      	ldrb	r0, [r3, #1]
 80006ca:	2896      	cmp	r0, #150	@ 0x96
 80006cc:	d91d      	bls.n	800070a <checkjoydir+0x5a>
 80006ce:	781a      	ldrb	r2, [r3, #0]
 80006d0:	f012 0f10 	tst.w	r2, #16
 80006d4:	d104      	bne.n	80006e0 <checkjoydir+0x30>
        joystick.right = 1; 
 80006d6:	f022 0218 	bic.w	r2, r2, #24
 80006da:	f042 0218 	orr.w	r2, r2, #24
        joystick.joyFl = 1;
    }
    if(joystick.ox < 100 && joystick.joyFl == 0) {
        joystick.left = 1; 
 80006de:	701a      	strb	r2, [r3, #0]
        joystick.joyFl = 1;
    }
    if(joystick.oy < 150 && joystick.oy > 100 && joystick.ox < 150 && joystick.ox > 100) joystick.joyFl = 0;
 80006e0:	3965      	subs	r1, #101	@ 0x65
 80006e2:	2930      	cmp	r1, #48	@ 0x30
 80006e4:	d806      	bhi.n	80006f4 <checkjoydir+0x44>
 80006e6:	3865      	subs	r0, #101	@ 0x65
 80006e8:	2830      	cmp	r0, #48	@ 0x30
 80006ea:	bf9e      	ittt	ls
 80006ec:	781a      	ldrbls	r2, [r3, #0]
 80006ee:	f36f 1204 	bfcls	r2, #4, #1
 80006f2:	701a      	strbls	r2, [r3, #0]
}
 80006f4:	4770      	bx	lr
    if(joystick.oy < 100 && joystick.joyFl == 0) {
 80006f6:	2963      	cmp	r1, #99	@ 0x63
 80006f8:	d8e6      	bhi.n	80006c8 <checkjoydir+0x18>
 80006fa:	781a      	ldrb	r2, [r3, #0]
 80006fc:	06d0      	lsls	r0, r2, #27
 80006fe:	d4e3      	bmi.n	80006c8 <checkjoydir+0x18>
        joystick.down = 1; 
 8000700:	f022 0212 	bic.w	r2, r2, #18
 8000704:	f042 0212 	orr.w	r2, r2, #18
 8000708:	e7dd      	b.n	80006c6 <checkjoydir+0x16>
    if(joystick.ox < 100 && joystick.joyFl == 0) {
 800070a:	2863      	cmp	r0, #99	@ 0x63
 800070c:	d8e8      	bhi.n	80006e0 <checkjoydir+0x30>
 800070e:	781a      	ldrb	r2, [r3, #0]
 8000710:	f012 0f10 	tst.w	r2, #16
 8000714:	d1e4      	bne.n	80006e0 <checkjoydir+0x30>
        joystick.left = 1; 
 8000716:	f022 0214 	bic.w	r2, r2, #20
 800071a:	f042 0214 	orr.w	r2, r2, #20
 800071e:	e7de      	b.n	80006de <checkjoydir+0x2e>
 8000720:	200000e8 	.word	0x200000e8

08000724 <check_btn_jstk>:
{
 8000724:	b508      	push	{r3, lr}
  TestBtn(&B1);
 8000726:	4808      	ldr	r0, [pc, #32]	@ (8000748 <check_btn_jstk+0x24>)
 8000728:	f7ff ff64 	bl	80005f4 <TestBtn>
  TestBtn(&B2);
 800072c:	4807      	ldr	r0, [pc, #28]	@ (800074c <check_btn_jstk+0x28>)
 800072e:	f7ff ff61 	bl	80005f4 <TestBtn>
  TestBtn(&B3);
 8000732:	4807      	ldr	r0, [pc, #28]	@ (8000750 <check_btn_jstk+0x2c>)
 8000734:	f7ff ff5e 	bl	80005f4 <TestBtn>
  TestBtn(&B4);
 8000738:	4806      	ldr	r0, [pc, #24]	@ (8000754 <check_btn_jstk+0x30>)
 800073a:	f7ff ff5b 	bl	80005f4 <TestBtn>
}
 800073e:	e8bd 4008 	ldmia.w	sp!, {r3, lr}
  checkjoydir();
 8000742:	f7ff bfb5 	b.w	80006b0 <checkjoydir>
 8000746:	bf00      	nop
 8000748:	20000134 	.word	0x20000134
 800074c:	2000011c 	.word	0x2000011c
 8000750:	20000104 	.word	0x20000104
 8000754:	200000ec 	.word	0x200000ec

08000758 <lcd_sendcommands>:
	LCD_bufupload_buferase();
	DISP_INIT_SEND_DAT;
}

void lcd_sendcommands(uint8_t* data, uint8_t N)
{
 8000758:	b570      	push	{r4, r5, r6, lr}
 800075a:	4604      	mov	r4, r0
 800075c:	460d      	mov	r5, r1
  DISP_INIT_SEND_COM;
 800075e:	4e09      	ldr	r6, [pc, #36]	@ (8000784 <lcd_sendcommands+0x2c>)
 8000760:	2200      	movs	r2, #0
 8000762:	4630      	mov	r0, r6
 8000764:	2102      	movs	r1, #2
 8000766:	f003 fe77 	bl	8004458 <HAL_GPIO_WritePin>
  HAL_SPI_Transmit(&hspi2, data, N, 10);
 800076a:	462a      	mov	r2, r5
 800076c:	4621      	mov	r1, r4
 800076e:	230a      	movs	r3, #10
 8000770:	4805      	ldr	r0, [pc, #20]	@ (8000788 <lcd_sendcommands+0x30>)
 8000772:	f004 fd31 	bl	80051d8 <HAL_SPI_Transmit>
  DISP_INIT_SEND_DAT;
 8000776:	4630      	mov	r0, r6
}
 8000778:	e8bd 4070 	ldmia.w	sp!, {r4, r5, r6, lr}
  DISP_INIT_SEND_DAT;
 800077c:	2201      	movs	r2, #1
 800077e:	2102      	movs	r1, #2
 8000780:	f003 be6a 	b.w	8004458 <HAL_GPIO_WritePin>
 8000784:	40010800 	.word	0x40010800
 8000788:	200005a4 	.word	0x200005a4

0800078c <LCD_writebyte>:

void LCD_writebyte(uint8 byte) {
 800078c:	b510      	push	{r4, lr}
  dispbuffer[bufpg][bufcl] |= byte;
 800078e:	4b06      	ldr	r3, [pc, #24]	@ (80007a8 <LCD_writebyte+0x1c>)
 8000790:	4906      	ldr	r1, [pc, #24]	@ (80007ac <LCD_writebyte+0x20>)
 8000792:	781c      	ldrb	r4, [r3, #0]
 8000794:	4a06      	ldr	r2, [pc, #24]	@ (80007b0 <LCD_writebyte+0x24>)
 8000796:	780b      	ldrb	r3, [r1, #0]
 8000798:	eb02 12c4 	add.w	r2, r2, r4, lsl #7
 800079c:	5cd4      	ldrb	r4, [r2, r3]
 800079e:	4320      	orrs	r0, r4
 80007a0:	54d0      	strb	r0, [r2, r3]
  bufcl++;
 80007a2:	3301      	adds	r3, #1
 80007a4:	700b      	strb	r3, [r1, #0]
}
 80007a6:	bd10      	pop	{r4, pc}
 80007a8:	2000014d 	.word	0x2000014d
 80007ac:	2000014c 	.word	0x2000014c
 80007b0:	2000014e 	.word	0x2000014e

080007b4 <LCD_erasestring>:
    i++;
  }
  return i;
}

void LCD_erasestring(uint8 length, uint8 pg, uint8 cl) {
 80007b4:	b538      	push	{r3, r4, r5, lr}
 80007b6:	4604      	mov	r4, r0
  LCD_setpagecolumn(pg, cl);
  for (uint8 i = 0; i < length; i++) LCD_writebyte(0x00);
 80007b8:	2500      	movs	r5, #0
  bufpg = pg;
 80007ba:	4b06      	ldr	r3, [pc, #24]	@ (80007d4 <LCD_erasestring+0x20>)
 80007bc:	7019      	strb	r1, [r3, #0]
  bufcl = cl;
 80007be:	4b06      	ldr	r3, [pc, #24]	@ (80007d8 <LCD_erasestring+0x24>)
 80007c0:	701a      	strb	r2, [r3, #0]
  for (uint8 i = 0; i < length; i++) LCD_writebyte(0x00);
 80007c2:	42a5      	cmp	r5, r4
 80007c4:	d100      	bne.n	80007c8 <LCD_erasestring+0x14>
}
 80007c6:	bd38      	pop	{r3, r4, r5, pc}
  for (uint8 i = 0; i < length; i++) LCD_writebyte(0x00);
 80007c8:	2000      	movs	r0, #0
 80007ca:	f7ff ffdf 	bl	800078c <LCD_writebyte>
 80007ce:	3501      	adds	r5, #1
 80007d0:	e7f7      	b.n	80007c2 <LCD_erasestring+0xe>
 80007d2:	bf00      	nop
 80007d4:	2000014d 	.word	0x2000014d
 80007d8:	2000014c 	.word	0x2000014c

080007dc <LCD_senddata>:
void LCD_bufupload_buferase(void) {
  LCDbuf_upload();
  LCDbuf_erase();
}

void LCD_senddata(const uint8* byte, uint8 N) {
 80007dc:	e92d 43f0 	stmdb	sp!, {r4, r5, r6, r7, r8, r9, lr}
  for (uint8 i = 0; i < N; i++) {
    dispbuffer[bufpg][bufcl + i] |= byte[i];
 80007e0:	4b11      	ldr	r3, [pc, #68]	@ (8000828 <LCD_senddata+0x4c>)
 80007e2:	4d12      	ldr	r5, [pc, #72]	@ (800082c <LCD_senddata+0x50>)
 80007e4:	f893 c000 	ldrb.w	ip, [r3]
    if (bufcl > 127) bufpg++;
 80007e8:	f993 e000 	ldrsb.w	lr, [r3]
  for (uint8 i = 0; i < N; i++) {
 80007ec:	2300      	movs	r3, #0
    dispbuffer[bufpg][bufcl + i] |= byte[i];
 80007ee:	f8df 8040 	ldr.w	r8, [pc, #64]	@ 8000830 <LCD_senddata+0x54>
  for (uint8 i = 0; i < N; i++) {
 80007f2:	b2da      	uxtb	r2, r3
 80007f4:	4291      	cmp	r1, r2
 80007f6:	d915      	bls.n	8000824 <LCD_senddata+0x48>
    dispbuffer[bufpg][bufcl + i] |= byte[i];
 80007f8:	782a      	ldrb	r2, [r5, #0]
    if (bufcl > 127) bufpg++;
 80007fa:	f1be 0f00 	cmp.w	lr, #0
    dispbuffer[bufpg][bufcl + i] |= byte[i];
 80007fe:	eb08 17c2 	add.w	r7, r8, r2, lsl #7
    if (bufcl > 127) bufpg++;
 8000802:	bfb8      	it	lt
 8000804:	3201      	addlt	r2, #1
    dispbuffer[bufpg][bufcl + i] |= byte[i];
 8000806:	f810 9003 	ldrb.w	r9, [r0, r3]
 800080a:	eb0c 0403 	add.w	r4, ip, r3
    if (bufcl > 127) bufpg++;
 800080e:	bfb8      	it	lt
 8000810:	702a      	strblt	r2, [r5, #0]
    dispbuffer[bufpg][bufcl + i] |= byte[i];
 8000812:	5d3e      	ldrb	r6, [r7, r4]
    if (bufpg > 7) return;
 8000814:	782a      	ldrb	r2, [r5, #0]
    dispbuffer[bufpg][bufcl + i] |= byte[i];
 8000816:	ea46 0609 	orr.w	r6, r6, r9
    if (bufpg > 7) return;
 800081a:	2a07      	cmp	r2, #7
    dispbuffer[bufpg][bufcl + i] |= byte[i];
 800081c:	553e      	strb	r6, [r7, r4]
    if (bufpg > 7) return;
 800081e:	f103 0301 	add.w	r3, r3, #1
 8000822:	d9e6      	bls.n	80007f2 <LCD_senddata+0x16>
  }
}
 8000824:	e8bd 83f0 	ldmia.w	sp!, {r4, r5, r6, r7, r8, r9, pc}
 8000828:	2000014c 	.word	0x2000014c
 800082c:	2000014d 	.word	0x2000014d
 8000830:	2000014e 	.word	0x2000014e

08000834 <LCD_printsmb8x5>:
void LCD_printsmb8x5(const unsigned char ch, uint8 pg, uint8 cl) {
 8000834:	b5f8      	push	{r3, r4, r5, r6, r7, lr}
  bufpg = pg;
 8000836:	4f0a      	ldr	r7, [pc, #40]	@ (8000860 <LCD_printsmb8x5+0x2c>)
void LCD_printsmb8x5(const unsigned char ch, uint8 pg, uint8 cl) {
 8000838:	460d      	mov	r5, r1
  bufpg = pg;
 800083a:	7039      	strb	r1, [r7, #0]
void LCD_printsmb8x5(const unsigned char ch, uint8 pg, uint8 cl) {
 800083c:	4614      	mov	r4, r2
  LCD_senddata(char_8x5[ch], 5);
 800083e:	2105      	movs	r1, #5
 8000840:	4b08      	ldr	r3, [pc, #32]	@ (8000864 <LCD_printsmb8x5+0x30>)
  bufcl = cl;
 8000842:	4e09      	ldr	r6, [pc, #36]	@ (8000868 <LCD_printsmb8x5+0x34>)
  LCD_senddata(char_8x5[ch], 5);
 8000844:	eb00 0080 	add.w	r0, r0, r0, lsl #2
 8000848:	4418      	add	r0, r3
  LCD_setpagecolumn(pg, cl + 5);
 800084a:	440c      	add	r4, r1
  bufcl = cl;
 800084c:	7032      	strb	r2, [r6, #0]
  LCD_senddata(char_8x5[ch], 5);
 800084e:	f7ff ffc5 	bl	80007dc <LCD_senddata>
  bufpg = pg;
 8000852:	703d      	strb	r5, [r7, #0]
  bufcl = cl;
 8000854:	7034      	strb	r4, [r6, #0]
  LCD_writebyte(0x00);
 8000856:	2000      	movs	r0, #0
}
 8000858:	e8bd 40f8 	ldmia.w	sp!, {r3, r4, r5, r6, r7, lr}
  LCD_writebyte(0x00);
 800085c:	f7ff bf96 	b.w	800078c <LCD_writebyte>
 8000860:	2000014d 	.word	0x2000014d
 8000864:	08006f29 	.word	0x08006f29
 8000868:	2000014c 	.word	0x2000014c

0800086c <LCD_printstr8x5>:
uint8 LCD_printstr8x5(const uint8 *str, uint8 pg, uint8 cl) {
 800086c:	b5f7      	push	{r0, r1, r2, r4, r5, r6, r7, lr}
 800086e:	4606      	mov	r6, r0
  uint8 str_null[] = "NULL";
 8000870:	466b      	mov	r3, sp
uint8 LCD_printstr8x5(const uint8 *str, uint8 pg, uint8 cl) {
 8000872:	460c      	mov	r4, r1
  if (str == NULL) str = str_null;
 8000874:	2e00      	cmp	r6, #0
 8000876:	bf14      	ite	ne
 8000878:	4637      	movne	r7, r6
 800087a:	461f      	moveq	r7, r3
  while (str[i]) {
 800087c:	2601      	movs	r6, #1
uint8 LCD_printstr8x5(const uint8 *str, uint8 pg, uint8 cl) {
 800087e:	4615      	mov	r5, r2
  uint8 str_null[] = "NULL";
 8000880:	4a12      	ldr	r2, [pc, #72]	@ (80008cc <LCD_printstr8x5+0x60>)
 8000882:	6810      	ldr	r0, [r2, #0]
 8000884:	7912      	ldrb	r2, [r2, #4]
 8000886:	9000      	str	r0, [sp, #0]
 8000888:	711a      	strb	r2, [r3, #4]
  while (str[i]) {
 800088a:	1e73      	subs	r3, r6, #1
 800088c:	b2db      	uxtb	r3, r3
 800088e:	5cf8      	ldrb	r0, [r7, r3]
 8000890:	b910      	cbnz	r0, 8000898 <LCD_printstr8x5+0x2c>
}
 8000892:	4618      	mov	r0, r3
 8000894:	b003      	add	sp, #12
 8000896:	bdf0      	pop	{r4, r5, r6, r7, pc}
    if (cl > 123 && str[i] != '\n') {
 8000898:	2d7b      	cmp	r5, #123	@ 0x7b
 800089a:	d907      	bls.n	80008ac <LCD_printstr8x5+0x40>
 800089c:	280a      	cmp	r0, #10
 800089e:	d111      	bne.n	80008c4 <LCD_printstr8x5+0x58>
    if(str[i] == '\n') {cl = 0; pg++; i++; continue;}
 80008a0:	2500      	movs	r5, #0
 80008a2:	3401      	adds	r4, #1
 80008a4:	b2e4      	uxtb	r4, r4
 80008a6:	3601      	adds	r6, #1
 80008a8:	b2f6      	uxtb	r6, r6
 80008aa:	e7ee      	b.n	800088a <LCD_printstr8x5+0x1e>
 80008ac:	280a      	cmp	r0, #10
 80008ae:	d0f7      	beq.n	80008a0 <LCD_printstr8x5+0x34>
    LCD_printsmb8x5(str[i], pg, cl);
 80008b0:	462a      	mov	r2, r5
 80008b2:	4621      	mov	r1, r4
 80008b4:	f7ff ffbe 	bl	8000834 <LCD_printsmb8x5>
    cl += 6;
 80008b8:	3506      	adds	r5, #6
    if (pg > 7) return 0;
 80008ba:	2c07      	cmp	r4, #7
    cl += 6;
 80008bc:	b2ed      	uxtb	r5, r5
    if (pg > 7) return 0;
 80008be:	d9f2      	bls.n	80008a6 <LCD_printstr8x5+0x3a>
 80008c0:	2300      	movs	r3, #0
 80008c2:	e7e6      	b.n	8000892 <LCD_printstr8x5+0x26>
      pg++;
 80008c4:	3401      	adds	r4, #1
      cl = 0;
 80008c6:	2500      	movs	r5, #0
      pg++;
 80008c8:	b2e4      	uxtb	r4, r4
 80008ca:	e7f1      	b.n	80008b0 <LCD_printstr8x5+0x44>
 80008cc:	0800695f 	.word	0x0800695f

080008d0 <LCDbuf_upload>:
/*----------------------------------------------------------------------------*/

/*------------------------WORKING THROUGH THE BUFFER--------------------------*/
void LCDbuf_upload(void) {
 80008d0:	e92d 41f3 	stmdb	sp!, {r0, r1, r4, r5, r6, r7, r8, lr}
 80008d4:	24b0      	movs	r4, #176	@ 0xb0
	for(uint8_t j = 0; j < 8; j++)
	  {
		uint8_t tmp_arr[] = {(0xB0 + j), 0x10, 0x00};
 80008d6:	f04f 0810 	mov.w	r8, #16
 80008da:	2700      	movs	r7, #0
 80008dc:	4d0d      	ldr	r5, [pc, #52]	@ (8000914 <LCDbuf_upload+0x44>)
	    lcd_sendcommands(tmp_arr, 3);
	    HAL_SPI_Transmit(&hspi2, dispbuffer[j], 128, 10);
 80008de:	4e0e      	ldr	r6, [pc, #56]	@ (8000918 <LCDbuf_upload+0x48>)
	    lcd_sendcommands(tmp_arr, 3);
 80008e0:	2103      	movs	r1, #3
		uint8_t tmp_arr[] = {(0xB0 + j), 0x10, 0x00};
 80008e2:	f88d 4004 	strb.w	r4, [sp, #4]
	    lcd_sendcommands(tmp_arr, 3);
 80008e6:	a801      	add	r0, sp, #4
	for(uint8_t j = 0; j < 8; j++)
 80008e8:	3401      	adds	r4, #1
		uint8_t tmp_arr[] = {(0xB0 + j), 0x10, 0x00};
 80008ea:	f88d 8005 	strb.w	r8, [sp, #5]
 80008ee:	f88d 7006 	strb.w	r7, [sp, #6]
	for(uint8_t j = 0; j < 8; j++)
 80008f2:	b2e4      	uxtb	r4, r4
	    lcd_sendcommands(tmp_arr, 3);
 80008f4:	f7ff ff30 	bl	8000758 <lcd_sendcommands>
	    HAL_SPI_Transmit(&hspi2, dispbuffer[j], 128, 10);
 80008f8:	4629      	mov	r1, r5
 80008fa:	230a      	movs	r3, #10
 80008fc:	2280      	movs	r2, #128	@ 0x80
 80008fe:	4630      	mov	r0, r6
 8000900:	f004 fc6a 	bl	80051d8 <HAL_SPI_Transmit>
	for(uint8_t j = 0; j < 8; j++)
 8000904:	2cb8      	cmp	r4, #184	@ 0xb8
 8000906:	f105 0580 	add.w	r5, r5, #128	@ 0x80
 800090a:	d1e9      	bne.n	80008e0 <LCDbuf_upload+0x10>
	  }
}
 800090c:	b002      	add	sp, #8
 800090e:	e8bd 81f0 	ldmia.w	sp!, {r4, r5, r6, r7, r8, pc}
 8000912:	bf00      	nop
 8000914:	2000014e 	.word	0x2000014e
 8000918:	200005a4 	.word	0x200005a4

0800091c <LCDbuf_erase>:

void LCDbuf_erase(void) {
  for (uint8 j = 0; j < 8; j++)
    for (uint8 i = 0; i < 128; i++) dispbuffer[j][i] = 0;
 800091c:	f44f 6280 	mov.w	r2, #1024	@ 0x400
 8000920:	2100      	movs	r1, #0
 8000922:	4801      	ldr	r0, [pc, #4]	@ (8000928 <LCDbuf_erase+0xc>)
 8000924:	f005 b95d 	b.w	8005be2 <memset>
 8000928:	2000014e 	.word	0x2000014e

0800092c <LCD_bufupload_buferase>:
void LCD_bufupload_buferase(void) {
 800092c:	b508      	push	{r3, lr}
  LCDbuf_upload();
 800092e:	f7ff ffcf 	bl	80008d0 <LCDbuf_upload>
}
 8000932:	e8bd 4008 	ldmia.w	sp!, {r3, lr}
  LCDbuf_erase();
 8000936:	f7ff bff1 	b.w	800091c <LCDbuf_erase>
	...

0800093c <LCD_init>:
{
 800093c:	b57f      	push	{r0, r1, r2, r3, r4, r5, r6, lr}
	DISP_RESET_OFF;
 800093e:	2201      	movs	r2, #1
 8000940:	2104      	movs	r1, #4
 8000942:	481e      	ldr	r0, [pc, #120]	@ (80009bc <LCD_init+0x80>)
 8000944:	f003 fd88 	bl	8004458 <HAL_GPIO_WritePin>
	DISP_INIT_SEND_DAT;
 8000948:	2201      	movs	r2, #1
 800094a:	2102      	movs	r1, #2
 800094c:	481b      	ldr	r0, [pc, #108]	@ (80009bc <LCD_init+0x80>)
 800094e:	f003 fd83 	bl	8004458 <HAL_GPIO_WritePin>
	HAL_Delay(2);
 8000952:	2002      	movs	r0, #2
 8000954:	f003 f902 	bl	8003b5c <HAL_Delay>
	DISP_RESET_ON;
 8000958:	2200      	movs	r2, #0
 800095a:	2104      	movs	r1, #4
 800095c:	4817      	ldr	r0, [pc, #92]	@ (80009bc <LCD_init+0x80>)
 800095e:	f003 fd7b 	bl	8004458 <HAL_GPIO_WritePin>
	HAL_Delay(2);
 8000962:	2002      	movs	r0, #2
 8000964:	f003 f8fa 	bl	8003b5c <HAL_Delay>
	DISP_RESET_OFF;
 8000968:	2201      	movs	r2, #1
 800096a:	2104      	movs	r1, #4
 800096c:	4813      	ldr	r0, [pc, #76]	@ (80009bc <LCD_init+0x80>)
 800096e:	f003 fd73 	bl	8004458 <HAL_GPIO_WritePin>
	DISP_INIT_SEND_COM;
 8000972:	2200      	movs	r2, #0
 8000974:	2102      	movs	r1, #2
 8000976:	4811      	ldr	r0, [pc, #68]	@ (80009bc <LCD_init+0x80>)
 8000978:	f003 fd6e 	bl	8004458 <HAL_GPIO_WritePin>
	uint8_t init_data_array[13] = {
 800097c:	466a      	mov	r2, sp
 800097e:	4615      	mov	r5, r2
 8000980:	4b0f      	ldr	r3, [pc, #60]	@ (80009c0 <LCD_init+0x84>)
 8000982:	f103 0608 	add.w	r6, r3, #8
 8000986:	4614      	mov	r4, r2
 8000988:	6818      	ldr	r0, [r3, #0]
 800098a:	6859      	ldr	r1, [r3, #4]
 800098c:	3308      	adds	r3, #8
 800098e:	c403      	stmia	r4!, {r0, r1}
 8000990:	42b3      	cmp	r3, r6
 8000992:	4622      	mov	r2, r4
 8000994:	d1f7      	bne.n	8000986 <LCD_init+0x4a>
 8000996:	6818      	ldr	r0, [r3, #0]
 8000998:	791b      	ldrb	r3, [r3, #4]
	HAL_SPI_Transmit(&hspi2, init_data_array, 13, 20);
 800099a:	4629      	mov	r1, r5
 800099c:	220d      	movs	r2, #13
	uint8_t init_data_array[13] = {
 800099e:	6020      	str	r0, [r4, #0]
 80009a0:	7123      	strb	r3, [r4, #4]
	HAL_SPI_Transmit(&hspi2, init_data_array, 13, 20);
 80009a2:	4808      	ldr	r0, [pc, #32]	@ (80009c4 <LCD_init+0x88>)
 80009a4:	2314      	movs	r3, #20
 80009a6:	f004 fc17 	bl	80051d8 <HAL_SPI_Transmit>
	LCD_bufupload_buferase();
 80009aa:	f7ff ffbf 	bl	800092c <LCD_bufupload_buferase>
	DISP_INIT_SEND_DAT;
 80009ae:	2201      	movs	r2, #1
 80009b0:	2102      	movs	r1, #2
 80009b2:	4802      	ldr	r0, [pc, #8]	@ (80009bc <LCD_init+0x80>)
 80009b4:	f003 fd50 	bl	8004458 <HAL_GPIO_WritePin>
}
 80009b8:	b004      	add	sp, #16
 80009ba:	bd70      	pop	{r4, r5, r6, pc}
 80009bc:	40010800 	.word	0x40010800
 80009c0:	08006944 	.word	0x08006944
 80009c4:	200005a4 	.word	0x200005a4

080009c8 <LCD_printweekday>:
/*----------------------------------------------------------------------------*/

/*-----------------------------SYSTEM MENU ELEMENTS---------------------------*/

void LCD_printweekday(uint8 wdaynum, uint8 pg, uint8 cl) {
  LCD_printstr8x5(weekday[wdaynum], pg, cl);
 80009c8:	4b02      	ldr	r3, [pc, #8]	@ (80009d4 <LCD_printweekday+0xc>)
 80009ca:	eb00 0040 	add.w	r0, r0, r0, lsl #1
 80009ce:	4418      	add	r0, r3
 80009d0:	f7ff bf4c 	b.w	800086c <LCD_printstr8x5>
 80009d4:	08006994 	.word	0x08006994

080009d8 <LCD_printmonth>:
}

void LCD_printmonth(uint8 mon, uint8 pg, uint8 cl) {
  LCD_printstr8x5(month[mon - 1], pg, cl);
 80009d8:	4b02      	ldr	r3, [pc, #8]	@ (80009e4 <LCD_printmonth+0xc>)
 80009da:	3801      	subs	r0, #1
 80009dc:	eb03 0080 	add.w	r0, r3, r0, lsl #2
 80009e0:	f7ff bf44 	b.w	800086c <LCD_printstr8x5>
 80009e4:	08006964 	.word	0x08006964

080009e8 <LCD_printclockanddate>:
}

void LCD_printclockanddate(uint8 pg, uint8 cl) {
 80009e8:	e92d 41ff 	stmdb	sp!, {r0, r1, r2, r3, r4, r5, r6, r7, r8, lr}
  uint8 day[3] = {dig_to_smb((rtcbcd.day & 0x30) >> 4), dig_to_smb(rtcbcd.day & 0x0F), '\0'};
 80009ec:	4e38      	ldr	r6, [pc, #224]	@ (8000ad0 <LCD_printclockanddate+0xe8>)
void LCD_printclockanddate(uint8 pg, uint8 cl) {
 80009ee:	4605      	mov	r5, r0
  uint8 day[3] = {dig_to_smb((rtcbcd.day & 0x30) >> 4), dig_to_smb(rtcbcd.day & 0x0F), '\0'};
 80009f0:	78f0      	ldrb	r0, [r6, #3]
void LCD_printclockanddate(uint8 pg, uint8 cl) {
 80009f2:	460c      	mov	r4, r1
  uint8 day[3] = {dig_to_smb((rtcbcd.day & 0x30) >> 4), dig_to_smb(rtcbcd.day & 0x0F), '\0'};
 80009f4:	f3c0 1001 	ubfx	r0, r0, #4, #2
 80009f8:	f7ff fbb9 	bl	800016e <dig_to_smb>
 80009fc:	f88d 0000 	strb.w	r0, [sp]
 8000a00:	78f0      	ldrb	r0, [r6, #3]
  uint8 hours[3] = {dig_to_smb(rtcraw.hour / 10), dig_to_smb(rtcraw.hour % 10), '\0'};
 8000a02:	270a      	movs	r7, #10
  uint8 day[3] = {dig_to_smb((rtcbcd.day & 0x30) >> 4), dig_to_smb(rtcbcd.day & 0x0F), '\0'};
 8000a04:	f000 000f 	and.w	r0, r0, #15
 8000a08:	f7ff fbb1 	bl	800016e <dig_to_smb>
 8000a0c:	f04f 0800 	mov.w	r8, #0
  uint8 hours[3] = {dig_to_smb(rtcraw.hour / 10), dig_to_smb(rtcraw.hour % 10), '\0'};
 8000a10:	4e30      	ldr	r6, [pc, #192]	@ (8000ad4 <LCD_printclockanddate+0xec>)
  uint8 day[3] = {dig_to_smb((rtcbcd.day & 0x30) >> 4), dig_to_smb(rtcbcd.day & 0x0F), '\0'};
 8000a12:	f88d 0001 	strb.w	r0, [sp, #1]
  uint8 hours[3] = {dig_to_smb(rtcraw.hour / 10), dig_to_smb(rtcraw.hour % 10), '\0'};
 8000a16:	78b0      	ldrb	r0, [r6, #2]
  uint8 day[3] = {dig_to_smb((rtcbcd.day & 0x30) >> 4), dig_to_smb(rtcbcd.day & 0x0F), '\0'};
 8000a18:	f88d 8002 	strb.w	r8, [sp, #2]
  uint8 hours[3] = {dig_to_smb(rtcraw.hour / 10), dig_to_smb(rtcraw.hour % 10), '\0'};
 8000a1c:	fbb0 f0f7 	udiv	r0, r0, r7
 8000a20:	f7ff fba5 	bl	800016e <dig_to_smb>
 8000a24:	f88d 0004 	strb.w	r0, [sp, #4]
 8000a28:	78b0      	ldrb	r0, [r6, #2]
 8000a2a:	fbb0 f3f7 	udiv	r3, r0, r7
 8000a2e:	fb07 0013 	mls	r0, r7, r3, r0
 8000a32:	b2c0      	uxtb	r0, r0
 8000a34:	f7ff fb9b 	bl	800016e <dig_to_smb>
  uint8 colon[4] = {0x00, 0x12, 0x00}; // ':' colon
 8000a38:	f44f 5390 	mov.w	r3, #4608	@ 0x1200
  uint8 hours[3] = {dig_to_smb(rtcraw.hour / 10), dig_to_smb(rtcraw.hour % 10), '\0'};
 8000a3c:	f88d 0005 	strb.w	r0, [sp, #5]
  uint8 minutes[3] = {dig_to_smb(rtcraw.min / 10), dig_to_smb(rtcraw.min % 10), '\0'};
 8000a40:	7870      	ldrb	r0, [r6, #1]
  uint8 colon[4] = {0x00, 0x12, 0x00}; // ':' colon
 8000a42:	9303      	str	r3, [sp, #12]
  uint8 minutes[3] = {dig_to_smb(rtcraw.min / 10), dig_to_smb(rtcraw.min % 10), '\0'};
 8000a44:	fbb0 f0f7 	udiv	r0, r0, r7
  uint8 hours[3] = {dig_to_smb(rtcraw.hour / 10), dig_to_smb(rtcraw.hour % 10), '\0'};
 8000a48:	f88d 8006 	strb.w	r8, [sp, #6]
  uint8 minutes[3] = {dig_to_smb(rtcraw.min / 10), dig_to_smb(rtcraw.min % 10), '\0'};
 8000a4c:	f7ff fb8f 	bl	800016e <dig_to_smb>
 8000a50:	f88d 0008 	strb.w	r0, [sp, #8]
 8000a54:	7870      	ldrb	r0, [r6, #1]
 8000a56:	fbb0 f3f7 	udiv	r3, r0, r7
 8000a5a:	fb07 0013 	mls	r0, r7, r3, r0
 8000a5e:	b2c0      	uxtb	r0, r0
 8000a60:	f7ff fb85 	bl	800016e <dig_to_smb>
  LCD_printstr8x5(day, pg, cl);
 8000a64:	4622      	mov	r2, r4
 8000a66:	4629      	mov	r1, r5
  uint8 minutes[3] = {dig_to_smb(rtcraw.min / 10), dig_to_smb(rtcraw.min % 10), '\0'};
 8000a68:	f88d 0009 	strb.w	r0, [sp, #9]
  LCD_printstr8x5(day, pg, cl);
 8000a6c:	4668      	mov	r0, sp
  uint8 minutes[3] = {dig_to_smb(rtcraw.min / 10), dig_to_smb(rtcraw.min % 10), '\0'};
 8000a6e:	f88d 800a 	strb.w	r8, [sp, #10]
  LCD_printstr8x5(day, pg, cl);
 8000a72:	f7ff fefb 	bl	800086c <LCD_printstr8x5>
  LCD_printmonth(rtcraw.month, pg, cl + 14);
 8000a76:	f104 020e 	add.w	r2, r4, #14
 8000a7a:	4629      	mov	r1, r5
 8000a7c:	7970      	ldrb	r0, [r6, #5]
 8000a7e:	b2d2      	uxtb	r2, r2
 8000a80:	f7ff ffaa 	bl	80009d8 <LCD_printmonth>
  LCD_printstr8x5(weekday[wdaynum], pg, cl);
 8000a84:	7930      	ldrb	r0, [r6, #4]
 8000a86:	4b14      	ldr	r3, [pc, #80]	@ (8000ad8 <LCD_printclockanddate+0xf0>)
  LCD_printweekday(rtcraw.weekday, pg, cl + 35);
 8000a88:	f104 0223 	add.w	r2, r4, #35	@ 0x23
  LCD_printstr8x5(weekday[wdaynum], pg, cl);
 8000a8c:	eb00 0040 	add.w	r0, r0, r0, lsl #1
 8000a90:	4629      	mov	r1, r5
 8000a92:	4418      	add	r0, r3
 8000a94:	b2d2      	uxtb	r2, r2
 8000a96:	f7ff fee9 	bl	800086c <LCD_printstr8x5>
  LCD_printstr8x5(hours, pg, cl + 49);
 8000a9a:	f104 0231 	add.w	r2, r4, #49	@ 0x31
 8000a9e:	4629      	mov	r1, r5
 8000aa0:	b2d2      	uxtb	r2, r2
 8000aa2:	a801      	add	r0, sp, #4
 8000aa4:	f7ff fee2 	bl	800086c <LCD_printstr8x5>
  bufpg = pg;
 8000aa8:	4b0c      	ldr	r3, [pc, #48]	@ (8000adc <LCD_printclockanddate+0xf4>)
  LCD_setpagecolumn(pg, cl + 61);
 8000aaa:	f104 023d 	add.w	r2, r4, #61	@ 0x3d
  bufpg = pg;
 8000aae:	701d      	strb	r5, [r3, #0]
  bufcl = cl;
 8000ab0:	4b0b      	ldr	r3, [pc, #44]	@ (8000ae0 <LCD_printclockanddate+0xf8>)
  LCD_senddata(colon, 3);
 8000ab2:	a803      	add	r0, sp, #12
 8000ab4:	2103      	movs	r1, #3
  bufcl = cl;
 8000ab6:	701a      	strb	r2, [r3, #0]
  LCD_senddata(colon, 3);
 8000ab8:	f7ff fe90 	bl	80007dc <LCD_senddata>
  LCD_printstr8x5(minutes, pg, cl + 64);
 8000abc:	f104 0240 	add.w	r2, r4, #64	@ 0x40
 8000ac0:	4629      	mov	r1, r5
 8000ac2:	b2d2      	uxtb	r2, r2
 8000ac4:	a802      	add	r0, sp, #8
 8000ac6:	f7ff fed1 	bl	800086c <LCD_printstr8x5>
}
 8000aca:	b004      	add	sp, #16
 8000acc:	e8bd 81f0 	ldmia.w	sp!, {r4, r5, r6, r7, r8, pc}
 8000ad0:	200000db 	.word	0x200000db
 8000ad4:	200000d4 	.word	0x200000d4
 8000ad8:	08006994 	.word	0x08006994
 8000adc:	2000014d 	.word	0x2000014d
 8000ae0:	2000014c 	.word	0x2000014c

08000ae4 <LCD_printbrightnes>:

void LCD_printbrightnes(uint8 pg, uint8 cl) //  size 26 column
{
 8000ae4:	b5f8      	push	{r3, r4, r5, r6, r7, lr}
 8000ae6:	460c      	mov	r4, r1
 8000ae8:	4605      	mov	r5, r0
  bufpg = pg;
 8000aea:	4f0b      	ldr	r7, [pc, #44]	@ (8000b18 <LCD_printbrightnes+0x34>)
  bufcl = cl;
 8000aec:	4e0b      	ldr	r6, [pc, #44]	@ (8000b1c <LCD_printbrightnes+0x38>)
  bufpg = pg;
 8000aee:	7038      	strb	r0, [r7, #0]
  bufcl = cl;
 8000af0:	7031      	strb	r1, [r6, #0]
  LCD_setpagecolumn(pg, cl);
  LCD_senddata(bright_icon, 8);
 8000af2:	480b      	ldr	r0, [pc, #44]	@ (8000b20 <LCD_printbrightnes+0x3c>)
 8000af4:	2108      	movs	r1, #8
 8000af6:	f7ff fe71 	bl	80007dc <LCD_senddata>
  LCD_setpagecolumn(pg, cl + 9);
  LCD_senddata(bright_lvl[brightlvl], 15);
 8000afa:	4b0a      	ldr	r3, [pc, #40]	@ (8000b24 <LCD_printbrightnes+0x40>)
  LCD_setpagecolumn(pg, cl + 9);
 8000afc:	3409      	adds	r4, #9
  LCD_senddata(bright_lvl[brightlvl], 15);
 8000afe:	7818      	ldrb	r0, [r3, #0]
 8000b00:	4b09      	ldr	r3, [pc, #36]	@ (8000b28 <LCD_printbrightnes+0x44>)
  bufpg = pg;
 8000b02:	703d      	strb	r5, [r7, #0]
  bufcl = cl;
 8000b04:	7034      	strb	r4, [r6, #0]
  LCD_senddata(bright_lvl[brightlvl], 15);
 8000b06:	ebc0 1000 	rsb	r0, r0, r0, lsl #4
 8000b0a:	4418      	add	r0, r3
 8000b0c:	210f      	movs	r1, #15
}
 8000b0e:	e8bd 40f8 	ldmia.w	sp!, {r3, r4, r5, r6, r7, lr}
  LCD_senddata(bright_lvl[brightlvl], 15);
 8000b12:	f7ff be63 	b.w	80007dc <LCD_senddata>
 8000b16:	bf00      	nop
 8000b18:	2000014d 	.word	0x2000014d
 8000b1c:	2000014c 	.word	0x2000014c
 8000b20:	08006e29 	.word	0x08006e29
 8000b24:	200000d1 	.word	0x200000d1
 8000b28:	08006db1 	.word	0x08006db1

08000b2c <LCD_printbatlevel>:
  bufpg = pg;
 8000b2c:	4b06      	ldr	r3, [pc, #24]	@ (8000b48 <LCD_printbatlevel+0x1c>)

void LCD_printbatlevel(uint8 lvl, uint8 pg, uint8 cl) {
  if (lvl == 100) lvl = 5; // 100 -shutdown code
 8000b2e:	2864      	cmp	r0, #100	@ 0x64
  bufpg = pg;
 8000b30:	7019      	strb	r1, [r3, #0]
  if (lvl == 100) lvl = 5; // 100 -shutdown code
 8000b32:	bf08      	it	eq
 8000b34:	2005      	moveq	r0, #5
  LCD_setpagecolumn(pg, cl);
  LCD_senddata(battary_2[lvl], 20);
 8000b36:	2114      	movs	r1, #20
  bufcl = cl;
 8000b38:	4b04      	ldr	r3, [pc, #16]	@ (8000b4c <LCD_printbatlevel+0x20>)
 8000b3a:	701a      	strb	r2, [r3, #0]
  LCD_senddata(battary_2[lvl], 20);
 8000b3c:	4b04      	ldr	r3, [pc, #16]	@ (8000b50 <LCD_printbatlevel+0x24>)
 8000b3e:	fb01 3000 	mla	r0, r1, r0, r3
 8000b42:	f7ff be4b 	b.w	80007dc <LCD_senddata>
 8000b46:	bf00      	nop
 8000b48:	2000014d 	.word	0x2000014d
 8000b4c:	2000014c 	.word	0x2000014c
 8000b50:	08006eb1 	.word	0x08006eb1

08000b54 <LCD_printmenucoursor>:
  bufpg = pg;
 8000b54:	4b03      	ldr	r3, [pc, #12]	@ (8000b64 <LCD_printmenucoursor+0x10>)
 8000b56:	7018      	strb	r0, [r3, #0]
  bufcl = cl;
 8000b58:	4b03      	ldr	r3, [pc, #12]	@ (8000b68 <LCD_printmenucoursor+0x14>)
}

void LCD_printmenucoursor(uint8 pg, uint8 cl) {
  LCD_setpagecolumn(pg, cl);
  LCD_senddata(menu_pointer, 8);
 8000b5a:	4804      	ldr	r0, [pc, #16]	@ (8000b6c <LCD_printmenucoursor+0x18>)
  bufcl = cl;
 8000b5c:	7019      	strb	r1, [r3, #0]
  LCD_senddata(menu_pointer, 8);
 8000b5e:	2108      	movs	r1, #8
 8000b60:	f7ff be3c 	b.w	80007dc <LCD_senddata>
 8000b64:	2000014d 	.word	0x2000014d
 8000b68:	2000014c 	.word	0x2000014c
 8000b6c:	08006da9 	.word	0x08006da9

08000b70 <LCD_printbutselhint>:
}

void LCD_printbutselhint(uint8 hintnum, uint8 pg, uint8 cl) {
 8000b70:	e92d 4ff8 	stmdb	sp!, {r3, r4, r5, r6, r7, r8, r9, sl, fp, lr}
 8000b74:	460f      	mov	r7, r1
 8000b76:	4690      	mov	r8, r2
 8000b78:	2400      	movs	r4, #0
 8000b7a:	4e0d      	ldr	r6, [pc, #52]	@ (8000bb0 <LCD_printbutselhint+0x40>)
  bufpg = pg;
 8000b7c:	f8df 9034 	ldr.w	r9, [pc, #52]	@ 8000bb4 <LCD_printbutselhint+0x44>
  bufcl = cl;
 8000b80:	f8df a034 	ldr.w	sl, [pc, #52]	@ 8000bb8 <LCD_printbutselhint+0x48>
 8000b84:	eb06 16c0 	add.w	r6, r6, r0, lsl #7
 8000b88:	2500      	movs	r5, #0
  for (uint8 j = 0; j < 4; j++) {
    LCD_setpagecolumn(pg + j, cl);
 8000b8a:	193b      	adds	r3, r7, r4
  bufpg = pg;
 8000b8c:	f889 3000 	strb.w	r3, [r9]
  bufcl = cl;
 8000b90:	f88a 8000 	strb.w	r8, [sl]
    for (uint8 i = 0; i < 32; i++) LCD_writebyte(but_sel_hint[hintnum][(i * 4 + j)]);
 8000b94:	eb04 0b06 	add.w	fp, r4, r6
 8000b98:	f81b 0025 	ldrb.w	r0, [fp, r5, lsl #2]
 8000b9c:	3501      	adds	r5, #1
 8000b9e:	f7ff fdf5 	bl	800078c <LCD_writebyte>
 8000ba2:	2d20      	cmp	r5, #32
 8000ba4:	d1f8      	bne.n	8000b98 <LCD_printbutselhint+0x28>
  for (uint8 j = 0; j < 4; j++) {
 8000ba6:	3401      	adds	r4, #1
 8000ba8:	2c04      	cmp	r4, #4
 8000baa:	d1ed      	bne.n	8000b88 <LCD_printbutselhint+0x18>
  }
}
 8000bac:	e8bd 8ff8 	ldmia.w	sp!, {r3, r4, r5, r6, r7, r8, r9, sl, fp, pc}
 8000bb0:	080069a9 	.word	0x080069a9
 8000bb4:	2000014d 	.word	0x2000014d
 8000bb8:	2000014c 	.word	0x2000014c

08000bbc <LCD_printvertline>:

void LCD_printvertline(uint8 linelength, uint8 startline, uint8 cl) {
  if ((linelength - startline) > 63) return;
 8000bbc:	1a43      	subs	r3, r0, r1
 8000bbe:	2b3f      	cmp	r3, #63	@ 0x3f
void LCD_printvertline(uint8 linelength, uint8 startline, uint8 cl) {
 8000bc0:	e92d 47f3 	stmdb	sp!, {r0, r1, r4, r5, r6, r7, r8, r9, sl, lr}
 8000bc4:	4616      	mov	r6, r2
  if ((linelength - startline) > 63) return;
 8000bc6:	dc43      	bgt.n	8000c50 <LCD_printvertline+0x94>
  uint8 startpg = startline / 8;
  uint8 bitshifting = (startline % 8);
  uint8 lengthinpages = (linelength - (8 - bitshifting)) / 8;
  uint8 temp = (uint8) (0xFF << bitshifting);
 8000bc8:	f04f 0aff 	mov.w	sl, #255	@ 0xff
  uint8 startpg = startline / 8;
 8000bcc:	08cf      	lsrs	r7, r1, #3
  uint8 lengthinpages = (linelength - (8 - bitshifting)) / 8;
 8000bce:	f001 0107 	and.w	r1, r1, #7
 8000bd2:	f1c1 0308 	rsb	r3, r1, #8
 8000bd6:	1ac4      	subs	r4, r0, r3
  uint8 temp = (uint8) (0xFF << bitshifting);
 8000bd8:	fa0a f101 	lsl.w	r1, sl, r1
  bufpg = pg;
 8000bdc:	f8df 908c 	ldr.w	r9, [pc, #140]	@ 8000c6c <LCD_printvertline+0xb0>
  bufcl = cl;
 8000be0:	f8df 808c 	ldr.w	r8, [pc, #140]	@ 8000c70 <LCD_printvertline+0xb4>
  uint8 lengthinpages = (linelength - (8 - bitshifting)) / 8;
 8000be4:	4625      	mov	r5, r4
 8000be6:	2c00      	cmp	r4, #0
  uint8 temp = (uint8) (0xFF << bitshifting);
 8000be8:	f88d 1007 	strb.w	r1, [sp, #7]
  LCD_setpagecolumn(startpg, cl);
  LCD_senddata(&temp, 1);
 8000bec:	f10d 0007 	add.w	r0, sp, #7
 8000bf0:	f04f 0101 	mov.w	r1, #1
  uint8 lengthinpages = (linelength - (8 - bitshifting)) / 8;
 8000bf4:	bfb8      	it	lt
 8000bf6:	1de5      	addlt	r5, r4, #7
  bufpg = pg;
 8000bf8:	f889 7000 	strb.w	r7, [r9]
  bufcl = cl;
 8000bfc:	f888 2000 	strb.w	r2, [r8]
  LCD_senddata(&temp, 1);
 8000c00:	f7ff fdec 	bl	80007dc <LCD_senddata>
  temp = 0xFF;
 8000c04:	f88d a007 	strb.w	sl, [sp, #7]
  for (uint8 i = 0; i < lengthinpages; i++) {
 8000c08:	f04f 0a00 	mov.w	sl, #0
  uint8 lengthinpages = (linelength - (8 - bitshifting)) / 8;
 8000c0c:	f3c5 05c7 	ubfx	r5, r5, #3, #8
  for (uint8 i = 0; i < lengthinpages; i++) {
 8000c10:	f10a 0a01 	add.w	sl, sl, #1
 8000c14:	fa5f f38a 	uxtb.w	r3, sl
 8000c18:	1e5a      	subs	r2, r3, #1
 8000c1a:	b2d2      	uxtb	r2, r2
 8000c1c:	42aa      	cmp	r2, r5
 8000c1e:	d31a      	bcc.n	8000c56 <LCD_printvertline+0x9a>
    LCD_setpagecolumn(startpg + 1 + i, cl);
    LCD_senddata(&temp, 1);
  }
  temp = 0xFF >> (8 - (linelength - (8 - bitshifting)) % 8);
 8000c20:	4263      	negs	r3, r4
 8000c22:	f003 0307 	and.w	r3, r3, #7
 8000c26:	f004 0407 	and.w	r4, r4, #7
 8000c2a:	bf58      	it	pl
 8000c2c:	425c      	negpl	r4, r3
 8000c2e:	23ff      	movs	r3, #255	@ 0xff
 8000c30:	f1c4 0408 	rsb	r4, r4, #8
  LCD_setpagecolumn(startpg + 1 + lengthinpages, cl);
 8000c34:	3701      	adds	r7, #1
  temp = 0xFF >> (8 - (linelength - (8 - bitshifting)) % 8);
 8000c36:	4123      	asrs	r3, r4
  LCD_setpagecolumn(startpg + 1 + lengthinpages, cl);
 8000c38:	443d      	add	r5, r7
  LCD_senddata(&temp, 1);
 8000c3a:	2101      	movs	r1, #1
 8000c3c:	f10d 0007 	add.w	r0, sp, #7
  temp = 0xFF >> (8 - (linelength - (8 - bitshifting)) % 8);
 8000c40:	f88d 3007 	strb.w	r3, [sp, #7]
  bufpg = pg;
 8000c44:	f889 5000 	strb.w	r5, [r9]
  bufcl = cl;
 8000c48:	f888 6000 	strb.w	r6, [r8]
  LCD_senddata(&temp, 1);
 8000c4c:	f7ff fdc6 	bl	80007dc <LCD_senddata>
}
 8000c50:	b002      	add	sp, #8
 8000c52:	e8bd 87f0 	ldmia.w	sp!, {r4, r5, r6, r7, r8, r9, sl, pc}
    LCD_setpagecolumn(startpg + 1 + i, cl);
 8000c56:	443b      	add	r3, r7
    LCD_senddata(&temp, 1);
 8000c58:	2101      	movs	r1, #1
 8000c5a:	f10d 0007 	add.w	r0, sp, #7
  bufpg = pg;
 8000c5e:	f889 3000 	strb.w	r3, [r9]
  bufcl = cl;
 8000c62:	f888 6000 	strb.w	r6, [r8]
    LCD_senddata(&temp, 1);
 8000c66:	f7ff fdb9 	bl	80007dc <LCD_senddata>
  for (uint8 i = 0; i < lengthinpages; i++) {
 8000c6a:	e7d1      	b.n	8000c10 <LCD_printvertline+0x54>
 8000c6c:	2000014d 	.word	0x2000014d
 8000c70:	2000014c 	.word	0x2000014c

08000c74 <LCD_printhorline>:

void LCD_printhorline(uint8 linelength, uint8 startstring, uint8 cl) {
  if ((linelength - cl) > 127) return;
 8000c74:	1a83      	subs	r3, r0, r2
 8000c76:	2b7f      	cmp	r3, #127	@ 0x7f
void LCD_printhorline(uint8 linelength, uint8 startstring, uint8 cl) {
 8000c78:	e92d 41f3 	stmdb	sp!, {r0, r1, r4, r5, r6, r7, r8, lr}
 8000c7c:	4614      	mov	r4, r2
  if ((linelength - cl) > 127) return;
 8000c7e:	dc10      	bgt.n	8000ca2 <LCD_printhorline+0x2e>
  uint8 startpg = startstring / 8;
  uint8 bitshifting = (startstring % 8);
  uint8 temp = (uint8) (0x1 << bitshifting);
 8000c80:	2301      	movs	r3, #1
  uint8 startpg = startstring / 8;
 8000c82:	08ce      	lsrs	r6, r1, #3
  bufpg = pg;
 8000c84:	4f0e      	ldr	r7, [pc, #56]	@ (8000cc0 <LCD_printhorline+0x4c>)
  bufcl = cl;
 8000c86:	f8df 803c 	ldr.w	r8, [pc, #60]	@ 8000cc4 <LCD_printhorline+0x50>
  uint8 temp = (uint8) (0x1 << bitshifting);
 8000c8a:	f001 0107 	and.w	r1, r1, #7
 8000c8e:	408b      	lsls	r3, r1
 8000c90:	4410      	add	r0, r2
 8000c92:	f88d 3007 	strb.w	r3, [sp, #7]
  bufpg = pg;
 8000c96:	703e      	strb	r6, [r7, #0]
  bufcl = cl;
 8000c98:	f888 2000 	strb.w	r2, [r8]
  LCD_setpagecolumn(startpg, cl);
  for (uint8 i = 0; i < linelength; i++) {
 8000c9c:	b2c5      	uxtb	r5, r0
 8000c9e:	42ac      	cmp	r4, r5
 8000ca0:	d102      	bne.n	8000ca8 <LCD_printhorline+0x34>
    LCD_setpagecolumn(startpg, cl + i);
    LCD_senddata(&temp, 1);
  }
}
 8000ca2:	b002      	add	sp, #8
 8000ca4:	e8bd 81f0 	ldmia.w	sp!, {r4, r5, r6, r7, r8, pc}
    LCD_senddata(&temp, 1);
 8000ca8:	2101      	movs	r1, #1
  bufcl = cl;
 8000caa:	f888 4000 	strb.w	r4, [r8]
    LCD_senddata(&temp, 1);
 8000cae:	f10d 0007 	add.w	r0, sp, #7
 8000cb2:	440c      	add	r4, r1
  bufpg = pg;
 8000cb4:	703e      	strb	r6, [r7, #0]
    LCD_senddata(&temp, 1);
 8000cb6:	b2e4      	uxtb	r4, r4
 8000cb8:	f7ff fd90 	bl	80007dc <LCD_senddata>
  for (uint8 i = 0; i < linelength; i++) {
 8000cbc:	e7ef      	b.n	8000c9e <LCD_printhorline+0x2a>
 8000cbe:	bf00      	nop
 8000cc0:	2000014d 	.word	0x2000014d
 8000cc4:	2000014c 	.word	0x2000014c

08000cc8 <LCD_printsprite>:
/*----------------------------------------------------------------------------*/

/*------------------------------GAME OBJECTS----------------------------------*/
void LCD_printsprite(int8 startline, int8 startcolumn, const tSprite * const Sprite) {
 8000cc8:	e92d 4ff0 	stmdb	sp!, {r4, r5, r6, r7, r8, r9, sl, fp, lr}
  int16 columns_max = 0;
  uint16 m = 0, mprev = 0;
  uint8 column_shift = 0;
  uint8 line_shift = (uint8)startline % 8;
  int8 pages_max = (int8)Sprite->pages;
 8000ccc:	f992 3000 	ldrsb.w	r3, [r2]
  uint8 page_shift = 0;
  bufpg = (uint8)startline / 8;
 8000cd0:	f8df 82cc 	ldr.w	r8, [pc, #716]	@ 8000fa0 <LCD_printsprite+0x2d8>
  if (startcolumn < 0) {
    if(startline >= 0) {
      bufcl = 0;
      columns_max = (int16)Sprite->columns + (int16)startcolumn;
 8000cd4:	f892 e001 	ldrb.w	lr, [r2, #1]
  bufpg = (uint8)startline / 8;
 8000cd8:	f3c0 05c4 	ubfx	r5, r0, #3, #5
void LCD_printsprite(int8 startline, int8 startcolumn, const tSprite * const Sprite) {
 8000cdc:	b089      	sub	sp, #36	@ 0x24
  if (startcolumn < 0) {
 8000cde:	2900      	cmp	r1, #0
  bufpg = (uint8)startline / 8;
 8000ce0:	f888 5000 	strb.w	r5, [r8]
 8000ce4:	4faf      	ldr	r7, [pc, #700]	@ (8000fa4 <LCD_printsprite+0x2dc>)
  uint8 line_shift = (uint8)startline % 8;
 8000ce6:	fa5f fc80 	uxtb.w	ip, r0
 8000cea:	f000 0407 	and.w	r4, r0, #7
  int8 pages_max = (int8)Sprite->pages;
 8000cee:	9301      	str	r3, [sp, #4]
      if (columns_max < 0) columns_max = 0;
      m = (uint16)(-startcolumn) * Sprite->pages;
      column_shift = (uint8)(-startcolumn);
 8000cf0:	b2cd      	uxtb	r5, r1
      columns_max = (int16)Sprite->columns + (int16)startcolumn;
 8000cf2:	eb0e 0601 	add.w	r6, lr, r1
  if (startcolumn < 0) {
 8000cf6:	da52      	bge.n	8000d9e <LCD_printsprite+0xd6>
      if (columns_max < 0) columns_max = 0;
 8000cf8:	ea26 7ee6 	bic.w	lr, r6, r6, asr #31
 8000cfc:	2600      	movs	r6, #0
      column_shift = (uint8)(-startcolumn);
 8000cfe:	426d      	negs	r5, r5
    if(startline >= 0) {
 8000d00:	2800      	cmp	r0, #0
      m = (uint16)(-startcolumn) * Sprite->pages;
 8000d02:	f1c1 0100 	rsb	r1, r1, #0
      column_shift = (uint8)(-startcolumn);
 8000d06:	b2ed      	uxtb	r5, r5
      bufcl = 0;
 8000d08:	703e      	strb	r6, [r7, #0]
    if(startline >= 0) {
 8000d0a:	db2f      	blt.n	8000d6c <LCD_printsprite+0xa4>
      m = (uint16)(-startcolumn) * Sprite->pages;
 8000d0c:	f892 c000 	ldrb.w	ip, [r2]
 8000d10:	fb01 f10c 	mul.w	r1, r1, ip
      page_shift = (uint8)-startline/8 + 1;
      m = page_shift;
    }
  }
  
  switch (Sprite->direct) {
 8000d14:	f892 c008 	ldrb.w	ip, [r2, #8]
 8000d18:	f1bc 0f00 	cmp.w	ip, #0
 8000d1c:	d069      	beq.n	8000df2 <LCD_printsprite+0x12a>
 8000d1e:	f1bc 0f01 	cmp.w	ip, #1
 8000d22:	f040 813a 	bne.w	8000f9a <LCD_printsprite+0x2d2>
 8000d26:	783d      	ldrb	r5, [r7, #0]
 8000d28:	9b01      	ldr	r3, [sp, #4]
 8000d2a:	eb0e 0705 	add.w	r7, lr, r5
              mprev = m;
              m++;
            }
          }
          if ((i > 0) && (i < pages_max)) {
            if((bufpg + i) < 8 && (bufcl + j) <= 127) dispbuffer[bufpg + i][bufcl + j] |= (Sprite->sprite[mprev + page_shift * j] >> (8 - line_shift))| 
 8000d2e:	f04f 0e00 	mov.w	lr, #0
 8000d32:	2c00      	cmp	r4, #0
 8000d34:	bf18      	it	ne
 8000d36:	3301      	addne	r3, #1
  uint16 m = 0, mprev = 0;
 8000d38:	46f2      	mov	sl, lr
            if((bufpg + i) < 8 && (bufcl + j) <= 127) dispbuffer[bufpg + i][bufcl + j] |= (Sprite->sprite[mprev + page_shift * j] >> (8 - line_shift))| 
 8000d3a:	f898 8000 	ldrb.w	r8, [r8]
 8000d3e:	9706      	str	r7, [sp, #24]
            mprev = m;
            m++;
          }
          if (i == pages_max) {
            
            if((bufpg + i) < 8 && (bufcl + j) <= 127) dispbuffer[bufpg + i][bufcl + j] |= Sprite->sprite[mprev + page_shift * j] >> (8 - line_shift);
 8000d40:	9f01      	ldr	r7, [sp, #4]
 8000d42:	9305      	str	r3, [sp, #20]
 8000d44:	4447      	add	r7, r8
 8000d46:	9703      	str	r7, [sp, #12]
            if((bufpg + i) < 8 && (bufcl + j) <= 127) dispbuffer[bufpg + i][bufcl + j] |= (Sprite->sprite[mprev + page_shift * j] >> (8 - line_shift))| 
 8000d48:	f1c4 0708 	rsb	r7, r4, #8
 8000d4c:	4b96      	ldr	r3, [pc, #600]	@ (8000fa8 <LCD_printsprite+0x2e0>)
 8000d4e:	9702      	str	r7, [sp, #8]
            if((bufpg + i) < 8 && (bufcl + j) <= 127) dispbuffer[bufpg + i][bufcl + j] |= Sprite->sprite[mprev + page_shift * j] >> (8 - line_shift);
 8000d50:	9f03      	ldr	r7, [sp, #12]
 8000d52:	eb05 1cc8 	add.w	ip, r5, r8, lsl #7
 8000d56:	449c      	add	ip, r3
 8000d58:	eb03 13c7 	add.w	r3, r3, r7, lsl #7
 8000d5c:	9304      	str	r3, [sp, #16]
      for (uint8 j = 0; j < columns_max; j++) {
 8000d5e:	9b06      	ldr	r3, [sp, #24]
 8000d60:	429d      	cmp	r5, r3
 8000d62:	f000 811a 	beq.w	8000f9a <LCD_printsprite+0x2d2>
 8000d66:	f04f 0b00 	mov.w	fp, #0
 8000d6a:	e0f6      	b.n	8000f5a <LCD_printsprite+0x292>
      bufpg = 0;
 8000d6c:	f888 6000 	strb.w	r6, [r8]
      pages_max = (int8)Sprite->pages + startline/8 - 1;
 8000d70:	f892 9000 	ldrb.w	r9, [r2]
      line_shift = 8 - (uint8)-startline % 8;
 8000d74:	f1cc 0c00 	rsb	ip, ip, #0
      pages_max = (int8)Sprite->pages + startline/8 - 1;
 8000d78:	1dc6      	adds	r6, r0, #7
 8000d7a:	f109 33ff 	add.w	r3, r9, #4294967295
      line_shift = 8 - (uint8)-startline % 8;
 8000d7e:	f00c 0407 	and.w	r4, ip, #7
      pages_max = (int8)Sprite->pages + startline/8 - 1;
 8000d82:	eb03 03e6 	add.w	r3, r3, r6, asr #3
      page_shift = (uint8)-startline/8 + 1;
 8000d86:	f3cc 0cc4 	ubfx	ip, ip, #3, #5
      line_shift = 8 - (uint8)-startline % 8;
 8000d8a:	f1c4 0408 	rsb	r4, r4, #8
      pages_max = (int8)Sprite->pages + startline/8 - 1;
 8000d8e:	b25b      	sxtb	r3, r3
      page_shift = (uint8)-startline/8 + 1;
 8000d90:	f10c 0601 	add.w	r6, ip, #1
      m = (uint16)(-startcolumn) * Sprite->pages + page_shift;
 8000d94:	fb01 6109 	mla	r1, r1, r9, r6
      line_shift = 8 - (uint8)-startline % 8;
 8000d98:	b2e4      	uxtb	r4, r4
      pages_max = (int8)Sprite->pages + startline/8 - 1;
 8000d9a:	9301      	str	r3, [sp, #4]
      m = (uint16)(-startcolumn) * Sprite->pages + page_shift;
 8000d9c:	e7ba      	b.n	8000d14 <LCD_printsprite+0x4c>
    if(startline >= 0){
 8000d9e:	2800      	cmp	r0, #0
      bufcl = (uint8)startcolumn;
 8000da0:	703d      	strb	r5, [r7, #0]
    if(startline >= 0){
 8000da2:	db07      	blt.n	8000db4 <LCD_printsprite+0xec>
      columns_max = (((int16)startcolumn + (int16)Sprite->columns) > 127) ? (127 - startcolumn) : Sprite->columns;
 8000da4:	2e7f      	cmp	r6, #127	@ 0x7f
 8000da6:	dd01      	ble.n	8000dac <LCD_printsprite+0xe4>
 8000da8:	f1c1 0e7f 	rsb	lr, r1, #127	@ 0x7f
  uint8 page_shift = 0;
 8000dac:	2600      	movs	r6, #0
  uint8 column_shift = 0;
 8000dae:	4635      	mov	r5, r6
  uint16 m = 0, mprev = 0;
 8000db0:	4631      	mov	r1, r6
 8000db2:	e7af      	b.n	8000d14 <LCD_printsprite+0x4c>
      line_shift = 8 - (uint8)-startline % 8;
 8000db4:	f1cc 0300 	rsb	r3, ip, #0
      columns_max = (((int16)startcolumn + (int16)Sprite->columns) > 127) ? (127 - startcolumn) : Sprite->columns;
 8000db8:	2e7f      	cmp	r6, #127	@ 0x7f
      line_shift = 8 - (uint8)-startline % 8;
 8000dba:	b2de      	uxtb	r6, r3
 8000dbc:	f003 0307 	and.w	r3, r3, #7
 8000dc0:	f1c3 0308 	rsb	r3, r3, #8
 8000dc4:	b2dc      	uxtb	r4, r3
      bufpg = 0;
 8000dc6:	f04f 0300 	mov.w	r3, #0
      columns_max = (((int16)startcolumn + (int16)Sprite->columns) > 127) ? (127 - startcolumn) : Sprite->columns;
 8000dca:	bfc8      	it	gt
 8000dcc:	f1c1 0e7f 	rsbgt	lr, r1, #127	@ 0x7f
      pages_max = (int8)Sprite->pages + startline/8 - 1;
 8000dd0:	4601      	mov	r1, r0
      bufpg = 0;
 8000dd2:	f888 3000 	strb.w	r3, [r8]
      pages_max = (int8)Sprite->pages + startline/8 - 1;
 8000dd6:	7813      	ldrb	r3, [r2, #0]
 8000dd8:	2800      	cmp	r0, #0
 8000dda:	bfb8      	it	lt
 8000ddc:	1dc1      	addlt	r1, r0, #7
 8000dde:	3b01      	subs	r3, #1
 8000de0:	eb03 03e1 	add.w	r3, r3, r1, asr #3
      page_shift = (uint8)-startline/8 + 1;
 8000de4:	08f6      	lsrs	r6, r6, #3
      pages_max = (int8)Sprite->pages + startline/8 - 1;
 8000de6:	b25b      	sxtb	r3, r3
      page_shift = (uint8)-startline/8 + 1;
 8000de8:	3601      	adds	r6, #1
      m = page_shift;
 8000dea:	4631      	mov	r1, r6
  uint8 column_shift = 0;
 8000dec:	2500      	movs	r5, #0
      pages_max = (int8)Sprite->pages + startline/8 - 1;
 8000dee:	9301      	str	r3, [sp, #4]
      m = page_shift;
 8000df0:	e790      	b.n	8000d14 <LCD_printsprite+0x4c>
 8000df2:	9b01      	ldr	r3, [sp, #4]
 8000df4:	2c00      	cmp	r4, #0
 8000df6:	bf18      	it	ne
 8000df8:	3301      	addne	r3, #1
 8000dfa:	9307      	str	r3, [sp, #28]
        for (uint8 j = 0; j < columns_max; j++) {
          if (i == 0) {
            dispbuffer[bufpg + i][bufcl + j] |= Sprite->sprite[j + column_shift] << line_shift;
          }
          if ((i > 0) && (i < pages_max)) {
            dispbuffer[bufpg + i][bufcl + j] |= (Sprite->sprite[(i - 1) * Sprite->columns + j + column_shift] >> (8 - line_shift)) | 
 8000dfc:	f898 3000 	ldrb.w	r3, [r8]
 8000e00:	9303      	str	r3, [sp, #12]
 8000e02:	783b      	ldrb	r3, [r7, #0]
 8000e04:	4667      	mov	r7, ip
 8000e06:	9903      	ldr	r1, [sp, #12]
 8000e08:	9306      	str	r3, [sp, #24]
 8000e0a:	01c9      	lsls	r1, r1, #7
                                                (Sprite->sprite[i * Sprite->columns + j + column_shift] << line_shift);
          }
          if (i == pages_max) {
            dispbuffer[bufpg + i][bufcl + j] |= Sprite->sprite[(i - 1) * Sprite->columns + j + column_shift] >> (8 - line_shift);
 8000e0c:	f1c4 0308 	rsb	r3, r4, #8
 8000e10:	9102      	str	r1, [sp, #8]
 8000e12:	9304      	str	r3, [sp, #16]
      for (uint8 i = 0; i < (line_shift ? (pages_max + 1) : pages_max); i++) {
 8000e14:	9b07      	ldr	r3, [sp, #28]
 8000e16:	fa5f fc87 	uxtb.w	ip, r7
 8000e1a:	459c      	cmp	ip, r3
 8000e1c:	f280 80bd 	bge.w	8000f9a <LCD_printsprite+0x2d2>
            dispbuffer[bufpg + i][bufcl + j] |= (Sprite->sprite[(i - 1) * Sprite->columns + j + column_shift] >> (8 - line_shift)) | 
 8000e20:	9b03      	ldr	r3, [sp, #12]
 8000e22:	2600      	movs	r6, #0
 8000e24:	eb03 010c 	add.w	r1, r3, ip
 8000e28:	01cb      	lsls	r3, r1, #7
 8000e2a:	9305      	str	r3, [sp, #20]
 8000e2c:	9b06      	ldr	r3, [sp, #24]
            dispbuffer[bufpg + i][bufcl + j] |= Sprite->sprite[(i - 1) * Sprite->columns + j + column_shift] >> (8 - line_shift);
 8000e2e:	f10c 39ff 	add.w	r9, ip, #4294967295
 8000e32:	eb03 11c1 	add.w	r1, r3, r1, lsl #7
 8000e36:	4b5c      	ldr	r3, [pc, #368]	@ (8000fa8 <LCD_printsprite+0x2e0>)
 8000e38:	4419      	add	r1, r3
 8000e3a:	e069      	b.n	8000f10 <LCD_printsprite+0x248>
          if (i == 0) {
 8000e3c:	f1b9 0f00 	cmp.w	r9, #0
 8000e40:	d16a      	bne.n	8000f18 <LCD_printsprite+0x250>
            if(startline >= 0){ 
 8000e42:	2800      	cmp	r0, #0
 8000e44:	f2c0 8094 	blt.w	8000f70 <LCD_printsprite+0x2a8>
              if((bufpg + i) < 8 && (bufcl + j) <= 127)  dispbuffer[bufpg + i][bufcl + j] |= Sprite->sprite[m] << line_shift;
 8000e48:	f1b8 0f07 	cmp.w	r8, #7
 8000e4c:	dc0a      	bgt.n	8000e64 <LCD_printsprite+0x19c>
 8000e4e:	2d7f      	cmp	r5, #127	@ 0x7f
 8000e50:	d808      	bhi.n	8000e64 <LCD_printsprite+0x19c>
 8000e52:	6857      	ldr	r7, [r2, #4]
 8000e54:	5c7f      	ldrb	r7, [r7, r1]
 8000e56:	40a7      	lsls	r7, r4
              if((bufpg + i) < 8 && (bufcl + j) <= 127)  dispbuffer[bufpg + i][bufcl + j] |= (Sprite->sprite[mprev + page_shift * j] >> (8 - line_shift))|
 8000e58:	f89c a000 	ldrb.w	sl, [ip]
 8000e5c:	ea47 070a 	orr.w	r7, r7, sl
 8000e60:	f88c 7000 	strb.w	r7, [ip]
              m++;
 8000e64:	1c4f      	adds	r7, r1, #1
  uint16 m = 0, mprev = 0;
 8000e66:	468a      	mov	sl, r1
 8000e68:	4639      	mov	r1, r7
          if (i == pages_max) {
 8000e6a:	9b01      	ldr	r3, [sp, #4]
 8000e6c:	4599      	cmp	r9, r3
 8000e6e:	d172      	bne.n	8000f56 <LCD_printsprite+0x28e>
            if((bufpg + i) < 8 && (bufcl + j) <= 127) dispbuffer[bufpg + i][bufcl + j] |= Sprite->sprite[mprev + page_shift * j] >> (8 - line_shift);
 8000e70:	9f03      	ldr	r7, [sp, #12]
 8000e72:	2f07      	cmp	r7, #7
 8000e74:	dc6f      	bgt.n	8000f56 <LCD_printsprite+0x28e>
 8000e76:	2d7f      	cmp	r5, #127	@ 0x7f
 8000e78:	d86d      	bhi.n	8000f56 <LCD_printsprite+0x28e>
 8000e7a:	6857      	ldr	r7, [r2, #4]
 8000e7c:	9b02      	ldr	r3, [sp, #8]
 8000e7e:	4477      	add	r7, lr
 8000e80:	f817 700a 	ldrb.w	r7, [r7, sl]
 8000e84:	411f      	asrs	r7, r3
 8000e86:	9b04      	ldr	r3, [sp, #16]
 8000e88:	f813 9005 	ldrb.w	r9, [r3, r5]
 8000e8c:	ea47 0709 	orr.w	r7, r7, r9
 8000e90:	555f      	strb	r7, [r3, r5]
 8000e92:	e060      	b.n	8000f56 <LCD_printsprite+0x28e>
          if (i == 0) {
 8000e94:	f1bc 0f00 	cmp.w	ip, #0
 8000e98:	d010      	beq.n	8000ebc <LCD_printsprite+0x1f4>
          if ((i > 0) && (i < pages_max)) {
 8000e9a:	9b01      	ldr	r3, [sp, #4]
 8000e9c:	459c      	cmp	ip, r3
 8000e9e:	db1c      	blt.n	8000eda <LCD_printsprite+0x212>
          if (i == pages_max) {
 8000ea0:	9b01      	ldr	r3, [sp, #4]
 8000ea2:	459c      	cmp	ip, r3
 8000ea4:	d132      	bne.n	8000f0c <LCD_printsprite+0x244>
            dispbuffer[bufpg + i][bufcl + j] |= Sprite->sprite[(i - 1) * Sprite->columns + j + column_shift] >> (8 - line_shift);
 8000ea6:	f892 8001 	ldrb.w	r8, [r2, #1]
 8000eaa:	6850      	ldr	r0, [r2, #4]
 8000eac:	fb08 5809 	mla	r8, r8, r9, r5
 8000eb0:	4430      	add	r0, r6
 8000eb2:	f818 0000 	ldrb.w	r0, [r8, r0]
 8000eb6:	9b04      	ldr	r3, [sp, #16]
 8000eb8:	4118      	asrs	r0, r3
 8000eba:	e022      	b.n	8000f02 <LCD_printsprite+0x23a>
            dispbuffer[bufpg + i][bufcl + j] |= Sprite->sprite[j + column_shift] << line_shift;
 8000ebc:	9b05      	ldr	r3, [sp, #20]
 8000ebe:	6850      	ldr	r0, [r2, #4]
 8000ec0:	eba1 0803 	sub.w	r8, r1, r3
 8000ec4:	4428      	add	r0, r5
 8000ec6:	9b02      	ldr	r3, [sp, #8]
 8000ec8:	5d80      	ldrb	r0, [r0, r6]
 8000eca:	f818 a003 	ldrb.w	sl, [r8, r3]
 8000ece:	40a0      	lsls	r0, r4
 8000ed0:	ea40 000a 	orr.w	r0, r0, sl
 8000ed4:	f808 0003 	strb.w	r0, [r8, r3]
          if ((i > 0) && (i < pages_max)) {
 8000ed8:	e7e2      	b.n	8000ea0 <LCD_printsprite+0x1d8>
            dispbuffer[bufpg + i][bufcl + j] |= (Sprite->sprite[(i - 1) * Sprite->columns + j + column_shift] >> (8 - line_shift)) | 
 8000eda:	f892 b001 	ldrb.w	fp, [r2, #1]
 8000ede:	6850      	ldr	r0, [r2, #4]
 8000ee0:	fb0b fa09 	mul.w	sl, fp, r9
 8000ee4:	eb00 080a 	add.w	r8, r0, sl
                                                (Sprite->sprite[i * Sprite->columns + j + column_shift] << line_shift);
 8000ee8:	4458      	add	r0, fp
 8000eea:	4450      	add	r0, sl
            dispbuffer[bufpg + i][bufcl + j] |= (Sprite->sprite[(i - 1) * Sprite->columns + j + column_shift] >> (8 - line_shift)) | 
 8000eec:	44a8      	add	r8, r5
                                                (Sprite->sprite[i * Sprite->columns + j + column_shift] << line_shift);
 8000eee:	4428      	add	r0, r5
            dispbuffer[bufpg + i][bufcl + j] |= (Sprite->sprite[(i - 1) * Sprite->columns + j + column_shift] >> (8 - line_shift)) | 
 8000ef0:	f818 8006 	ldrb.w	r8, [r8, r6]
 8000ef4:	9b04      	ldr	r3, [sp, #16]
                                                (Sprite->sprite[i * Sprite->columns + j + column_shift] << line_shift);
 8000ef6:	5d80      	ldrb	r0, [r0, r6]
            dispbuffer[bufpg + i][bufcl + j] |= (Sprite->sprite[(i - 1) * Sprite->columns + j + column_shift] >> (8 - line_shift)) | 
 8000ef8:	fa48 f803 	asr.w	r8, r8, r3
                                                (Sprite->sprite[i * Sprite->columns + j + column_shift] << line_shift);
 8000efc:	40a0      	lsls	r0, r4
            dispbuffer[bufpg + i][bufcl + j] |= (Sprite->sprite[(i - 1) * Sprite->columns + j + column_shift] >> (8 - line_shift)) | 
 8000efe:	ea48 0000 	orr.w	r0, r8, r0
            dispbuffer[bufpg + i][bufcl + j] |= Sprite->sprite[(i - 1) * Sprite->columns + j + column_shift] >> (8 - line_shift);
 8000f02:	f891 8000 	ldrb.w	r8, [r1]
 8000f06:	ea40 0008 	orr.w	r0, r0, r8
 8000f0a:	7008      	strb	r0, [r1, #0]
        for (uint8 j = 0; j < columns_max; j++) {
 8000f0c:	3601      	adds	r6, #1
 8000f0e:	3101      	adds	r1, #1
 8000f10:	45b6      	cmp	lr, r6
 8000f12:	d1bf      	bne.n	8000e94 <LCD_printsprite+0x1cc>
      for (uint8 i = 0; i < (line_shift ? (pages_max + 1) : pages_max); i++) {
 8000f14:	3701      	adds	r7, #1
 8000f16:	e77d      	b.n	8000e14 <LCD_printsprite+0x14c>
          if ((i > 0) && (i < pages_max)) {
 8000f18:	9b01      	ldr	r3, [sp, #4]
 8000f1a:	4599      	cmp	r9, r3
 8000f1c:	daa5      	bge.n	8000e6a <LCD_printsprite+0x1a2>
            if((bufpg + i) < 8 && (bufcl + j) <= 127) dispbuffer[bufpg + i][bufcl + j] |= (Sprite->sprite[mprev + page_shift * j] >> (8 - line_shift))| 
 8000f1e:	44c1      	add	r9, r8
 8000f20:	f1b9 0f07 	cmp.w	r9, #7
 8000f24:	dc15      	bgt.n	8000f52 <LCD_printsprite+0x28a>
 8000f26:	2d7f      	cmp	r5, #127	@ 0x7f
 8000f28:	d813      	bhi.n	8000f52 <LCD_printsprite+0x28a>
 8000f2a:	6857      	ldr	r7, [r2, #4]
 8000f2c:	4b1e      	ldr	r3, [pc, #120]	@ (8000fa8 <LCD_printsprite+0x2e0>)
 8000f2e:	4477      	add	r7, lr
 8000f30:	f817 a00a 	ldrb.w	sl, [r7, sl]
 8000f34:	eb03 19c9 	add.w	r9, r3, r9, lsl #7
                                                                                          (Sprite->sprite[m + page_shift * j] << line_shift);
 8000f38:	5c7f      	ldrb	r7, [r7, r1]
            if((bufpg + i) < 8 && (bufcl + j) <= 127) dispbuffer[bufpg + i][bufcl + j] |= (Sprite->sprite[mprev + page_shift * j] >> (8 - line_shift))| 
 8000f3a:	9b02      	ldr	r3, [sp, #8]
                                                                                          (Sprite->sprite[m + page_shift * j] << line_shift);
 8000f3c:	40a7      	lsls	r7, r4
            if((bufpg + i) < 8 && (bufcl + j) <= 127) dispbuffer[bufpg + i][bufcl + j] |= (Sprite->sprite[mprev + page_shift * j] >> (8 - line_shift))| 
 8000f3e:	fa4a fa03 	asr.w	sl, sl, r3
 8000f42:	ea4a 0707 	orr.w	r7, sl, r7
 8000f46:	f819 a005 	ldrb.w	sl, [r9, r5]
 8000f4a:	ea47 070a 	orr.w	r7, r7, sl
 8000f4e:	f809 7005 	strb.w	r7, [r9, r5]
            m++;
 8000f52:	468a      	mov	sl, r1
 8000f54:	3101      	adds	r1, #1
        for (uint8 i = 0; i < (line_shift ? (pages_max + 1) : pages_max); i++) {
 8000f56:	f10b 0b01 	add.w	fp, fp, #1
 8000f5a:	9b05      	ldr	r3, [sp, #20]
 8000f5c:	fa5f f98b 	uxtb.w	r9, fp
 8000f60:	4599      	cmp	r9, r3
 8000f62:	f6ff af6b 	blt.w	8000e3c <LCD_printsprite+0x174>
      for (uint8 j = 0; j < columns_max; j++) {
 8000f66:	3501      	adds	r5, #1
 8000f68:	44b6      	add	lr, r6
 8000f6a:	f10c 0c01 	add.w	ip, ip, #1
 8000f6e:	e6f6      	b.n	8000d5e <LCD_printsprite+0x96>
              if((bufpg + i) < 8 && (bufcl + j) <= 127)  dispbuffer[bufpg + i][bufcl + j] |= (Sprite->sprite[mprev + page_shift * j] >> (8 - line_shift))|
 8000f70:	f1b8 0f07 	cmp.w	r8, #7
 8000f74:	f73f af76 	bgt.w	8000e64 <LCD_printsprite+0x19c>
 8000f78:	2d7f      	cmp	r5, #127	@ 0x7f
 8000f7a:	f63f af73 	bhi.w	8000e64 <LCD_printsprite+0x19c>
 8000f7e:	6857      	ldr	r7, [r2, #4]
 8000f80:	9b02      	ldr	r3, [sp, #8]
 8000f82:	4477      	add	r7, lr
 8000f84:	eb07 0a01 	add.w	sl, r7, r1
 8000f88:	f81a ac01 	ldrb.w	sl, [sl, #-1]
                                                                                             (Sprite->sprite[m + page_shift * j] << line_shift);
 8000f8c:	5c7f      	ldrb	r7, [r7, r1]
              if((bufpg + i) < 8 && (bufcl + j) <= 127)  dispbuffer[bufpg + i][bufcl + j] |= (Sprite->sprite[mprev + page_shift * j] >> (8 - line_shift))|
 8000f8e:	fa4a fa03 	asr.w	sl, sl, r3
                                                                                             (Sprite->sprite[m + page_shift * j] << line_shift);
 8000f92:	40a7      	lsls	r7, r4
              if((bufpg + i) < 8 && (bufcl + j) <= 127)  dispbuffer[bufpg + i][bufcl + j] |= (Sprite->sprite[mprev + page_shift * j] >> (8 - line_shift))|
 8000f94:	ea4a 0707 	orr.w	r7, sl, r7
 8000f98:	e75e      	b.n	8000e58 <LCD_printsprite+0x190>
          }
        }
      }
      break;
  }
}
 8000f9a:	b009      	add	sp, #36	@ 0x24
 8000f9c:	e8bd 8ff0 	ldmia.w	sp!, {r4, r5, r6, r7, r8, r9, sl, fp, pc}
 8000fa0:	2000014d 	.word	0x2000014d
 8000fa4:	2000014c 	.word	0x2000014c
 8000fa8:	2000014e 	.word	0x2000014e

08000fac <LCD_printgamestatbar>:

void LCD_printgamestatbar(tGamer* gamer) {
 8000fac:	b57f      	push	{r0, r1, r2, r3, r4, r5, r6, lr}
 8000fae:	4a28      	ldr	r2, [pc, #160]	@ (8001050 <LCD_printgamestatbar+0xa4>)
 8000fb0:	4604      	mov	r4, r0
  for (uint8 i = 0; i < 128; i++) dispbuffer[0][i] |= GameStatusBar[i];
 8000fb2:	2300      	movs	r3, #0
 8000fb4:	4610      	mov	r0, r2
 8000fb6:	4d27      	ldr	r5, [pc, #156]	@ (8001054 <LCD_printgamestatbar+0xa8>)
 8000fb8:	7811      	ldrb	r1, [r2, #0]
 8000fba:	f815 6b01 	ldrb.w	r6, [r5], #1
 8000fbe:	3301      	adds	r3, #1
 8000fc0:	b2db      	uxtb	r3, r3
 8000fc2:	4331      	orrs	r1, r6
 8000fc4:	2b80      	cmp	r3, #128	@ 0x80
 8000fc6:	f802 1b01 	strb.w	r1, [r2], #1
 8000fca:	d1f5      	bne.n	8000fb8 <LCD_printgamestatbar+0xc>
 8000fcc:	2309      	movs	r3, #9
 8000fce:	4922      	ldr	r1, [pc, #136]	@ (8001058 <LCD_printgamestatbar+0xac>)
  for (uint8 i = 9; i < (9 + gamer->health); i++) dispbuffer[0][i] |= 0b00111100; // helth bar
 8000fd0:	f994 2000 	ldrsb.w	r2, [r4]
 8000fd4:	3208      	adds	r2, #8
 8000fd6:	429a      	cmp	r2, r3
 8000fd8:	da2b      	bge.n	8001032 <LCD_printgamestatbar+0x86>
 8000fda:	2366      	movs	r3, #102	@ 0x66
 8000fdc:	491f      	ldr	r1, [pc, #124]	@ (800105c <LCD_printgamestatbar+0xb0>)
  for (uint8 i = 102; i < (102 + gamer->energy); i++) dispbuffer[0][i] |= 0b00111100; // energy bar
 8000fde:	f994 2001 	ldrsb.w	r2, [r4, #1]
 8000fe2:	3265      	adds	r2, #101	@ 0x65
 8000fe4:	429a      	cmp	r2, r3
 8000fe6:	da2b      	bge.n	8001040 <LCD_printgamestatbar+0x94>
  dispbuffer[0][102 + gamer->energymax] |= 0b01111110;
  uint8 money[6];
  uint16 display_value = gamer->money;
  if(display_value > 999) display_value = 999;
  u16_to_str(money, display_value, 10);
 8000fe8:	f240 31e7 	movw	r1, #999	@ 0x3e7
  dispbuffer[0][102 + gamer->energymax] |= 0b01111110;
 8000fec:	f994 3002 	ldrsb.w	r3, [r4, #2]
 8000ff0:	3366      	adds	r3, #102	@ 0x66
 8000ff2:	5cc2      	ldrb	r2, [r0, r3]
 8000ff4:	f042 027e 	orr.w	r2, r2, #126	@ 0x7e
 8000ff8:	54c2      	strb	r2, [r0, r3]
  if(display_value > 999) display_value = 999;
 8000ffa:	68a3      	ldr	r3, [r4, #8]
  u16_to_str(money, display_value, 10);
 8000ffc:	4668      	mov	r0, sp
 8000ffe:	4299      	cmp	r1, r3
 8001000:	bf28      	it	cs
 8001002:	4619      	movcs	r1, r3
 8001004:	220a      	movs	r2, #10
 8001006:	f7ff f8b8 	bl	800017a <u16_to_str>
  uint8 bombs[6];
  display_value = gamer->bombs;
 800100a:	7921      	ldrb	r1, [r4, #4]
  if(display_value > 99) display_value = 99;
  u16_to_str(bombs, display_value, 10);
 800100c:	a802      	add	r0, sp, #8
 800100e:	2963      	cmp	r1, #99	@ 0x63
 8001010:	bf28      	it	cs
 8001012:	2163      	movcs	r1, #99	@ 0x63
 8001014:	220a      	movs	r2, #10
 8001016:	f7ff f8b0 	bl	800017a <u16_to_str>
  LCD_printstr8x5(money, 0, 50);
 800101a:	2232      	movs	r2, #50	@ 0x32
 800101c:	2100      	movs	r1, #0
 800101e:	4668      	mov	r0, sp
 8001020:	f7ff fc24 	bl	800086c <LCD_printstr8x5>
  LCD_printstr8x5(bombs, 0, 81);
 8001024:	2251      	movs	r2, #81	@ 0x51
 8001026:	2100      	movs	r1, #0
 8001028:	a802      	add	r0, sp, #8
 800102a:	f7ff fc1f 	bl	800086c <LCD_printstr8x5>
  //LCD_printstr8x5(money, 2, 10);
  //LCD_printstr8x5(bombs, 3, 10);
}
 800102e:	b004      	add	sp, #16
 8001030:	bd70      	pop	{r4, r5, r6, pc}
  for (uint8 i = 9; i < (9 + gamer->health); i++) dispbuffer[0][i] |= 0b00111100; // helth bar
 8001032:	f811 2f01 	ldrb.w	r2, [r1, #1]!
 8001036:	3301      	adds	r3, #1
 8001038:	f042 023c 	orr.w	r2, r2, #60	@ 0x3c
 800103c:	700a      	strb	r2, [r1, #0]
 800103e:	e7c7      	b.n	8000fd0 <LCD_printgamestatbar+0x24>
  for (uint8 i = 102; i < (102 + gamer->energy); i++) dispbuffer[0][i] |= 0b00111100; // energy bar
 8001040:	f811 2f01 	ldrb.w	r2, [r1, #1]!
 8001044:	3301      	adds	r3, #1
 8001046:	f042 023c 	orr.w	r2, r2, #60	@ 0x3c
 800104a:	700a      	strb	r2, [r1, #0]
 800104c:	e7c7      	b.n	8000fde <LCD_printgamestatbar+0x32>
 800104e:	bf00      	nop
 8001050:	2000014e 	.word	0x2000014e
 8001054:	08006e31 	.word	0x08006e31
 8001058:	20000156 	.word	0x20000156
 800105c:	200001b3 	.word	0x200001b3

08001060 <_write>:
/* USER CODE END PFP */

/* Private user code ---------------------------------------------------------*/
/* USER CODE BEGIN 0 */
int _write(int file, char *ptr, int len)
{
 8001060:	4610      	mov	r0, r2
	for (int i = 0; i < len; i++)
 8001062:	2300      	movs	r3, #0
  \param [in]     ch  Character to transmit.
  \returns            Character to transmit.
 */
__STATIC_INLINE uint32_t ITM_SendChar (uint32_t ch)
{
  if (((ITM->TCR & ITM_TCR_ITMENA_Msk) != 0UL) &&      /* ITM enabled */
 8001064:	f04f 4260 	mov.w	r2, #3758096384	@ 0xe0000000
{
 8001068:	b530      	push	{r4, r5, lr}
	for (int i = 0; i < len; i++)
 800106a:	4283      	cmp	r3, r0
 800106c:	db00      	blt.n	8001070 <_write+0x10>
	{
		ITM_SendChar(*ptr++);
	}
	return len;
}
 800106e:	bd30      	pop	{r4, r5, pc}
 8001070:	f8d2 4e80 	ldr.w	r4, [r2, #3712]	@ 0xe80
 8001074:	07e5      	lsls	r5, r4, #31
 8001076:	d507      	bpl.n	8001088 <_write+0x28>
      ((ITM->TER & 1UL               ) != 0UL)   )     /* ITM Port #0 enabled */
 8001078:	f8d2 4e00 	ldr.w	r4, [r2, #3584]	@ 0xe00
  if (((ITM->TCR & ITM_TCR_ITMENA_Msk) != 0UL) &&      /* ITM enabled */
 800107c:	07e4      	lsls	r4, r4, #31
 800107e:	d503      	bpl.n	8001088 <_write+0x28>
		ITM_SendChar(*ptr++);
 8001080:	5ccc      	ldrb	r4, [r1, r3]
  {
    while (ITM->PORT[0U].u32 == 0UL)
 8001082:	6815      	ldr	r5, [r2, #0]
 8001084:	b115      	cbz	r5, 800108c <_write+0x2c>
    {
      __NOP();
    }
    ITM->PORT[0U].u8 = (uint8_t)ch;
 8001086:	7014      	strb	r4, [r2, #0]
	for (int i = 0; i < len; i++)
 8001088:	3301      	adds	r3, #1
 800108a:	e7ee      	b.n	800106a <_write+0xa>
      __NOP();
 800108c:	bf00      	nop
 800108e:	e7f8      	b.n	8001082 <_write+0x22>

08001090 <SystemClock_Config>:
/**
  * @brief System Clock Configuration
  * @retval None
  */
void SystemClock_Config(void)
{
 8001090:	b510      	push	{r4, lr}
 8001092:	b094      	sub	sp, #80	@ 0x50
  RCC_OscInitTypeDef RCC_OscInitStruct = {0};
 8001094:	2214      	movs	r2, #20
 8001096:	2100      	movs	r1, #0
 8001098:	a80c      	add	r0, sp, #48	@ 0x30
 800109a:	f004 fda2 	bl	8005be2 <memset>
  RCC_ClkInitTypeDef RCC_ClkInitStruct = {0};
 800109e:	2214      	movs	r2, #20
 80010a0:	2100      	movs	r1, #0
 80010a2:	eb0d 0002 	add.w	r0, sp, r2
 80010a6:	f004 fd9c 	bl	8005be2 <memset>
  RCC_PeriphCLKInitTypeDef PeriphClkInit = {0};
 80010aa:	2210      	movs	r2, #16
 80010ac:	2100      	movs	r1, #0
 80010ae:	a801      	add	r0, sp, #4
 80010b0:	f004 fd97 	bl	8005be2 <memset>
  RCC_OscInitStruct.OscillatorType = RCC_OSCILLATORTYPE_HSE|RCC_OSCILLATORTYPE_LSE;
  RCC_OscInitStruct.HSEState = RCC_HSE_ON;
  RCC_OscInitStruct.HSEPredivValue = RCC_HSE_PREDIV_DIV1;
  RCC_OscInitStruct.LSEState = RCC_LSE_ON;
  RCC_OscInitStruct.HSIState = RCC_HSI_ON;
  RCC_OscInitStruct.PLL.PLLState = RCC_PLL_ON;
 80010b4:	2402      	movs	r4, #2
  RCC_OscInitStruct.HSEState = RCC_HSE_ON;
 80010b6:	f44f 3380 	mov.w	r3, #65536	@ 0x10000
 80010ba:	2105      	movs	r1, #5
  RCC_OscInitStruct.LSEState = RCC_LSE_ON;
 80010bc:	2201      	movs	r2, #1
  RCC_OscInitStruct.HSEState = RCC_HSE_ON;
 80010be:	e9cd 130a 	strd	r1, r3, [sp, #40]	@ 0x28
  RCC_OscInitStruct.PLL.PLLSource = RCC_PLLSOURCE_HSE;
 80010c2:	e9cd 4311 	strd	r4, r3, [sp, #68]	@ 0x44
  RCC_OscInitStruct.PLL.PLLMUL = RCC_PLL_MUL9;
 80010c6:	f44f 13e0 	mov.w	r3, #1835008	@ 0x1c0000
  if (HAL_RCC_OscConfig(&RCC_OscInitStruct) != HAL_OK)
 80010ca:	a80a      	add	r0, sp, #40	@ 0x28
  RCC_OscInitStruct.HSIState = RCC_HSI_ON;
 80010cc:	e9cd 220d 	strd	r2, r2, [sp, #52]	@ 0x34
  RCC_OscInitStruct.PLL.PLLMUL = RCC_PLL_MUL9;
 80010d0:	9313      	str	r3, [sp, #76]	@ 0x4c
  if (HAL_RCC_OscConfig(&RCC_OscInitStruct) != HAL_OK)
 80010d2:	f003 f9cd 	bl	8004470 <HAL_RCC_OscConfig>
 80010d6:	b108      	cbz	r0, 80010dc <SystemClock_Config+0x4c>
  \details Disables IRQ interrupts by setting the I-bit in the CPSR.
           Can only be executed in Privileged modes.
 */
__STATIC_FORCEINLINE void __disable_irq(void)
{
  __ASM volatile ("cpsid i" : : : "memory");
 80010d8:	b672      	cpsid	i
void Error_Handler(void)
{
  /* USER CODE BEGIN Error_Handler_Debug */
  /* User can add his own implementation to report the HAL error return state */
  __disable_irq();
  while (1)
 80010da:	e7fe      	b.n	80010da <SystemClock_Config+0x4a>
  RCC_ClkInitStruct.ClockType = RCC_CLOCKTYPE_HCLK|RCC_CLOCKTYPE_SYSCLK
 80010dc:	230f      	movs	r3, #15
  RCC_ClkInitStruct.SYSCLKSource = RCC_SYSCLKSOURCE_PLLCLK;
 80010de:	e9cd 3405 	strd	r3, r4, [sp, #20]
  RCC_ClkInitStruct.APB1CLKDivider = RCC_HCLK_DIV2;
 80010e2:	f44f 6380 	mov.w	r3, #1024	@ 0x400
  RCC_ClkInitStruct.AHBCLKDivider = RCC_SYSCLK_DIV1;
 80010e6:	9007      	str	r0, [sp, #28]
  RCC_ClkInitStruct.APB2CLKDivider = RCC_HCLK_DIV1;
 80010e8:	e9cd 3008 	strd	r3, r0, [sp, #32]
  if (HAL_RCC_ClockConfig(&RCC_ClkInitStruct, FLASH_LATENCY_2) != HAL_OK)
 80010ec:	4621      	mov	r1, r4
 80010ee:	a805      	add	r0, sp, #20
 80010f0:	f003 fb80 	bl	80047f4 <HAL_RCC_ClockConfig>
 80010f4:	b108      	cbz	r0, 80010fa <SystemClock_Config+0x6a>
 80010f6:	b672      	cpsid	i
  while (1)
 80010f8:	e7fe      	b.n	80010f8 <SystemClock_Config+0x68>
  PeriphClkInit.RTCClockSelection = RCC_RTCCLKSOURCE_LSE;
 80010fa:	f44f 7380 	mov.w	r3, #256	@ 0x100
 80010fe:	2203      	movs	r2, #3
 8001100:	e9cd 2301 	strd	r2, r3, [sp, #4]
  PeriphClkInit.AdcClockSelection = RCC_ADCPCLK2_DIV6;
 8001104:	f44f 4300 	mov.w	r3, #32768	@ 0x8000
  if (HAL_RCCEx_PeriphCLKConfig(&PeriphClkInit) != HAL_OK)
 8001108:	a801      	add	r0, sp, #4
  PeriphClkInit.AdcClockSelection = RCC_ADCPCLK2_DIV6;
 800110a:	9303      	str	r3, [sp, #12]
  if (HAL_RCCEx_PeriphCLKConfig(&PeriphClkInit) != HAL_OK)
 800110c:	f003 fc1e 	bl	800494c <HAL_RCCEx_PeriphCLKConfig>
 8001110:	b108      	cbz	r0, 8001116 <SystemClock_Config+0x86>
 8001112:	b672      	cpsid	i
  while (1)
 8001114:	e7fe      	b.n	8001114 <SystemClock_Config+0x84>
}
 8001116:	b014      	add	sp, #80	@ 0x50
 8001118:	bd10      	pop	{r4, pc}
	...

0800111c <main>:
{
 800111c:	b580      	push	{r7, lr}
  __HAL_RCC_GPIOC_CLK_ENABLE();
 800111e:	4cae      	ldr	r4, [pc, #696]	@ (80013d8 <main+0x2bc>)
{
 8001120:	b09a      	sub	sp, #104	@ 0x68
  HAL_Init();
 8001122:	f002 fd03 	bl	8003b2c <HAL_Init>
  SystemClock_Config();
 8001126:	f7ff ffb3 	bl	8001090 <SystemClock_Config>
  GPIO_InitTypeDef GPIO_InitStruct = {0};
 800112a:	2210      	movs	r2, #16
 800112c:	2100      	movs	r1, #0
 800112e:	a812      	add	r0, sp, #72	@ 0x48
 8001130:	f004 fd57 	bl	8005be2 <memset>
  __HAL_RCC_GPIOC_CLK_ENABLE();
 8001134:	69a3      	ldr	r3, [r4, #24]
  HAL_GPIO_WritePin(SHUTDOWN_GPIO_Port, SHUTDOWN_Pin, GPIO_PIN_SET);
 8001136:	2201      	movs	r2, #1
  __HAL_RCC_GPIOC_CLK_ENABLE();
 8001138:	f043 0310 	orr.w	r3, r3, #16
 800113c:	61a3      	str	r3, [r4, #24]
 800113e:	69a3      	ldr	r3, [r4, #24]
  HAL_GPIO_WritePin(SHUTDOWN_GPIO_Port, SHUTDOWN_Pin, GPIO_PIN_SET);
 8001140:	f44f 5100 	mov.w	r1, #8192	@ 0x2000
  __HAL_RCC_GPIOC_CLK_ENABLE();
 8001144:	f003 0310 	and.w	r3, r3, #16
 8001148:	9301      	str	r3, [sp, #4]
 800114a:	9b01      	ldr	r3, [sp, #4]
  __HAL_RCC_GPIOD_CLK_ENABLE();
 800114c:	69a3      	ldr	r3, [r4, #24]
  HAL_GPIO_WritePin(SHUTDOWN_GPIO_Port, SHUTDOWN_Pin, GPIO_PIN_SET);
 800114e:	48a3      	ldr	r0, [pc, #652]	@ (80013dc <main+0x2c0>)
  __HAL_RCC_GPIOD_CLK_ENABLE();
 8001150:	f043 0320 	orr.w	r3, r3, #32
 8001154:	61a3      	str	r3, [r4, #24]
 8001156:	69a3      	ldr	r3, [r4, #24]
  GPIO_InitStruct.Speed = GPIO_SPEED_FREQ_LOW;
 8001158:	2500      	movs	r5, #0
  __HAL_RCC_GPIOD_CLK_ENABLE();
 800115a:	f003 0320 	and.w	r3, r3, #32
 800115e:	9302      	str	r3, [sp, #8]
 8001160:	9b02      	ldr	r3, [sp, #8]
  __HAL_RCC_GPIOA_CLK_ENABLE();
 8001162:	69a3      	ldr	r3, [r4, #24]
  GPIO_InitStruct.Speed = GPIO_SPEED_FREQ_LOW;
 8001164:	f04f 0802 	mov.w	r8, #2
  __HAL_RCC_GPIOA_CLK_ENABLE();
 8001168:	f043 0304 	orr.w	r3, r3, #4
 800116c:	61a3      	str	r3, [r4, #24]
 800116e:	69a3      	ldr	r3, [r4, #24]
  GPIO_InitStruct.Mode = GPIO_MODE_OUTPUT_PP;
 8001170:	2601      	movs	r6, #1
  __HAL_RCC_GPIOA_CLK_ENABLE();
 8001172:	f003 0304 	and.w	r3, r3, #4
 8001176:	9303      	str	r3, [sp, #12]
 8001178:	9b03      	ldr	r3, [sp, #12]
  __HAL_RCC_GPIOB_CLK_ENABLE();
 800117a:	69a3      	ldr	r3, [r4, #24]
  GPIO_InitStruct.Pin = JOYSTICK_BTN_Pin;
 800117c:	2708      	movs	r7, #8
  __HAL_RCC_GPIOB_CLK_ENABLE();
 800117e:	f043 0308 	orr.w	r3, r3, #8
 8001182:	61a3      	str	r3, [r4, #24]
 8001184:	69a3      	ldr	r3, [r4, #24]
 8001186:	f003 0308 	and.w	r3, r3, #8
 800118a:	9304      	str	r3, [sp, #16]
 800118c:	9b04      	ldr	r3, [sp, #16]
  HAL_GPIO_WritePin(SHUTDOWN_GPIO_Port, SHUTDOWN_Pin, GPIO_PIN_SET);
 800118e:	f003 f963 	bl	8004458 <HAL_GPIO_WritePin>
  HAL_GPIO_WritePin(GPIOA, DISP_RS_Pin|DISP_RSE_Pin|SOUND_OUT_Pin, GPIO_PIN_RESET);
 8001192:	2200      	movs	r2, #0
 8001194:	f241 0106 	movw	r1, #4102	@ 0x1006
 8001198:	4891      	ldr	r0, [pc, #580]	@ (80013e0 <main+0x2c4>)
 800119a:	f003 f95d 	bl	8004458 <HAL_GPIO_WritePin>
  GPIO_InitStruct.Mode = GPIO_MODE_OUTPUT_OD;
 800119e:	f44f 5e00 	mov.w	lr, #8192	@ 0x2000
 80011a2:	2311      	movs	r3, #17
  HAL_GPIO_Init(SHUTDOWN_GPIO_Port, &GPIO_InitStruct);
 80011a4:	488d      	ldr	r0, [pc, #564]	@ (80013dc <main+0x2c0>)
 80011a6:	a912      	add	r1, sp, #72	@ 0x48
  GPIO_InitStruct.Mode = GPIO_MODE_OUTPUT_OD;
 80011a8:	e9cd e312 	strd	lr, r3, [sp, #72]	@ 0x48
  GPIO_InitStruct.Speed = GPIO_SPEED_FREQ_LOW;
 80011ac:	e9cd 5814 	strd	r5, r8, [sp, #80]	@ 0x50
  HAL_GPIO_Init(SHUTDOWN_GPIO_Port, &GPIO_InitStruct);
 80011b0:	f003 f874 	bl	800429c <HAL_GPIO_Init>
  GPIO_InitStruct.Mode = GPIO_MODE_OUTPUT_PP;
 80011b4:	f241 0306 	movw	r3, #4102	@ 0x1006
  HAL_GPIO_Init(GPIOA, &GPIO_InitStruct);
 80011b8:	4889      	ldr	r0, [pc, #548]	@ (80013e0 <main+0x2c4>)
 80011ba:	a912      	add	r1, sp, #72	@ 0x48
  GPIO_InitStruct.Mode = GPIO_MODE_OUTPUT_PP;
 80011bc:	e9cd 3612 	strd	r3, r6, [sp, #72]	@ 0x48
  GPIO_InitStruct.Speed = GPIO_SPEED_FREQ_LOW;
 80011c0:	e9cd 5814 	strd	r5, r8, [sp, #80]	@ 0x50
  HAL_GPIO_Init(GPIOA, &GPIO_InitStruct);
 80011c4:	f003 f86a 	bl	800429c <HAL_GPIO_Init>
  HAL_GPIO_Init(JOYSTICK_BTN_GPIO_Port, &GPIO_InitStruct);
 80011c8:	4885      	ldr	r0, [pc, #532]	@ (80013e0 <main+0x2c4>)
 80011ca:	a912      	add	r1, sp, #72	@ 0x48
  GPIO_InitStruct.Mode = GPIO_MODE_INPUT;
 80011cc:	e9cd 7512 	strd	r7, r5, [sp, #72]	@ 0x48
  GPIO_InitStruct.Pull = GPIO_PULLUP;
 80011d0:	9614      	str	r6, [sp, #80]	@ 0x50
  HAL_GPIO_Init(JOYSTICK_BTN_GPIO_Port, &GPIO_InitStruct);
 80011d2:	f003 f863 	bl	800429c <HAL_GPIO_Init>
  GPIO_InitStruct.Pin = BTN_3_Pin|BTN_4_Pin|BTN_1_Pin|BTN_2_Pin;
 80011d6:	23f0      	movs	r3, #240	@ 0xf0
  HAL_GPIO_Init(GPIOB, &GPIO_InitStruct);
 80011d8:	4882      	ldr	r0, [pc, #520]	@ (80013e4 <main+0x2c8>)
 80011da:	a912      	add	r1, sp, #72	@ 0x48
  GPIO_InitStruct.Mode = GPIO_MODE_INPUT;
 80011dc:	e9cd 3512 	strd	r3, r5, [sp, #72]	@ 0x48
  GPIO_InitStruct.Pull = GPIO_PULLUP;
 80011e0:	9614      	str	r6, [sp, #80]	@ 0x50
  HAL_GPIO_Init(GPIOB, &GPIO_InitStruct);
 80011e2:	f003 f85b 	bl	800429c <HAL_GPIO_Init>
  __HAL_RCC_DMA1_CLK_ENABLE();
 80011e6:	6963      	ldr	r3, [r4, #20]
  HAL_NVIC_SetPriority(DMA1_Channel1_IRQn, 0, 0);
 80011e8:	462a      	mov	r2, r5
  __HAL_RCC_DMA1_CLK_ENABLE();
 80011ea:	4333      	orrs	r3, r6
 80011ec:	6163      	str	r3, [r4, #20]
 80011ee:	6963      	ldr	r3, [r4, #20]
  HAL_NVIC_SetPriority(DMA1_Channel1_IRQn, 0, 0);
 80011f0:	4629      	mov	r1, r5
  __HAL_RCC_DMA1_CLK_ENABLE();
 80011f2:	4033      	ands	r3, r6
  HAL_NVIC_SetPriority(DMA1_Channel1_IRQn, 0, 0);
 80011f4:	200b      	movs	r0, #11
  __HAL_RCC_DMA1_CLK_ENABLE();
 80011f6:	9300      	str	r3, [sp, #0]
 80011f8:	9b00      	ldr	r3, [sp, #0]
  HAL_NVIC_SetPriority(DMA1_Channel1_IRQn, 0, 0);
 80011fa:	f002 fefb 	bl	8003ff4 <HAL_NVIC_SetPriority>
  HAL_NVIC_EnableIRQ(DMA1_Channel1_IRQn);
 80011fe:	200b      	movs	r0, #11
 8001200:	f002 ff28 	bl	8004054 <HAL_NVIC_EnableIRQ>
  hadc1.Instance = ADC1;
 8001204:	4c78      	ldr	r4, [pc, #480]	@ (80013e8 <main+0x2cc>)
 8001206:	4b79      	ldr	r3, [pc, #484]	@ (80013ec <main+0x2d0>)
  ADC_ChannelConfTypeDef sConfig = {0};
 8001208:	e9cd 5512 	strd	r5, r5, [sp, #72]	@ 0x48
  hadc1.Instance = ADC1;
 800120c:	6023      	str	r3, [r4, #0]
  hadc1.Init.ScanConvMode = ADC_SCAN_ENABLE;
 800120e:	f44f 7380 	mov.w	r3, #256	@ 0x100
  ADC_ChannelConfTypeDef sConfig = {0};
 8001212:	9514      	str	r5, [sp, #80]	@ 0x50
  hadc1.Init.ScanConvMode = ADC_SCAN_ENABLE;
 8001214:	60a3      	str	r3, [r4, #8]
  hadc1.Init.ContinuousConvMode = DISABLE;
 8001216:	7325      	strb	r5, [r4, #12]
  hadc1.Init.ExternalTrigConv = ADC_SOFTWARE_START;
 8001218:	f44f 2360 	mov.w	r3, #917504	@ 0xe0000
  hadc1.Init.DiscontinuousConvMode = DISABLE;
 800121c:	7525      	strb	r5, [r4, #20]
  hadc1.Init.DataAlign = ADC_DATAALIGN_RIGHT;
 800121e:	6065      	str	r5, [r4, #4]
  hadc1.Init.NbrOfConversion = 3;
 8001220:	2503      	movs	r5, #3
  if (HAL_ADC_Init(&hadc1) != HAL_OK)
 8001222:	4620      	mov	r0, r4
  hadc1.Init.ExternalTrigConv = ADC_SOFTWARE_START;
 8001224:	61e3      	str	r3, [r4, #28]
  hadc1.Init.NbrOfConversion = 3;
 8001226:	6125      	str	r5, [r4, #16]
  if (HAL_ADC_Init(&hadc1) != HAL_OK)
 8001228:	f002 fe54 	bl	8003ed4 <HAL_ADC_Init>
 800122c:	b108      	cbz	r0, 8001232 <main+0x116>
 800122e:	b672      	cpsid	i
  while (1)
 8001230:	e7fe      	b.n	8001230 <main+0x114>
  sConfig.SamplingTime = ADC_SAMPLETIME_239CYCLES_5;
 8001232:	2307      	movs	r3, #7
  sConfig.Rank = ADC_REGULAR_RANK_1;
 8001234:	e9cd 0612 	strd	r0, r6, [sp, #72]	@ 0x48
  if (HAL_ADC_ConfigChannel(&hadc1, &sConfig) != HAL_OK)
 8001238:	a912      	add	r1, sp, #72	@ 0x48
 800123a:	4620      	mov	r0, r4
  sConfig.SamplingTime = ADC_SAMPLETIME_239CYCLES_5;
 800123c:	9314      	str	r3, [sp, #80]	@ 0x50
  if (HAL_ADC_ConfigChannel(&hadc1, &sConfig) != HAL_OK)
 800123e:	f002 fcdb 	bl	8003bf8 <HAL_ADC_ConfigChannel>
 8001242:	b108      	cbz	r0, 8001248 <main+0x12c>
 8001244:	b672      	cpsid	i
  while (1)
 8001246:	e7fe      	b.n	8001246 <main+0x12a>
  sConfig.Channel = ADC_CHANNEL_9;
 8001248:	2309      	movs	r3, #9
  if (HAL_ADC_ConfigChannel(&hadc1, &sConfig) != HAL_OK)
 800124a:	4620      	mov	r0, r4
 800124c:	a912      	add	r1, sp, #72	@ 0x48
  sConfig.Rank = ADC_REGULAR_RANK_2;
 800124e:	e9cd 3812 	strd	r3, r8, [sp, #72]	@ 0x48
  if (HAL_ADC_ConfigChannel(&hadc1, &sConfig) != HAL_OK)
 8001252:	f002 fcd1 	bl	8003bf8 <HAL_ADC_ConfigChannel>
 8001256:	b108      	cbz	r0, 800125c <main+0x140>
 8001258:	b672      	cpsid	i
  while (1)
 800125a:	e7fe      	b.n	800125a <main+0x13e>
  if (HAL_ADC_ConfigChannel(&hadc1, &sConfig) != HAL_OK)
 800125c:	4620      	mov	r0, r4
 800125e:	a912      	add	r1, sp, #72	@ 0x48
  sConfig.Rank = ADC_REGULAR_RANK_3;
 8001260:	e9cd 7512 	strd	r7, r5, [sp, #72]	@ 0x48
  if (HAL_ADC_ConfigChannel(&hadc1, &sConfig) != HAL_OK)
 8001264:	f002 fcc8 	bl	8003bf8 <HAL_ADC_ConfigChannel>
 8001268:	4603      	mov	r3, r0
 800126a:	b108      	cbz	r0, 8001270 <main+0x154>
 800126c:	b672      	cpsid	i
  while (1)
 800126e:	e7fe      	b.n	800126e <main+0x152>
  hspi2.Init.Mode = SPI_MODE_MASTER;
 8001270:	f44f 7282 	mov.w	r2, #260	@ 0x104
  hspi2.Instance = SPI2;
 8001274:	485e      	ldr	r0, [pc, #376]	@ (80013f0 <main+0x2d4>)
  hspi2.Init.Mode = SPI_MODE_MASTER;
 8001276:	f8df c17c 	ldr.w	ip, [pc, #380]	@ 80013f4 <main+0x2d8>
  hspi2.Init.DataSize = SPI_DATASIZE_8BIT;
 800127a:	e9c0 3302 	strd	r3, r3, [r0, #8]
  hspi2.Init.Mode = SPI_MODE_MASTER;
 800127e:	e9c0 c200 	strd	ip, r2, [r0]
  hspi2.Init.CLKPhase = SPI_PHASE_1EDGE;
 8001282:	e9c0 3304 	strd	r3, r3, [r0, #16]
  hspi2.Init.NSS = SPI_NSS_HARD_OUTPUT;
 8001286:	f44f 2280 	mov.w	r2, #262144	@ 0x40000
  hspi2.Init.TIMode = SPI_TIMODE_DISABLE;
 800128a:	e9c0 3308 	strd	r3, r3, [r0, #32]
  hspi2.Init.CRCCalculation = SPI_CRCCALCULATION_DISABLE;
 800128e:	6283      	str	r3, [r0, #40]	@ 0x28
  hspi2.Init.CRCPolynomial = 10;
 8001290:	230a      	movs	r3, #10
  hspi2.Init.BaudRatePrescaler = SPI_BAUDRATEPRESCALER_4;
 8001292:	e9c0 2706 	strd	r2, r7, [r0, #24]
  hspi2.Init.CRCPolynomial = 10;
 8001296:	62c3      	str	r3, [r0, #44]	@ 0x2c
  if (HAL_SPI_Init(&hspi2) != HAL_OK)
 8001298:	f003 ff46 	bl	8005128 <HAL_SPI_Init>
 800129c:	4604      	mov	r4, r0
 800129e:	b108      	cbz	r0, 80012a4 <main+0x188>
 80012a0:	b672      	cpsid	i
  while (1)
 80012a2:	e7fe      	b.n	80012a2 <main+0x186>
  TIM_ClockConfigTypeDef sClockSourceConfig = {0};
 80012a4:	4601      	mov	r1, r0
 80012a6:	2210      	movs	r2, #16
 80012a8:	a807      	add	r0, sp, #28
 80012aa:	f004 fc9a 	bl	8005be2 <memset>
  TIM_OC_InitTypeDef sConfigOC = {0};
 80012ae:	221c      	movs	r2, #28
 80012b0:	4621      	mov	r1, r4
 80012b2:	a80b      	add	r0, sp, #44	@ 0x2c
  TIM_MasterConfigTypeDef sMasterConfig = {0};
 80012b4:	e9cd 4405 	strd	r4, r4, [sp, #20]
  TIM_OC_InitTypeDef sConfigOC = {0};
 80012b8:	f004 fc93 	bl	8005be2 <memset>
  TIM_BreakDeadTimeConfigTypeDef sBreakDeadTimeConfig = {0};
 80012bc:	2220      	movs	r2, #32
 80012be:	4621      	mov	r1, r4
 80012c0:	a812      	add	r0, sp, #72	@ 0x48
 80012c2:	f004 fc8e 	bl	8005be2 <memset>
  htim1.Instance = TIM1;
 80012c6:	4d4c      	ldr	r5, [pc, #304]	@ (80013f8 <main+0x2dc>)
 80012c8:	4b4c      	ldr	r3, [pc, #304]	@ (80013fc <main+0x2e0>)
  if (HAL_TIM_Base_Init(&htim1) != HAL_OK)
 80012ca:	4628      	mov	r0, r5
  htim1.Init.Prescaler = 0;
 80012cc:	e9c5 3400 	strd	r3, r4, [r5]
  htim1.Init.Period = 65535;
 80012d0:	f64f 73ff 	movw	r3, #65535	@ 0xffff
  htim1.Init.AutoReloadPreload = TIM_AUTORELOAD_PRELOAD_DISABLE;
 80012d4:	e9c5 4405 	strd	r4, r4, [r5, #20]
  htim1.Init.ClockDivision = TIM_CLOCKDIVISION_DIV1;
 80012d8:	e9c5 3403 	strd	r3, r4, [r5, #12]
  htim1.Init.CounterMode = TIM_COUNTERMODE_UP;
 80012dc:	60ac      	str	r4, [r5, #8]
  if (HAL_TIM_Base_Init(&htim1) != HAL_OK)
 80012de:	f004 f8dd 	bl	800549c <HAL_TIM_Base_Init>
 80012e2:	b108      	cbz	r0, 80012e8 <main+0x1cc>
 80012e4:	b672      	cpsid	i
  while (1)
 80012e6:	e7fe      	b.n	80012e6 <main+0x1ca>
  sClockSourceConfig.ClockSource = TIM_CLOCKSOURCE_INTERNAL;
 80012e8:	f44f 5380 	mov.w	r3, #4096	@ 0x1000
  if (HAL_TIM_ConfigClockSource(&htim1, &sClockSourceConfig) != HAL_OK)
 80012ec:	4628      	mov	r0, r5
 80012ee:	a907      	add	r1, sp, #28
  sClockSourceConfig.ClockSource = TIM_CLOCKSOURCE_INTERNAL;
 80012f0:	9307      	str	r3, [sp, #28]
  if (HAL_TIM_ConfigClockSource(&htim1, &sClockSourceConfig) != HAL_OK)
 80012f2:	f004 f9b9 	bl	8005668 <HAL_TIM_ConfigClockSource>
 80012f6:	b108      	cbz	r0, 80012fc <main+0x1e0>
 80012f8:	b672      	cpsid	i
  while (1)
 80012fa:	e7fe      	b.n	80012fa <main+0x1de>
  if (HAL_TIM_PWM_Init(&htim1) != HAL_OK)
 80012fc:	4628      	mov	r0, r5
 80012fe:	f004 f8f9 	bl	80054f4 <HAL_TIM_PWM_Init>
 8001302:	b108      	cbz	r0, 8001308 <main+0x1ec>
 8001304:	b672      	cpsid	i
  while (1)
 8001306:	e7fe      	b.n	8001306 <main+0x1ea>
  sMasterConfig.MasterSlaveMode = TIM_MASTERSLAVEMODE_DISABLE;
 8001308:	e9cd 0005 	strd	r0, r0, [sp, #20]
  if (HAL_TIMEx_MasterConfigSynchronization(&htim1, &sMasterConfig) != HAL_OK)
 800130c:	a905      	add	r1, sp, #20
 800130e:	4628      	mov	r0, r5
 8001310:	f004 faa2 	bl	8005858 <HAL_TIMEx_MasterConfigSynchronization>
 8001314:	4602      	mov	r2, r0
 8001316:	b108      	cbz	r0, 800131c <main+0x200>
 8001318:	b672      	cpsid	i
  while (1)
 800131a:	e7fe      	b.n	800131a <main+0x1fe>
  sConfigOC.Pulse = 45000;
 800131c:	2660      	movs	r6, #96	@ 0x60
 800131e:	f64a 73c8 	movw	r3, #45000	@ 0xafc8
  sConfigOC.OCNPolarity = TIM_OCNPOLARITY_HIGH;
 8001322:	e9cd 000d 	strd	r0, r0, [sp, #52]	@ 0x34
  sConfigOC.OCIdleState = TIM_OCIDLESTATE_RESET;
 8001326:	e9cd 000f 	strd	r0, r0, [sp, #60]	@ 0x3c
  sConfigOC.OCNIdleState = TIM_OCNIDLESTATE_RESET;
 800132a:	9011      	str	r0, [sp, #68]	@ 0x44
  if (HAL_TIM_PWM_ConfigChannel(&htim1, &sConfigOC, TIM_CHANNEL_1) != HAL_OK)
 800132c:	a90b      	add	r1, sp, #44	@ 0x2c
 800132e:	4628      	mov	r0, r5
  sConfigOC.Pulse = 45000;
 8001330:	e9cd 630b 	strd	r6, r3, [sp, #44]	@ 0x2c
  if (HAL_TIM_PWM_ConfigChannel(&htim1, &sConfigOC, TIM_CHANNEL_1) != HAL_OK)
 8001334:	f004 f936 	bl	80055a4 <HAL_TIM_PWM_ConfigChannel>
 8001338:	b108      	cbz	r0, 800133e <main+0x222>
 800133a:	b672      	cpsid	i
  while (1)
 800133c:	e7fe      	b.n	800133c <main+0x220>
  sBreakDeadTimeConfig.OffStateRunMode = TIM_OSSR_DISABLE;
 800133e:	2300      	movs	r3, #0
  sBreakDeadTimeConfig.BreakPolarity = TIM_BREAKPOLARITY_HIGH;
 8001340:	f44f 5200 	mov.w	r2, #8192	@ 0x2000
  if (HAL_TIMEx_ConfigBreakDeadTime(&htim1, &sBreakDeadTimeConfig) != HAL_OK)
 8001344:	482c      	ldr	r0, [pc, #176]	@ (80013f8 <main+0x2dc>)
 8001346:	a912      	add	r1, sp, #72	@ 0x48
  sBreakDeadTimeConfig.OffStateIDLEMode = TIM_OSSI_DISABLE;
 8001348:	e9cd 3312 	strd	r3, r3, [sp, #72]	@ 0x48
  sBreakDeadTimeConfig.DeadTime = 0;
 800134c:	e9cd 3314 	strd	r3, r3, [sp, #80]	@ 0x50
  sBreakDeadTimeConfig.BreakState = TIM_BREAK_DISABLE;
 8001350:	9316      	str	r3, [sp, #88]	@ 0x58
  sBreakDeadTimeConfig.BreakPolarity = TIM_BREAKPOLARITY_HIGH;
 8001352:	9217      	str	r2, [sp, #92]	@ 0x5c
  sBreakDeadTimeConfig.AutomaticOutput = TIM_AUTOMATICOUTPUT_DISABLE;
 8001354:	9319      	str	r3, [sp, #100]	@ 0x64
  if (HAL_TIMEx_ConfigBreakDeadTime(&htim1, &sBreakDeadTimeConfig) != HAL_OK)
 8001356:	f004 faad 	bl	80058b4 <HAL_TIMEx_ConfigBreakDeadTime>
 800135a:	4604      	mov	r4, r0
 800135c:	b108      	cbz	r0, 8001362 <main+0x246>
 800135e:	b672      	cpsid	i
  while (1)
 8001360:	e7fe      	b.n	8001360 <main+0x244>
  HAL_TIM_MspPostInit(&htim1);
 8001362:	4825      	ldr	r0, [pc, #148]	@ (80013f8 <main+0x2dc>)
 8001364:	f000 ff86 	bl	8002274 <HAL_TIM_MspPostInit>
  hrtc.Init.AsynchPrediv = RTC_AUTO_1_SECOND;
 8001368:	f04f 33ff 	mov.w	r3, #4294967295
  hrtc.Instance = RTC;
 800136c:	4824      	ldr	r0, [pc, #144]	@ (8001400 <main+0x2e4>)
  hrtc.Init.AsynchPrediv = RTC_AUTO_1_SECOND;
 800136e:	4d25      	ldr	r5, [pc, #148]	@ (8001404 <main+0x2e8>)
  hrtc.Init.OutPut = RTC_OUTPUTSOURCE_NONE;
 8001370:	6084      	str	r4, [r0, #8]
  hrtc.Init.AsynchPrediv = RTC_AUTO_1_SECOND;
 8001372:	e9c0 5300 	strd	r5, r3, [r0]
  if (HAL_RTC_Init(&hrtc) != HAL_OK)
 8001376:	f003 fe19 	bl	8004fac <HAL_RTC_Init>
 800137a:	4603      	mov	r3, r0
 800137c:	b108      	cbz	r0, 8001382 <main+0x266>
 800137e:	b672      	cpsid	i
  while (1)
 8001380:	e7fe      	b.n	8001380 <main+0x264>
  hspi1.Init.Mode = SPI_MODE_MASTER;
 8001382:	f44f 7282 	mov.w	r2, #260	@ 0x104
  hspi1.Instance = SPI1;
 8001386:	4820      	ldr	r0, [pc, #128]	@ (8001408 <main+0x2ec>)
  hspi1.Init.Mode = SPI_MODE_MASTER;
 8001388:	4920      	ldr	r1, [pc, #128]	@ (800140c <main+0x2f0>)
  hspi1.Init.BaudRatePrescaler = SPI_BAUDRATEPRESCALER_4;
 800138a:	f44f 2480 	mov.w	r4, #262144	@ 0x40000
  hspi1.Init.Mode = SPI_MODE_MASTER;
 800138e:	e9c0 1200 	strd	r1, r2, [r0]
  hspi1.Init.DataSize = SPI_DATASIZE_8BIT;
 8001392:	e9c0 3302 	strd	r3, r3, [r0, #8]
  hspi1.Init.BaudRatePrescaler = SPI_BAUDRATEPRESCALER_4;
 8001396:	2208      	movs	r2, #8
  hspi1.Init.CLKPhase = SPI_PHASE_1EDGE;
 8001398:	e9c0 3304 	strd	r3, r3, [r0, #16]
  hspi1.Init.TIMode = SPI_TIMODE_DISABLE;
 800139c:	e9c0 3308 	strd	r3, r3, [r0, #32]
  hspi1.Init.CRCCalculation = SPI_CRCCALCULATION_DISABLE;
 80013a0:	6283      	str	r3, [r0, #40]	@ 0x28
  hspi1.Init.CRCPolynomial = 10;
 80013a2:	230a      	movs	r3, #10
  hspi1.Init.BaudRatePrescaler = SPI_BAUDRATEPRESCALER_4;
 80013a4:	e9c0 4206 	strd	r4, r2, [r0, #24]
  hspi1.Init.CRCPolynomial = 10;
 80013a8:	62c3      	str	r3, [r0, #44]	@ 0x2c
  if (HAL_SPI_Init(&hspi1) != HAL_OK)
 80013aa:	f003 febd 	bl	8005128 <HAL_SPI_Init>
 80013ae:	b108      	cbz	r0, 80013b4 <main+0x298>
 80013b0:	b672      	cpsid	i
  while (1)
 80013b2:	e7fe      	b.n	80013b2 <main+0x296>
  commoninit();
 80013b4:	f7ff f808 	bl	80003c8 <commoninit>
  randinit();
 80013b8:	f7fe fec8 	bl	800014c <randinit>
  LCD_init();
 80013bc:	f7ff fabe 	bl	800093c <LCD_init>
  LCD_bufupload_buferase();
 80013c0:	f7ff fab4 	bl	800092c <LCD_bufupload_buferase>
  initbuttons();
 80013c4:	f7fe ff2a 	bl	800021c <initbuttons>
  HAL_ADC_Start_DMA(&hadc1, (uint32_t*)ADC_data.array, 3);
 80013c8:	2203      	movs	r2, #3
 80013ca:	4911      	ldr	r1, [pc, #68]	@ (8001410 <main+0x2f4>)
 80013cc:	4806      	ldr	r0, [pc, #24]	@ (80013e8 <main+0x2cc>)
 80013ce:	f002 fccd 	bl	8003d6c <HAL_ADC_Start_DMA>
    MainMenu();
 80013d2:	f000 fc03 	bl	8001bdc <MainMenu>
  while (1)
 80013d6:	e7fc      	b.n	80013d2 <main+0x2b6>
 80013d8:	40021000 	.word	0x40021000
 80013dc:	40011000 	.word	0x40011000
 80013e0:	40010800 	.word	0x40010800
 80013e4:	40010c00 	.word	0x40010c00
 80013e8:	200006ac 	.word	0x200006ac
 80013ec:	40012400 	.word	0x40012400
 80013f0:	200005a4 	.word	0x200005a4
 80013f4:	40003800 	.word	0x40003800
 80013f8:	2000055c 	.word	0x2000055c
 80013fc:	40012c00 	.word	0x40012c00
 8001400:	20000654 	.word	0x20000654
 8001404:	40002800 	.word	0x40002800
 8001408:	200005fc 	.word	0x200005fc
 800140c:	40013000 	.word	0x40013000
 8001410:	20000556 	.word	0x20000556

08001414 <HAL_IncTick>:
{
 8001414:	b510      	push	{r4, lr}
  uwTick += uwTickFreq;
 8001416:	4a0f      	ldr	r2, [pc, #60]	@ (8001454 <HAL_IncTick+0x40>)
 8001418:	4b0f      	ldr	r3, [pc, #60]	@ (8001458 <HAL_IncTick+0x44>)
 800141a:	6811      	ldr	r1, [r2, #0]
 800141c:	781b      	ldrb	r3, [r3, #0]
  timestamp++;
 800141e:	4c0f      	ldr	r4, [pc, #60]	@ (800145c <HAL_IncTick+0x48>)
  uwTick += uwTickFreq;
 8001420:	440b      	add	r3, r1
 8001422:	6013      	str	r3, [r2, #0]
  timestamp++;
 8001424:	6823      	ldr	r3, [r4, #0]
 8001426:	3301      	adds	r3, #1
 8001428:	6023      	str	r3, [r4, #0]
  SchedPeriodIncr();
 800142a:	f000 fd9d 	bl	8001f68 <SchedPeriodIncr>
  if( ((timestamp - timer_adc) > 20) && adc_complete_fl )
 800142e:	4a0c      	ldr	r2, [pc, #48]	@ (8001460 <HAL_IncTick+0x4c>)
 8001430:	6821      	ldr	r1, [r4, #0]
 8001432:	6813      	ldr	r3, [r2, #0]
 8001434:	1acb      	subs	r3, r1, r3
 8001436:	2b14      	cmp	r3, #20
 8001438:	d90a      	bls.n	8001450 <HAL_IncTick+0x3c>
 800143a:	4b0a      	ldr	r3, [pc, #40]	@ (8001464 <HAL_IncTick+0x50>)
 800143c:	781b      	ldrb	r3, [r3, #0]
 800143e:	b13b      	cbz	r3, 8001450 <HAL_IncTick+0x3c>
}
 8001440:	e8bd 4010 	ldmia.w	sp!, {r4, lr}
    timer_adc = timestamp;
 8001444:	6011      	str	r1, [r2, #0]
    HAL_ADC_Start_DMA(&hadc1, (uint32_t*)ADC_data.array, 3);
 8001446:	4808      	ldr	r0, [pc, #32]	@ (8001468 <HAL_IncTick+0x54>)
 8001448:	2203      	movs	r2, #3
 800144a:	4908      	ldr	r1, [pc, #32]	@ (800146c <HAL_IncTick+0x58>)
 800144c:	f002 bc8e 	b.w	8003d6c <HAL_ADC_Start_DMA>
}
 8001450:	bd10      	pop	{r4, pc}
 8001452:	bf00      	nop
 8001454:	20000a54 	.word	0x20000a54
 8001458:	20000053 	.word	0x20000053
 800145c:	200000e4 	.word	0x200000e4
 8001460:	20000550 	.word	0x20000550
 8001464:	20000554 	.word	0x20000554
 8001468:	200006ac 	.word	0x200006ac
 800146c:	20000556 	.word	0x20000556

08001470 <HAL_ADC_ConvCpltCallback>:
  if(hadc->Instance == ADC1)
 8001470:	6802      	ldr	r2, [r0, #0]
 8001472:	4b09      	ldr	r3, [pc, #36]	@ (8001498 <HAL_ADC_ConvCpltCallback+0x28>)
 8001474:	429a      	cmp	r2, r3
 8001476:	d10e      	bne.n	8001496 <HAL_ADC_ConvCpltCallback+0x26>
    joystick.ox = (uint8_t)(ADC_data.jox/16);
 8001478:	4b08      	ldr	r3, [pc, #32]	@ (800149c <HAL_ADC_ConvCpltCallback+0x2c>)
 800147a:	4909      	ldr	r1, [pc, #36]	@ (80014a0 <HAL_ADC_ConvCpltCallback+0x30>)
 800147c:	885a      	ldrh	r2, [r3, #2]
 800147e:	0912      	lsrs	r2, r2, #4
 8001480:	704a      	strb	r2, [r1, #1]
    joystick.oy = (uint8_t)(ADC_data.joy/16);
 8001482:	889a      	ldrh	r2, [r3, #4]
    Ubat = (uint8_t)(ADC_data.batlvl/16);
 8001484:	881b      	ldrh	r3, [r3, #0]
    joystick.oy = (uint8_t)(ADC_data.joy/16);
 8001486:	0912      	lsrs	r2, r2, #4
 8001488:	708a      	strb	r2, [r1, #2]
    Ubat = (uint8_t)(ADC_data.batlvl/16);
 800148a:	4a06      	ldr	r2, [pc, #24]	@ (80014a4 <HAL_ADC_ConvCpltCallback+0x34>)
 800148c:	091b      	lsrs	r3, r3, #4
 800148e:	7013      	strb	r3, [r2, #0]
    adc_complete_fl = 1;
 8001490:	2201      	movs	r2, #1
 8001492:	4b05      	ldr	r3, [pc, #20]	@ (80014a8 <HAL_ADC_ConvCpltCallback+0x38>)
 8001494:	701a      	strb	r2, [r3, #0]
}
 8001496:	4770      	bx	lr
 8001498:	40012400 	.word	0x40012400
 800149c:	20000556 	.word	0x20000556
 80014a0:	200000e8 	.word	0x200000e8
 80014a4:	200000d3 	.word	0x200000d3
 80014a8:	20000554 	.word	0x20000554

080014ac <Error_Handler>:
 80014ac:	b672      	cpsid	i
  while (1)
 80014ae:	e7fe      	b.n	80014ae <Error_Handler+0x2>

080014b0 <setdatetime>:
#include "ufo_battle.h"
#include "math.h"


void setdatetime(void)
{
 80014b0:	e92d 4ff0 	stmdb	sp!, {r4, r5, r6, r7, r8, r9, sl, fp, lr}
  uint8 selectpos = 0;
  RTCgetdata(&rtcbcd);
  rtcbcdtoraw();
  uint8 displaingSaveFlag = 0;
  uint8 displaingSaveLatch = 0;
  uint32 tim = 0;
 80014b4:	f04f 0800 	mov.w	r8, #0
  RTCgetdata(&rtcbcd);
 80014b8:	48b6      	ldr	r0, [pc, #728]	@ (8001794 <setdatetime+0x2e4>)
{
 80014ba:	b089      	sub	sp, #36	@ 0x24
  RTCgetdata(&rtcbcd);
 80014bc:	f7fe ffc4 	bl	8000448 <RTCgetdata>
  uint8 displaingSaveLatch = 0;
 80014c0:	4647      	mov	r7, r8
  rtcbcdtoraw();
 80014c2:	f7ff f851 	bl	8000568 <rtcbcdtoraw>
  uint8 selectpos = 0;
 80014c6:	4646      	mov	r6, r8
    if(B1.BtnON){
      B1.BtnON = 0;
      return;
    }
    
    if(joystick.right == 1)
 80014c8:	f8df 92cc 	ldr.w	r9, [pc, #716]	@ 8001798 <setdatetime+0x2e8>
    TestBtn(&B1); TestBtn(&B2); TestBtn(&B3); TestBtn(&B4);
 80014cc:	4cb3      	ldr	r4, [pc, #716]	@ (800179c <setdatetime+0x2ec>)
    checkjoydir();
 80014ce:	f7ff f8ef 	bl	80006b0 <checkjoydir>
    TestBtn(&B1); TestBtn(&B2); TestBtn(&B3); TestBtn(&B4);
 80014d2:	48b3      	ldr	r0, [pc, #716]	@ (80017a0 <setdatetime+0x2f0>)
 80014d4:	f7ff f88e 	bl	80005f4 <TestBtn>
 80014d8:	4620      	mov	r0, r4
 80014da:	f7ff f88b 	bl	80005f4 <TestBtn>
 80014de:	48b1      	ldr	r0, [pc, #708]	@ (80017a4 <setdatetime+0x2f4>)
 80014e0:	f7ff f888 	bl	80005f4 <TestBtn>
 80014e4:	48b0      	ldr	r0, [pc, #704]	@ (80017a8 <setdatetime+0x2f8>)
 80014e6:	f7ff f885 	bl	80005f4 <TestBtn>
    if(B2.BtnON){
 80014ea:	f894 b011 	ldrb.w	fp, [r4, #17]
 80014ee:	f1bb 0f00 	cmp.w	fp, #0
 80014f2:	d006      	beq.n	8001502 <setdatetime+0x52>
      B2.BtnON = 0;
 80014f4:	2300      	movs	r3, #0
      RTCsenddata(&rtcbcd);
 80014f6:	48a7      	ldr	r0, [pc, #668]	@ (8001794 <setdatetime+0x2e4>)
      B2.BtnON = 0;
 80014f8:	7463      	strb	r3, [r4, #17]
      displaingSaveFlag = 1;
 80014fa:	f04f 0b01 	mov.w	fp, #1
      RTCsenddata(&rtcbcd);
 80014fe:	f7fe ffcf 	bl	80004a0 <RTCsenddata>
    if(B1.BtnON){
 8001502:	4ba7      	ldr	r3, [pc, #668]	@ (80017a0 <setdatetime+0x2f0>)
 8001504:	7c5a      	ldrb	r2, [r3, #17]
 8001506:	b12a      	cbz	r2, 8001514 <setdatetime+0x64>
      B1.BtnON = 0;
 8001508:	2300      	movs	r3, #0
 800150a:	4aa5      	ldr	r2, [pc, #660]	@ (80017a0 <setdatetime+0x2f0>)
 800150c:	7453      	strb	r3, [r2, #17]
    }
    
    rtcrawtobcd();
    LCD_bufupload_buferase();
  }
}
 800150e:	b009      	add	sp, #36	@ 0x24
 8001510:	e8bd 8ff0 	ldmia.w	sp!, {r4, r5, r6, r7, r8, r9, sl, fp, pc}
    if(joystick.right == 1)
 8001514:	f899 3000 	ldrb.w	r3, [r9]
 8001518:	0719      	lsls	r1, r3, #28
 800151a:	d508      	bpl.n	800152e <setdatetime+0x7e>
      selectpos++;
 800151c:	3601      	adds	r6, #1
 800151e:	b2f6      	uxtb	r6, r6
      if(selectpos == 7) selectpos = 0;
 8001520:	2e07      	cmp	r6, #7
 8001522:	bf08      	it	eq
 8001524:	2600      	moveq	r6, #0
      joystick.right = 0;
 8001526:	f362 03c3 	bfi	r3, r2, #3, #1
 800152a:	f889 3000 	strb.w	r3, [r9]
    if(joystick.left == 1)
 800152e:	f899 3000 	ldrb.w	r3, [r9]
 8001532:	075a      	lsls	r2, r3, #29
 8001534:	d508      	bpl.n	8001548 <setdatetime+0x98>
      selectpos--;
 8001536:	3e01      	subs	r6, #1
 8001538:	b2f6      	uxtb	r6, r6
      if(selectpos == 255) selectpos = 6;
 800153a:	2eff      	cmp	r6, #255	@ 0xff
 800153c:	bf08      	it	eq
 800153e:	2606      	moveq	r6, #6
      joystick.left = 0;
 8001540:	f36f 0382 	bfc	r3, #2, #1
 8001544:	f889 3000 	strb.w	r3, [r9]
    uint8 day[4] = {dig_to_smb((rtcbcd.day & 0x30) >> 4), dig_to_smb(rtcbcd.day & 0x0F), '.', '\0'};
 8001548:	4c92      	ldr	r4, [pc, #584]	@ (8001794 <setdatetime+0x2e4>)
    uint8 month[5] = {dig_to_smb((rtcbcd.month & 0x10) >> 4), dig_to_smb(rtcbcd.month & 0x0F), '.', '\0'};
 800154a:	2500      	movs	r5, #0
    uint8 day[4] = {dig_to_smb((rtcbcd.day & 0x30) >> 4), dig_to_smb(rtcbcd.day & 0x0F), '.', '\0'};
 800154c:	78e0      	ldrb	r0, [r4, #3]
 800154e:	f04f 0a2e 	mov.w	sl, #46	@ 0x2e
 8001552:	f3c0 1001 	ubfx	r0, r0, #4, #2
 8001556:	f7fe fe0a 	bl	800016e <dig_to_smb>
 800155a:	f88d 0004 	strb.w	r0, [sp, #4]
 800155e:	78e0      	ldrb	r0, [r4, #3]
 8001560:	f000 000f 	and.w	r0, r0, #15
 8001564:	f7fe fe03 	bl	800016e <dig_to_smb>
 8001568:	f88d 0005 	strb.w	r0, [sp, #5]
    uint8 month[5] = {dig_to_smb((rtcbcd.month & 0x10) >> 4), dig_to_smb(rtcbcd.month & 0x0F), '.', '\0'};
 800156c:	7960      	ldrb	r0, [r4, #5]
    uint8 day[4] = {dig_to_smb((rtcbcd.day & 0x30) >> 4), dig_to_smb(rtcbcd.day & 0x0F), '.', '\0'};
 800156e:	f8ad a006 	strh.w	sl, [sp, #6]
    uint8 month[5] = {dig_to_smb((rtcbcd.month & 0x10) >> 4), dig_to_smb(rtcbcd.month & 0x0F), '.', '\0'};
 8001572:	f3c0 1000 	ubfx	r0, r0, #4, #1
 8001576:	9504      	str	r5, [sp, #16]
 8001578:	f88d 5014 	strb.w	r5, [sp, #20]
 800157c:	f7fe fdf7 	bl	800016e <dig_to_smb>
 8001580:	f88d 0010 	strb.w	r0, [sp, #16]
 8001584:	7960      	ldrb	r0, [r4, #5]
 8001586:	f000 000f 	and.w	r0, r0, #15
 800158a:	f7fe fdf0 	bl	800016e <dig_to_smb>
    uint8 year[5] = {'2', '0', dig_to_smb((rtcbcd.year & 0xF0) >> 4), dig_to_smb(rtcbcd.year & 0x0F), '\0'};
 800158e:	f243 0332 	movw	r3, #12338	@ 0x3032
    uint8 month[5] = {dig_to_smb((rtcbcd.month & 0x10) >> 4), dig_to_smb(rtcbcd.month & 0x0F), '.', '\0'};
 8001592:	f88d 0011 	strb.w	r0, [sp, #17]
    uint8 year[5] = {'2', '0', dig_to_smb((rtcbcd.year & 0xF0) >> 4), dig_to_smb(rtcbcd.year & 0x0F), '\0'};
 8001596:	79a0      	ldrb	r0, [r4, #6]
 8001598:	f8ad 3018 	strh.w	r3, [sp, #24]
 800159c:	0900      	lsrs	r0, r0, #4
    uint8 month[5] = {dig_to_smb((rtcbcd.month & 0x10) >> 4), dig_to_smb(rtcbcd.month & 0x0F), '.', '\0'};
 800159e:	f88d a012 	strb.w	sl, [sp, #18]
    uint8 year[5] = {'2', '0', dig_to_smb((rtcbcd.year & 0xF0) >> 4), dig_to_smb(rtcbcd.year & 0x0F), '\0'};
 80015a2:	f7fe fde4 	bl	800016e <dig_to_smb>
 80015a6:	f88d 001a 	strb.w	r0, [sp, #26]
 80015aa:	79a0      	ldrb	r0, [r4, #6]
    uint8 hour[4] = {dig_to_smb((rtcbcd.hour & 0x30) >> 4), dig_to_smb(rtcbcd.hour & 0x0F), ':', '\0'};
 80015ac:	f04f 0a3a 	mov.w	sl, #58	@ 0x3a
    uint8 year[5] = {'2', '0', dig_to_smb((rtcbcd.year & 0xF0) >> 4), dig_to_smb(rtcbcd.year & 0x0F), '\0'};
 80015b0:	f000 000f 	and.w	r0, r0, #15
 80015b4:	f7fe fddb 	bl	800016e <dig_to_smb>
    LCD_printstr8x5(day, 0, 2);
 80015b8:	4629      	mov	r1, r5
 80015ba:	2202      	movs	r2, #2
    uint8 year[5] = {'2', '0', dig_to_smb((rtcbcd.year & 0xF0) >> 4), dig_to_smb(rtcbcd.year & 0x0F), '\0'};
 80015bc:	f88d 001b 	strb.w	r0, [sp, #27]
    LCD_printstr8x5(day, 0, 2);
 80015c0:	a801      	add	r0, sp, #4
    uint8 year[5] = {'2', '0', dig_to_smb((rtcbcd.year & 0xF0) >> 4), dig_to_smb(rtcbcd.year & 0x0F), '\0'};
 80015c2:	f88d 501c 	strb.w	r5, [sp, #28]
    LCD_printstr8x5(day, 0, 2);
 80015c6:	f7ff f951 	bl	800086c <LCD_printstr8x5>
    LCD_printstr8x5(month, 0, 18);
 80015ca:	4629      	mov	r1, r5
 80015cc:	2212      	movs	r2, #18
 80015ce:	a804      	add	r0, sp, #16
 80015d0:	f7ff f94c 	bl	800086c <LCD_printstr8x5>
    LCD_printstr8x5(year, 0, 34);
 80015d4:	4629      	mov	r1, r5
 80015d6:	2222      	movs	r2, #34	@ 0x22
 80015d8:	a806      	add	r0, sp, #24
 80015da:	f7ff f947 	bl	800086c <LCD_printstr8x5>
    uint8 hour[4] = {dig_to_smb((rtcbcd.hour & 0x30) >> 4), dig_to_smb(rtcbcd.hour & 0x0F), ':', '\0'};
 80015de:	78a0      	ldrb	r0, [r4, #2]
 80015e0:	f3c0 1001 	ubfx	r0, r0, #4, #2
 80015e4:	f7fe fdc3 	bl	800016e <dig_to_smb>
 80015e8:	f88d 0008 	strb.w	r0, [sp, #8]
 80015ec:	78a0      	ldrb	r0, [r4, #2]
 80015ee:	f000 000f 	and.w	r0, r0, #15
 80015f2:	f7fe fdbc 	bl	800016e <dig_to_smb>
 80015f6:	f88d 0009 	strb.w	r0, [sp, #9]
    uint8 min[4] = {dig_to_smb((rtcbcd.min & 0x70) >> 4), dig_to_smb(rtcbcd.min & 0x0F), ':', '\0'};
 80015fa:	7860      	ldrb	r0, [r4, #1]
    uint8 hour[4] = {dig_to_smb((rtcbcd.hour & 0x30) >> 4), dig_to_smb(rtcbcd.hour & 0x0F), ':', '\0'};
 80015fc:	f8ad a00a 	strh.w	sl, [sp, #10]
    uint8 min[4] = {dig_to_smb((rtcbcd.min & 0x70) >> 4), dig_to_smb(rtcbcd.min & 0x0F), ':', '\0'};
 8001600:	f3c0 1002 	ubfx	r0, r0, #4, #3
 8001604:	f7fe fdb3 	bl	800016e <dig_to_smb>
 8001608:	f88d 000c 	strb.w	r0, [sp, #12]
 800160c:	7860      	ldrb	r0, [r4, #1]
 800160e:	f000 000f 	and.w	r0, r0, #15
 8001612:	f7fe fdac 	bl	800016e <dig_to_smb>
 8001616:	f88d 000d 	strb.w	r0, [sp, #13]
    uint8 sec[3] = {dig_to_smb((rtcbcd.sec & 0x70) >> 4), dig_to_smb(rtcbcd.sec & 0x0F), '\0'};
 800161a:	7820      	ldrb	r0, [r4, #0]
    uint8 min[4] = {dig_to_smb((rtcbcd.min & 0x70) >> 4), dig_to_smb(rtcbcd.min & 0x0F), ':', '\0'};
 800161c:	f8ad a00e 	strh.w	sl, [sp, #14]
    uint8 sec[3] = {dig_to_smb((rtcbcd.sec & 0x70) >> 4), dig_to_smb(rtcbcd.sec & 0x0F), '\0'};
 8001620:	f3c0 1002 	ubfx	r0, r0, #4, #3
 8001624:	f7fe fda3 	bl	800016e <dig_to_smb>
 8001628:	f88d 0000 	strb.w	r0, [sp]
 800162c:	7820      	ldrb	r0, [r4, #0]
    LCD_printweekday(rtcraw.weekday, 0, 115);
 800162e:	4c5f      	ldr	r4, [pc, #380]	@ (80017ac <setdatetime+0x2fc>)
    uint8 sec[3] = {dig_to_smb((rtcbcd.sec & 0x70) >> 4), dig_to_smb(rtcbcd.sec & 0x0F), '\0'};
 8001630:	f000 000f 	and.w	r0, r0, #15
 8001634:	f7fe fd9b 	bl	800016e <dig_to_smb>
    LCD_printstr8x5(hour, 0, 62);
 8001638:	4629      	mov	r1, r5
 800163a:	223e      	movs	r2, #62	@ 0x3e
    uint8 sec[3] = {dig_to_smb((rtcbcd.sec & 0x70) >> 4), dig_to_smb(rtcbcd.sec & 0x0F), '\0'};
 800163c:	f88d 0001 	strb.w	r0, [sp, #1]
    LCD_printstr8x5(hour, 0, 62);
 8001640:	a802      	add	r0, sp, #8
    uint8 sec[3] = {dig_to_smb((rtcbcd.sec & 0x70) >> 4), dig_to_smb(rtcbcd.sec & 0x0F), '\0'};
 8001642:	f88d 5002 	strb.w	r5, [sp, #2]
    LCD_printstr8x5(hour, 0, 62);
 8001646:	f7ff f911 	bl	800086c <LCD_printstr8x5>
    LCD_printstr8x5(min, 0, 80);
 800164a:	4629      	mov	r1, r5
 800164c:	2250      	movs	r2, #80	@ 0x50
 800164e:	a803      	add	r0, sp, #12
 8001650:	f7ff f90c 	bl	800086c <LCD_printstr8x5>
    LCD_printstr8x5(sec, 0, 98);
 8001654:	4629      	mov	r1, r5
 8001656:	2262      	movs	r2, #98	@ 0x62
 8001658:	4668      	mov	r0, sp
 800165a:	f7ff f907 	bl	800086c <LCD_printstr8x5>
    LCD_printweekday(rtcraw.weekday, 0, 115);
 800165e:	2273      	movs	r2, #115	@ 0x73
 8001660:	4629      	mov	r1, r5
 8001662:	7920      	ldrb	r0, [r4, #4]
 8001664:	f7ff f9b0 	bl	80009c8 <LCD_printweekday>
    switch(selectpos)
 8001668:	1e72      	subs	r2, r6, #1
 800166a:	f8df a138 	ldr.w	sl, [pc, #312]	@ 80017a4 <setdatetime+0x2f4>
 800166e:	4d4e      	ldr	r5, [pc, #312]	@ (80017a8 <setdatetime+0x2f8>)
 8001670:	2a05      	cmp	r2, #5
 8001672:	d807      	bhi.n	8001684 <setdatetime+0x1d4>
 8001674:	e8df f012 	tbh	[pc, r2, lsl #1]
 8001678:	00a6005e 	.word	0x00a6005e
 800167c:	010800d7 	.word	0x010800d7
 8001680:	016a0139 	.word	0x016a0139
        LCD_erasestring(128, 1, 0); 
 8001684:	2200      	movs	r2, #0
 8001686:	2101      	movs	r1, #1
 8001688:	2080      	movs	r0, #128	@ 0x80
 800168a:	f7ff f893 	bl	80007b4 <LCD_erasestring>
        LCD_printhorline(12, 8, 2); 
 800168e:	2202      	movs	r2, #2
 8001690:	2108      	movs	r1, #8
 8001692:	200c      	movs	r0, #12
 8001694:	f7ff faee 	bl	8000c74 <LCD_printhorline>
        if(B3.BtnON || B3.HoldON || B3.StuckON){B3.BtnON = 0; rtcraw.day--; if(rtcraw.day > 31) rtcraw.day = 31; HAL_Delay(200);}
 8001698:	f8da 2010 	ldr.w	r2, [sl, #16]
 800169c:	f012 2fff 	tst.w	r2, #4278255360	@ 0xff00ff00
 80016a0:	d102      	bne.n	80016a8 <setdatetime+0x1f8>
 80016a2:	f89a 2014 	ldrb.w	r2, [sl, #20]
 80016a6:	b162      	cbz	r2, 80016c2 <setdatetime+0x212>
 80016a8:	78e3      	ldrb	r3, [r4, #3]
 80016aa:	2200      	movs	r2, #0
 80016ac:	3b01      	subs	r3, #1
 80016ae:	b2db      	uxtb	r3, r3
 80016b0:	2b1f      	cmp	r3, #31
 80016b2:	bf28      	it	cs
 80016b4:	231f      	movcs	r3, #31
 80016b6:	20c8      	movs	r0, #200	@ 0xc8
 80016b8:	f88a 2011 	strb.w	r2, [sl, #17]
 80016bc:	70e3      	strb	r3, [r4, #3]
 80016be:	f002 fa4d 	bl	8003b5c <HAL_Delay>
        if(B4.BtnON || B4.HoldON || B4.StuckON){B4.BtnON = 0; rtcraw.day++; if(rtcraw.day > 31) rtcraw.day = 0; HAL_Delay(200);}
 80016c2:	692b      	ldr	r3, [r5, #16]
 80016c4:	f013 2fff 	tst.w	r3, #4278255360	@ 0xff00ff00
 80016c8:	d101      	bne.n	80016ce <setdatetime+0x21e>
 80016ca:	7d2b      	ldrb	r3, [r5, #20]
 80016cc:	b15b      	cbz	r3, 80016e6 <setdatetime+0x236>
 80016ce:	2300      	movs	r3, #0
 80016d0:	746b      	strb	r3, [r5, #17]
 80016d2:	78e3      	ldrb	r3, [r4, #3]
 80016d4:	3301      	adds	r3, #1
 80016d6:	b2db      	uxtb	r3, r3
 80016d8:	2b20      	cmp	r3, #32
 80016da:	bf28      	it	cs
 80016dc:	2300      	movcs	r3, #0
 80016de:	70e3      	strb	r3, [r4, #3]
        if(B4.BtnON || B4.HoldON || B4.StuckON){B4.BtnON = 0; rtcraw.weekday++; if(rtcraw.weekday > 6) rtcraw.weekday = 0; HAL_Delay(200);}
 80016e0:	20c8      	movs	r0, #200	@ 0xc8
 80016e2:	f002 fa3b 	bl	8003b5c <HAL_Delay>
    LCD_printbutselhint(7, 3, 40);
 80016e6:	2228      	movs	r2, #40	@ 0x28
 80016e8:	2103      	movs	r1, #3
 80016ea:	2007      	movs	r0, #7
 80016ec:	f7ff fa40 	bl	8000b70 <LCD_printbutselhint>
    LCD_printbutselhint(6, 3, 89);
 80016f0:	2259      	movs	r2, #89	@ 0x59
 80016f2:	2103      	movs	r1, #3
 80016f4:	2006      	movs	r0, #6
 80016f6:	f7ff fa3b 	bl	8000b70 <LCD_printbutselhint>
    LCD_printstr8x5((uint8*)"вых", 7, 85);
 80016fa:	2255      	movs	r2, #85	@ 0x55
 80016fc:	2107      	movs	r1, #7
 80016fe:	482c      	ldr	r0, [pc, #176]	@ (80017b0 <setdatetime+0x300>)
 8001700:	f7ff f8b4 	bl	800086c <LCD_printstr8x5>
    LCD_printstr8x5((uint8*)"ок", 7, 110);
 8001704:	226e      	movs	r2, #110	@ 0x6e
 8001706:	2107      	movs	r1, #7
 8001708:	482a      	ldr	r0, [pc, #168]	@ (80017b4 <setdatetime+0x304>)
 800170a:	f7ff f8af 	bl	800086c <LCD_printstr8x5>
    LCD_printstr8x5((uint8*)"-  +", 2, 93); 
 800170e:	225d      	movs	r2, #93	@ 0x5d
 8001710:	2102      	movs	r1, #2
 8001712:	4829      	ldr	r0, [pc, #164]	@ (80017b8 <setdatetime+0x308>)
 8001714:	f7ff f8aa 	bl	800086c <LCD_printstr8x5>
    if(displaingSaveFlag) {
 8001718:	4c28      	ldr	r4, [pc, #160]	@ (80017bc <setdatetime+0x30c>)
 800171a:	f1bb 0f00 	cmp.w	fp, #0
 800171e:	f000 8146 	beq.w	80019ae <setdatetime+0x4fe>
      tim = timestamp;
 8001722:	f8d4 8000 	ldr.w	r8, [r4]
    if(displaingSaveLatch) LCD_printstr8x5((uint8*)"СОХРАНЕНО", 7, 2);
 8001726:	2202      	movs	r2, #2
 8001728:	2107      	movs	r1, #7
 800172a:	4825      	ldr	r0, [pc, #148]	@ (80017c0 <setdatetime+0x310>)
 800172c:	f7ff f89e 	bl	800086c <LCD_printstr8x5>
 8001730:	2701      	movs	r7, #1
 8001732:	e13f      	b.n	80019b4 <setdatetime+0x504>
        LCD_erasestring(128, 1, 0); 
 8001734:	2200      	movs	r2, #0
 8001736:	2101      	movs	r1, #1
 8001738:	2080      	movs	r0, #128	@ 0x80
 800173a:	f7ff f83b 	bl	80007b4 <LCD_erasestring>
        LCD_printhorline(12, 8, 18);
 800173e:	2212      	movs	r2, #18
 8001740:	2108      	movs	r1, #8
 8001742:	200c      	movs	r0, #12
 8001744:	f7ff fa96 	bl	8000c74 <LCD_printhorline>
        if(B3.BtnON || B3.HoldON || B3.StuckON){B3.BtnON = 0; rtcraw.month--; if(rtcraw.month > 12) rtcraw.month = 12; HAL_Delay(200);}
 8001748:	f8da 2010 	ldr.w	r2, [sl, #16]
 800174c:	f012 2fff 	tst.w	r2, #4278255360	@ 0xff00ff00
 8001750:	d102      	bne.n	8001758 <setdatetime+0x2a8>
 8001752:	f89a 2014 	ldrb.w	r2, [sl, #20]
 8001756:	b162      	cbz	r2, 8001772 <setdatetime+0x2c2>
 8001758:	7963      	ldrb	r3, [r4, #5]
 800175a:	2200      	movs	r2, #0
 800175c:	3b01      	subs	r3, #1
 800175e:	b2db      	uxtb	r3, r3
 8001760:	2b0c      	cmp	r3, #12
 8001762:	bf28      	it	cs
 8001764:	230c      	movcs	r3, #12
 8001766:	20c8      	movs	r0, #200	@ 0xc8
 8001768:	f88a 2011 	strb.w	r2, [sl, #17]
 800176c:	7163      	strb	r3, [r4, #5]
 800176e:	f002 f9f5 	bl	8003b5c <HAL_Delay>
        if(B4.BtnON || B4.HoldON || B4.StuckON){B4.BtnON = 0; rtcraw.month++; if(rtcraw.month > 12) rtcraw.month = 0; HAL_Delay(200);}
 8001772:	692b      	ldr	r3, [r5, #16]
 8001774:	f013 2fff 	tst.w	r3, #4278255360	@ 0xff00ff00
 8001778:	d102      	bne.n	8001780 <setdatetime+0x2d0>
 800177a:	7d2b      	ldrb	r3, [r5, #20]
 800177c:	2b00      	cmp	r3, #0
 800177e:	d0b2      	beq.n	80016e6 <setdatetime+0x236>
 8001780:	2300      	movs	r3, #0
 8001782:	746b      	strb	r3, [r5, #17]
 8001784:	7963      	ldrb	r3, [r4, #5]
 8001786:	3301      	adds	r3, #1
 8001788:	b2db      	uxtb	r3, r3
 800178a:	2b0d      	cmp	r3, #13
 800178c:	bf28      	it	cs
 800178e:	2300      	movcs	r3, #0
 8001790:	7163      	strb	r3, [r4, #5]
 8001792:	e7a5      	b.n	80016e0 <setdatetime+0x230>
 8001794:	200000db 	.word	0x200000db
 8001798:	200000e8 	.word	0x200000e8
 800179c:	2000011c 	.word	0x2000011c
 80017a0:	20000134 	.word	0x20000134
 80017a4:	20000104 	.word	0x20000104
 80017a8:	200000ec 	.word	0x200000ec
 80017ac:	200000d4 	.word	0x200000d4
 80017b0:	08007429 	.word	0x08007429
 80017b4:	0800742d 	.word	0x0800742d
 80017b8:	08007430 	.word	0x08007430
 80017bc:	200000e4 	.word	0x200000e4
 80017c0:	08007435 	.word	0x08007435
        LCD_erasestring(128, 1, 0); 
 80017c4:	2200      	movs	r2, #0
 80017c6:	2101      	movs	r1, #1
 80017c8:	2080      	movs	r0, #128	@ 0x80
 80017ca:	f7fe fff3 	bl	80007b4 <LCD_erasestring>
        LCD_printhorline(24, 8, 34); 
 80017ce:	2222      	movs	r2, #34	@ 0x22
 80017d0:	2108      	movs	r1, #8
 80017d2:	2018      	movs	r0, #24
 80017d4:	f7ff fa4e 	bl	8000c74 <LCD_printhorline>
        if(B3.BtnON || B3.HoldON || B3.StuckON){B3.BtnON = 0; rtcraw.year--; if(rtcraw.year > 99) rtcraw.year = 99; HAL_Delay(200);}
 80017d8:	f8da 2010 	ldr.w	r2, [sl, #16]
 80017dc:	f012 2fff 	tst.w	r2, #4278255360	@ 0xff00ff00
 80017e0:	d102      	bne.n	80017e8 <setdatetime+0x338>
 80017e2:	f89a 2014 	ldrb.w	r2, [sl, #20]
 80017e6:	b162      	cbz	r2, 8001802 <setdatetime+0x352>
 80017e8:	79a3      	ldrb	r3, [r4, #6]
 80017ea:	2200      	movs	r2, #0
 80017ec:	3b01      	subs	r3, #1
 80017ee:	b2db      	uxtb	r3, r3
 80017f0:	2b63      	cmp	r3, #99	@ 0x63
 80017f2:	bf28      	it	cs
 80017f4:	2363      	movcs	r3, #99	@ 0x63
 80017f6:	20c8      	movs	r0, #200	@ 0xc8
 80017f8:	f88a 2011 	strb.w	r2, [sl, #17]
 80017fc:	71a3      	strb	r3, [r4, #6]
 80017fe:	f002 f9ad 	bl	8003b5c <HAL_Delay>
        if(B4.BtnON || B4.HoldON || B4.StuckON){B4.BtnON = 0; rtcraw.year++; if(rtcraw.year > 99) rtcraw.year = 0; HAL_Delay(200);}
 8001802:	692b      	ldr	r3, [r5, #16]
 8001804:	f013 2fff 	tst.w	r3, #4278255360	@ 0xff00ff00
 8001808:	d103      	bne.n	8001812 <setdatetime+0x362>
 800180a:	7d2b      	ldrb	r3, [r5, #20]
 800180c:	2b00      	cmp	r3, #0
 800180e:	f43f af6a 	beq.w	80016e6 <setdatetime+0x236>
 8001812:	2300      	movs	r3, #0
 8001814:	746b      	strb	r3, [r5, #17]
 8001816:	79a3      	ldrb	r3, [r4, #6]
 8001818:	3301      	adds	r3, #1
 800181a:	b2db      	uxtb	r3, r3
 800181c:	2b64      	cmp	r3, #100	@ 0x64
 800181e:	bf28      	it	cs
 8001820:	2300      	movcs	r3, #0
 8001822:	71a3      	strb	r3, [r4, #6]
 8001824:	e75c      	b.n	80016e0 <setdatetime+0x230>
        LCD_erasestring(128, 1, 0); 
 8001826:	2200      	movs	r2, #0
 8001828:	2101      	movs	r1, #1
 800182a:	2080      	movs	r0, #128	@ 0x80
 800182c:	f7fe ffc2 	bl	80007b4 <LCD_erasestring>
        LCD_printhorline(12, 8, 62);
 8001830:	223e      	movs	r2, #62	@ 0x3e
 8001832:	2108      	movs	r1, #8
 8001834:	200c      	movs	r0, #12
 8001836:	f7ff fa1d 	bl	8000c74 <LCD_printhorline>
        if(B3.BtnON || B3.HoldON || B3.StuckON){B3.BtnON = 0; rtcraw.hour--; if(rtcraw.hour > 23) rtcraw.hour = 23; HAL_Delay(200);}
 800183a:	f8da 2010 	ldr.w	r2, [sl, #16]
 800183e:	f012 2fff 	tst.w	r2, #4278255360	@ 0xff00ff00
 8001842:	d102      	bne.n	800184a <setdatetime+0x39a>
 8001844:	f89a 2014 	ldrb.w	r2, [sl, #20]
 8001848:	b162      	cbz	r2, 8001864 <setdatetime+0x3b4>
 800184a:	78a3      	ldrb	r3, [r4, #2]
 800184c:	2200      	movs	r2, #0
 800184e:	3b01      	subs	r3, #1
 8001850:	b2db      	uxtb	r3, r3
 8001852:	2b17      	cmp	r3, #23
 8001854:	bf28      	it	cs
 8001856:	2317      	movcs	r3, #23
 8001858:	20c8      	movs	r0, #200	@ 0xc8
 800185a:	f88a 2011 	strb.w	r2, [sl, #17]
 800185e:	70a3      	strb	r3, [r4, #2]
 8001860:	f002 f97c 	bl	8003b5c <HAL_Delay>
        if(B4.BtnON || B4.HoldON || B4.StuckON){B4.BtnON = 0; rtcraw.hour++; if(rtcraw.hour > 23) rtcraw.hour = 0; HAL_Delay(200);}
 8001864:	692b      	ldr	r3, [r5, #16]
 8001866:	f013 2fff 	tst.w	r3, #4278255360	@ 0xff00ff00
 800186a:	d103      	bne.n	8001874 <setdatetime+0x3c4>
 800186c:	7d2b      	ldrb	r3, [r5, #20]
 800186e:	2b00      	cmp	r3, #0
 8001870:	f43f af39 	beq.w	80016e6 <setdatetime+0x236>
 8001874:	2300      	movs	r3, #0
 8001876:	746b      	strb	r3, [r5, #17]
 8001878:	78a3      	ldrb	r3, [r4, #2]
 800187a:	3301      	adds	r3, #1
 800187c:	b2db      	uxtb	r3, r3
 800187e:	2b18      	cmp	r3, #24
 8001880:	bf28      	it	cs
 8001882:	2300      	movcs	r3, #0
 8001884:	70a3      	strb	r3, [r4, #2]
 8001886:	e72b      	b.n	80016e0 <setdatetime+0x230>
        LCD_erasestring(128, 1, 0); 
 8001888:	2200      	movs	r2, #0
 800188a:	2101      	movs	r1, #1
 800188c:	2080      	movs	r0, #128	@ 0x80
 800188e:	f7fe ff91 	bl	80007b4 <LCD_erasestring>
        LCD_printhorline(12, 8, 80); 
 8001892:	2250      	movs	r2, #80	@ 0x50
 8001894:	2108      	movs	r1, #8
 8001896:	200c      	movs	r0, #12
 8001898:	f7ff f9ec 	bl	8000c74 <LCD_printhorline>
        if(B3.BtnON || B3.HoldON || B3.StuckON){B3.BtnON = 0; rtcraw.min--; if(rtcraw.min > 59) rtcraw.min = 59; HAL_Delay(200);}
 800189c:	f8da 2010 	ldr.w	r2, [sl, #16]
 80018a0:	f012 2fff 	tst.w	r2, #4278255360	@ 0xff00ff00
 80018a4:	d102      	bne.n	80018ac <setdatetime+0x3fc>
 80018a6:	f89a 2014 	ldrb.w	r2, [sl, #20]
 80018aa:	b162      	cbz	r2, 80018c6 <setdatetime+0x416>
 80018ac:	7863      	ldrb	r3, [r4, #1]
 80018ae:	2200      	movs	r2, #0
 80018b0:	3b01      	subs	r3, #1
 80018b2:	b2db      	uxtb	r3, r3
 80018b4:	2b3b      	cmp	r3, #59	@ 0x3b
 80018b6:	bf28      	it	cs
 80018b8:	233b      	movcs	r3, #59	@ 0x3b
 80018ba:	20c8      	movs	r0, #200	@ 0xc8
 80018bc:	f88a 2011 	strb.w	r2, [sl, #17]
 80018c0:	7063      	strb	r3, [r4, #1]
 80018c2:	f002 f94b 	bl	8003b5c <HAL_Delay>
        if(B4.BtnON || B4.HoldON || B4.StuckON){B4.BtnON = 0; rtcraw.min++; if(rtcraw.min > 59) rtcraw.min = 0; HAL_Delay(200);}
 80018c6:	692b      	ldr	r3, [r5, #16]
 80018c8:	f013 2fff 	tst.w	r3, #4278255360	@ 0xff00ff00
 80018cc:	d103      	bne.n	80018d6 <setdatetime+0x426>
 80018ce:	7d2b      	ldrb	r3, [r5, #20]
 80018d0:	2b00      	cmp	r3, #0
 80018d2:	f43f af08 	beq.w	80016e6 <setdatetime+0x236>
 80018d6:	2300      	movs	r3, #0
 80018d8:	746b      	strb	r3, [r5, #17]
 80018da:	7863      	ldrb	r3, [r4, #1]
 80018dc:	3301      	adds	r3, #1
 80018de:	b2db      	uxtb	r3, r3
 80018e0:	2b3c      	cmp	r3, #60	@ 0x3c
 80018e2:	bf28      	it	cs
 80018e4:	2300      	movcs	r3, #0
 80018e6:	7063      	strb	r3, [r4, #1]
 80018e8:	e6fa      	b.n	80016e0 <setdatetime+0x230>
        LCD_erasestring(128, 1, 0);
 80018ea:	2200      	movs	r2, #0
 80018ec:	2101      	movs	r1, #1
 80018ee:	2080      	movs	r0, #128	@ 0x80
 80018f0:	f7fe ff60 	bl	80007b4 <LCD_erasestring>
        LCD_printhorline(12, 8, 98);
 80018f4:	2262      	movs	r2, #98	@ 0x62
 80018f6:	2108      	movs	r1, #8
 80018f8:	200c      	movs	r0, #12
 80018fa:	f7ff f9bb 	bl	8000c74 <LCD_printhorline>
        if(B3.BtnON || B3.HoldON || B3.StuckON){B3.BtnON = 0; rtcraw.sec--; if(rtcraw.sec > 59) rtcraw.sec = 59; HAL_Delay(200);}
 80018fe:	f8da 2010 	ldr.w	r2, [sl, #16]
 8001902:	f012 2fff 	tst.w	r2, #4278255360	@ 0xff00ff00
 8001906:	d102      	bne.n	800190e <setdatetime+0x45e>
 8001908:	f89a 2014 	ldrb.w	r2, [sl, #20]
 800190c:	b162      	cbz	r2, 8001928 <setdatetime+0x478>
 800190e:	7823      	ldrb	r3, [r4, #0]
 8001910:	2200      	movs	r2, #0
 8001912:	3b01      	subs	r3, #1
 8001914:	b2db      	uxtb	r3, r3
 8001916:	2b3b      	cmp	r3, #59	@ 0x3b
 8001918:	bf28      	it	cs
 800191a:	233b      	movcs	r3, #59	@ 0x3b
 800191c:	20c8      	movs	r0, #200	@ 0xc8
 800191e:	f88a 2011 	strb.w	r2, [sl, #17]
 8001922:	7023      	strb	r3, [r4, #0]
 8001924:	f002 f91a 	bl	8003b5c <HAL_Delay>
        if(B4.BtnON || B4.HoldON || B4.StuckON){B4.BtnON = 0; rtcraw.sec++; if(rtcraw.sec > 59) rtcraw.sec = 0; HAL_Delay(200);}
 8001928:	692b      	ldr	r3, [r5, #16]
 800192a:	f013 2fff 	tst.w	r3, #4278255360	@ 0xff00ff00
 800192e:	d103      	bne.n	8001938 <setdatetime+0x488>
 8001930:	7d2b      	ldrb	r3, [r5, #20]
 8001932:	2b00      	cmp	r3, #0
 8001934:	f43f aed7 	beq.w	80016e6 <setdatetime+0x236>
 8001938:	2300      	movs	r3, #0
 800193a:	746b      	strb	r3, [r5, #17]
 800193c:	7823      	ldrb	r3, [r4, #0]
 800193e:	3301      	adds	r3, #1
 8001940:	b2db      	uxtb	r3, r3
 8001942:	2b3c      	cmp	r3, #60	@ 0x3c
 8001944:	bf28      	it	cs
 8001946:	2300      	movcs	r3, #0
 8001948:	7023      	strb	r3, [r4, #0]
 800194a:	e6c9      	b.n	80016e0 <setdatetime+0x230>
        LCD_erasestring(128, 1, 0);
 800194c:	2200      	movs	r2, #0
 800194e:	2101      	movs	r1, #1
 8001950:	2080      	movs	r0, #128	@ 0x80
 8001952:	f7fe ff2f 	bl	80007b4 <LCD_erasestring>
        LCD_printhorline(12, 8, 115);
 8001956:	2273      	movs	r2, #115	@ 0x73
 8001958:	2108      	movs	r1, #8
 800195a:	200c      	movs	r0, #12
 800195c:	f7ff f98a 	bl	8000c74 <LCD_printhorline>
        if(B3.BtnON || B3.HoldON || B3.StuckON){B3.BtnON = 0; rtcraw.weekday--; if(rtcraw.weekday > 6) rtcraw.weekday = 6; HAL_Delay(200);}
 8001960:	f8da 2010 	ldr.w	r2, [sl, #16]
 8001964:	f012 2fff 	tst.w	r2, #4278255360	@ 0xff00ff00
 8001968:	d102      	bne.n	8001970 <setdatetime+0x4c0>
 800196a:	f89a 2014 	ldrb.w	r2, [sl, #20]
 800196e:	b162      	cbz	r2, 800198a <setdatetime+0x4da>
 8001970:	7923      	ldrb	r3, [r4, #4]
 8001972:	2200      	movs	r2, #0
 8001974:	3b01      	subs	r3, #1
 8001976:	b2db      	uxtb	r3, r3
 8001978:	2b06      	cmp	r3, #6
 800197a:	bf28      	it	cs
 800197c:	2306      	movcs	r3, #6
 800197e:	20c8      	movs	r0, #200	@ 0xc8
 8001980:	f88a 2011 	strb.w	r2, [sl, #17]
 8001984:	7123      	strb	r3, [r4, #4]
 8001986:	f002 f8e9 	bl	8003b5c <HAL_Delay>
        if(B4.BtnON || B4.HoldON || B4.StuckON){B4.BtnON = 0; rtcraw.weekday++; if(rtcraw.weekday > 6) rtcraw.weekday = 0; HAL_Delay(200);}
 800198a:	692b      	ldr	r3, [r5, #16]
 800198c:	f013 2fff 	tst.w	r3, #4278255360	@ 0xff00ff00
 8001990:	d103      	bne.n	800199a <setdatetime+0x4ea>
 8001992:	7d2b      	ldrb	r3, [r5, #20]
 8001994:	2b00      	cmp	r3, #0
 8001996:	f43f aea6 	beq.w	80016e6 <setdatetime+0x236>
 800199a:	2300      	movs	r3, #0
 800199c:	746b      	strb	r3, [r5, #17]
 800199e:	7923      	ldrb	r3, [r4, #4]
 80019a0:	3301      	adds	r3, #1
 80019a2:	b2db      	uxtb	r3, r3
 80019a4:	2b07      	cmp	r3, #7
 80019a6:	bf28      	it	cs
 80019a8:	2300      	movcs	r3, #0
 80019aa:	7123      	strb	r3, [r4, #4]
 80019ac:	e698      	b.n	80016e0 <setdatetime+0x230>
    if(displaingSaveLatch) LCD_printstr8x5((uint8*)"СОХРАНЕНО", 7, 2);
 80019ae:	2f00      	cmp	r7, #0
 80019b0:	f47f aeb9 	bne.w	8001726 <setdatetime+0x276>
    if(((timestamp - tim) > 2000) && displaingSaveLatch) {
 80019b4:	6823      	ldr	r3, [r4, #0]
 80019b6:	eba3 0308 	sub.w	r3, r3, r8
 80019ba:	f5b3 6ffa 	cmp.w	r3, #2000	@ 0x7d0
 80019be:	d906      	bls.n	80019ce <setdatetime+0x51e>
 80019c0:	b127      	cbz	r7, 80019cc <setdatetime+0x51c>
      LCD_erasestring(128, 7, 0);
 80019c2:	2200      	movs	r2, #0
 80019c4:	2107      	movs	r1, #7
 80019c6:	2080      	movs	r0, #128	@ 0x80
 80019c8:	f7fe fef4 	bl	80007b4 <LCD_erasestring>
    if(displaingSaveLatch) LCD_printstr8x5((uint8*)"СОХРАНЕНО", 7, 2);
 80019cc:	2700      	movs	r7, #0
    rtcrawtobcd();
 80019ce:	f7fe fd8d 	bl	80004ec <rtcrawtobcd>
    LCD_bufupload_buferase();
 80019d2:	f7fe ffab 	bl	800092c <LCD_bufupload_buferase>
  {  
 80019d6:	e579      	b.n	80014cc <setdatetime+0x1c>

080019d8 <testscreen>:

void testscreen(void)
{
 80019d8:	b570      	push	{r4, r5, r6, lr}
 80019da:	b08a      	sub	sp, #40	@ 0x28
  while(1)
  {
    RTCgetdata(&rtcbcd);
 80019dc:	4d74      	ldr	r5, [pc, #464]	@ (8001bb0 <testscreen+0x1d8>)
    rtcbcdtoraw();    
    uint8 day[4] = {dig_to_smb((rtcbcd.day & 0x30) >> 4), dig_to_smb(rtcbcd.day & 0x0F), '.', '\0'};
 80019de:	242e      	movs	r4, #46	@ 0x2e
    RTCgetdata(&rtcbcd);
 80019e0:	4628      	mov	r0, r5
 80019e2:	f7fe fd31 	bl	8000448 <RTCgetdata>
    rtcbcdtoraw();    
 80019e6:	f7fe fdbf 	bl	8000568 <rtcbcdtoraw>
    uint8 day[4] = {dig_to_smb((rtcbcd.day & 0x30) >> 4), dig_to_smb(rtcbcd.day & 0x0F), '.', '\0'};
 80019ea:	78e8      	ldrb	r0, [r5, #3]
    uint8 month[4] = {dig_to_smb(((rtcbcd.month & 0x10) >> 4) * 10), dig_to_smb(rtcbcd.month & 0x0F), '.', '\0'};
    uint8 year[5] = {'2', '0', dig_to_smb((rtcbcd.year & 0xF0) >> 4), dig_to_smb(rtcbcd.year & 0x0F), '\0'};
    LCD_printstr8x5(day, 0, 2);
    LCD_printstr8x5(month, 0, 18);
    LCD_printstr8x5(year, 0, 34);
    uint8 hour[4] = {dig_to_smb((rtcbcd.hour & 0x30) >> 4), dig_to_smb(rtcbcd.hour & 0x0F), ':', '\0'};
 80019ec:	263a      	movs	r6, #58	@ 0x3a
    uint8 day[4] = {dig_to_smb((rtcbcd.day & 0x30) >> 4), dig_to_smb(rtcbcd.day & 0x0F), '.', '\0'};
 80019ee:	f3c0 1001 	ubfx	r0, r0, #4, #2
 80019f2:	f7fe fbbc 	bl	800016e <dig_to_smb>
 80019f6:	f88d 0008 	strb.w	r0, [sp, #8]
 80019fa:	78e8      	ldrb	r0, [r5, #3]
 80019fc:	f000 000f 	and.w	r0, r0, #15
 8001a00:	f7fe fbb5 	bl	800016e <dig_to_smb>
 8001a04:	f88d 0009 	strb.w	r0, [sp, #9]
    uint8 month[4] = {dig_to_smb(((rtcbcd.month & 0x10) >> 4) * 10), dig_to_smb(rtcbcd.month & 0x0F), '.', '\0'};
 8001a08:	7968      	ldrb	r0, [r5, #5]
    uint8 day[4] = {dig_to_smb((rtcbcd.day & 0x30) >> 4), dig_to_smb(rtcbcd.day & 0x0F), '.', '\0'};
 8001a0a:	f8ad 400a 	strh.w	r4, [sp, #10]
    uint8 month[4] = {dig_to_smb(((rtcbcd.month & 0x10) >> 4) * 10), dig_to_smb(rtcbcd.month & 0x0F), '.', '\0'};
 8001a0e:	f3c0 1000 	ubfx	r0, r0, #4, #1
 8001a12:	eb00 0080 	add.w	r0, r0, r0, lsl #2
 8001a16:	0040      	lsls	r0, r0, #1
 8001a18:	f7fe fba9 	bl	800016e <dig_to_smb>
 8001a1c:	f88d 000c 	strb.w	r0, [sp, #12]
 8001a20:	7968      	ldrb	r0, [r5, #5]
 8001a22:	f000 000f 	and.w	r0, r0, #15
 8001a26:	f7fe fba2 	bl	800016e <dig_to_smb>
    uint8 year[5] = {'2', '0', dig_to_smb((rtcbcd.year & 0xF0) >> 4), dig_to_smb(rtcbcd.year & 0x0F), '\0'};
 8001a2a:	f243 0332 	movw	r3, #12338	@ 0x3032
    uint8 month[4] = {dig_to_smb(((rtcbcd.month & 0x10) >> 4) * 10), dig_to_smb(rtcbcd.month & 0x0F), '.', '\0'};
 8001a2e:	f88d 000d 	strb.w	r0, [sp, #13]
    uint8 year[5] = {'2', '0', dig_to_smb((rtcbcd.year & 0xF0) >> 4), dig_to_smb(rtcbcd.year & 0x0F), '\0'};
 8001a32:	79a8      	ldrb	r0, [r5, #6]
 8001a34:	f8ad 3018 	strh.w	r3, [sp, #24]
 8001a38:	0900      	lsrs	r0, r0, #4
    uint8 month[4] = {dig_to_smb(((rtcbcd.month & 0x10) >> 4) * 10), dig_to_smb(rtcbcd.month & 0x0F), '.', '\0'};
 8001a3a:	f8ad 400e 	strh.w	r4, [sp, #14]
    uint8 year[5] = {'2', '0', dig_to_smb((rtcbcd.year & 0xF0) >> 4), dig_to_smb(rtcbcd.year & 0x0F), '\0'};
 8001a3e:	f7fe fb96 	bl	800016e <dig_to_smb>
 8001a42:	f88d 001a 	strb.w	r0, [sp, #26]
 8001a46:	79a8      	ldrb	r0, [r5, #6]
 8001a48:	2400      	movs	r4, #0
 8001a4a:	f000 000f 	and.w	r0, r0, #15
 8001a4e:	f7fe fb8e 	bl	800016e <dig_to_smb>
    LCD_printstr8x5(day, 0, 2);
 8001a52:	2202      	movs	r2, #2
 8001a54:	4621      	mov	r1, r4
    uint8 year[5] = {'2', '0', dig_to_smb((rtcbcd.year & 0xF0) >> 4), dig_to_smb(rtcbcd.year & 0x0F), '\0'};
 8001a56:	f88d 001b 	strb.w	r0, [sp, #27]
    LCD_printstr8x5(day, 0, 2);
 8001a5a:	a802      	add	r0, sp, #8
    uint8 year[5] = {'2', '0', dig_to_smb((rtcbcd.year & 0xF0) >> 4), dig_to_smb(rtcbcd.year & 0x0F), '\0'};
 8001a5c:	f88d 401c 	strb.w	r4, [sp, #28]
    LCD_printstr8x5(day, 0, 2);
 8001a60:	f7fe ff04 	bl	800086c <LCD_printstr8x5>
    LCD_printstr8x5(month, 0, 18);
 8001a64:	2212      	movs	r2, #18
 8001a66:	4621      	mov	r1, r4
 8001a68:	a803      	add	r0, sp, #12
 8001a6a:	f7fe feff 	bl	800086c <LCD_printstr8x5>
    LCD_printstr8x5(year, 0, 34);
 8001a6e:	2222      	movs	r2, #34	@ 0x22
 8001a70:	4621      	mov	r1, r4
 8001a72:	a806      	add	r0, sp, #24
 8001a74:	f7fe fefa 	bl	800086c <LCD_printstr8x5>
    uint8 hour[4] = {dig_to_smb((rtcbcd.hour & 0x30) >> 4), dig_to_smb(rtcbcd.hour & 0x0F), ':', '\0'};
 8001a78:	78a8      	ldrb	r0, [r5, #2]
 8001a7a:	f3c0 1001 	ubfx	r0, r0, #4, #2
 8001a7e:	f7fe fb76 	bl	800016e <dig_to_smb>
 8001a82:	f88d 0010 	strb.w	r0, [sp, #16]
 8001a86:	78a8      	ldrb	r0, [r5, #2]
 8001a88:	f000 000f 	and.w	r0, r0, #15
 8001a8c:	f7fe fb6f 	bl	800016e <dig_to_smb>
 8001a90:	f88d 0011 	strb.w	r0, [sp, #17]
    uint8 min[4] = {dig_to_smb((rtcbcd.min & 0x70) >> 4), dig_to_smb(rtcbcd.min & 0x0F), ':', '\0'};
 8001a94:	7868      	ldrb	r0, [r5, #1]
    uint8 hour[4] = {dig_to_smb((rtcbcd.hour & 0x30) >> 4), dig_to_smb(rtcbcd.hour & 0x0F), ':', '\0'};
 8001a96:	f8ad 6012 	strh.w	r6, [sp, #18]
    uint8 min[4] = {dig_to_smb((rtcbcd.min & 0x70) >> 4), dig_to_smb(rtcbcd.min & 0x0F), ':', '\0'};
 8001a9a:	f3c0 1002 	ubfx	r0, r0, #4, #3
 8001a9e:	f7fe fb66 	bl	800016e <dig_to_smb>
 8001aa2:	f88d 0014 	strb.w	r0, [sp, #20]
 8001aa6:	7868      	ldrb	r0, [r5, #1]
 8001aa8:	f000 000f 	and.w	r0, r0, #15
 8001aac:	f7fe fb5f 	bl	800016e <dig_to_smb>
 8001ab0:	f88d 0015 	strb.w	r0, [sp, #21]
    uint8 sec[3] = {dig_to_smb((rtcbcd.sec & 0x70) >> 4), dig_to_smb(rtcbcd.sec & 0x0F), '\0'};
 8001ab4:	7828      	ldrb	r0, [r5, #0]
    uint8 min[4] = {dig_to_smb((rtcbcd.min & 0x70) >> 4), dig_to_smb(rtcbcd.min & 0x0F), ':', '\0'};
 8001ab6:	f8ad 6016 	strh.w	r6, [sp, #22]
    uint8 sec[3] = {dig_to_smb((rtcbcd.sec & 0x70) >> 4), dig_to_smb(rtcbcd.sec & 0x0F), '\0'};
 8001aba:	f3c0 1002 	ubfx	r0, r0, #4, #3
 8001abe:	f7fe fb56 	bl	800016e <dig_to_smb>
 8001ac2:	f88d 0004 	strb.w	r0, [sp, #4]
 8001ac6:	7828      	ldrb	r0, [r5, #0]
    LCD_printstr8x5(temp, 2, 44);
    LCD_printstr8x5((uint8*)"Ярк. = ", 3, 2);
    u16_to_str(temp, brightPWM, DISABLE);
    LCD_printstr8x5(temp, 3, 44);
    LCD_printstr8x5((uint8*)"Дж.X = ", 5, 2);
    u16_to_str(temp, joystick.ox, DISABLE);
 8001ac8:	4d3a      	ldr	r5, [pc, #232]	@ (8001bb4 <testscreen+0x1dc>)
    uint8 sec[3] = {dig_to_smb((rtcbcd.sec & 0x70) >> 4), dig_to_smb(rtcbcd.sec & 0x0F), '\0'};
 8001aca:	f000 000f 	and.w	r0, r0, #15
 8001ace:	f7fe fb4e 	bl	800016e <dig_to_smb>
    LCD_printstr8x5(hour, 0, 62);
 8001ad2:	223e      	movs	r2, #62	@ 0x3e
 8001ad4:	4621      	mov	r1, r4
    uint8 sec[3] = {dig_to_smb((rtcbcd.sec & 0x70) >> 4), dig_to_smb(rtcbcd.sec & 0x0F), '\0'};
 8001ad6:	f88d 0005 	strb.w	r0, [sp, #5]
    LCD_printstr8x5(hour, 0, 62);
 8001ada:	a804      	add	r0, sp, #16
    uint8 sec[3] = {dig_to_smb((rtcbcd.sec & 0x70) >> 4), dig_to_smb(rtcbcd.sec & 0x0F), '\0'};
 8001adc:	f88d 4006 	strb.w	r4, [sp, #6]
    LCD_printstr8x5(hour, 0, 62);
 8001ae0:	f7fe fec4 	bl	800086c <LCD_printstr8x5>
    LCD_printstr8x5(min, 0, 80);
 8001ae4:	2250      	movs	r2, #80	@ 0x50
 8001ae6:	4621      	mov	r1, r4
 8001ae8:	a805      	add	r0, sp, #20
 8001aea:	f7fe febf 	bl	800086c <LCD_printstr8x5>
    LCD_printstr8x5(sec, 0, 98);
 8001aee:	2262      	movs	r2, #98	@ 0x62
 8001af0:	4621      	mov	r1, r4
 8001af2:	a801      	add	r0, sp, #4
 8001af4:	f7fe feba 	bl	800086c <LCD_printstr8x5>
    LCD_printweekday(rtcraw.weekday, 0, 115);
 8001af8:	4b2f      	ldr	r3, [pc, #188]	@ (8001bb8 <testscreen+0x1e0>)
 8001afa:	2273      	movs	r2, #115	@ 0x73
 8001afc:	7918      	ldrb	r0, [r3, #4]
 8001afe:	4621      	mov	r1, r4
 8001b00:	f7fe ff62 	bl	80009c8 <LCD_printweekday>
    batcheck();
 8001b04:	f7fe fc0e 	bl	8000324 <batcheck>
    LCD_printstr8x5((uint8*)"Бат. = ", 2, 2);
 8001b08:	2202      	movs	r2, #2
 8001b0a:	482c      	ldr	r0, [pc, #176]	@ (8001bbc <testscreen+0x1e4>)
 8001b0c:	4611      	mov	r1, r2
 8001b0e:	f7fe fead 	bl	800086c <LCD_printstr8x5>
    u16_to_str(temp, Ubat, DISABLE);
 8001b12:	4b2b      	ldr	r3, [pc, #172]	@ (8001bc0 <testscreen+0x1e8>)
 8001b14:	4622      	mov	r2, r4
 8001b16:	7819      	ldrb	r1, [r3, #0]
 8001b18:	a808      	add	r0, sp, #32
 8001b1a:	f7fe fb2e 	bl	800017a <u16_to_str>
    LCD_printstr8x5(temp, 2, 44);
 8001b1e:	222c      	movs	r2, #44	@ 0x2c
 8001b20:	2102      	movs	r1, #2
 8001b22:	a808      	add	r0, sp, #32
 8001b24:	f7fe fea2 	bl	800086c <LCD_printstr8x5>
    LCD_printstr8x5((uint8*)"Ярк. = ", 3, 2);
 8001b28:	2202      	movs	r2, #2
 8001b2a:	2103      	movs	r1, #3
 8001b2c:	4825      	ldr	r0, [pc, #148]	@ (8001bc4 <testscreen+0x1ec>)
 8001b2e:	f7fe fe9d 	bl	800086c <LCD_printstr8x5>
    u16_to_str(temp, brightPWM, DISABLE);
 8001b32:	4b25      	ldr	r3, [pc, #148]	@ (8001bc8 <testscreen+0x1f0>)
 8001b34:	4622      	mov	r2, r4
 8001b36:	7819      	ldrb	r1, [r3, #0]
 8001b38:	a808      	add	r0, sp, #32
 8001b3a:	f7fe fb1e 	bl	800017a <u16_to_str>
    LCD_printstr8x5(temp, 3, 44);
 8001b3e:	222c      	movs	r2, #44	@ 0x2c
 8001b40:	2103      	movs	r1, #3
 8001b42:	a808      	add	r0, sp, #32
 8001b44:	f7fe fe92 	bl	800086c <LCD_printstr8x5>
    LCD_printstr8x5((uint8*)"Дж.X = ", 5, 2);
 8001b48:	2202      	movs	r2, #2
 8001b4a:	2105      	movs	r1, #5
 8001b4c:	481f      	ldr	r0, [pc, #124]	@ (8001bcc <testscreen+0x1f4>)
 8001b4e:	f7fe fe8d 	bl	800086c <LCD_printstr8x5>
    u16_to_str(temp, joystick.ox, DISABLE);
 8001b52:	7869      	ldrb	r1, [r5, #1]
 8001b54:	4622      	mov	r2, r4
 8001b56:	a808      	add	r0, sp, #32
 8001b58:	f7fe fb0f 	bl	800017a <u16_to_str>
    LCD_printstr8x5(temp, 5, 44);
 8001b5c:	222c      	movs	r2, #44	@ 0x2c
 8001b5e:	2105      	movs	r1, #5
 8001b60:	a808      	add	r0, sp, #32
 8001b62:	f7fe fe83 	bl	800086c <LCD_printstr8x5>
    LCD_printstr8x5((uint8*)"Дж.Y = ", 6, 2);
 8001b66:	2202      	movs	r2, #2
 8001b68:	2106      	movs	r1, #6
 8001b6a:	4819      	ldr	r0, [pc, #100]	@ (8001bd0 <testscreen+0x1f8>)
 8001b6c:	f7fe fe7e 	bl	800086c <LCD_printstr8x5>
    u16_to_str(temp, joystick.oy, DISABLE);
 8001b70:	78a9      	ldrb	r1, [r5, #2]
 8001b72:	4622      	mov	r2, r4
 8001b74:	a808      	add	r0, sp, #32
 8001b76:	f7fe fb00 	bl	800017a <u16_to_str>
    LCD_printstr8x5(temp, 6, 44);
 8001b7a:	222c      	movs	r2, #44	@ 0x2c
 8001b7c:	2106      	movs	r1, #6
 8001b7e:	a808      	add	r0, sp, #32
 8001b80:	f7fe fe74 	bl	800086c <LCD_printstr8x5>
  
    LCD_printbutselhint(1, 2, 89);
    LCD_printstr8x5((uint8*)"выход", 6, 86);
    TestBtn(&B1);
 8001b84:	4d13      	ldr	r5, [pc, #76]	@ (8001bd4 <testscreen+0x1fc>)
    LCD_printbutselhint(1, 2, 89);
 8001b86:	2259      	movs	r2, #89	@ 0x59
 8001b88:	2102      	movs	r1, #2
 8001b8a:	2001      	movs	r0, #1
 8001b8c:	f7fe fff0 	bl	8000b70 <LCD_printbutselhint>
    LCD_printstr8x5((uint8*)"выход", 6, 86);
 8001b90:	2256      	movs	r2, #86	@ 0x56
 8001b92:	2106      	movs	r1, #6
 8001b94:	4810      	ldr	r0, [pc, #64]	@ (8001bd8 <testscreen+0x200>)
 8001b96:	f7fe fe69 	bl	800086c <LCD_printstr8x5>
    TestBtn(&B1);
 8001b9a:	4628      	mov	r0, r5
 8001b9c:	f7fe fd2a 	bl	80005f4 <TestBtn>
    if(B1.BtnON) {B1.BtnON = 0; return;}
 8001ba0:	7c6b      	ldrb	r3, [r5, #17]
 8001ba2:	b113      	cbz	r3, 8001baa <testscreen+0x1d2>
 8001ba4:	746c      	strb	r4, [r5, #17]
    LCD_bufupload_buferase();
  }
}
 8001ba6:	b00a      	add	sp, #40	@ 0x28
 8001ba8:	bd70      	pop	{r4, r5, r6, pc}
    LCD_bufupload_buferase();
 8001baa:	f7fe febf 	bl	800092c <LCD_bufupload_buferase>
  {
 8001bae:	e715      	b.n	80019dc <testscreen+0x4>
 8001bb0:	200000db 	.word	0x200000db
 8001bb4:	200000e8 	.word	0x200000e8
 8001bb8:	200000d4 	.word	0x200000d4
 8001bbc:	0800743f 	.word	0x0800743f
 8001bc0:	200000d3 	.word	0x200000d3
 8001bc4:	08007447 	.word	0x08007447
 8001bc8:	2000000c 	.word	0x2000000c
 8001bcc:	0800744f 	.word	0x0800744f
 8001bd0:	08007457 	.word	0x08007457
 8001bd4:	20000134 	.word	0x20000134
 8001bd8:	0800745f 	.word	0x0800745f

08001bdc <MainMenu>:
  
void MainMenu(void)
{
 8001bdc:	b538      	push	{r3, r4, r5, lr}
  //--------------------START MENU-------------------
  if(CFlags.MenuFl)
 8001bde:	4cb5      	ldr	r4, [pc, #724]	@ (8001eb4 <MainMenu+0x2d8>)
 8001be0:	7823      	ldrb	r3, [r4, #0]
 8001be2:	07dd      	lsls	r5, r3, #31
 8001be4:	d570      	bpl.n	8001cc8 <MainMenu+0xec>
  {
    checkjoydir();
    TestBtn(&B2);
 8001be6:	4db4      	ldr	r5, [pc, #720]	@ (8001eb8 <MainMenu+0x2dc>)
    checkjoydir();
 8001be8:	f7fe fd62 	bl	80006b0 <checkjoydir>
    TestBtn(&B2);
 8001bec:	4628      	mov	r0, r5
 8001bee:	f7fe fd01 	bl	80005f4 <TestBtn>
    if(B2.BtnON) 
 8001bf2:	7c6b      	ldrb	r3, [r5, #17]
 8001bf4:	b183      	cbz	r3, 8001c18 <MainMenu+0x3c>
    {
      B2.BtnON = 0;
 8001bf6:	2300      	movs	r3, #0
 8001bf8:	746b      	strb	r3, [r5, #17]
      switch(CFlags.coursorpos) { 
 8001bfa:	7823      	ldrb	r3, [r4, #0]
 8001bfc:	095a      	lsrs	r2, r3, #5
 8001bfe:	2a02      	cmp	r2, #2
 8001c00:	f000 8149 	beq.w	8001e96 <MainMenu+0x2ba>
 8001c04:	2a03      	cmp	r2, #3
 8001c06:	f000 814b 	beq.w	8001ea0 <MainMenu+0x2c4>
 8001c0a:	2a01      	cmp	r2, #1
 8001c0c:	d104      	bne.n	8001c18 <MainMenu+0x3c>
        case 1: CFlags.MenuFl = 0; CFlags.RunGameFl = 1; CFlags.coursorpos = 1; break;
 8001c0e:	f003 031c 	and.w	r3, r3, #28
 8001c12:	f043 0322 	orr.w	r3, r3, #34	@ 0x22
        case 2: CFlags.MenuFl = 0; CFlags.MenuSettingsFl = 1; CFlags.coursorpos = 1; break;
 8001c16:	7023      	strb	r3, [r4, #0]
        case 3: ShutDown(); break;
      }
    }
    if(joystick.down == 1)
 8001c18:	4aa8      	ldr	r2, [pc, #672]	@ (8001ebc <MainMenu+0x2e0>)
 8001c1a:	7813      	ldrb	r3, [r2, #0]
 8001c1c:	0798      	lsls	r0, r3, #30
 8001c1e:	d50f      	bpl.n	8001c40 <MainMenu+0x64>
    {
      joystick.down = 0;
 8001c20:	f36f 0341 	bfc	r3, #1, #1
 8001c24:	7013      	strb	r3, [r2, #0]
      CFlags.coursorpos++;
 8001c26:	7823      	ldrb	r3, [r4, #0]
 8001c28:	3320      	adds	r3, #32
      if(CFlags.coursorpos == 4) CFlags.coursorpos = 1;
 8001c2a:	b2d9      	uxtb	r1, r3
      CFlags.coursorpos++;
 8001c2c:	7023      	strb	r3, [r4, #0]
      if(CFlags.coursorpos == 4) CFlags.coursorpos = 1;
 8001c2e:	f003 03e0 	and.w	r3, r3, #224	@ 0xe0
 8001c32:	2b80      	cmp	r3, #128	@ 0x80
 8001c34:	bf01      	itttt	eq
 8001c36:	460b      	moveq	r3, r1
 8001c38:	2101      	moveq	r1, #1
 8001c3a:	f361 1347 	bfieq	r3, r1, #5, #3
 8001c3e:	7023      	strbeq	r3, [r4, #0]
    }
    if(joystick.up == 1)
 8001c40:	7813      	ldrb	r3, [r2, #0]
 8001c42:	07d9      	lsls	r1, r3, #31
 8001c44:	d50c      	bpl.n	8001c60 <MainMenu+0x84>
    {
      joystick.up = 0;
 8001c46:	f36f 0300 	bfc	r3, #0, #1
 8001c4a:	7013      	strb	r3, [r2, #0]
      CFlags.coursorpos--;
 8001c4c:	7823      	ldrb	r3, [r4, #0]
 8001c4e:	33e0      	adds	r3, #224	@ 0xe0
 8001c50:	7023      	strb	r3, [r4, #0]
      if(CFlags.coursorpos == 0) CFlags.coursorpos = 3;
 8001c52:	b2db      	uxtb	r3, r3
 8001c54:	2b1f      	cmp	r3, #31
 8001c56:	bf9e      	ittt	ls
 8001c58:	2203      	movls	r2, #3
 8001c5a:	f362 1347 	bfils	r3, r2, #5, #3
 8001c5e:	7023      	strbls	r3, [r4, #0]
    }
    
    if(CFlags.coursorpos == 1) LCD_printmenucoursor(2, 4);
 8001c60:	7823      	ldrb	r3, [r4, #0]
 8001c62:	f003 03e0 	and.w	r3, r3, #224	@ 0xe0
 8001c66:	2b20      	cmp	r3, #32
 8001c68:	d103      	bne.n	8001c72 <MainMenu+0x96>
 8001c6a:	2104      	movs	r1, #4
 8001c6c:	2002      	movs	r0, #2
 8001c6e:	f7fe ff71 	bl	8000b54 <LCD_printmenucoursor>
    if(CFlags.coursorpos == 2) LCD_printmenucoursor(4, 4);
 8001c72:	7823      	ldrb	r3, [r4, #0]
 8001c74:	f003 03e0 	and.w	r3, r3, #224	@ 0xe0
 8001c78:	2b40      	cmp	r3, #64	@ 0x40
 8001c7a:	d103      	bne.n	8001c84 <MainMenu+0xa8>
 8001c7c:	2104      	movs	r1, #4
 8001c7e:	4608      	mov	r0, r1
 8001c80:	f7fe ff68 	bl	8000b54 <LCD_printmenucoursor>
    if(CFlags.coursorpos == 3) LCD_printmenucoursor(6, 4);
 8001c84:	7823      	ldrb	r3, [r4, #0]
 8001c86:	f003 03e0 	and.w	r3, r3, #224	@ 0xe0
 8001c8a:	2b60      	cmp	r3, #96	@ 0x60
 8001c8c:	d103      	bne.n	8001c96 <MainMenu+0xba>
 8001c8e:	2104      	movs	r1, #4
 8001c90:	2006      	movs	r0, #6
 8001c92:	f7fe ff5f 	bl	8000b54 <LCD_printmenucoursor>
    
    LCD_printstr8x5((uint8*)"ИГРА", 2, 19);
 8001c96:	2213      	movs	r2, #19
 8001c98:	2102      	movs	r1, #2
 8001c9a:	4889      	ldr	r0, [pc, #548]	@ (8001ec0 <MainMenu+0x2e4>)
 8001c9c:	f7fe fde6 	bl	800086c <LCD_printstr8x5>
    LCD_printstr8x5((uint8*)"НАСТРОЙКА", 4, 19);
 8001ca0:	2213      	movs	r2, #19
 8001ca2:	2104      	movs	r1, #4
 8001ca4:	4887      	ldr	r0, [pc, #540]	@ (8001ec4 <MainMenu+0x2e8>)
 8001ca6:	f7fe fde1 	bl	800086c <LCD_printstr8x5>
    LCD_printstr8x5((uint8*)"ВЫКЛЮЧИТЬ", 6, 19);
 8001caa:	2213      	movs	r2, #19
 8001cac:	2106      	movs	r1, #6
 8001cae:	4886      	ldr	r0, [pc, #536]	@ (8001ec8 <MainMenu+0x2ec>)
 8001cb0:	f7fe fddc 	bl	800086c <LCD_printstr8x5>
    
    LCD_printbutselhint(0, 2, 89);
 8001cb4:	2259      	movs	r2, #89	@ 0x59
 8001cb6:	2102      	movs	r1, #2
 8001cb8:	2000      	movs	r0, #0
 8001cba:	f7fe ff59 	bl	8000b70 <LCD_printbutselhint>
    LCD_printstr8x5((uint8*)"вход", 6, 93);
 8001cbe:	225d      	movs	r2, #93	@ 0x5d
 8001cc0:	2106      	movs	r1, #6
 8001cc2:	4882      	ldr	r0, [pc, #520]	@ (8001ecc <MainMenu+0x2f0>)
 8001cc4:	f7fe fdd2 	bl	800086c <LCD_printstr8x5>
  }  
  //-------------------------------------------------
  
  //--------------------SETTINGS---------------------
  if(CFlags.MenuSettingsFl)
 8001cc8:	7823      	ldrb	r3, [r4, #0]
 8001cca:	075d      	lsls	r5, r3, #29
 8001ccc:	f140 80ad 	bpl.w	8001e2a <MainMenu+0x24e>
  {
    checkjoydir();
    TestBtn(&B1); TestBtn(&B2);
 8001cd0:	4d79      	ldr	r5, [pc, #484]	@ (8001eb8 <MainMenu+0x2dc>)
    checkjoydir();
 8001cd2:	f7fe fced 	bl	80006b0 <checkjoydir>
    TestBtn(&B1); TestBtn(&B2);
 8001cd6:	487e      	ldr	r0, [pc, #504]	@ (8001ed0 <MainMenu+0x2f4>)
 8001cd8:	f7fe fc8c 	bl	80005f4 <TestBtn>
 8001cdc:	4628      	mov	r0, r5
 8001cde:	f7fe fc89 	bl	80005f4 <TestBtn>
    if(B2.BtnON) 
 8001ce2:	7c6b      	ldrb	r3, [r5, #17]
 8001ce4:	b14b      	cbz	r3, 8001cfa <MainMenu+0x11e>
    {
      B2.BtnON = 0;
 8001ce6:	2300      	movs	r3, #0
 8001ce8:	746b      	strb	r3, [r5, #17]
      switch(CFlags.coursorpos) { 
 8001cea:	7823      	ldrb	r3, [r4, #0]
 8001cec:	095b      	lsrs	r3, r3, #5
 8001cee:	2b02      	cmp	r3, #2
 8001cf0:	f000 80d9 	beq.w	8001ea6 <MainMenu+0x2ca>
 8001cf4:	2b03      	cmp	r3, #3
 8001cf6:	f000 80d9 	beq.w	8001eac <MainMenu+0x2d0>
        case 1: break;
        case 2: setdatetime(); break;
        case 3: testscreen(); break;
      }
    }
    if(B1.BtnON) 
 8001cfa:	4b75      	ldr	r3, [pc, #468]	@ (8001ed0 <MainMenu+0x2f4>)
 8001cfc:	7c5a      	ldrb	r2, [r3, #17]
 8001cfe:	b13a      	cbz	r2, 8001d10 <MainMenu+0x134>
    {
      B1.BtnON = 0;
 8001d00:	2200      	movs	r2, #0
 8001d02:	745a      	strb	r2, [r3, #17]
      CFlags.MenuSettingsFl = 0;
      CFlags.MenuFl = 1;
 8001d04:	7823      	ldrb	r3, [r4, #0]
 8001d06:	f003 031a 	and.w	r3, r3, #26
 8001d0a:	f043 0341 	orr.w	r3, r3, #65	@ 0x41
 8001d0e:	7023      	strb	r3, [r4, #0]
      CFlags.coursorpos = 2;
    }
    if(joystick.down == 1)
 8001d10:	4a6a      	ldr	r2, [pc, #424]	@ (8001ebc <MainMenu+0x2e0>)
 8001d12:	7813      	ldrb	r3, [r2, #0]
 8001d14:	0798      	lsls	r0, r3, #30
 8001d16:	d50f      	bpl.n	8001d38 <MainMenu+0x15c>
    {
      joystick.down = 0;
 8001d18:	f36f 0341 	bfc	r3, #1, #1
 8001d1c:	7013      	strb	r3, [r2, #0]
      CFlags.coursorpos++;
 8001d1e:	7823      	ldrb	r3, [r4, #0]
 8001d20:	3320      	adds	r3, #32
      if(CFlags.coursorpos == 4) CFlags.coursorpos = 1;
 8001d22:	b2d9      	uxtb	r1, r3
      CFlags.coursorpos++;
 8001d24:	7023      	strb	r3, [r4, #0]
      if(CFlags.coursorpos == 4) CFlags.coursorpos = 1;
 8001d26:	f003 03e0 	and.w	r3, r3, #224	@ 0xe0
 8001d2a:	2b80      	cmp	r3, #128	@ 0x80
 8001d2c:	bf01      	itttt	eq
 8001d2e:	460b      	moveq	r3, r1
 8001d30:	2101      	moveq	r1, #1
 8001d32:	f361 1347 	bfieq	r3, r1, #5, #3
 8001d36:	7023      	strbeq	r3, [r4, #0]
    }
    if(joystick.up == 1)
 8001d38:	7813      	ldrb	r3, [r2, #0]
 8001d3a:	07d9      	lsls	r1, r3, #31
 8001d3c:	d50c      	bpl.n	8001d58 <MainMenu+0x17c>
    {
      joystick.up = 0;
 8001d3e:	f36f 0300 	bfc	r3, #0, #1
 8001d42:	7013      	strb	r3, [r2, #0]
      CFlags.coursorpos--;
 8001d44:	7823      	ldrb	r3, [r4, #0]
 8001d46:	33e0      	adds	r3, #224	@ 0xe0
 8001d48:	7023      	strb	r3, [r4, #0]
      if(CFlags.coursorpos == 0) CFlags.coursorpos = 3;
 8001d4a:	b2db      	uxtb	r3, r3
 8001d4c:	2b1f      	cmp	r3, #31
 8001d4e:	bf9e      	ittt	ls
 8001d50:	2203      	movls	r2, #3
 8001d52:	f362 1347 	bfils	r3, r2, #5, #3
 8001d56:	7023      	strbls	r3, [r4, #0]
    }
    
    if(CFlags.coursorpos == 1) {
 8001d58:	7823      	ldrb	r3, [r4, #0]
 8001d5a:	f003 03e0 	and.w	r3, r3, #224	@ 0xe0
 8001d5e:	2b20      	cmp	r3, #32
 8001d60:	d12e      	bne.n	8001dc0 <MainMenu+0x1e4>
      TestBtn(&B3); TestBtn(&B4);
 8001d62:	4d5c      	ldr	r5, [pc, #368]	@ (8001ed4 <MainMenu+0x2f8>)
 8001d64:	4628      	mov	r0, r5
 8001d66:	f7fe fc45 	bl	80005f4 <TestBtn>
 8001d6a:	485b      	ldr	r0, [pc, #364]	@ (8001ed8 <MainMenu+0x2fc>)
 8001d6c:	f7fe fc42 	bl	80005f4 <TestBtn>
      if(B3.BtnON || B3.HoldON || B3.StuckON) {B3.BtnON = 0; decbright();}
 8001d70:	692b      	ldr	r3, [r5, #16]
 8001d72:	f013 2fff 	tst.w	r3, #4278255360	@ 0xff00ff00
 8001d76:	d101      	bne.n	8001d7c <MainMenu+0x1a0>
 8001d78:	7d2b      	ldrb	r3, [r5, #20]
 8001d7a:	b11b      	cbz	r3, 8001d84 <MainMenu+0x1a8>
 8001d7c:	2300      	movs	r3, #0
 8001d7e:	746b      	strb	r3, [r5, #17]
 8001d80:	f7fe fb00 	bl	8000384 <decbright>
      if(B4.BtnON || B4.HoldON || B4.StuckON) {B4.BtnON = 0; incbright();}      
 8001d84:	4b54      	ldr	r3, [pc, #336]	@ (8001ed8 <MainMenu+0x2fc>)
 8001d86:	691a      	ldr	r2, [r3, #16]
 8001d88:	f012 2fff 	tst.w	r2, #4278255360	@ 0xff00ff00
 8001d8c:	d101      	bne.n	8001d92 <MainMenu+0x1b6>
 8001d8e:	7d1a      	ldrb	r2, [r3, #20]
 8001d90:	b11a      	cbz	r2, 8001d9a <MainMenu+0x1be>
 8001d92:	2200      	movs	r2, #0
 8001d94:	745a      	strb	r2, [r3, #17]
 8001d96:	f7fe fb01 	bl	800039c <incbright>
      LCD_printmenucoursor(2, 4);
 8001d9a:	2104      	movs	r1, #4
 8001d9c:	2002      	movs	r0, #2
 8001d9e:	f7fe fed9 	bl	8000b54 <LCD_printmenucoursor>
      LCD_printbutselhint(4, 2, 89);
 8001da2:	2259      	movs	r2, #89	@ 0x59
 8001da4:	2102      	movs	r1, #2
 8001da6:	2004      	movs	r0, #4
 8001da8:	f7fe fee2 	bl	8000b70 <LCD_printbutselhint>
      LCD_printstr8x5((uint8*)"вых.", 6, 86);
 8001dac:	2256      	movs	r2, #86	@ 0x56
 8001dae:	2106      	movs	r1, #6
 8001db0:	484a      	ldr	r0, [pc, #296]	@ (8001edc <MainMenu+0x300>)
 8001db2:	f7fe fd5b 	bl	800086c <LCD_printstr8x5>
      LCD_printstr8x5((uint8*)"-  +", 1, 93);
 8001db6:	225d      	movs	r2, #93	@ 0x5d
 8001db8:	2101      	movs	r1, #1
 8001dba:	4849      	ldr	r0, [pc, #292]	@ (8001ee0 <MainMenu+0x304>)
 8001dbc:	f7fe fd56 	bl	800086c <LCD_printstr8x5>
    }
    if(CFlags.coursorpos == 2) {
 8001dc0:	7823      	ldrb	r3, [r4, #0]
 8001dc2:	f003 03e0 	and.w	r3, r3, #224	@ 0xe0
 8001dc6:	2b40      	cmp	r3, #64	@ 0x40
 8001dc8:	d10d      	bne.n	8001de6 <MainMenu+0x20a>
      LCD_printmenucoursor(4, 4);
 8001dca:	2104      	movs	r1, #4
 8001dcc:	4608      	mov	r0, r1
 8001dce:	f7fe fec1 	bl	8000b54 <LCD_printmenucoursor>
      LCD_printbutselhint(5, 2, 89);
 8001dd2:	2259      	movs	r2, #89	@ 0x59
 8001dd4:	2102      	movs	r1, #2
 8001dd6:	2005      	movs	r0, #5
 8001dd8:	f7fe feca 	bl	8000b70 <LCD_printbutselhint>
      LCD_printstr8x5((uint8*)"вых.вх.", 6, 86);
 8001ddc:	2256      	movs	r2, #86	@ 0x56
 8001dde:	2106      	movs	r1, #6
 8001de0:	4840      	ldr	r0, [pc, #256]	@ (8001ee4 <MainMenu+0x308>)
 8001de2:	f7fe fd43 	bl	800086c <LCD_printstr8x5>
    }
    if(CFlags.coursorpos == 3) {
 8001de6:	7823      	ldrb	r3, [r4, #0]
 8001de8:	f003 03e0 	and.w	r3, r3, #224	@ 0xe0
 8001dec:	2b60      	cmp	r3, #96	@ 0x60
 8001dee:	d10d      	bne.n	8001e0c <MainMenu+0x230>
      LCD_printmenucoursor(6, 4);
 8001df0:	2104      	movs	r1, #4
 8001df2:	2006      	movs	r0, #6
 8001df4:	f7fe feae 	bl	8000b54 <LCD_printmenucoursor>
      LCD_printbutselhint(5, 2, 89);
 8001df8:	2259      	movs	r2, #89	@ 0x59
 8001dfa:	2102      	movs	r1, #2
 8001dfc:	2005      	movs	r0, #5
 8001dfe:	f7fe feb7 	bl	8000b70 <LCD_printbutselhint>
      LCD_printstr8x5((uint8*)"вых.вх.", 6, 86);
 8001e02:	2256      	movs	r2, #86	@ 0x56
 8001e04:	2106      	movs	r1, #6
 8001e06:	4837      	ldr	r0, [pc, #220]	@ (8001ee4 <MainMenu+0x308>)
 8001e08:	f7fe fd30 	bl	800086c <LCD_printstr8x5>
    }
    LCD_printstr8x5((uint8*)"ЯРКОСТЬ", 2, 19);
 8001e0c:	2213      	movs	r2, #19
 8001e0e:	2102      	movs	r1, #2
 8001e10:	4835      	ldr	r0, [pc, #212]	@ (8001ee8 <MainMenu+0x30c>)
 8001e12:	f7fe fd2b 	bl	800086c <LCD_printstr8x5>
    LCD_printstr8x5((uint8*)"ДАТА/ВРЕМЯ", 4, 19);
 8001e16:	2213      	movs	r2, #19
 8001e18:	2104      	movs	r1, #4
 8001e1a:	4834      	ldr	r0, [pc, #208]	@ (8001eec <MainMenu+0x310>)
 8001e1c:	f7fe fd26 	bl	800086c <LCD_printstr8x5>
    LCD_printstr8x5((uint8*)"ТЕСТ", 6, 19);
 8001e20:	2213      	movs	r2, #19
 8001e22:	2106      	movs	r1, #6
 8001e24:	4832      	ldr	r0, [pc, #200]	@ (8001ef0 <MainMenu+0x314>)
 8001e26:	f7fe fd21 	bl	800086c <LCD_printstr8x5>
  }
  //-------------------------------------------------
  
  batcheck();
 8001e2a:	f7fe fa7b 	bl	8000324 <batcheck>
  BrightPWMgen(brightPWM);
 8001e2e:	4b31      	ldr	r3, [pc, #196]	@ (8001ef4 <MainMenu+0x318>)
 8001e30:	7818      	ldrb	r0, [r3, #0]
 8001e32:	f7fe fabf 	bl	80003b4 <BrightPWMgen>
  getbrightlvl();
 8001e36:	f7fe fa97 	bl	8000368 <getbrightlvl>
  RTCgetdata(&rtcbcd);
 8001e3a:	482f      	ldr	r0, [pc, #188]	@ (8001ef8 <MainMenu+0x31c>)
 8001e3c:	f7fe fb04 	bl	8000448 <RTCgetdata>
  rtcbcdtoraw();
 8001e40:	f7fe fb92 	bl	8000568 <rtcbcdtoraw>
  
  LCD_printclockanddate(0, 26);
 8001e44:	211a      	movs	r1, #26
 8001e46:	2000      	movs	r0, #0
 8001e48:	f7fe fdce 	bl	80009e8 <LCD_printclockanddate>
  LCD_printbatlevel(batlvl, 0, 105);
 8001e4c:	4b2b      	ldr	r3, [pc, #172]	@ (8001efc <MainMenu+0x320>)
 8001e4e:	2269      	movs	r2, #105	@ 0x69
 8001e50:	7818      	ldrb	r0, [r3, #0]
 8001e52:	2100      	movs	r1, #0
 8001e54:	f7fe fe6a 	bl	8000b2c <LCD_printbatlevel>
  LCD_printbrightnes(0, 0);
 8001e58:	2100      	movs	r1, #0
 8001e5a:	4608      	mov	r0, r1
 8001e5c:	f7fe fe42 	bl	8000ae4 <LCD_printbrightnes>
  LCD_printvertline(55, 8, 80);
 8001e60:	2250      	movs	r2, #80	@ 0x50
 8001e62:	2108      	movs	r1, #8
 8001e64:	2037      	movs	r0, #55	@ 0x37
 8001e66:	f7fe fea9 	bl	8000bbc <LCD_printvertline>
  LCD_printvertline(55, 8, 0);
 8001e6a:	2200      	movs	r2, #0
 8001e6c:	2108      	movs	r1, #8
 8001e6e:	2037      	movs	r0, #55	@ 0x37
 8001e70:	f7fe fea4 	bl	8000bbc <LCD_printvertline>
  LCD_printvertline(55, 8, 126);
 8001e74:	227e      	movs	r2, #126	@ 0x7e
 8001e76:	2108      	movs	r1, #8
 8001e78:	2037      	movs	r0, #55	@ 0x37
 8001e7a:	f7fe fe9f 	bl	8000bbc <LCD_printvertline>

  LCD_bufupload_buferase();
 8001e7e:	f7fe fd55 	bl	800092c <LCD_bufupload_buferase>
  HAL_Delay(50);
 8001e82:	2032      	movs	r0, #50	@ 0x32
 8001e84:	f001 fe6a 	bl	8003b5c <HAL_Delay>
  
  //----------------------GAME-----------------------
  if(CFlags.RunGameFl)
 8001e88:	7823      	ldrb	r3, [r4, #0]
 8001e8a:	079b      	lsls	r3, r3, #30
 8001e8c:	d511      	bpl.n	8001eb2 <MainMenu+0x2d6>
  {
    ufobattle();
  }
  //-------------------------------------------------
  
}
 8001e8e:	e8bd 4038 	ldmia.w	sp!, {r3, r4, r5, lr}
    ufobattle();
 8001e92:	f001 bdc5 	b.w	8003a20 <ufobattle>
        case 2: CFlags.MenuFl = 0; CFlags.MenuSettingsFl = 1; CFlags.coursorpos = 1; break;
 8001e96:	f003 031a 	and.w	r3, r3, #26
 8001e9a:	f043 0324 	orr.w	r3, r3, #36	@ 0x24
 8001e9e:	e6ba      	b.n	8001c16 <MainMenu+0x3a>
        case 3: ShutDown(); break;
 8001ea0:	f7fe fa4c 	bl	800033c <ShutDown>
 8001ea4:	e6b8      	b.n	8001c18 <MainMenu+0x3c>
        case 2: setdatetime(); break;
 8001ea6:	f7ff fb03 	bl	80014b0 <setdatetime>
 8001eaa:	e726      	b.n	8001cfa <MainMenu+0x11e>
        case 3: testscreen(); break;
 8001eac:	f7ff fd94 	bl	80019d8 <testscreen>
 8001eb0:	e723      	b.n	8001cfa <MainMenu+0x11e>
}
 8001eb2:	bd38      	pop	{r3, r4, r5, pc}
 8001eb4:	20000010 	.word	0x20000010
 8001eb8:	2000011c 	.word	0x2000011c
 8001ebc:	200000e8 	.word	0x200000e8
 8001ec0:	0800751e 	.word	0x0800751e
 8001ec4:	08007465 	.word	0x08007465
 8001ec8:	0800746f 	.word	0x0800746f
 8001ecc:	08007479 	.word	0x08007479
 8001ed0:	20000134 	.word	0x20000134
 8001ed4:	20000104 	.word	0x20000104
 8001ed8:	200000ec 	.word	0x200000ec
 8001edc:	0800747e 	.word	0x0800747e
 8001ee0:	08007430 	.word	0x08007430
 8001ee4:	08007483 	.word	0x08007483
 8001ee8:	0800748b 	.word	0x0800748b
 8001eec:	08007493 	.word	0x08007493
 8001ef0:	0800749e 	.word	0x0800749e
 8001ef4:	2000000c 	.word	0x2000000c
 8001ef8:	200000db 	.word	0x200000db
 8001efc:	200000d2 	.word	0x200000d2

08001f00 <SchedAddEvent>:

static uint8 SchedulerRegistredEvents = 0;
tEvent SchedulerEvent[MAX_EVENT];

uint8 SchedAddEvent(void (*func)(void), uint16 period)
{
 8001f00:	b570      	push	{r4, r5, r6, lr}
  SchedulerEvent[SchedulerRegistredEvents].callfunc = func;
 8001f02:	4a07      	ldr	r2, [pc, #28]	@ (8001f20 <SchedAddEvent+0x20>)
 8001f04:	4d07      	ldr	r5, [pc, #28]	@ (8001f24 <SchedAddEvent+0x24>)
 8001f06:	7813      	ldrb	r3, [r2, #0]
 8001f08:	eb05 1403 	add.w	r4, r5, r3, lsl #4
  SchedulerEvent[SchedulerRegistredEvents].period = period;
 8001f0c:	6061      	str	r1, [r4, #4]
  SchedulerEvent[SchedulerRegistredEvents].run_flag = ON;
 8001f0e:	2101      	movs	r1, #1
 8001f10:	7321      	strb	r1, [r4, #12]
  return SchedulerRegistredEvents++;
 8001f12:	1859      	adds	r1, r3, r1
  SchedulerEvent[SchedulerRegistredEvents].callfunc = func;
 8001f14:	011e      	lsls	r6, r3, #4
  return SchedulerRegistredEvents++;
 8001f16:	7011      	strb	r1, [r2, #0]
  SchedulerEvent[SchedulerRegistredEvents].callfunc = func;
 8001f18:	51a8      	str	r0, [r5, r6]
}
 8001f1a:	4618      	mov	r0, r3
 8001f1c:	bd70      	pop	{r4, r5, r6, pc}
 8001f1e:	bf00      	nop
 8001f20:	200008bc 	.word	0x200008bc
 8001f24:	200006dc 	.word	0x200006dc

08001f28 <SchedRemoveAllEvents>:

void SchedRemoveAllEvents(void)
{
  SchedulerRegistredEvents = 0;
 8001f28:	2200      	movs	r2, #0
 8001f2a:	4b01      	ldr	r3, [pc, #4]	@ (8001f30 <SchedRemoveAllEvents+0x8>)
 8001f2c:	701a      	strb	r2, [r3, #0]
}
 8001f2e:	4770      	bx	lr
 8001f30:	200008bc 	.word	0x200008bc

08001f34 <SchedEventProcess>:

void SchedEventProcess(void)
{
 8001f34:	b5f8      	push	{r3, r4, r5, r6, r7, lr}
  for(uint8 i = 0; i < SchedulerRegistredEvents; i++)
 8001f36:	2400      	movs	r4, #0
  {
    if(SchedulerEvent[i].eventcounter >= SchedulerEvent[i].period)
    {
      SchedulerEvent[i].eventcounter = 0;
 8001f38:	4627      	mov	r7, r4
  for(uint8 i = 0; i < SchedulerRegistredEvents; i++)
 8001f3a:	4e09      	ldr	r6, [pc, #36]	@ (8001f60 <SchedEventProcess+0x2c>)
    if(SchedulerEvent[i].eventcounter >= SchedulerEvent[i].period)
 8001f3c:	4d09      	ldr	r5, [pc, #36]	@ (8001f64 <SchedEventProcess+0x30>)
  for(uint8 i = 0; i < SchedulerRegistredEvents; i++)
 8001f3e:	7832      	ldrb	r2, [r6, #0]
 8001f40:	b2e3      	uxtb	r3, r4
 8001f42:	429a      	cmp	r2, r3
 8001f44:	d800      	bhi.n	8001f48 <SchedEventProcess+0x14>
      SchedulerEvent[i].callfunc();
    }
  }
}
 8001f46:	bdf8      	pop	{r3, r4, r5, r6, r7, pc}
    if(SchedulerEvent[i].eventcounter >= SchedulerEvent[i].period)
 8001f48:	011a      	lsls	r2, r3, #4
 8001f4a:	eb05 1303 	add.w	r3, r5, r3, lsl #4
 8001f4e:	e9d3 1001 	ldrd	r1, r0, [r3, #4]
 8001f52:	4288      	cmp	r0, r1
 8001f54:	d302      	bcc.n	8001f5c <SchedEventProcess+0x28>
      SchedulerEvent[i].eventcounter = 0;
 8001f56:	609f      	str	r7, [r3, #8]
      SchedulerEvent[i].callfunc();
 8001f58:	58ab      	ldr	r3, [r5, r2]
 8001f5a:	4798      	blx	r3
  for(uint8 i = 0; i < SchedulerRegistredEvents; i++)
 8001f5c:	3401      	adds	r4, #1
 8001f5e:	e7ee      	b.n	8001f3e <SchedEventProcess+0xa>
 8001f60:	200008bc 	.word	0x200008bc
 8001f64:	200006dc 	.word	0x200006dc

08001f68 <SchedPeriodIncr>:

void SchedPeriodIncr(void)
{
  for(uint8 i = 0; i < SchedulerRegistredEvents; i++) {
 8001f68:	2200      	movs	r2, #0
 8001f6a:	4b07      	ldr	r3, [pc, #28]	@ (8001f88 <SchedPeriodIncr+0x20>)
 8001f6c:	7818      	ldrb	r0, [r3, #0]
 8001f6e:	4b07      	ldr	r3, [pc, #28]	@ (8001f8c <SchedPeriodIncr+0x24>)
 8001f70:	b2d1      	uxtb	r1, r2
 8001f72:	4288      	cmp	r0, r1
 8001f74:	d800      	bhi.n	8001f78 <SchedPeriodIncr+0x10>
    if(SchedulerEvent[i].run_flag) 
      SchedulerEvent[i].eventcounter++;
  }
}
 8001f76:	4770      	bx	lr
    if(SchedulerEvent[i].run_flag) 
 8001f78:	7b19      	ldrb	r1, [r3, #12]
 8001f7a:	b111      	cbz	r1, 8001f82 <SchedPeriodIncr+0x1a>
      SchedulerEvent[i].eventcounter++;
 8001f7c:	6899      	ldr	r1, [r3, #8]
 8001f7e:	3101      	adds	r1, #1
 8001f80:	6099      	str	r1, [r3, #8]
  for(uint8 i = 0; i < SchedulerRegistredEvents; i++) {
 8001f82:	3201      	adds	r2, #1
 8001f84:	3310      	adds	r3, #16
 8001f86:	e7f3      	b.n	8001f70 <SchedPeriodIncr+0x8>
 8001f88:	200008bc 	.word	0x200008bc
 8001f8c:	200006dc 	.word	0x200006dc

08001f90 <SchedRemoveEvent>:

void  SchedRemoveEvent(void (*func)(void))
{
    uint8 temp_fl = 0;
    for(uint8 i = 0; i < SchedulerRegistredEvents; i++){
 8001f90:	2100      	movs	r1, #0
{
 8001f92:	b570      	push	{r4, r5, r6, lr}
    uint8 temp_fl = 0;
 8001f94:	460c      	mov	r4, r1
    for(uint8 i = 0; i < SchedulerRegistredEvents; i++){
 8001f96:	4d0d      	ldr	r5, [pc, #52]	@ (8001fcc <SchedRemoveEvent+0x3c>)
 8001f98:	4b0d      	ldr	r3, [pc, #52]	@ (8001fd0 <SchedRemoveEvent+0x40>)
 8001f9a:	782a      	ldrb	r2, [r5, #0]
 8001f9c:	b2ce      	uxtb	r6, r1
 8001f9e:	42b2      	cmp	r2, r6
 8001fa0:	d803      	bhi.n	8001faa <SchedRemoveEvent+0x1a>
            SchedulerEvent[i].period = SchedulerEvent[i+1].period;
            SchedulerEvent[i].run_flag = SchedulerEvent[i+1].run_flag;
            SchedulerEvent[i].eventcounter = SchedulerEvent[i+1].eventcounter;
        }
    }
    if(temp_fl) SchedulerRegistredEvents--;
 8001fa2:	b10c      	cbz	r4, 8001fa8 <SchedRemoveEvent+0x18>
 8001fa4:	3a01      	subs	r2, #1
 8001fa6:	702a      	strb	r2, [r5, #0]
}
 8001fa8:	bd70      	pop	{r4, r5, r6, pc}
        if(SchedulerEvent[i].callfunc == func || temp_fl) {
 8001faa:	681e      	ldr	r6, [r3, #0]
 8001fac:	4286      	cmp	r6, r0
 8001fae:	d000      	beq.n	8001fb2 <SchedRemoveEvent+0x22>
 8001fb0:	b144      	cbz	r4, 8001fc4 <SchedRemoveEvent+0x34>
            SchedulerEvent[i].callfunc = SchedulerEvent[i+1].callfunc;
 8001fb2:	691c      	ldr	r4, [r3, #16]
 8001fb4:	601c      	str	r4, [r3, #0]
            SchedulerEvent[i].period = SchedulerEvent[i+1].period;
 8001fb6:	695c      	ldr	r4, [r3, #20]
 8001fb8:	605c      	str	r4, [r3, #4]
            SchedulerEvent[i].run_flag = SchedulerEvent[i+1].run_flag;
 8001fba:	7f1c      	ldrb	r4, [r3, #28]
 8001fbc:	731c      	strb	r4, [r3, #12]
            SchedulerEvent[i].eventcounter = SchedulerEvent[i+1].eventcounter;
 8001fbe:	699c      	ldr	r4, [r3, #24]
 8001fc0:	609c      	str	r4, [r3, #8]
            temp_fl = 1;
 8001fc2:	2401      	movs	r4, #1
    for(uint8 i = 0; i < SchedulerRegistredEvents; i++){
 8001fc4:	3101      	adds	r1, #1
 8001fc6:	3310      	adds	r3, #16
 8001fc8:	e7e8      	b.n	8001f9c <SchedRemoveEvent+0xc>
 8001fca:	bf00      	nop
 8001fcc:	200008bc 	.word	0x200008bc
 8001fd0:	200006dc 	.word	0x200006dc

08001fd4 <SchedPauseEvent>:

void  SchedPauseEvent(void (*func)(void))
{
 8001fd4:	b530      	push	{r4, r5, lr}
    for(uint8 i = 0; i < SchedulerRegistredEvents; i ++){
 8001fd6:	4b08      	ldr	r3, [pc, #32]	@ (8001ff8 <SchedPauseEvent+0x24>)
 8001fd8:	4a08      	ldr	r2, [pc, #32]	@ (8001ffc <SchedPauseEvent+0x28>)
 8001fda:	781c      	ldrb	r4, [r3, #0]
 8001fdc:	2300      	movs	r3, #0
        if(SchedulerEvent[i].callfunc == func){
            SchedulerEvent[i].run_flag = OFF;
 8001fde:	461d      	mov	r5, r3
    for(uint8 i = 0; i < SchedulerRegistredEvents; i ++){
 8001fe0:	b2d9      	uxtb	r1, r3
 8001fe2:	428c      	cmp	r4, r1
 8001fe4:	d800      	bhi.n	8001fe8 <SchedPauseEvent+0x14>
        }
    }
}
 8001fe6:	bd30      	pop	{r4, r5, pc}
        if(SchedulerEvent[i].callfunc == func){
 8001fe8:	6811      	ldr	r1, [r2, #0]
 8001fea:	3301      	adds	r3, #1
 8001fec:	4281      	cmp	r1, r0
            SchedulerEvent[i].run_flag = OFF;
 8001fee:	bf08      	it	eq
 8001ff0:	7315      	strbeq	r5, [r2, #12]
    for(uint8 i = 0; i < SchedulerRegistredEvents; i ++){
 8001ff2:	3210      	adds	r2, #16
 8001ff4:	e7f4      	b.n	8001fe0 <SchedPauseEvent+0xc>
 8001ff6:	bf00      	nop
 8001ff8:	200008bc 	.word	0x200008bc
 8001ffc:	200006dc 	.word	0x200006dc

08002000 <SchedResumeEvent>:
void  SchedResumeEvent(void (*func)(void))
{
 8002000:	b530      	push	{r4, r5, lr}
    for(uint8 i = 0; i < SchedulerRegistredEvents; i ++){
 8002002:	2200      	movs	r2, #0
        if(SchedulerEvent[i].callfunc == func){
            SchedulerEvent[i].run_flag = ON;
 8002004:	2501      	movs	r5, #1
    for(uint8 i = 0; i < SchedulerRegistredEvents; i ++){
 8002006:	4b07      	ldr	r3, [pc, #28]	@ (8002024 <SchedResumeEvent+0x24>)
 8002008:	781c      	ldrb	r4, [r3, #0]
 800200a:	4b07      	ldr	r3, [pc, #28]	@ (8002028 <SchedResumeEvent+0x28>)
 800200c:	b2d1      	uxtb	r1, r2
 800200e:	428c      	cmp	r4, r1
 8002010:	d800      	bhi.n	8002014 <SchedResumeEvent+0x14>
        }
    }
}
 8002012:	bd30      	pop	{r4, r5, pc}
        if(SchedulerEvent[i].callfunc == func){
 8002014:	6819      	ldr	r1, [r3, #0]
 8002016:	3201      	adds	r2, #1
 8002018:	4281      	cmp	r1, r0
            SchedulerEvent[i].run_flag = ON;
 800201a:	bf08      	it	eq
 800201c:	731d      	strbeq	r5, [r3, #12]
    for(uint8 i = 0; i < SchedulerRegistredEvents; i ++){
 800201e:	3310      	adds	r3, #16
 8002020:	e7f4      	b.n	800200c <SchedResumeEvent+0xc>
 8002022:	bf00      	nop
 8002024:	200008bc 	.word	0x200008bc
 8002028:	200006dc 	.word	0x200006dc

0800202c <SchedEventSetPeriod>:

void  SchedEventSetPeriod(void (*func)(void), uint16 period)
{
    for(uint8 i = 0; i < SchedulerRegistredEvents; i ++){
 800202c:	2200      	movs	r2, #0
{
 800202e:	b530      	push	{r4, r5, lr}
    for(uint8 i = 0; i < SchedulerRegistredEvents; i ++){
 8002030:	4b06      	ldr	r3, [pc, #24]	@ (800204c <SchedEventSetPeriod+0x20>)
 8002032:	781d      	ldrb	r5, [r3, #0]
 8002034:	4b06      	ldr	r3, [pc, #24]	@ (8002050 <SchedEventSetPeriod+0x24>)
 8002036:	b2d4      	uxtb	r4, r2
 8002038:	42a5      	cmp	r5, r4
 800203a:	d800      	bhi.n	800203e <SchedEventSetPeriod+0x12>
        if(SchedulerEvent[i].callfunc == func){
            SchedulerEvent[i].period = period;
        }
    }
}
 800203c:	bd30      	pop	{r4, r5, pc}
        if(SchedulerEvent[i].callfunc == func){
 800203e:	681c      	ldr	r4, [r3, #0]
 8002040:	3201      	adds	r2, #1
 8002042:	4284      	cmp	r4, r0
            SchedulerEvent[i].period = period;
 8002044:	bf08      	it	eq
 8002046:	6059      	streq	r1, [r3, #4]
    for(uint8 i = 0; i < SchedulerRegistredEvents; i ++){
 8002048:	3310      	adds	r3, #16
 800204a:	e7f4      	b.n	8002036 <SchedEventSetPeriod+0xa>
 800204c:	200008bc 	.word	0x200008bc
 8002050:	200006dc 	.word	0x200006dc

08002054 <HAL_MspInit>:

  /* USER CODE BEGIN MspInit 0 */

  /* USER CODE END MspInit 0 */

  __HAL_RCC_AFIO_CLK_ENABLE();
 8002054:	4b0e      	ldr	r3, [pc, #56]	@ (8002090 <HAL_MspInit+0x3c>)
{
 8002056:	b082      	sub	sp, #8
  __HAL_RCC_AFIO_CLK_ENABLE();
 8002058:	699a      	ldr	r2, [r3, #24]
 800205a:	f042 0201 	orr.w	r2, r2, #1
 800205e:	619a      	str	r2, [r3, #24]
 8002060:	699a      	ldr	r2, [r3, #24]
 8002062:	f002 0201 	and.w	r2, r2, #1
 8002066:	9200      	str	r2, [sp, #0]
 8002068:	9a00      	ldr	r2, [sp, #0]
  __HAL_RCC_PWR_CLK_ENABLE();
 800206a:	69da      	ldr	r2, [r3, #28]
 800206c:	f042 5280 	orr.w	r2, r2, #268435456	@ 0x10000000
 8002070:	61da      	str	r2, [r3, #28]
 8002072:	69db      	ldr	r3, [r3, #28]

  /* System interrupt init*/

  /** NOJTAG: JTAG-DP Disabled and SW-DP Enabled
  */
  __HAL_AFIO_REMAP_SWJ_NOJTAG();
 8002074:	4a07      	ldr	r2, [pc, #28]	@ (8002094 <HAL_MspInit+0x40>)
  __HAL_RCC_PWR_CLK_ENABLE();
 8002076:	f003 5380 	and.w	r3, r3, #268435456	@ 0x10000000
 800207a:	9301      	str	r3, [sp, #4]
 800207c:	9b01      	ldr	r3, [sp, #4]
  __HAL_AFIO_REMAP_SWJ_NOJTAG();
 800207e:	6853      	ldr	r3, [r2, #4]
 8002080:	f023 63e0 	bic.w	r3, r3, #117440512	@ 0x7000000
 8002084:	f043 7300 	orr.w	r3, r3, #33554432	@ 0x2000000
 8002088:	6053      	str	r3, [r2, #4]

  /* USER CODE BEGIN MspInit 1 */

  /* USER CODE END MspInit 1 */
}
 800208a:	b002      	add	sp, #8
 800208c:	4770      	bx	lr
 800208e:	bf00      	nop
 8002090:	40021000 	.word	0x40021000
 8002094:	40010000 	.word	0x40010000

08002098 <HAL_ADC_MspInit>:
* @param hadc: ADC handle pointer
* @retval None
*/
void HAL_ADC_MspInit(ADC_HandleTypeDef* hadc)
{
  GPIO_InitTypeDef GPIO_InitStruct = {0};
 8002098:	2210      	movs	r2, #16
{
 800209a:	b530      	push	{r4, r5, lr}
 800209c:	4605      	mov	r5, r0
 800209e:	b089      	sub	sp, #36	@ 0x24
  GPIO_InitTypeDef GPIO_InitStruct = {0};
 80020a0:	eb0d 0002 	add.w	r0, sp, r2
 80020a4:	2100      	movs	r1, #0
 80020a6:	f003 fd9c 	bl	8005be2 <memset>
  if(hadc->Instance==ADC1)
 80020aa:	682a      	ldr	r2, [r5, #0]
 80020ac:	4b23      	ldr	r3, [pc, #140]	@ (800213c <HAL_ADC_MspInit+0xa4>)
 80020ae:	429a      	cmp	r2, r3
 80020b0:	d142      	bne.n	8002138 <HAL_ADC_MspInit+0xa0>
  {
  /* USER CODE BEGIN ADC1_MspInit 0 */

  /* USER CODE END ADC1_MspInit 0 */
    /* Peripheral clock enable */
    __HAL_RCC_ADC1_CLK_ENABLE();
 80020b2:	f503 436c 	add.w	r3, r3, #60416	@ 0xec00
 80020b6:	699a      	ldr	r2, [r3, #24]
    PA0-WKUP     ------> ADC1_IN0
    PB0     ------> ADC1_IN8
    PB1     ------> ADC1_IN9
    */
    GPIO_InitStruct.Pin = BAT_LVL_CTRL_Pin;
    GPIO_InitStruct.Mode = GPIO_MODE_ANALOG;
 80020b8:	2403      	movs	r4, #3
    __HAL_RCC_ADC1_CLK_ENABLE();
 80020ba:	f442 7200 	orr.w	r2, r2, #512	@ 0x200
 80020be:	619a      	str	r2, [r3, #24]
 80020c0:	699a      	ldr	r2, [r3, #24]
    HAL_GPIO_Init(BAT_LVL_CTRL_GPIO_Port, &GPIO_InitStruct);
 80020c2:	481f      	ldr	r0, [pc, #124]	@ (8002140 <HAL_ADC_MspInit+0xa8>)
    __HAL_RCC_ADC1_CLK_ENABLE();
 80020c4:	f402 7200 	and.w	r2, r2, #512	@ 0x200
 80020c8:	9201      	str	r2, [sp, #4]
 80020ca:	9a01      	ldr	r2, [sp, #4]
    __HAL_RCC_GPIOA_CLK_ENABLE();
 80020cc:	699a      	ldr	r2, [r3, #24]
    HAL_GPIO_Init(BAT_LVL_CTRL_GPIO_Port, &GPIO_InitStruct);
 80020ce:	a904      	add	r1, sp, #16
    __HAL_RCC_GPIOA_CLK_ENABLE();
 80020d0:	f042 0204 	orr.w	r2, r2, #4
 80020d4:	619a      	str	r2, [r3, #24]
 80020d6:	699a      	ldr	r2, [r3, #24]
 80020d8:	f002 0204 	and.w	r2, r2, #4
 80020dc:	9202      	str	r2, [sp, #8]
 80020de:	9a02      	ldr	r2, [sp, #8]
    __HAL_RCC_GPIOB_CLK_ENABLE();
 80020e0:	699a      	ldr	r2, [r3, #24]
 80020e2:	f042 0208 	orr.w	r2, r2, #8
 80020e6:	619a      	str	r2, [r3, #24]
 80020e8:	699b      	ldr	r3, [r3, #24]
 80020ea:	f003 0308 	and.w	r3, r3, #8
 80020ee:	9303      	str	r3, [sp, #12]
 80020f0:	9b03      	ldr	r3, [sp, #12]
    GPIO_InitStruct.Mode = GPIO_MODE_ANALOG;
 80020f2:	2301      	movs	r3, #1
 80020f4:	e9cd 3404 	strd	r3, r4, [sp, #16]
    HAL_GPIO_Init(BAT_LVL_CTRL_GPIO_Port, &GPIO_InitStruct);
 80020f8:	f002 f8d0 	bl	800429c <HAL_GPIO_Init>

    GPIO_InitStruct.Pin = JOYSTICK_OX_Pin|JOYSTICK_OY_Pin;
    GPIO_InitStruct.Mode = GPIO_MODE_ANALOG;
    HAL_GPIO_Init(GPIOB, &GPIO_InitStruct);
 80020fc:	4811      	ldr	r0, [pc, #68]	@ (8002144 <HAL_ADC_MspInit+0xac>)
 80020fe:	a904      	add	r1, sp, #16
    GPIO_InitStruct.Mode = GPIO_MODE_ANALOG;
 8002100:	e9cd 4404 	strd	r4, r4, [sp, #16]
    HAL_GPIO_Init(GPIOB, &GPIO_InitStruct);
 8002104:	f002 f8ca 	bl	800429c <HAL_GPIO_Init>

    /* ADC1 DMA Init */
    /* ADC1 Init */
    hdma_adc1.Instance = DMA1_Channel1;
    hdma_adc1.Init.Direction = DMA_PERIPH_TO_MEMORY;
 8002108:	2300      	movs	r3, #0
    hdma_adc1.Instance = DMA1_Channel1;
 800210a:	4c0f      	ldr	r4, [pc, #60]	@ (8002148 <HAL_ADC_MspInit+0xb0>)
    hdma_adc1.Init.Direction = DMA_PERIPH_TO_MEMORY;
 800210c:	4a0f      	ldr	r2, [pc, #60]	@ (800214c <HAL_ADC_MspInit+0xb4>)
    hdma_adc1.Init.PeriphInc = DMA_PINC_DISABLE;
    hdma_adc1.Init.MemInc = DMA_MINC_ENABLE;
    hdma_adc1.Init.PeriphDataAlignment = DMA_PDATAALIGN_HALFWORD;
 800210e:	2180      	movs	r1, #128	@ 0x80
    hdma_adc1.Init.Direction = DMA_PERIPH_TO_MEMORY;
 8002110:	e9c4 2300 	strd	r2, r3, [r4]
    hdma_adc1.Init.PeriphDataAlignment = DMA_PDATAALIGN_HALFWORD;
 8002114:	f44f 7280 	mov.w	r2, #256	@ 0x100
 8002118:	e9c4 1203 	strd	r1, r2, [r4, #12]
    hdma_adc1.Init.MemDataAlignment = DMA_MDATAALIGN_HALFWORD;
 800211c:	f44f 6280 	mov.w	r2, #1024	@ 0x400
    hdma_adc1.Init.Mode = DMA_NORMAL;
    hdma_adc1.Init.Priority = DMA_PRIORITY_LOW;
    if (HAL_DMA_Init(&hdma_adc1) != HAL_OK)
 8002120:	4620      	mov	r0, r4
    hdma_adc1.Init.Mode = DMA_NORMAL;
 8002122:	e9c4 2305 	strd	r2, r3, [r4, #20]
    hdma_adc1.Init.PeriphInc = DMA_PINC_DISABLE;
 8002126:	60a3      	str	r3, [r4, #8]
    hdma_adc1.Init.Priority = DMA_PRIORITY_LOW;
 8002128:	61e3      	str	r3, [r4, #28]
    if (HAL_DMA_Init(&hdma_adc1) != HAL_OK)
 800212a:	f001 ffb5 	bl	8004098 <HAL_DMA_Init>
 800212e:	b108      	cbz	r0, 8002134 <HAL_ADC_MspInit+0x9c>
    {
      Error_Handler();
 8002130:	f7ff f9bc 	bl	80014ac <Error_Handler>
    }

    __HAL_LINKDMA(hadc,DMA_Handle,hdma_adc1);
 8002134:	622c      	str	r4, [r5, #32]
 8002136:	6265      	str	r5, [r4, #36]	@ 0x24

  /* USER CODE END ADC1_MspInit 1 */

  }

}
 8002138:	b009      	add	sp, #36	@ 0x24
 800213a:	bd30      	pop	{r4, r5, pc}
 800213c:	40012400 	.word	0x40012400
 8002140:	40010800 	.word	0x40010800
 8002144:	40010c00 	.word	0x40010c00
 8002148:	20000668 	.word	0x20000668
 800214c:	40020008 	.word	0x40020008

08002150 <HAL_RTC_MspInit>:
* This function configures the hardware resources used in this example
* @param hrtc: RTC handle pointer
* @retval None
*/
void HAL_RTC_MspInit(RTC_HandleTypeDef* hrtc)
{
 8002150:	b507      	push	{r0, r1, r2, lr}
  if(hrtc->Instance==RTC)
 8002152:	4b0b      	ldr	r3, [pc, #44]	@ (8002180 <HAL_RTC_MspInit+0x30>)
 8002154:	6802      	ldr	r2, [r0, #0]
 8002156:	429a      	cmp	r2, r3
 8002158:	d10f      	bne.n	800217a <HAL_RTC_MspInit+0x2a>
  {
  /* USER CODE BEGIN RTC_MspInit 0 */

  /* USER CODE END RTC_MspInit 0 */
    HAL_PWR_EnableBkUpAccess();
 800215a:	f002 f983 	bl	8004464 <HAL_PWR_EnableBkUpAccess>
    /* Enable BKP CLK enable for backup registers */
    __HAL_RCC_BKP_CLK_ENABLE();
 800215e:	4b09      	ldr	r3, [pc, #36]	@ (8002184 <HAL_RTC_MspInit+0x34>)
 8002160:	69da      	ldr	r2, [r3, #28]
 8002162:	f042 6200 	orr.w	r2, r2, #134217728	@ 0x8000000
 8002166:	61da      	str	r2, [r3, #28]
    /* Peripheral clock enable */
    __HAL_RCC_RTC_ENABLE();
 8002168:	2201      	movs	r2, #1
    __HAL_RCC_BKP_CLK_ENABLE();
 800216a:	69db      	ldr	r3, [r3, #28]
 800216c:	f003 6300 	and.w	r3, r3, #134217728	@ 0x8000000
 8002170:	9301      	str	r3, [sp, #4]
 8002172:	9b01      	ldr	r3, [sp, #4]
    __HAL_RCC_RTC_ENABLE();
 8002174:	4b04      	ldr	r3, [pc, #16]	@ (8002188 <HAL_RTC_MspInit+0x38>)
 8002176:	f8c3 243c 	str.w	r2, [r3, #1084]	@ 0x43c

  /* USER CODE END RTC_MspInit 1 */

  }

}
 800217a:	b003      	add	sp, #12
 800217c:	f85d fb04 	ldr.w	pc, [sp], #4
 8002180:	40002800 	.word	0x40002800
 8002184:	40021000 	.word	0x40021000
 8002188:	42420000 	.word	0x42420000

0800218c <HAL_SPI_MspInit>:
* @param hspi: SPI handle pointer
* @retval None
*/
void HAL_SPI_MspInit(SPI_HandleTypeDef* hspi)
{
  GPIO_InitTypeDef GPIO_InitStruct = {0};
 800218c:	2210      	movs	r2, #16
{
 800218e:	b510      	push	{r4, lr}
 8002190:	4604      	mov	r4, r0
 8002192:	b088      	sub	sp, #32
  GPIO_InitTypeDef GPIO_InitStruct = {0};
 8002194:	eb0d 0002 	add.w	r0, sp, r2
 8002198:	2100      	movs	r1, #0
 800219a:	f003 fd22 	bl	8005be2 <memset>
  if(hspi->Instance==SPI1)
 800219e:	6823      	ldr	r3, [r4, #0]
 80021a0:	4a25      	ldr	r2, [pc, #148]	@ (8002238 <HAL_SPI_MspInit+0xac>)
 80021a2:	4293      	cmp	r3, r2
 80021a4:	d127      	bne.n	80021f6 <HAL_SPI_MspInit+0x6a>
  {
  /* USER CODE BEGIN SPI1_MspInit 0 */

  /* USER CODE END SPI1_MspInit 0 */
    /* Peripheral clock enable */
    __HAL_RCC_SPI1_CLK_ENABLE();
 80021a6:	4b25      	ldr	r3, [pc, #148]	@ (800223c <HAL_SPI_MspInit+0xb0>)
    PA5     ------> SPI1_SCK
    PA6     ------> SPI1_MISO
    PA7     ------> SPI1_MOSI
    */
    GPIO_InitStruct.Pin = GPIO_PIN_4|GPIO_PIN_5|GPIO_PIN_7;
    GPIO_InitStruct.Mode = GPIO_MODE_AF_PP;
 80021a8:	21b0      	movs	r1, #176	@ 0xb0
    __HAL_RCC_SPI1_CLK_ENABLE();
 80021aa:	699a      	ldr	r2, [r3, #24]
    GPIO_InitStruct.Speed = GPIO_SPEED_FREQ_HIGH;
    HAL_GPIO_Init(GPIOA, &GPIO_InitStruct);
 80021ac:	4824      	ldr	r0, [pc, #144]	@ (8002240 <HAL_SPI_MspInit+0xb4>)
    __HAL_RCC_SPI1_CLK_ENABLE();
 80021ae:	f442 5280 	orr.w	r2, r2, #4096	@ 0x1000
 80021b2:	619a      	str	r2, [r3, #24]
 80021b4:	699a      	ldr	r2, [r3, #24]
 80021b6:	f402 5280 	and.w	r2, r2, #4096	@ 0x1000
 80021ba:	9200      	str	r2, [sp, #0]
 80021bc:	9a00      	ldr	r2, [sp, #0]
    __HAL_RCC_GPIOA_CLK_ENABLE();
 80021be:	699a      	ldr	r2, [r3, #24]
 80021c0:	f042 0204 	orr.w	r2, r2, #4
 80021c4:	619a      	str	r2, [r3, #24]
 80021c6:	699b      	ldr	r3, [r3, #24]
 80021c8:	f003 0304 	and.w	r3, r3, #4
 80021cc:	9301      	str	r3, [sp, #4]
 80021ce:	9b01      	ldr	r3, [sp, #4]
    GPIO_InitStruct.Mode = GPIO_MODE_AF_PP;
 80021d0:	2302      	movs	r3, #2
 80021d2:	e9cd 1304 	strd	r1, r3, [sp, #16]
    GPIO_InitStruct.Speed = GPIO_SPEED_FREQ_HIGH;
 80021d6:	2303      	movs	r3, #3
    HAL_GPIO_Init(GPIOA, &GPIO_InitStruct);
 80021d8:	a904      	add	r1, sp, #16
    GPIO_InitStruct.Speed = GPIO_SPEED_FREQ_HIGH;
 80021da:	9307      	str	r3, [sp, #28]
    HAL_GPIO_Init(GPIOA, &GPIO_InitStruct);
 80021dc:	f002 f85e 	bl	800429c <HAL_GPIO_Init>

    GPIO_InitStruct.Pin = GPIO_PIN_6;
    GPIO_InitStruct.Mode = GPIO_MODE_INPUT;
 80021e0:	2040      	movs	r0, #64	@ 0x40
 80021e2:	2300      	movs	r3, #0
 80021e4:	e9cd 0304 	strd	r0, r3, [sp, #16]
    GPIO_InitStruct.Pull = GPIO_NOPULL;
    HAL_GPIO_Init(GPIOA, &GPIO_InitStruct);
 80021e8:	4815      	ldr	r0, [pc, #84]	@ (8002240 <HAL_SPI_MspInit+0xb4>)
    GPIO_InitStruct.Pull = GPIO_NOPULL;
 80021ea:	9306      	str	r3, [sp, #24]
    HAL_GPIO_Init(GPIOA, &GPIO_InitStruct);
 80021ec:	a904      	add	r1, sp, #16
    PB15     ------> SPI2_MOSI
    */
    GPIO_InitStruct.Pin = DISP_SPI_CS_Pin|DISP_SPI_SCK_Pin|DISP_SPI_MOSI_Pin;
    GPIO_InitStruct.Mode = GPIO_MODE_AF_PP;
    GPIO_InitStruct.Speed = GPIO_SPEED_FREQ_HIGH;
    HAL_GPIO_Init(GPIOB, &GPIO_InitStruct);
 80021ee:	f002 f855 	bl	800429c <HAL_GPIO_Init>
  /* USER CODE BEGIN SPI2_MspInit 1 */

  /* USER CODE END SPI2_MspInit 1 */
  }

}
 80021f2:	b008      	add	sp, #32
 80021f4:	bd10      	pop	{r4, pc}
  else if(hspi->Instance==SPI2)
 80021f6:	4a13      	ldr	r2, [pc, #76]	@ (8002244 <HAL_SPI_MspInit+0xb8>)
 80021f8:	4293      	cmp	r3, r2
 80021fa:	d1fa      	bne.n	80021f2 <HAL_SPI_MspInit+0x66>
    __HAL_RCC_SPI2_CLK_ENABLE();
 80021fc:	4b0f      	ldr	r3, [pc, #60]	@ (800223c <HAL_SPI_MspInit+0xb0>)
    HAL_GPIO_Init(GPIOB, &GPIO_InitStruct);
 80021fe:	4812      	ldr	r0, [pc, #72]	@ (8002248 <HAL_SPI_MspInit+0xbc>)
    __HAL_RCC_SPI2_CLK_ENABLE();
 8002200:	69da      	ldr	r2, [r3, #28]
    HAL_GPIO_Init(GPIOB, &GPIO_InitStruct);
 8002202:	a904      	add	r1, sp, #16
    __HAL_RCC_SPI2_CLK_ENABLE();
 8002204:	f442 4280 	orr.w	r2, r2, #16384	@ 0x4000
 8002208:	61da      	str	r2, [r3, #28]
 800220a:	69da      	ldr	r2, [r3, #28]
 800220c:	f402 4280 	and.w	r2, r2, #16384	@ 0x4000
 8002210:	9202      	str	r2, [sp, #8]
 8002212:	9a02      	ldr	r2, [sp, #8]
    __HAL_RCC_GPIOB_CLK_ENABLE();
 8002214:	699a      	ldr	r2, [r3, #24]
 8002216:	f042 0208 	orr.w	r2, r2, #8
 800221a:	619a      	str	r2, [r3, #24]
 800221c:	699b      	ldr	r3, [r3, #24]
    GPIO_InitStruct.Mode = GPIO_MODE_AF_PP;
 800221e:	f44f 4230 	mov.w	r2, #45056	@ 0xb000
    __HAL_RCC_GPIOB_CLK_ENABLE();
 8002222:	f003 0308 	and.w	r3, r3, #8
 8002226:	9303      	str	r3, [sp, #12]
 8002228:	9b03      	ldr	r3, [sp, #12]
    GPIO_InitStruct.Mode = GPIO_MODE_AF_PP;
 800222a:	2302      	movs	r3, #2
 800222c:	e9cd 2304 	strd	r2, r3, [sp, #16]
    GPIO_InitStruct.Speed = GPIO_SPEED_FREQ_HIGH;
 8002230:	2303      	movs	r3, #3
 8002232:	9307      	str	r3, [sp, #28]
    HAL_GPIO_Init(GPIOB, &GPIO_InitStruct);
 8002234:	e7db      	b.n	80021ee <HAL_SPI_MspInit+0x62>
 8002236:	bf00      	nop
 8002238:	40013000 	.word	0x40013000
 800223c:	40021000 	.word	0x40021000
 8002240:	40010800 	.word	0x40010800
 8002244:	40003800 	.word	0x40003800
 8002248:	40010c00 	.word	0x40010c00

0800224c <HAL_TIM_Base_MspInit>:
* @param htim_base: TIM_Base handle pointer
* @retval None
*/
void HAL_TIM_Base_MspInit(TIM_HandleTypeDef* htim_base)
{
  if(htim_base->Instance==TIM1)
 800224c:	6802      	ldr	r2, [r0, #0]
 800224e:	4b08      	ldr	r3, [pc, #32]	@ (8002270 <HAL_TIM_Base_MspInit+0x24>)
{
 8002250:	b082      	sub	sp, #8
  if(htim_base->Instance==TIM1)
 8002252:	429a      	cmp	r2, r3
 8002254:	d10a      	bne.n	800226c <HAL_TIM_Base_MspInit+0x20>
  {
  /* USER CODE BEGIN TIM1_MspInit 0 */

  /* USER CODE END TIM1_MspInit 0 */
    /* Peripheral clock enable */
    __HAL_RCC_TIM1_CLK_ENABLE();
 8002256:	f503 4364 	add.w	r3, r3, #58368	@ 0xe400
 800225a:	699a      	ldr	r2, [r3, #24]
 800225c:	f442 6200 	orr.w	r2, r2, #2048	@ 0x800
 8002260:	619a      	str	r2, [r3, #24]
 8002262:	699b      	ldr	r3, [r3, #24]
 8002264:	f403 6300 	and.w	r3, r3, #2048	@ 0x800
 8002268:	9301      	str	r3, [sp, #4]
 800226a:	9b01      	ldr	r3, [sp, #4]

  /* USER CODE END TIM1_MspInit 1 */

  }

}
 800226c:	b002      	add	sp, #8
 800226e:	4770      	bx	lr
 8002270:	40012c00 	.word	0x40012c00

08002274 <HAL_TIM_MspPostInit>:

void HAL_TIM_MspPostInit(TIM_HandleTypeDef* htim)
{
 8002274:	b510      	push	{r4, lr}
 8002276:	4604      	mov	r4, r0
 8002278:	b086      	sub	sp, #24
  GPIO_InitTypeDef GPIO_InitStruct = {0};
 800227a:	2210      	movs	r2, #16
 800227c:	2100      	movs	r1, #0
 800227e:	a802      	add	r0, sp, #8
 8002280:	f003 fcaf 	bl	8005be2 <memset>
  if(htim->Instance==TIM1)
 8002284:	6822      	ldr	r2, [r4, #0]
 8002286:	4b0d      	ldr	r3, [pc, #52]	@ (80022bc <HAL_TIM_MspPostInit+0x48>)
 8002288:	429a      	cmp	r2, r3
 800228a:	d114      	bne.n	80022b6 <HAL_TIM_MspPostInit+0x42>
  {
  /* USER CODE BEGIN TIM1_MspPostInit 0 */

  /* USER CODE END TIM1_MspPostInit 0 */

    __HAL_RCC_GPIOA_CLK_ENABLE();
 800228c:	f503 4364 	add.w	r3, r3, #58368	@ 0xe400
 8002290:	699a      	ldr	r2, [r3, #24]
    PA8     ------> TIM1_CH1
    */
    GPIO_InitStruct.Pin = GPIO_PIN_8;
    GPIO_InitStruct.Mode = GPIO_MODE_AF_PP;
    GPIO_InitStruct.Speed = GPIO_SPEED_FREQ_LOW;
    HAL_GPIO_Init(GPIOA, &GPIO_InitStruct);
 8002292:	480b      	ldr	r0, [pc, #44]	@ (80022c0 <HAL_TIM_MspPostInit+0x4c>)
    __HAL_RCC_GPIOA_CLK_ENABLE();
 8002294:	f042 0204 	orr.w	r2, r2, #4
 8002298:	619a      	str	r2, [r3, #24]
 800229a:	699b      	ldr	r3, [r3, #24]
    GPIO_InitStruct.Mode = GPIO_MODE_AF_PP;
 800229c:	f44f 7280 	mov.w	r2, #256	@ 0x100
    __HAL_RCC_GPIOA_CLK_ENABLE();
 80022a0:	f003 0304 	and.w	r3, r3, #4
 80022a4:	9301      	str	r3, [sp, #4]
 80022a6:	9b01      	ldr	r3, [sp, #4]
    GPIO_InitStruct.Mode = GPIO_MODE_AF_PP;
 80022a8:	2302      	movs	r3, #2
    HAL_GPIO_Init(GPIOA, &GPIO_InitStruct);
 80022aa:	a902      	add	r1, sp, #8
    GPIO_InitStruct.Mode = GPIO_MODE_AF_PP;
 80022ac:	e9cd 2302 	strd	r2, r3, [sp, #8]
    GPIO_InitStruct.Speed = GPIO_SPEED_FREQ_LOW;
 80022b0:	9305      	str	r3, [sp, #20]
    HAL_GPIO_Init(GPIOA, &GPIO_InitStruct);
 80022b2:	f001 fff3 	bl	800429c <HAL_GPIO_Init>
  /* USER CODE BEGIN TIM1_MspPostInit 1 */

  /* USER CODE END TIM1_MspPostInit 1 */
  }

}
 80022b6:	b006      	add	sp, #24
 80022b8:	bd10      	pop	{r4, pc}
 80022ba:	bf00      	nop
 80022bc:	40012c00 	.word	0x40012c00
 80022c0:	40010800 	.word	0x40010800

080022c4 <NMI_Handler>:
{
  /* USER CODE BEGIN NonMaskableInt_IRQn 0 */

  /* USER CODE END NonMaskableInt_IRQn 0 */
  /* USER CODE BEGIN NonMaskableInt_IRQn 1 */
  while (1)
 80022c4:	e7fe      	b.n	80022c4 <NMI_Handler>

080022c6 <HardFault_Handler>:
  {
    /* USER CODE BEGIN W1_HardFault_IRQn 0 */
  	return;
    /* USER CODE END W1_HardFault_IRQn 0 */
  }
}
 80022c6:	4770      	bx	lr

080022c8 <MemManage_Handler>:
void MemManage_Handler(void)
{
  /* USER CODE BEGIN MemoryManagement_IRQn 0 */

  /* USER CODE END MemoryManagement_IRQn 0 */
  while (1)
 80022c8:	e7fe      	b.n	80022c8 <MemManage_Handler>

080022ca <BusFault_Handler>:
void BusFault_Handler(void)
{
  /* USER CODE BEGIN BusFault_IRQn 0 */

  /* USER CODE END BusFault_IRQn 0 */
  while (1)
 80022ca:	e7fe      	b.n	80022ca <BusFault_Handler>

080022cc <UsageFault_Handler>:
void UsageFault_Handler(void)
{
  /* USER CODE BEGIN UsageFault_IRQn 0 */

  /* USER CODE END UsageFault_IRQn 0 */
  while (1)
 80022cc:	e7fe      	b.n	80022cc <UsageFault_Handler>

080022ce <SVC_Handler>:
}

/**
  * @brief This function handles System service call via SWI instruction.
  */
void SVC_Handler(void)
 80022ce:	4770      	bx	lr

080022d0 <DebugMon_Handler>:
}

/**
  * @brief This function handles Debug monitor.
  */
void DebugMon_Handler(void)
 80022d0:	4770      	bx	lr

080022d2 <PendSV_Handler>:
}

/**
  * @brief This function handles Pendable request for system service.
  */
void PendSV_Handler(void)
 80022d2:	4770      	bx	lr

080022d4 <SysTick_Handler>:
void SysTick_Handler(void)
{
  /* USER CODE BEGIN SysTick_IRQn 0 */

  /* USER CODE END SysTick_IRQn 0 */
  HAL_IncTick();
 80022d4:	f7ff b89e 	b.w	8001414 <HAL_IncTick>

080022d8 <DMA1_Channel1_IRQHandler>:
void DMA1_Channel1_IRQHandler(void)
{
  /* USER CODE BEGIN DMA1_Channel1_IRQn 0 */

  /* USER CODE END DMA1_Channel1_IRQn 0 */
  HAL_DMA_IRQHandler(&hdma_adc1);
 80022d8:	4801      	ldr	r0, [pc, #4]	@ (80022e0 <DMA1_Channel1_IRQHandler+0x8>)
 80022da:	f001 bf4b 	b.w	8004174 <HAL_DMA_IRQHandler>
 80022de:	bf00      	nop
 80022e0:	20000668 	.word	0x20000668

080022e4 <_getpid>:
}

int _getpid(void)
{
	return 1;
}
 80022e4:	2001      	movs	r0, #1
 80022e6:	4770      	bx	lr

080022e8 <_kill>:

int _kill(int pid, int sig)
{
 80022e8:	b508      	push	{r3, lr}
	errno = EINVAL;
 80022ea:	f003 fcc9 	bl	8005c80 <__errno>
 80022ee:	2316      	movs	r3, #22
 80022f0:	6003      	str	r3, [r0, #0]
	return -1;
}
 80022f2:	f04f 30ff 	mov.w	r0, #4294967295
 80022f6:	bd08      	pop	{r3, pc}

080022f8 <_exit>:

void _exit (int status)
{
 80022f8:	b508      	push	{r3, lr}
	errno = EINVAL;
 80022fa:	f003 fcc1 	bl	8005c80 <__errno>
 80022fe:	2316      	movs	r3, #22
 8002300:	6003      	str	r3, [r0, #0]
	_kill(status, -1);
	while (1) {}		/* Make sure we hang here */
 8002302:	e7fe      	b.n	8002302 <_exit+0xa>

08002304 <_read>:
}

__attribute__((weak)) int _read(int file, char *ptr, int len)
{
 8002304:	b570      	push	{r4, r5, r6, lr}
 8002306:	460d      	mov	r5, r1
 8002308:	4614      	mov	r4, r2
	int DataIdx;

	for (DataIdx = 0; DataIdx < len; DataIdx++)
 800230a:	460e      	mov	r6, r1
 800230c:	1b73      	subs	r3, r6, r5
 800230e:	429c      	cmp	r4, r3
 8002310:	dc01      	bgt.n	8002316 <_read+0x12>
	{
		*ptr++ = __io_getchar();
	}

return len;
}
 8002312:	4620      	mov	r0, r4
 8002314:	bd70      	pop	{r4, r5, r6, pc}
		*ptr++ = __io_getchar();
 8002316:	f3af 8000 	nop.w
 800231a:	f806 0b01 	strb.w	r0, [r6], #1
	for (DataIdx = 0; DataIdx < len; DataIdx++)
 800231e:	e7f5      	b.n	800230c <_read+0x8>

08002320 <_close>:
}

int _close(int file)
{
	return -1;
}
 8002320:	f04f 30ff 	mov.w	r0, #4294967295
 8002324:	4770      	bx	lr

08002326 <_fstat>:


int _fstat(int file, struct stat *st)
{
	st->st_mode = S_IFCHR;
 8002326:	f44f 5300 	mov.w	r3, #8192	@ 0x2000
	return 0;
}
 800232a:	2000      	movs	r0, #0
	st->st_mode = S_IFCHR;
 800232c:	604b      	str	r3, [r1, #4]
}
 800232e:	4770      	bx	lr

08002330 <_isatty>:

int _isatty(int file)
{
	return 1;
}
 8002330:	2001      	movs	r0, #1
 8002332:	4770      	bx	lr

08002334 <_lseek>:

int _lseek(int file, int ptr, int dir)
{
	return 0;
}
 8002334:	2000      	movs	r0, #0
 8002336:	4770      	bx	lr

08002338 <_sbrk>:
  const uint32_t stack_limit = (uint32_t)&_estack - (uint32_t)&_Min_Stack_Size;
  const uint8_t *max_heap = (uint8_t *)stack_limit;
  uint8_t *prev_heap_end;

  /* Initialize heap end at first call */
  if (NULL == __sbrk_heap_end)
 8002338:	4a0b      	ldr	r2, [pc, #44]	@ (8002368 <_sbrk+0x30>)
{
 800233a:	4603      	mov	r3, r0
  if (NULL == __sbrk_heap_end)
 800233c:	6811      	ldr	r1, [r2, #0]
{
 800233e:	b510      	push	{r4, lr}
  if (NULL == __sbrk_heap_end)
 8002340:	b909      	cbnz	r1, 8002346 <_sbrk+0xe>
  {
    __sbrk_heap_end = &_end;
 8002342:	490a      	ldr	r1, [pc, #40]	@ (800236c <_sbrk+0x34>)
 8002344:	6011      	str	r1, [r2, #0]
  }

  /* Protect heap from growing into the reserved MSP stack */
  if (__sbrk_heap_end + incr > max_heap)
 8002346:	6810      	ldr	r0, [r2, #0]
 8002348:	4909      	ldr	r1, [pc, #36]	@ (8002370 <_sbrk+0x38>)
 800234a:	4c0a      	ldr	r4, [pc, #40]	@ (8002374 <_sbrk+0x3c>)
 800234c:	4403      	add	r3, r0
 800234e:	1b09      	subs	r1, r1, r4
 8002350:	428b      	cmp	r3, r1
 8002352:	d906      	bls.n	8002362 <_sbrk+0x2a>
  {
    errno = ENOMEM;
 8002354:	f003 fc94 	bl	8005c80 <__errno>
 8002358:	230c      	movs	r3, #12
 800235a:	6003      	str	r3, [r0, #0]
    return (void *)-1;
 800235c:	f04f 30ff 	mov.w	r0, #4294967295

  prev_heap_end = __sbrk_heap_end;
  __sbrk_heap_end += incr;

  return (void *)prev_heap_end;
}
 8002360:	bd10      	pop	{r4, pc}
  __sbrk_heap_end += incr;
 8002362:	6013      	str	r3, [r2, #0]
  return (void *)prev_heap_end;
 8002364:	e7fc      	b.n	8002360 <_sbrk+0x28>
 8002366:	bf00      	nop
 8002368:	200008c0 	.word	0x200008c0
 800236c:	20000ba8 	.word	0x20000ba8
 8002370:	20005000 	.word	0x20005000
 8002374:	00000400 	.word	0x00000400

08002378 <SystemInit>:

  /* Configure the Vector Table location -------------------------------------*/
#if defined(USER_VECT_TAB_ADDRESS)
  SCB->VTOR = VECT_TAB_BASE_ADDRESS | VECT_TAB_OFFSET; /* Vector Table Relocation in Internal SRAM. */
#endif /* USER_VECT_TAB_ADDRESS */
}
 8002378:	4770      	bx	lr
	...

0800237c <energyregen>:
    }
  )
}

void energyregen(void) {
  if ((Gamer.energy < Gamer.energymax) && (Gamer.health > 0)) Gamer.energy++;
 800237c:	4b06      	ldr	r3, [pc, #24]	@ (8002398 <energyregen+0x1c>)
 800237e:	f993 2001 	ldrsb.w	r2, [r3, #1]
 8002382:	f993 1002 	ldrsb.w	r1, [r3, #2]
 8002386:	4291      	cmp	r1, r2
 8002388:	dd05      	ble.n	8002396 <energyregen+0x1a>
 800238a:	f993 1000 	ldrsb.w	r1, [r3]
 800238e:	2900      	cmp	r1, #0
 8002390:	bfc4      	itt	gt
 8002392:	3201      	addgt	r2, #1
 8002394:	705a      	strbgt	r2, [r3, #1]
}
 8002396:	4770      	bx	lr
 8002398:	20000a3c 	.word	0x20000a3c

0800239c <movbullet>:
      Bullet[i].cl += 2;
      if (Bullet[i].cl > 126 || Bullet[i].cl <= 0) {
        Bullet[i].state = 0;
        Bullet[i].cl = 0;
      }
      if(GameFlags.WinTheGame) Bullet[i].state = 0; 
 800239c:	2100      	movs	r1, #0
void movbullet(void) {
 800239e:	b530      	push	{r4, r5, lr}
      if(GameFlags.WinTheGame) Bullet[i].state = 0; 
 80023a0:	460c      	mov	r4, r1
 80023a2:	4b0c      	ldr	r3, [pc, #48]	@ (80023d4 <movbullet+0x38>)
 80023a4:	7818      	ldrb	r0, [r3, #0]
 80023a6:	4b0c      	ldr	r3, [pc, #48]	@ (80023d8 <movbullet+0x3c>)
 80023a8:	f000 0010 	and.w	r0, r0, #16
    if (Bullet[i].state) {
 80023ac:	781a      	ldrb	r2, [r3, #0]
 80023ae:	b152      	cbz	r2, 80023c6 <movbullet+0x2a>
      Bullet[i].cl += 2;
 80023b0:	789a      	ldrb	r2, [r3, #2]
 80023b2:	1c95      	adds	r5, r2, #2
      if (Bullet[i].cl > 126 || Bullet[i].cl <= 0) {
 80023b4:	3201      	adds	r2, #1
 80023b6:	b2d2      	uxtb	r2, r2
 80023b8:	2a7d      	cmp	r2, #125	@ 0x7d
      Bullet[i].cl += 2;
 80023ba:	709d      	strb	r5, [r3, #2]
        Bullet[i].state = 0;
 80023bc:	bf84      	itt	hi
 80023be:	701c      	strbhi	r4, [r3, #0]
        Bullet[i].cl = 0;
 80023c0:	709c      	strbhi	r4, [r3, #2]
      if(GameFlags.WinTheGame) Bullet[i].state = 0; 
 80023c2:	b100      	cbz	r0, 80023c6 <movbullet+0x2a>
 80023c4:	701c      	strb	r4, [r3, #0]
  for (uint8 i = 0; i < BULLET_MAX; i++) {
 80023c6:	3101      	adds	r1, #1
 80023c8:	2919      	cmp	r1, #25
 80023ca:	f103 0303 	add.w	r3, r3, #3
 80023ce:	d1ed      	bne.n	80023ac <movbullet+0x10>
    }
  }
}
 80023d0:	bd30      	pop	{r4, r5, pc}
 80023d2:	bf00      	nop
 80023d4:	200008d4 	.word	0x200008d4
 80023d8:	200009f0 	.word	0x200009f0

080023dc <statehandler_gamesave>:
  if(gameevent == EVENT_SELPOS_3) coursorpos = COURS_POS_1; // coursor position when returning to the pause menu in "SAVE"
}

void statehandler_gamesave(void)
{
  gameevent = EVENT_NONE;
 80023dc:	2200      	movs	r2, #0
 80023de:	4b01      	ldr	r3, [pc, #4]	@ (80023e4 <statehandler_gamesave+0x8>)
 80023e0:	701a      	strb	r2, [r3, #0]
}
 80023e2:	4770      	bx	lr
 80023e4:	200008d0 	.word	0x200008d0

080023e8 <magaz_buybomb>:

//------------------magazin buygoods functions----------------------
void magaz_buybomb(void)
{
  if(Gamer.money >= BOMB_MONEY_COST && Gamer.bombs < 99){
 80023e8:	4b07      	ldr	r3, [pc, #28]	@ (8002408 <magaz_buybomb+0x20>)
 80023ea:	6899      	ldr	r1, [r3, #8]
 80023ec:	2904      	cmp	r1, #4
 80023ee:	d906      	bls.n	80023fe <magaz_buybomb+0x16>
 80023f0:	791a      	ldrb	r2, [r3, #4]
 80023f2:	2a62      	cmp	r2, #98	@ 0x62
    Gamer.money -= BOMB_MONEY_COST;
 80023f4:	bf9f      	itttt	ls
 80023f6:	3905      	subls	r1, #5
    Gamer.bombs++;
 80023f8:	3201      	addls	r2, #1
    Gamer.money -= BOMB_MONEY_COST;
 80023fa:	6099      	strls	r1, [r3, #8]
    Gamer.bombs++;
 80023fc:	711a      	strbls	r2, [r3, #4]
  }
  gameevent = EVENT_NONE;
 80023fe:	2200      	movs	r2, #0
 8002400:	4b02      	ldr	r3, [pc, #8]	@ (800240c <magaz_buybomb+0x24>)
 8002402:	701a      	strb	r2, [r3, #0]
}
 8002404:	4770      	bx	lr
 8002406:	bf00      	nop
 8002408:	20000a3c 	.word	0x20000a3c
 800240c:	200008d0 	.word	0x200008d0

08002410 <magaz_buygasmask>:
void magaz_buygasmask(void)
{
  if(Gamer.money >= GASMASK_MONEY_COST && Gamer.gasmask_health <= 0){
 8002410:	4b07      	ldr	r3, [pc, #28]	@ (8002430 <magaz_buygasmask+0x20>)
 8002412:	689a      	ldr	r2, [r3, #8]
 8002414:	2a0e      	cmp	r2, #14
 8002416:	d907      	bls.n	8002428 <magaz_buygasmask+0x18>
 8002418:	f993 1003 	ldrsb.w	r1, [r3, #3]
 800241c:	2900      	cmp	r1, #0
    Gamer.money -= GASMASK_MONEY_COST;
 800241e:	bfdf      	itttt	le
 8002420:	3a0f      	suble	r2, #15
 8002422:	609a      	strle	r2, [r3, #8]
    Gamer.gasmask_health = 12;
 8002424:	220c      	movle	r2, #12
 8002426:	70da      	strble	r2, [r3, #3]
  }
  gameevent = EVENT_NONE;
 8002428:	2200      	movs	r2, #0
 800242a:	4b02      	ldr	r3, [pc, #8]	@ (8002434 <magaz_buygasmask+0x24>)
 800242c:	701a      	strb	r2, [r3, #0]
}
 800242e:	4770      	bx	lr
 8002430:	20000a3c 	.word	0x20000a3c
 8002434:	200008d0 	.word	0x200008d0

08002438 <magaz_buyenergy>:
void magaz_buyenergy(void)
{
  if(Gamer.money >= BATTERY_MONEY_COST && Gamer.energymax < GAMER_ENERGY_MAX){
 8002438:	4a0b      	ldr	r2, [pc, #44]	@ (8002468 <magaz_buyenergy+0x30>)
 800243a:	6891      	ldr	r1, [r2, #8]
 800243c:	2931      	cmp	r1, #49	@ 0x31
 800243e:	d90f      	bls.n	8002460 <magaz_buyenergy+0x28>
 8002440:	f992 3002 	ldrsb.w	r3, [r2, #2]
 8002444:	2b17      	cmp	r3, #23
 8002446:	dc0b      	bgt.n	8002460 <magaz_buyenergy+0x28>
    Gamer.money -= BATTERY_MONEY_COST;
    Gamer.energymax += BATTERY_ENERGY_BUST;
 8002448:	3304      	adds	r3, #4
 800244a:	b25b      	sxtb	r3, r3
    Gamer.energy = Gamer.energymax;
    if(Gamer.energymax > GAMER_ENERGY_MAX) Gamer.energymax = GAMER_ENERGY_MAX;
 800244c:	2b18      	cmp	r3, #24
    Gamer.energymax += BATTERY_ENERGY_BUST;
 800244e:	7093      	strb	r3, [r2, #2]
    Gamer.energy = Gamer.energymax;
 8002450:	7053      	strb	r3, [r2, #1]
    if(Gamer.energymax > GAMER_ENERGY_MAX) Gamer.energymax = GAMER_ENERGY_MAX;
 8002452:	bfc8      	it	gt
 8002454:	2318      	movgt	r3, #24
    Gamer.money -= BATTERY_MONEY_COST;
 8002456:	f1a1 0132 	sub.w	r1, r1, #50	@ 0x32
 800245a:	6091      	str	r1, [r2, #8]
    if(Gamer.energymax > GAMER_ENERGY_MAX) Gamer.energymax = GAMER_ENERGY_MAX;
 800245c:	bfc8      	it	gt
 800245e:	7093      	strbgt	r3, [r2, #2]
  }
  gameevent = EVENT_NONE;
 8002460:	2200      	movs	r2, #0
 8002462:	4b02      	ldr	r3, [pc, #8]	@ (800246c <magaz_buyenergy+0x34>)
 8002464:	701a      	strb	r2, [r3, #0]
}
 8002466:	4770      	bx	lr
 8002468:	20000a3c 	.word	0x20000a3c
 800246c:	200008d0 	.word	0x200008d0

08002470 <magaz_buyhealth>:
void magaz_buyhealth(void)
{
  if(Gamer.money >= HEALTH_MONEY_COST && Gamer.health < GAMER_HEALTH_MAX){
 8002470:	4a09      	ldr	r2, [pc, #36]	@ (8002498 <magaz_buyhealth+0x28>)
 8002472:	6891      	ldr	r1, [r2, #8]
 8002474:	2904      	cmp	r1, #4
 8002476:	d90b      	bls.n	8002490 <magaz_buyhealth+0x20>
 8002478:	f992 3000 	ldrsb.w	r3, [r2]
 800247c:	2b17      	cmp	r3, #23
 800247e:	dc07      	bgt.n	8002490 <magaz_buyhealth+0x20>
    Gamer.money -= HEALTH_MONEY_COST;
    Gamer.health += HEALTH_REGEN; 
 8002480:	3304      	adds	r3, #4
 8002482:	b25b      	sxtb	r3, r3
    if(Gamer.health > GAMER_HEALTH_MAX) Gamer.health = GAMER_HEALTH_MAX;
 8002484:	2b18      	cmp	r3, #24
 8002486:	bfc8      	it	gt
 8002488:	2318      	movgt	r3, #24
    Gamer.money -= HEALTH_MONEY_COST;
 800248a:	3905      	subs	r1, #5
 800248c:	6091      	str	r1, [r2, #8]
    if(Gamer.health > GAMER_HEALTH_MAX) Gamer.health = GAMER_HEALTH_MAX;
 800248e:	7013      	strb	r3, [r2, #0]
  }
  gameevent = EVENT_NONE;
 8002490:	2200      	movs	r2, #0
 8002492:	4b02      	ldr	r3, [pc, #8]	@ (800249c <magaz_buyhealth+0x2c>)
 8002494:	701a      	strb	r2, [r3, #0]
}
 8002496:	4770      	bx	lr
 8002498:	20000a3c 	.word	0x20000a3c
 800249c:	200008d0 	.word	0x200008d0

080024a0 <gamestatesprocess>:
  screenupdate();
}

void gamestatesprocess(void)
{
  gamestate_transition_table[gamestate][gameevent]();
 80024a0:	210a      	movs	r1, #10
 80024a2:	4b05      	ldr	r3, [pc, #20]	@ (80024b8 <gamestatesprocess+0x18>)
 80024a4:	781a      	ldrb	r2, [r3, #0]
 80024a6:	4b05      	ldr	r3, [pc, #20]	@ (80024bc <gamestatesprocess+0x1c>)
 80024a8:	781b      	ldrb	r3, [r3, #0]
 80024aa:	fb01 3302 	mla	r3, r1, r2, r3
 80024ae:	4a04      	ldr	r2, [pc, #16]	@ (80024c0 <gamestatesprocess+0x20>)
 80024b0:	f852 3023 	ldr.w	r3, [r2, r3, lsl #2]
 80024b4:	4718      	bx	r3
 80024b6:	bf00      	nop
 80024b8:	200008d2 	.word	0x200008d2
 80024bc:	200008d0 	.word	0x200008d0
 80024c0:	080075e8 	.word	0x080075e8

080024c4 <createevilstar>:
  for(int i = 0; i < EVILSTAR_MAX; i++) {
 80024c4:	2300      	movs	r3, #0
void createevilstar(void) {
 80024c6:	b510      	push	{r4, lr}
    if (!EvilStar[i].state) {
 80024c8:	4a0c      	ldr	r2, [pc, #48]	@ (80024fc <createevilstar+0x38>)
 80024ca:	f812 1023 	ldrb.w	r1, [r2, r3, lsl #2]
 80024ce:	eb02 0483 	add.w	r4, r2, r3, lsl #2
 80024d2:	b971      	cbnz	r1, 80024f2 <createevilstar+0x2e>
      EvilStar[i].state = 1;
 80024d4:	2101      	movs	r1, #1
 80024d6:	f802 1023 	strb.w	r1, [r2, r3, lsl #2]
      TotalStars++;
 80024da:	4a09      	ldr	r2, [pc, #36]	@ (8002500 <createevilstar+0x3c>)
      EvilStar[i].ln = (int8)getrand(40) + 8;
 80024dc:	2028      	movs	r0, #40	@ 0x28
      TotalStars++;
 80024de:	6813      	ldr	r3, [r2, #0]
 80024e0:	440b      	add	r3, r1
 80024e2:	6013      	str	r3, [r2, #0]
      EvilStar[i].cl = 127;
 80024e4:	237f      	movs	r3, #127	@ 0x7f
 80024e6:	70a3      	strb	r3, [r4, #2]
      EvilStar[i].ln = (int8)getrand(40) + 8;
 80024e8:	f7fd fe36 	bl	8000158 <getrand>
 80024ec:	3008      	adds	r0, #8
 80024ee:	7060      	strb	r0, [r4, #1]
}
 80024f0:	bd10      	pop	{r4, pc}
  for(int i = 0; i < EVILSTAR_MAX; i++) {
 80024f2:	3301      	adds	r3, #1
 80024f4:	2b0f      	cmp	r3, #15
 80024f6:	d1e8      	bne.n	80024ca <createevilstar+0x6>
 80024f8:	e7fa      	b.n	80024f0 <createevilstar+0x2c>
 80024fa:	bf00      	nop
 80024fc:	20000961 	.word	0x20000961
 8002500:	200008e4 	.word	0x200008e4

08002504 <stateinit_gameexit>:
  CFlags.MenuFl = 1;
 8002504:	4a04      	ldr	r2, [pc, #16]	@ (8002518 <stateinit_gameexit+0x14>)
 8002506:	7813      	ldrb	r3, [r2, #0]
 8002508:	f023 0303 	bic.w	r3, r3, #3
 800250c:	f043 0301 	orr.w	r3, r3, #1
 8002510:	7013      	strb	r3, [r2, #0]
  SchedRemoveAllEvents();
 8002512:	f7ff bd09 	b.w	8001f28 <SchedRemoveAllEvents>
 8002516:	bf00      	nop
 8002518:	20000010 	.word	0x20000010

0800251c <system_events_period50ms>:
  check_btn_jstk();
 800251c:	f7fe b902 	b.w	8000724 <check_btn_jstk>

08002520 <createbullet>:
  IF_BTN_B2_PRESS(
 8002520:	4a15      	ldr	r2, [pc, #84]	@ (8002578 <createbullet+0x58>)
void createbullet(void) {
 8002522:	b470      	push	{r4, r5, r6}
  IF_BTN_B2_PRESS(
 8002524:	6913      	ldr	r3, [r2, #16]
 8002526:	f013 2fff 	tst.w	r3, #4278255360	@ 0xff00ff00
 800252a:	d101      	bne.n	8002530 <createbullet+0x10>
 800252c:	7d13      	ldrb	r3, [r2, #20]
 800252e:	b30b      	cbz	r3, 8002574 <createbullet+0x54>
 8002530:	2300      	movs	r3, #0
 8002532:	7453      	strb	r3, [r2, #17]
 8002534:	4a11      	ldr	r2, [pc, #68]	@ (800257c <createbullet+0x5c>)
 8002536:	f992 1000 	ldrsb.w	r1, [r2]
 800253a:	4299      	cmp	r1, r3
 800253c:	dd1a      	ble.n	8002574 <createbullet+0x54>
 800253e:	f992 1001 	ldrsb.w	r1, [r2, #1]
 8002542:	2901      	cmp	r1, #1
 8002544:	dd16      	ble.n	8002574 <createbullet+0x54>
 8002546:	480e      	ldr	r0, [pc, #56]	@ (8002580 <createbullet+0x60>)
 8002548:	eb03 0443 	add.w	r4, r3, r3, lsl #1
 800254c:	5d06      	ldrb	r6, [r0, r4]
 800254e:	1825      	adds	r5, r4, r0
 8002550:	b96e      	cbnz	r6, 800256e <createbullet+0x4e>
 8002552:	2301      	movs	r3, #1
 8002554:	5503      	strb	r3, [r0, r4]
 8002556:	7b13      	ldrb	r3, [r2, #12]
 8002558:	3902      	subs	r1, #2
 800255a:	706b      	strb	r3, [r5, #1]
 800255c:	7b53      	ldrb	r3, [r2, #13]
 800255e:	7051      	strb	r1, [r2, #1]
 8002560:	3318      	adds	r3, #24
 8002562:	70ab      	strb	r3, [r5, #2]
 8002564:	f44f 70c8 	mov.w	r0, #400	@ 0x190
}
 8002568:	bc70      	pop	{r4, r5, r6}
  IF_BTN_B2_PRESS(
 800256a:	f7fd bf43 	b.w	80003f4 <Sounds>
 800256e:	3301      	adds	r3, #1
 8002570:	2b19      	cmp	r3, #25
 8002572:	d1e9      	bne.n	8002548 <createbullet+0x28>
}
 8002574:	bc70      	pop	{r4, r5, r6}
 8002576:	4770      	bx	lr
 8002578:	2000011c 	.word	0x2000011c
 800257c:	20000a3c 	.word	0x20000a3c
 8002580:	200009f0 	.word	0x200009f0

08002584 <createbomb>:
  IF_BTN_B1_PRESS(
 8002584:	4a15      	ldr	r2, [pc, #84]	@ (80025dc <createbomb+0x58>)
void createbomb(void) {
 8002586:	b430      	push	{r4, r5}
  IF_BTN_B1_PRESS(
 8002588:	6913      	ldr	r3, [r2, #16]
 800258a:	f013 2fff 	tst.w	r3, #4278255360	@ 0xff00ff00
 800258e:	d101      	bne.n	8002594 <createbomb+0x10>
 8002590:	7d13      	ldrb	r3, [r2, #20]
 8002592:	b303      	cbz	r3, 80025d6 <createbomb+0x52>
 8002594:	2300      	movs	r3, #0
 8002596:	7453      	strb	r3, [r2, #17]
 8002598:	4a11      	ldr	r2, [pc, #68]	@ (80025e0 <createbomb+0x5c>)
 800259a:	f992 1000 	ldrsb.w	r1, [r2]
 800259e:	4299      	cmp	r1, r3
 80025a0:	dd19      	ble.n	80025d6 <createbomb+0x52>
 80025a2:	7911      	ldrb	r1, [r2, #4]
 80025a4:	b1b9      	cbz	r1, 80025d6 <createbomb+0x52>
 80025a6:	480f      	ldr	r0, [pc, #60]	@ (80025e4 <createbomb+0x60>)
 80025a8:	f810 5033 	ldrb.w	r5, [r0, r3, lsl #3]
 80025ac:	eb00 04c3 	add.w	r4, r0, r3, lsl #3
 80025b0:	b975      	cbnz	r5, 80025d0 <createbomb+0x4c>
 80025b2:	3901      	subs	r1, #1
 80025b4:	7111      	strb	r1, [r2, #4]
 80025b6:	2101      	movs	r1, #1
 80025b8:	f800 1033 	strb.w	r1, [r0, r3, lsl #3]
 80025bc:	7b13      	ldrb	r3, [r2, #12]
 80025be:	f44f 707a 	mov.w	r0, #1000	@ 0x3e8
 80025c2:	7063      	strb	r3, [r4, #1]
 80025c4:	7b53      	ldrb	r3, [r2, #13]
 80025c6:	3318      	adds	r3, #24
 80025c8:	70a3      	strb	r3, [r4, #2]
}
 80025ca:	bc30      	pop	{r4, r5}
  IF_BTN_B1_PRESS(
 80025cc:	f7fd bf12 	b.w	80003f4 <Sounds>
 80025d0:	3301      	adds	r3, #1
 80025d2:	2b0a      	cmp	r3, #10
 80025d4:	d1e8      	bne.n	80025a8 <createbomb+0x24>
}
 80025d6:	bc30      	pop	{r4, r5}
 80025d8:	4770      	bx	lr
 80025da:	bf00      	nop
 80025dc:	20000134 	.word	0x20000134
 80025e0:	20000a3c 	.word	0x20000a3c
 80025e4:	200009a0 	.word	0x200009a0

080025e8 <gameprogress>:
{
 80025e8:	b510      	push	{r4, lr}
  if(Gamer.health > 0)
 80025ea:	4b1d      	ldr	r3, [pc, #116]	@ (8002660 <gameprogress+0x78>)
 80025ec:	f993 3000 	ldrsb.w	r3, [r3]
 80025f0:	2b00      	cmp	r3, #0
 80025f2:	dd28      	ble.n	8002646 <gameprogress+0x5e>
    if(counter == GAME_PROGRESS_PERIOD_CALLS)
 80025f4:	4c1b      	ldr	r4, [pc, #108]	@ (8002664 <gameprogress+0x7c>)
 80025f6:	7823      	ldrb	r3, [r4, #0]
 80025f8:	2b14      	cmp	r3, #20
 80025fa:	4b1b      	ldr	r3, [pc, #108]	@ (8002668 <gameprogress+0x80>)
 80025fc:	d104      	bne.n	8002608 <gameprogress+0x20>
      Game.level_progress++;
 80025fe:	785a      	ldrb	r2, [r3, #1]
 8002600:	3201      	adds	r2, #1
 8002602:	705a      	strb	r2, [r3, #1]
      counter = 0;
 8002604:	2200      	movs	r2, #0
 8002606:	7022      	strb	r2, [r4, #0]
    if((Game.level_progress % 35 == 0) && counter == 0 && Game.level_progress){
 8002608:	2123      	movs	r1, #35	@ 0x23
 800260a:	785a      	ldrb	r2, [r3, #1]
 800260c:	fbb2 f3f1 	udiv	r3, r2, r1
 8002610:	fb01 2313 	mls	r3, r1, r3, r2
 8002614:	7821      	ldrb	r1, [r4, #0]
 8002616:	430b      	orrs	r3, r1
 8002618:	b2db      	uxtb	r3, r3
 800261a:	b98b      	cbnz	r3, 8002640 <gameprogress+0x58>
 800261c:	b182      	cbz	r2, 8002640 <gameprogress+0x58>
	  PRD_EVILSTAR_CREATE -= 100;
 800261e:	4a13      	ldr	r2, [pc, #76]	@ (800266c <gameprogress+0x84>)
	  PRD_ENEMY_MOVE -= 1;
 8002620:	4913      	ldr	r1, [pc, #76]	@ (8002670 <gameprogress+0x88>)
	  PRD_EVILSTAR_CREATE -= 100;
 8002622:	6813      	ldr	r3, [r2, #0]
 8002624:	3b64      	subs	r3, #100	@ 0x64
 8002626:	6013      	str	r3, [r2, #0]
	  PRD_ENEMY_MOVE -= 1;
 8002628:	780a      	ldrb	r2, [r1, #0]
	  if(PRD_EVILSTAR_CREATE < 500) GameFlags.WinTheGame = 1;
 800262a:	f5b3 7ffa 	cmp.w	r3, #500	@ 0x1f4
	  PRD_ENEMY_MOVE -= 1;
 800262e:	f102 32ff 	add.w	r2, r2, #4294967295
 8002632:	700a      	strb	r2, [r1, #0]
	  if(PRD_EVILSTAR_CREATE < 500) GameFlags.WinTheGame = 1;
 8002634:	d208      	bcs.n	8002648 <gameprogress+0x60>
 8002636:	4a0f      	ldr	r2, [pc, #60]	@ (8002674 <gameprogress+0x8c>)
 8002638:	7813      	ldrb	r3, [r2, #0]
 800263a:	f043 0310 	orr.w	r3, r3, #16
 800263e:	7013      	strb	r3, [r2, #0]
    counter++;
 8002640:	7823      	ldrb	r3, [r4, #0]
 8002642:	3301      	adds	r3, #1
 8002644:	7023      	strb	r3, [r4, #0]
}
 8002646:	bd10      	pop	{r4, pc}
		MinMagaz.state = 1;
 8002648:	2201      	movs	r2, #1
 800264a:	4b0b      	ldr	r3, [pc, #44]	@ (8002678 <gameprogress+0x90>)
		SchedPauseEvent(createevilstar);
 800264c:	480b      	ldr	r0, [pc, #44]	@ (800267c <gameprogress+0x94>)
		MinMagaz.state = 1;
 800264e:	701a      	strb	r2, [r3, #0]
		MinMagaz.cl = 127;
 8002650:	227f      	movs	r2, #127	@ 0x7f
 8002652:	709a      	strb	r2, [r3, #2]
		SchedPauseEvent(createevilstar);
 8002654:	f7ff fcbe 	bl	8001fd4 <SchedPauseEvent>
		SchedPauseEvent(gameprogress);
 8002658:	4809      	ldr	r0, [pc, #36]	@ (8002680 <gameprogress+0x98>)
 800265a:	f7ff fcbb 	bl	8001fd4 <SchedPauseEvent>
 800265e:	e7ef      	b.n	8002640 <gameprogress+0x58>
 8002660:	20000a3c 	.word	0x20000a3c
 8002664:	200008cc 	.word	0x200008cc
 8002668:	20000a4c 	.word	0x20000a4c
 800266c:	2000004c 	.word	0x2000004c
 8002670:	20000048 	.word	0x20000048
 8002674:	200008d4 	.word	0x200008d4
 8002678:	20000050 	.word	0x20000050
 800267c:	080024c5 	.word	0x080024c5
 8002680:	080025e9 	.word	0x080025e9

08002684 <createcoin>:
  for(int i = 0; i < COIN_MAX; i++) {
 8002684:	2300      	movs	r3, #0
void createcoin(tEvilStar* Evil_Star) {
 8002686:	b510      	push	{r4, lr}
    if (!Coin[i].state) {
 8002688:	4a0b      	ldr	r2, [pc, #44]	@ (80026b8 <createcoin+0x34>)
 800268a:	f812 4023 	ldrb.w	r4, [r2, r3, lsl #2]
 800268e:	eb02 0183 	add.w	r1, r2, r3, lsl #2
 8002692:	b96c      	cbnz	r4, 80026b0 <createcoin+0x2c>
      Coin[i].state = 1;
 8002694:	2401      	movs	r4, #1
 8002696:	f802 4023 	strb.w	r4, [r2, r3, lsl #2]
      TotalCoins++;
 800269a:	4a08      	ldr	r2, [pc, #32]	@ (80026bc <createcoin+0x38>)
 800269c:	6813      	ldr	r3, [r2, #0]
 800269e:	4423      	add	r3, r4
 80026a0:	6013      	str	r3, [r2, #0]
      Coin[i].cl = Evil_Star->cl;
 80026a2:	7883      	ldrb	r3, [r0, #2]
 80026a4:	708b      	strb	r3, [r1, #2]
      Coin[i].ln = Evil_Star->ln;
 80026a6:	7843      	ldrb	r3, [r0, #1]
 80026a8:	704b      	strb	r3, [r1, #1]
      Coin[i].animation_count = COIN_ANIMATION_PERIOD;
 80026aa:	230a      	movs	r3, #10
 80026ac:	70cb      	strb	r3, [r1, #3]
}
 80026ae:	bd10      	pop	{r4, pc}
  for(int i = 0; i < COIN_MAX; i++) {
 80026b0:	3301      	adds	r3, #1
 80026b2:	2b0f      	cmp	r3, #15
 80026b4:	d1e9      	bne.n	800268a <createcoin+0x6>
 80026b6:	e7fa      	b.n	80026ae <createcoin+0x2a>
 80026b8:	20000925 	.word	0x20000925
 80026bc:	200008e0 	.word	0x200008e0

080026c0 <movgamer>:
  if(Gamer.health > 0)
 80026c0:	4b3f      	ldr	r3, [pc, #252]	@ (80027c0 <movgamer+0x100>)
 80026c2:	f993 2000 	ldrsb.w	r2, [r3]
 80026c6:	2a00      	cmp	r2, #0
 80026c8:	dd5a      	ble.n	8002780 <movgamer+0xc0>
    if (joystick.oy > 140 && joystick.oy <= 210){Gamer.ln -= 1; if(Gamer.ln < 8) Gamer.ln = 8;}
 80026ca:	493e      	ldr	r1, [pc, #248]	@ (80027c4 <movgamer+0x104>)
 80026cc:	7888      	ldrb	r0, [r1, #2]
 80026ce:	f100 0273 	add.w	r2, r0, #115	@ 0x73
 80026d2:	b2d2      	uxtb	r2, r2
 80026d4:	2a45      	cmp	r2, #69	@ 0x45
 80026d6:	d80b      	bhi.n	80026f0 <movgamer+0x30>
 80026d8:	7b1a      	ldrb	r2, [r3, #12]
 80026da:	3a01      	subs	r2, #1
 80026dc:	b252      	sxtb	r2, r2
 80026de:	2a08      	cmp	r2, #8
 80026e0:	bfb8      	it	lt
 80026e2:	2208      	movlt	r2, #8
 80026e4:	731a      	strb	r2, [r3, #12]
    if (joystick.oy < 10){Gamer.ln += 5; if(Gamer.ln > 48)Gamer.ln = 48;}
 80026e6:	2809      	cmp	r0, #9
 80026e8:	d859      	bhi.n	800279e <movgamer+0xde>
 80026ea:	7b1a      	ldrb	r2, [r3, #12]
 80026ec:	3205      	adds	r2, #5
 80026ee:	e052      	b.n	8002796 <movgamer+0xd6>
    if (joystick.oy > 210 && joystick.oy <= 250){Gamer.ln -= 2;if(Gamer.ln < 8) Gamer.ln = 8;}
 80026f0:	f100 022d 	add.w	r2, r0, #45	@ 0x2d
 80026f4:	b2d2      	uxtb	r2, r2
 80026f6:	2a27      	cmp	r2, #39	@ 0x27
 80026f8:	d807      	bhi.n	800270a <movgamer+0x4a>
 80026fa:	7b1a      	ldrb	r2, [r3, #12]
 80026fc:	3a02      	subs	r2, #2
    if (joystick.oy > 250){Gamer.ln -= 5; if(Gamer.ln < 8)Gamer.ln = 8;}
 80026fe:	b252      	sxtb	r2, r2
 8002700:	2a08      	cmp	r2, #8
 8002702:	bfb8      	it	lt
 8002704:	2208      	movlt	r2, #8
    if (joystick.oy < 120 && joystick.oy >= 50){Gamer.ln += 1; if(Gamer.ln > 48)Gamer.ln = 48;}
 8002706:	731a      	strb	r2, [r3, #12]
    if (joystick.oy < 10){Gamer.ln += 5; if(Gamer.ln > 48)Gamer.ln = 48;}
 8002708:	e049      	b.n	800279e <movgamer+0xde>
    if (joystick.oy > 250){Gamer.ln -= 5; if(Gamer.ln < 8)Gamer.ln = 8;}
 800270a:	28fa      	cmp	r0, #250	@ 0xfa
 800270c:	d939      	bls.n	8002782 <movgamer+0xc2>
 800270e:	7b1a      	ldrb	r2, [r3, #12]
 8002710:	3a05      	subs	r2, #5
 8002712:	e7f4      	b.n	80026fe <movgamer+0x3e>
    if (joystick.oy < 120 && joystick.oy >= 50){Gamer.ln += 1; if(Gamer.ln > 48)Gamer.ln = 48;}
 8002714:	7b1a      	ldrb	r2, [r3, #12]
 8002716:	3201      	adds	r2, #1
 8002718:	b252      	sxtb	r2, r2
 800271a:	2a30      	cmp	r2, #48	@ 0x30
 800271c:	ddf3      	ble.n	8002706 <movgamer+0x46>
    if (joystick.oy < 50 && joystick.oy >= 10){Gamer.ln += 2; if(Gamer.ln > 48)Gamer.ln = 48;}
 800271e:	2230      	movs	r2, #48	@ 0x30
 8002720:	e7f1      	b.n	8002706 <movgamer+0x46>
    if (joystick.ox > 210 && joystick.ox <= 250){Gamer.cl += 2; if(Gamer.cl > 94)Gamer.cl = 94;}
 8002722:	f101 022d 	add.w	r2, r1, #45	@ 0x2d
 8002726:	b2d2      	uxtb	r2, r2
 8002728:	2a27      	cmp	r2, #39	@ 0x27
 800272a:	d807      	bhi.n	800273c <movgamer+0x7c>
 800272c:	7b5a      	ldrb	r2, [r3, #13]
 800272e:	3202      	adds	r2, #2
    if (joystick.ox > 250){Gamer.cl += 5; if(Gamer.cl > 94)Gamer.cl = 94;}
 8002730:	b252      	sxtb	r2, r2
 8002732:	2a5e      	cmp	r2, #94	@ 0x5e
 8002734:	bfa8      	it	ge
 8002736:	225e      	movge	r2, #94	@ 0x5e
 8002738:	735a      	strb	r2, [r3, #13]
    if (joystick.ox < 10){Gamer.cl -= 5; if(Gamer.cl < -8)Gamer.cl = -8;}
 800273a:	4770      	bx	lr
    if (joystick.ox > 250){Gamer.cl += 5; if(Gamer.cl > 94)Gamer.cl = 94;}
 800273c:	29fa      	cmp	r1, #250	@ 0xfa
 800273e:	d911      	bls.n	8002764 <movgamer+0xa4>
 8002740:	7b5a      	ldrb	r2, [r3, #13]
 8002742:	3205      	adds	r2, #5
 8002744:	e7f4      	b.n	8002730 <movgamer+0x70>
    if (joystick.ox < 120 && joystick.ox >= 50){Gamer.cl -= 1; if(Gamer.cl < -8)Gamer.cl = -8;}
 8002746:	7b5a      	ldrb	r2, [r3, #13]
 8002748:	3a01      	subs	r2, #1
 800274a:	b252      	sxtb	r2, r2
 800274c:	f112 0f08 	cmn.w	r2, #8
 8002750:	daf2      	bge.n	8002738 <movgamer+0x78>
    if (joystick.ox < 50 && joystick.ox >= 10){Gamer.cl -= 2; if(Gamer.cl < -8) Gamer.cl = -8;}
 8002752:	22f8      	movs	r2, #248	@ 0xf8
 8002754:	e7f0      	b.n	8002738 <movgamer+0x78>
    if (joystick.ox < 10){Gamer.cl -= 5; if(Gamer.cl < -8)Gamer.cl = -8;}
 8002756:	7b5a      	ldrb	r2, [r3, #13]
 8002758:	3a05      	subs	r2, #5
 800275a:	b252      	sxtb	r2, r2
 800275c:	735a      	strb	r2, [r3, #13]
 800275e:	3208      	adds	r2, #8
 8002760:	dbf7      	blt.n	8002752 <movgamer+0x92>
 8002762:	4770      	bx	lr
    if (joystick.ox < 120 && joystick.ox >= 50){Gamer.cl -= 1; if(Gamer.cl < -8)Gamer.cl = -8;}
 8002764:	f1a1 0232 	sub.w	r2, r1, #50	@ 0x32
 8002768:	2a45      	cmp	r2, #69	@ 0x45
 800276a:	d9ec      	bls.n	8002746 <movgamer+0x86>
    if (joystick.ox < 50 && joystick.ox >= 10){Gamer.cl -= 2; if(Gamer.cl < -8) Gamer.cl = -8;}
 800276c:	f1a1 020a 	sub.w	r2, r1, #10
 8002770:	2a27      	cmp	r2, #39	@ 0x27
 8002772:	d821      	bhi.n	80027b8 <movgamer+0xf8>
 8002774:	7b5a      	ldrb	r2, [r3, #13]
 8002776:	3a02      	subs	r2, #2
 8002778:	b252      	sxtb	r2, r2
 800277a:	735a      	strb	r2, [r3, #13]
 800277c:	3208      	adds	r2, #8
 800277e:	dbe8      	blt.n	8002752 <movgamer+0x92>
}
 8002780:	4770      	bx	lr
    if (joystick.oy < 120 && joystick.oy >= 50){Gamer.ln += 1; if(Gamer.ln > 48)Gamer.ln = 48;}
 8002782:	f1a0 0232 	sub.w	r2, r0, #50	@ 0x32
 8002786:	2a45      	cmp	r2, #69	@ 0x45
 8002788:	d9c4      	bls.n	8002714 <movgamer+0x54>
    if (joystick.oy < 50 && joystick.oy >= 10){Gamer.ln += 2; if(Gamer.ln > 48)Gamer.ln = 48;}
 800278a:	f1a0 020a 	sub.w	r2, r0, #10
 800278e:	2a27      	cmp	r2, #39	@ 0x27
 8002790:	d8a9      	bhi.n	80026e6 <movgamer+0x26>
 8002792:	7b1a      	ldrb	r2, [r3, #12]
 8002794:	3202      	adds	r2, #2
 8002796:	b252      	sxtb	r2, r2
 8002798:	2a30      	cmp	r2, #48	@ 0x30
 800279a:	731a      	strb	r2, [r3, #12]
 800279c:	dcbf      	bgt.n	800271e <movgamer+0x5e>
    if (joystick.ox > 140 && joystick.ox <= 210){Gamer.cl += 1; if(Gamer.cl > 94)Gamer.cl = 94;}
 800279e:	7849      	ldrb	r1, [r1, #1]
 80027a0:	f101 0273 	add.w	r2, r1, #115	@ 0x73
 80027a4:	b2d2      	uxtb	r2, r2
 80027a6:	2a45      	cmp	r2, #69	@ 0x45
 80027a8:	d8bb      	bhi.n	8002722 <movgamer+0x62>
 80027aa:	7b5a      	ldrb	r2, [r3, #13]
 80027ac:	3201      	adds	r2, #1
 80027ae:	b252      	sxtb	r2, r2
 80027b0:	2a5e      	cmp	r2, #94	@ 0x5e
 80027b2:	bfa8      	it	ge
 80027b4:	225e      	movge	r2, #94	@ 0x5e
 80027b6:	735a      	strb	r2, [r3, #13]
    if (joystick.ox < 10){Gamer.cl -= 5; if(Gamer.cl < -8)Gamer.cl = -8;}
 80027b8:	2909      	cmp	r1, #9
 80027ba:	d9cc      	bls.n	8002756 <movgamer+0x96>
 80027bc:	4770      	bx	lr
 80027be:	bf00      	nop
 80027c0:	20000a3c 	.word	0x20000a3c
 80027c4:	200000e8 	.word	0x200000e8

080027c8 <movevilstar>:
      if(GameFlags.WinTheGame) EvilStar[i].state = 2; 
 80027c8:	2100      	movs	r1, #0
void movevilstar(void) {
 80027ca:	b530      	push	{r4, r5, lr}
      if(GameFlags.WinTheGame) EvilStar[i].state = 2; 
 80027cc:	2402      	movs	r4, #2
      if ((EvilStar[i].cl < -29)) EvilStar[i].state = 0;
 80027ce:	460d      	mov	r5, r1
      if(GameFlags.WinTheGame) EvilStar[i].state = 2; 
 80027d0:	4b0b      	ldr	r3, [pc, #44]	@ (8002800 <movevilstar+0x38>)
 80027d2:	7818      	ldrb	r0, [r3, #0]
 80027d4:	4b0b      	ldr	r3, [pc, #44]	@ (8002804 <movevilstar+0x3c>)
 80027d6:	f000 0010 	and.w	r0, r0, #16
    if (EvilStar[i].state == 1) {
 80027da:	781a      	ldrb	r2, [r3, #0]
 80027dc:	2a01      	cmp	r2, #1
 80027de:	d108      	bne.n	80027f2 <movevilstar+0x2a>
      EvilStar[i].cl--;
 80027e0:	789a      	ldrb	r2, [r3, #2]
 80027e2:	3a01      	subs	r2, #1
 80027e4:	b252      	sxtb	r2, r2
 80027e6:	709a      	strb	r2, [r3, #2]
      if ((EvilStar[i].cl < -29)) EvilStar[i].state = 0;
 80027e8:	321d      	adds	r2, #29
 80027ea:	bfb8      	it	lt
 80027ec:	701d      	strblt	r5, [r3, #0]
      if(GameFlags.WinTheGame) EvilStar[i].state = 2; 
 80027ee:	b100      	cbz	r0, 80027f2 <movevilstar+0x2a>
 80027f0:	701c      	strb	r4, [r3, #0]
  for (uint8 i = 0; i < EVILSTAR_MAX; i++) {
 80027f2:	3101      	adds	r1, #1
 80027f4:	290f      	cmp	r1, #15
 80027f6:	f103 0304 	add.w	r3, r3, #4
 80027fa:	d1ee      	bne.n	80027da <movevilstar+0x12>
}
 80027fc:	bd30      	pop	{r4, r5, pc}
 80027fe:	bf00      	nop
 8002800:	200008d4 	.word	0x200008d4
 8002804:	20000961 	.word	0x20000961

08002808 <movbomb>:
void movbomb(void) {
 8002808:	b570      	push	{r4, r5, r6, lr}
  for(int i = 0; i < BOMB_MAX; i++) {
 800280a:	2500      	movs	r5, #0
        Bomb[i].state = 2;
 800280c:	2602      	movs	r6, #2
 800280e:	4c0d      	ldr	r4, [pc, #52]	@ (8002844 <movbomb+0x3c>)
    if (Bomb[i].state == 1){
 8002810:	7823      	ldrb	r3, [r4, #0]
 8002812:	2b01      	cmp	r3, #1
 8002814:	d10f      	bne.n	8002836 <movbomb+0x2e>
      Bomb[i].cl += BOMB_MOVE_SPEED;
 8002816:	78a3      	ldrb	r3, [r4, #2]
 8002818:	1dda      	adds	r2, r3, #7
 800281a:	b252      	sxtb	r2, r2
      if (Bomb[i].cl > 105) {
 800281c:	2a69      	cmp	r2, #105	@ 0x69
      Bomb[i].cl += BOMB_MOVE_SPEED;
 800281e:	70a2      	strb	r2, [r4, #2]
      if (Bomb[i].cl > 105) {
 8002820:	dd09      	ble.n	8002836 <movbomb+0x2e>
        Bomb[i].cl -= 16;
 8002822:	3b09      	subs	r3, #9
 8002824:	70a3      	strb	r3, [r4, #2]
        Bomb[i].ln -= 16;
 8002826:	7863      	ldrb	r3, [r4, #1]
        Sounds(1200);
 8002828:	f44f 6096 	mov.w	r0, #1200	@ 0x4b0
        Bomb[i].ln -= 16;
 800282c:	3b10      	subs	r3, #16
        Bomb[i].state = 2;
 800282e:	7026      	strb	r6, [r4, #0]
        Bomb[i].ln -= 16;
 8002830:	7063      	strb	r3, [r4, #1]
        Sounds(1200);
 8002832:	f7fd fddf 	bl	80003f4 <Sounds>
  for(int i = 0; i < BOMB_MAX; i++) {
 8002836:	3501      	adds	r5, #1
 8002838:	2d0a      	cmp	r5, #10
 800283a:	f104 0408 	add.w	r4, r4, #8
 800283e:	d1e7      	bne.n	8002810 <movbomb+0x8>
}
 8002840:	bd70      	pop	{r4, r5, r6, pc}
 8002842:	bf00      	nop
 8002844:	200009a0 	.word	0x200009a0

08002848 <movcoin>:
void movcoin(void) {
 8002848:	2100      	movs	r1, #0
      if (Coin[i].cl < -9) Coin[i].state = 0;
 800284a:	4608      	mov	r0, r1
 800284c:	4b08      	ldr	r3, [pc, #32]	@ (8002870 <movcoin+0x28>)
    if (Coin[i].state == 1) {
 800284e:	781a      	ldrb	r2, [r3, #0]
 8002850:	2a01      	cmp	r2, #1
 8002852:	d106      	bne.n	8002862 <movcoin+0x1a>
      Coin[i].cl -= 1;
 8002854:	789a      	ldrb	r2, [r3, #2]
 8002856:	3a01      	subs	r2, #1
 8002858:	b252      	sxtb	r2, r2
 800285a:	709a      	strb	r2, [r3, #2]
      if (Coin[i].cl < -9) Coin[i].state = 0;
 800285c:	3209      	adds	r2, #9
 800285e:	bfb8      	it	lt
 8002860:	7018      	strblt	r0, [r3, #0]
  for (uint8 i = 0; i < COIN_MAX; i++) {
 8002862:	3101      	adds	r1, #1
 8002864:	290f      	cmp	r1, #15
 8002866:	f103 0304 	add.w	r3, r3, #4
 800286a:	d1f0      	bne.n	800284e <movcoin+0x6>
}
 800286c:	4770      	bx	lr
 800286e:	bf00      	nop
 8002870:	20000925 	.word	0x20000925

08002874 <move_enemy_objects>:
void move_enemy_objects(void) {
 8002874:	b508      	push	{r3, lr}
  movevilstar();
 8002876:	f7ff ffa7 	bl	80027c8 <movevilstar>
}
 800287a:	e8bd 4008 	ldmia.w	sp!, {r3, lr}
  movcoin();
 800287e:	f7ff bfe3 	b.w	8002848 <movcoin>
	...

08002884 <movminmagaz>:
void movminmagaz(uint8 period){
 8002884:	b508      	push	{r3, lr}
  if(MinMagaz.state){
 8002886:	4a0e      	ldr	r2, [pc, #56]	@ (80028c0 <movminmagaz+0x3c>)
 8002888:	7813      	ldrb	r3, [r2, #0]
 800288a:	b133      	cbz	r3, 800289a <movminmagaz+0x16>
    if(++prd == period)
 800288c:	490d      	ldr	r1, [pc, #52]	@ (80028c4 <movminmagaz+0x40>)
 800288e:	780b      	ldrb	r3, [r1, #0]
 8002890:	3301      	adds	r3, #1
 8002892:	b2db      	uxtb	r3, r3
 8002894:	4283      	cmp	r3, r0
 8002896:	d001      	beq.n	800289c <movminmagaz+0x18>
 8002898:	700b      	strb	r3, [r1, #0]
}
 800289a:	bd08      	pop	{r3, pc}
      prd = 0;
 800289c:	2000      	movs	r0, #0
      MinMagaz.cl -= 6;
 800289e:	7893      	ldrb	r3, [r2, #2]
      prd = 0;
 80028a0:	7008      	strb	r0, [r1, #0]
      MinMagaz.cl -= 6;
 80028a2:	3b06      	subs	r3, #6
 80028a4:	b25b      	sxtb	r3, r3
      if(MinMagaz.cl < 4) {
 80028a6:	2b03      	cmp	r3, #3
      MinMagaz.cl -= 6;
 80028a8:	7093      	strb	r3, [r2, #2]
      if(MinMagaz.cl < 4) {
 80028aa:	dcf6      	bgt.n	800289a <movminmagaz+0x16>
        MinMagaz.state = 0;
 80028ac:	7010      	strb	r0, [r2, #0]
        SchedResumeEvent(createevilstar);
 80028ae:	4806      	ldr	r0, [pc, #24]	@ (80028c8 <movminmagaz+0x44>)
 80028b0:	f7ff fba6 	bl	8002000 <SchedResumeEvent>
}
 80028b4:	e8bd 4008 	ldmia.w	sp!, {r3, lr}
        SchedResumeEvent(gameprogress);
 80028b8:	4804      	ldr	r0, [pc, #16]	@ (80028cc <movminmagaz+0x48>)
 80028ba:	f7ff bba1 	b.w	8002000 <SchedResumeEvent>
 80028be:	bf00      	nop
 80028c0:	20000050 	.word	0x20000050
 80028c4:	200008cf 	.word	0x200008cf
 80028c8:	080024c5 	.word	0x080024c5
 80028cc:	080025e9 	.word	0x080025e9

080028d0 <bullet_evilstar_collision>:
void bullet_evilstar_collision(void) {
 80028d0:	e92d 47f0 	stmdb	sp!, {r4, r5, r6, r7, r8, r9, sl, lr}
 80028d4:	2619      	movs	r6, #25
        EvilStar[i].state = 2;
 80028d6:	f04f 0902 	mov.w	r9, #2
        Bullet[j].state = 0;
 80028da:	f04f 0a00 	mov.w	sl, #0
 80028de:	4d1a      	ldr	r5, [pc, #104]	@ (8002948 <bullet_evilstar_collision+0x78>)
        StarsKilled++;
 80028e0:	f8df 8068 	ldr.w	r8, [pc, #104]	@ 800294c <bullet_evilstar_collision+0x7c>
void bullet_evilstar_collision(void) {
 80028e4:	2700      	movs	r7, #0
 80028e6:	4c1a      	ldr	r4, [pc, #104]	@ (8002950 <bullet_evilstar_collision+0x80>)
      if ((EvilStar[i].cl <= Bullet[j].cl) && (EvilStar[i].ln < (Bullet[j].ln + 6)) &&
 80028e8:	f994 2002 	ldrsb.w	r2, [r4, #2]
 80028ec:	f995 3002 	ldrsb.w	r3, [r5, #2]
 80028f0:	429a      	cmp	r2, r3
 80028f2:	dc1b      	bgt.n	800292c <bullet_evilstar_collision+0x5c>
 80028f4:	f995 2001 	ldrsb.w	r2, [r5, #1]
 80028f8:	f994 3001 	ldrsb.w	r3, [r4, #1]
 80028fc:	1d51      	adds	r1, r2, #5
 80028fe:	4299      	cmp	r1, r3
 8002900:	db14      	blt.n	800292c <bullet_evilstar_collision+0x5c>
              ((EvilStar[i].ln + 10) > Bullet[j].ln) && EvilStar[i].state == 1 &&
 8002902:	3309      	adds	r3, #9
      if ((EvilStar[i].cl <= Bullet[j].cl) && (EvilStar[i].ln < (Bullet[j].ln + 6)) &&
 8002904:	429a      	cmp	r2, r3
 8002906:	dc11      	bgt.n	800292c <bullet_evilstar_collision+0x5c>
              ((EvilStar[i].ln + 10) > Bullet[j].ln) && EvilStar[i].state == 1 &&
 8002908:	7823      	ldrb	r3, [r4, #0]
 800290a:	2b01      	cmp	r3, #1
 800290c:	d10e      	bne.n	800292c <bullet_evilstar_collision+0x5c>
 800290e:	782b      	ldrb	r3, [r5, #0]
 8002910:	b163      	cbz	r3, 800292c <bullet_evilstar_collision+0x5c>
        StarsKilled++;
 8002912:	f8d8 3000 	ldr.w	r3, [r8]
        Sounds(500);
 8002916:	f44f 70fa 	mov.w	r0, #500	@ 0x1f4
        StarsKilled++;
 800291a:	3301      	adds	r3, #1
        EvilStar[i].state = 2;
 800291c:	f884 9000 	strb.w	r9, [r4]
        Bullet[j].state = 0;
 8002920:	f885 a000 	strb.w	sl, [r5]
        StarsKilled++;
 8002924:	f8c8 3000 	str.w	r3, [r8]
        Sounds(500);
 8002928:	f7fd fd64 	bl	80003f4 <Sounds>
    for (uint8 i = 0; i < EVILSTAR_MAX; i++) {
 800292c:	3701      	adds	r7, #1
 800292e:	2f0f      	cmp	r7, #15
 8002930:	f104 0404 	add.w	r4, r4, #4
 8002934:	d1d8      	bne.n	80028e8 <bullet_evilstar_collision+0x18>
  for (uint8 j = 0; j < BULLET_MAX; j++) {
 8002936:	3e01      	subs	r6, #1
 8002938:	f016 06ff 	ands.w	r6, r6, #255	@ 0xff
 800293c:	f105 0503 	add.w	r5, r5, #3
 8002940:	d1d0      	bne.n	80028e4 <bullet_evilstar_collision+0x14>
}
 8002942:	e8bd 87f0 	ldmia.w	sp!, {r4, r5, r6, r7, r8, r9, sl, pc}
 8002946:	bf00      	nop
 8002948:	200009f0 	.word	0x200009f0
 800294c:	200008d8 	.word	0x200008d8
 8002950:	20000961 	.word	0x20000961

08002954 <bomb_evilstar_collision>:
void bomb_evilstar_collision(void) {
 8002954:	b5f8      	push	{r3, r4, r5, r6, r7, lr}
  for(int j = 0; j < BOMB_MAX; j++) {
 8002956:	2600      	movs	r6, #0
 8002958:	4c30      	ldr	r4, [pc, #192]	@ (8002a1c <bomb_evilstar_collision+0xc8>)
    if(Bomb[j].state == 1){
 800295a:	7823      	ldrb	r3, [r4, #0]
 800295c:	2b01      	cmp	r3, #1
 800295e:	d12a      	bne.n	80029b6 <bomb_evilstar_collision+0x62>
 8002960:	2700      	movs	r7, #0
 8002962:	4d2f      	ldr	r5, [pc, #188]	@ (8002a20 <bomb_evilstar_collision+0xcc>)
        if(((EvilStar[i].cl + 28) >= Bomb[j].cl) && (EvilStar[i].cl <= (Bomb[j].cl + 8)) && (EvilStar[i].ln <= (Bomb[j].ln + 8)) &&
 8002964:	f995 3002 	ldrsb.w	r3, [r5, #2]
 8002968:	f994 2002 	ldrsb.w	r2, [r4, #2]
 800296c:	f103 011c 	add.w	r1, r3, #28
 8002970:	4291      	cmp	r1, r2
 8002972:	db1b      	blt.n	80029ac <bomb_evilstar_collision+0x58>
 8002974:	f102 0108 	add.w	r1, r2, #8
 8002978:	428b      	cmp	r3, r1
 800297a:	dc17      	bgt.n	80029ac <bomb_evilstar_collision+0x58>
 800297c:	f994 3001 	ldrsb.w	r3, [r4, #1]
 8002980:	f995 1001 	ldrsb.w	r1, [r5, #1]
 8002984:	f103 0008 	add.w	r0, r3, #8
 8002988:	4281      	cmp	r1, r0
 800298a:	dc0f      	bgt.n	80029ac <bomb_evilstar_collision+0x58>
              ((EvilStar[i].ln + 16) > Bomb[j].ln) && EvilStar[i].state == 1){
 800298c:	310f      	adds	r1, #15
        if(((EvilStar[i].cl + 28) >= Bomb[j].cl) && (EvilStar[i].cl <= (Bomb[j].cl + 8)) && (EvilStar[i].ln <= (Bomb[j].ln + 8)) &&
 800298e:	428b      	cmp	r3, r1
 8002990:	dc0c      	bgt.n	80029ac <bomb_evilstar_collision+0x58>
              ((EvilStar[i].ln + 16) > Bomb[j].ln) && EvilStar[i].state == 1){
 8002992:	7829      	ldrb	r1, [r5, #0]
 8002994:	2901      	cmp	r1, #1
 8002996:	d109      	bne.n	80029ac <bomb_evilstar_collision+0x58>
          Bomb[j].state = 2;
 8002998:	2102      	movs	r1, #2
          Bomb[j].cl -= 16;
 800299a:	3a10      	subs	r2, #16
          Bomb[j].ln -= 16;
 800299c:	3b10      	subs	r3, #16
          Sounds(1200);
 800299e:	f44f 6096 	mov.w	r0, #1200	@ 0x4b0
          Bomb[j].state = 2;
 80029a2:	7021      	strb	r1, [r4, #0]
          Bomb[j].cl -= 16;
 80029a4:	70a2      	strb	r2, [r4, #2]
          Bomb[j].ln -= 16;
 80029a6:	7063      	strb	r3, [r4, #1]
          Sounds(1200);
 80029a8:	f7fd fd24 	bl	80003f4 <Sounds>
      for (uint8 i = 0; i < EVILSTAR_MAX; i++) {
 80029ac:	3701      	adds	r7, #1
 80029ae:	2f0f      	cmp	r7, #15
 80029b0:	f105 0504 	add.w	r5, r5, #4
 80029b4:	d1d6      	bne.n	8002964 <bomb_evilstar_collision+0x10>
    if(Bomb[j].state > 1){
 80029b6:	7823      	ldrb	r3, [r4, #0]
 80029b8:	2b01      	cmp	r3, #1
 80029ba:	d929      	bls.n	8002a10 <bomb_evilstar_collision+0xbc>
 80029bc:	2700      	movs	r7, #0
 80029be:	4d18      	ldr	r5, [pc, #96]	@ (8002a20 <bomb_evilstar_collision+0xcc>)
        if (((EvilStar[i].cl + 30) >= Bomb[j].cl) && (EvilStar[i].cl <= (Bomb[j].cl + 50)) && (EvilStar[i].ln <= (Bomb[j].ln + 39)) &&
 80029c0:	f995 2002 	ldrsb.w	r2, [r5, #2]
 80029c4:	f994 3002 	ldrsb.w	r3, [r4, #2]
 80029c8:	f102 011e 	add.w	r1, r2, #30
 80029cc:	4299      	cmp	r1, r3
 80029ce:	db1a      	blt.n	8002a06 <bomb_evilstar_collision+0xb2>
 80029d0:	3332      	adds	r3, #50	@ 0x32
 80029d2:	429a      	cmp	r2, r3
 80029d4:	dc17      	bgt.n	8002a06 <bomb_evilstar_collision+0xb2>
 80029d6:	f994 2001 	ldrsb.w	r2, [r4, #1]
 80029da:	f995 3001 	ldrsb.w	r3, [r5, #1]
 80029de:	f102 0127 	add.w	r1, r2, #39	@ 0x27
 80029e2:	428b      	cmp	r3, r1
 80029e4:	dc0f      	bgt.n	8002a06 <bomb_evilstar_collision+0xb2>
                ((EvilStar[i].ln + 16) > Bomb[j].ln) && EvilStar[i].state == 1) {
 80029e6:	330f      	adds	r3, #15
        if (((EvilStar[i].cl + 30) >= Bomb[j].cl) && (EvilStar[i].cl <= (Bomb[j].cl + 50)) && (EvilStar[i].ln <= (Bomb[j].ln + 39)) &&
 80029e8:	429a      	cmp	r2, r3
 80029ea:	dc0c      	bgt.n	8002a06 <bomb_evilstar_collision+0xb2>
                ((EvilStar[i].ln + 16) > Bomb[j].ln) && EvilStar[i].state == 1) {
 80029ec:	782b      	ldrb	r3, [r5, #0]
 80029ee:	2b01      	cmp	r3, #1
 80029f0:	d109      	bne.n	8002a06 <bomb_evilstar_collision+0xb2>
          EvilStar[i].state = 2;
 80029f2:	2302      	movs	r3, #2
          StarsKilled++;
 80029f4:	4a0b      	ldr	r2, [pc, #44]	@ (8002a24 <bomb_evilstar_collision+0xd0>)
          EvilStar[i].state = 2;
 80029f6:	702b      	strb	r3, [r5, #0]
          StarsKilled++;
 80029f8:	6813      	ldr	r3, [r2, #0]
          Sounds(500);
 80029fa:	f44f 70fa 	mov.w	r0, #500	@ 0x1f4
          StarsKilled++;
 80029fe:	3301      	adds	r3, #1
 8002a00:	6013      	str	r3, [r2, #0]
          Sounds(500);
 8002a02:	f7fd fcf7 	bl	80003f4 <Sounds>
      for (uint8 i = 0; i < EVILSTAR_MAX; i++) {
 8002a06:	3701      	adds	r7, #1
 8002a08:	2f0f      	cmp	r7, #15
 8002a0a:	f105 0504 	add.w	r5, r5, #4
 8002a0e:	d1d7      	bne.n	80029c0 <bomb_evilstar_collision+0x6c>
  for(int j = 0; j < BOMB_MAX; j++) {
 8002a10:	3601      	adds	r6, #1
 8002a12:	2e0a      	cmp	r6, #10
 8002a14:	f104 0408 	add.w	r4, r4, #8
 8002a18:	d19f      	bne.n	800295a <bomb_evilstar_collision+0x6>
}
 8002a1a:	bdf8      	pop	{r3, r4, r5, r6, r7, pc}
 8002a1c:	200009a0 	.word	0x200009a0
 8002a20:	20000961 	.word	0x20000961
 8002a24:	200008d8 	.word	0x200008d8

08002a28 <gamer_evilstar_collision>:
void gamer_evilstar_collision(void) {
 8002a28:	b570      	push	{r4, r5, r6, lr}
 8002a2a:	2600      	movs	r6, #0
 8002a2c:	4d1d      	ldr	r5, [pc, #116]	@ (8002aa4 <gamer_evilstar_collision+0x7c>)
    if ((EvilStar[i].cl <= (Gamer.cl + 29)) && ((EvilStar[i].cl + 25) >= Gamer.cl) &&
 8002a2e:	4c1e      	ldr	r4, [pc, #120]	@ (8002aa8 <gamer_evilstar_collision+0x80>)
 8002a30:	f994 200d 	ldrsb.w	r2, [r4, #13]
 8002a34:	f995 3002 	ldrsb.w	r3, [r5, #2]
 8002a38:	f102 011d 	add.w	r1, r2, #29
 8002a3c:	428b      	cmp	r3, r1
 8002a3e:	dc2a      	bgt.n	8002a96 <gamer_evilstar_collision+0x6e>
 8002a40:	3319      	adds	r3, #25
 8002a42:	429a      	cmp	r2, r3
 8002a44:	dc27      	bgt.n	8002a96 <gamer_evilstar_collision+0x6e>
            ((EvilStar[i].ln + 15) > Gamer.ln) && (EvilStar[i].ln < (Gamer.ln + 15)) &&
 8002a46:	f995 2001 	ldrsb.w	r2, [r5, #1]
 8002a4a:	f994 300c 	ldrsb.w	r3, [r4, #12]
 8002a4e:	f102 010e 	add.w	r1, r2, #14
    if ((EvilStar[i].cl <= (Gamer.cl + 29)) && ((EvilStar[i].cl + 25) >= Gamer.cl) &&
 8002a52:	4299      	cmp	r1, r3
 8002a54:	db1f      	blt.n	8002a96 <gamer_evilstar_collision+0x6e>
            ((EvilStar[i].ln + 15) > Gamer.ln) && (EvilStar[i].ln < (Gamer.ln + 15)) &&
 8002a56:	330e      	adds	r3, #14
 8002a58:	429a      	cmp	r2, r3
 8002a5a:	dc1c      	bgt.n	8002a96 <gamer_evilstar_collision+0x6e>
 8002a5c:	782b      	ldrb	r3, [r5, #0]
 8002a5e:	2b01      	cmp	r3, #1
 8002a60:	d119      	bne.n	8002a96 <gamer_evilstar_collision+0x6e>
            (EvilStar[i].state == 1) && (Gamer.health > 0)) {
 8002a62:	f994 3000 	ldrsb.w	r3, [r4]
 8002a66:	2b00      	cmp	r3, #0
 8002a68:	dd15      	ble.n	8002a96 <gamer_evilstar_collision+0x6e>
      EvilStar[i].state = 2;
 8002a6a:	2202      	movs	r2, #2
      StarsKilled++;
 8002a6c:	490f      	ldr	r1, [pc, #60]	@ (8002aac <gamer_evilstar_collision+0x84>)
      EvilStar[i].state = 2;
 8002a6e:	702a      	strb	r2, [r5, #0]
      StarsKilled++;
 8002a70:	680a      	ldr	r2, [r1, #0]
        Gamer.health -= 2;
 8002a72:	b2db      	uxtb	r3, r3
      StarsKilled++;
 8002a74:	3201      	adds	r2, #1
 8002a76:	600a      	str	r2, [r1, #0]
      if(Gamer.gasmask_health > 0){
 8002a78:	f994 2003 	ldrsb.w	r2, [r4, #3]
      Sounds(600);
 8002a7c:	f44f 7016 	mov.w	r0, #600	@ 0x258
      if(Gamer.gasmask_health > 0){
 8002a80:	2a00      	cmp	r2, #0
        Gamer.health -= 2;
 8002a82:	bfc5      	ittet	gt
 8002a84:	3b02      	subgt	r3, #2
        Gamer.gasmask_health -= 2;
 8002a86:	3a02      	subgt	r2, #2
        Gamer.health -= 4;
 8002a88:	3b04      	suble	r3, #4
        Gamer.health -= 2;
 8002a8a:	7023      	strbgt	r3, [r4, #0]
        Gamer.gasmask_health -= 2;
 8002a8c:	bfcc      	ite	gt
 8002a8e:	70e2      	strbgt	r2, [r4, #3]
        Gamer.health -= 4;
 8002a90:	7023      	strble	r3, [r4, #0]
      Sounds(600);
 8002a92:	f7fd fcaf 	bl	80003f4 <Sounds>
  for (uint8 i = 0; i < EVILSTAR_MAX; i++) {
 8002a96:	3601      	adds	r6, #1
 8002a98:	2e0f      	cmp	r6, #15
 8002a9a:	f105 0504 	add.w	r5, r5, #4
 8002a9e:	d1c7      	bne.n	8002a30 <gamer_evilstar_collision+0x8>
}
 8002aa0:	bd70      	pop	{r4, r5, r6, pc}
 8002aa2:	bf00      	nop
 8002aa4:	20000961 	.word	0x20000961
 8002aa8:	20000a3c 	.word	0x20000a3c
 8002aac:	200008d8 	.word	0x200008d8

08002ab0 <gamer_coin_collision>:
void gamer_coin_collision(void) {
 8002ab0:	b570      	push	{r4, r5, r6, lr}
 8002ab2:	2600      	movs	r6, #0
 8002ab4:	4c18      	ldr	r4, [pc, #96]	@ (8002b18 <gamer_coin_collision+0x68>)
    if ((Coin[i].cl <= (Gamer.cl + 29)) && ((Coin[i].cl + 8) >= Gamer.cl) &&
 8002ab6:	4d19      	ldr	r5, [pc, #100]	@ (8002b1c <gamer_coin_collision+0x6c>)
 8002ab8:	f995 200d 	ldrsb.w	r2, [r5, #13]
 8002abc:	f994 3002 	ldrsb.w	r3, [r4, #2]
 8002ac0:	f102 011d 	add.w	r1, r2, #29
 8002ac4:	428b      	cmp	r3, r1
 8002ac6:	dc20      	bgt.n	8002b0a <gamer_coin_collision+0x5a>
 8002ac8:	3308      	adds	r3, #8
 8002aca:	429a      	cmp	r2, r3
 8002acc:	dc1d      	bgt.n	8002b0a <gamer_coin_collision+0x5a>
            ((Coin[i].ln + 8) > Gamer.ln) && (Coin[i].ln < (Gamer.ln + 15)) &&
 8002ace:	f994 2001 	ldrsb.w	r2, [r4, #1]
 8002ad2:	f995 300c 	ldrsb.w	r3, [r5, #12]
 8002ad6:	1dd1      	adds	r1, r2, #7
    if ((Coin[i].cl <= (Gamer.cl + 29)) && ((Coin[i].cl + 8) >= Gamer.cl) &&
 8002ad8:	4299      	cmp	r1, r3
 8002ada:	db16      	blt.n	8002b0a <gamer_coin_collision+0x5a>
            ((Coin[i].ln + 8) > Gamer.ln) && (Coin[i].ln < (Gamer.ln + 15)) &&
 8002adc:	330e      	adds	r3, #14
 8002ade:	429a      	cmp	r2, r3
 8002ae0:	dc13      	bgt.n	8002b0a <gamer_coin_collision+0x5a>
 8002ae2:	7823      	ldrb	r3, [r4, #0]
 8002ae4:	2b01      	cmp	r3, #1
 8002ae6:	d110      	bne.n	8002b0a <gamer_coin_collision+0x5a>
            (Coin[i].state == 1) && (Gamer.health > 0)) {
 8002ae8:	f995 3000 	ldrsb.w	r3, [r5]
 8002aec:	2b00      	cmp	r3, #0
 8002aee:	dd0c      	ble.n	8002b0a <gamer_coin_collision+0x5a>
      Coin[i].state = 0;
 8002af0:	2300      	movs	r3, #0
 8002af2:	7023      	strb	r3, [r4, #0]
      Gamer.money += 1;
 8002af4:	68ab      	ldr	r3, [r5, #8]
      CoinReceived++;
 8002af6:	4a0a      	ldr	r2, [pc, #40]	@ (8002b20 <gamer_coin_collision+0x70>)
      Gamer.money += 1;
 8002af8:	3301      	adds	r3, #1
 8002afa:	60ab      	str	r3, [r5, #8]
      CoinReceived++;
 8002afc:	6813      	ldr	r3, [r2, #0]
      Sounds(300);
 8002afe:	f44f 7096 	mov.w	r0, #300	@ 0x12c
      CoinReceived++;
 8002b02:	3301      	adds	r3, #1
 8002b04:	6013      	str	r3, [r2, #0]
      Sounds(300);
 8002b06:	f7fd fc75 	bl	80003f4 <Sounds>
  for (uint8 i = 0; i < COIN_MAX; i++) {
 8002b0a:	3601      	adds	r6, #1
 8002b0c:	2e0f      	cmp	r6, #15
 8002b0e:	f104 0404 	add.w	r4, r4, #4
 8002b12:	d1d1      	bne.n	8002ab8 <gamer_coin_collision+0x8>
}
 8002b14:	bd70      	pop	{r4, r5, r6, pc}
 8002b16:	bf00      	nop
 8002b18:	20000925 	.word	0x20000925
 8002b1c:	20000a3c 	.word	0x20000a3c
 8002b20:	200008dc 	.word	0x200008dc

08002b24 <gamer_minmagaz_collision>:
void gamer_minmagaz_collision(void) {
 8002b24:	b510      	push	{r4, lr}
  if(MinMagaz.state){
 8002b26:	4b12      	ldr	r3, [pc, #72]	@ (8002b70 <gamer_minmagaz_collision+0x4c>)
 8002b28:	781a      	ldrb	r2, [r3, #0]
 8002b2a:	b1fa      	cbz	r2, 8002b6c <gamer_minmagaz_collision+0x48>
    if ((MinMagaz.cl <= (Gamer.cl + 29)) && ((MinMagaz.cl + 30) >= Gamer.cl) &&
 8002b2c:	4911      	ldr	r1, [pc, #68]	@ (8002b74 <gamer_minmagaz_collision+0x50>)
 8002b2e:	f993 2002 	ldrsb.w	r2, [r3, #2]
 8002b32:	f991 000d 	ldrsb.w	r0, [r1, #13]
 8002b36:	f100 041d 	add.w	r4, r0, #29
 8002b3a:	42a2      	cmp	r2, r4
 8002b3c:	dc16      	bgt.n	8002b6c <gamer_minmagaz_collision+0x48>
 8002b3e:	321e      	adds	r2, #30
 8002b40:	4290      	cmp	r0, r2
 8002b42:	dc13      	bgt.n	8002b6c <gamer_minmagaz_collision+0x48>
            ((MinMagaz.ln + 28) > Gamer.ln) && (MinMagaz.ln < (Gamer.ln + 15)) &&
 8002b44:	f993 0001 	ldrsb.w	r0, [r3, #1]
 8002b48:	f991 200c 	ldrsb.w	r2, [r1, #12]
 8002b4c:	f100 041b 	add.w	r4, r0, #27
    if ((MinMagaz.cl <= (Gamer.cl + 29)) && ((MinMagaz.cl + 30) >= Gamer.cl) &&
 8002b50:	4294      	cmp	r4, r2
 8002b52:	db0b      	blt.n	8002b6c <gamer_minmagaz_collision+0x48>
            ((MinMagaz.ln + 28) > Gamer.ln) && (MinMagaz.ln < (Gamer.ln + 15)) &&
 8002b54:	320e      	adds	r2, #14
 8002b56:	4290      	cmp	r0, r2
 8002b58:	dc08      	bgt.n	8002b6c <gamer_minmagaz_collision+0x48>
 8002b5a:	f991 2000 	ldrsb.w	r2, [r1]
 8002b5e:	2a00      	cmp	r2, #0
 8002b60:	dd04      	ble.n	8002b6c <gamer_minmagaz_collision+0x48>
      MinMagaz.state = 0;
 8002b62:	2200      	movs	r2, #0
 8002b64:	701a      	strb	r2, [r3, #0]
      gameevent = EVENT_ENTERMAGAZ;
 8002b66:	2207      	movs	r2, #7
 8002b68:	4b03      	ldr	r3, [pc, #12]	@ (8002b78 <gamer_minmagaz_collision+0x54>)
 8002b6a:	701a      	strb	r2, [r3, #0]
}
 8002b6c:	bd10      	pop	{r4, pc}
 8002b6e:	bf00      	nop
 8002b70:	20000050 	.word	0x20000050
 8002b74:	20000a3c 	.word	0x20000a3c
 8002b78:	200008d0 	.word	0x200008d0

08002b7c <drawevilstar>:
void drawevilstar(void) {
 8002b7c:	e92d 41f0 	stmdb	sp!, {r4, r5, r6, r7, r8, lr}
 8002b80:	2500      	movs	r5, #0
        EvilStar[i].distr_ttl_count = 0;
 8002b82:	462e      	mov	r6, r5
 8002b84:	4c14      	ldr	r4, [pc, #80]	@ (8002bd8 <drawevilstar+0x5c>)
      LCD_printsprite(EvilStar[i].ln, EvilStar[i].cl, &evilstar_sprite);
 8002b86:	4f15      	ldr	r7, [pc, #84]	@ (8002bdc <drawevilstar+0x60>)
      LCD_printsprite(EvilStar[i].ln, EvilStar[i].cl, &distr_evilstar_sprite);
 8002b88:	f8df 8054 	ldr.w	r8, [pc, #84]	@ 8002be0 <drawevilstar+0x64>
    if (EvilStar[i].state == 1) {
 8002b8c:	7823      	ldrb	r3, [r4, #0]
 8002b8e:	2b01      	cmp	r3, #1
 8002b90:	d106      	bne.n	8002ba0 <drawevilstar+0x24>
      LCD_printsprite(EvilStar[i].ln, EvilStar[i].cl, &evilstar_sprite);
 8002b92:	463a      	mov	r2, r7
 8002b94:	f994 1002 	ldrsb.w	r1, [r4, #2]
 8002b98:	f994 0001 	ldrsb.w	r0, [r4, #1]
 8002b9c:	f7fe f894 	bl	8000cc8 <LCD_printsprite>
    if (EvilStar[i].state == 2) {
 8002ba0:	7823      	ldrb	r3, [r4, #0]
 8002ba2:	2b02      	cmp	r3, #2
 8002ba4:	d10b      	bne.n	8002bbe <drawevilstar+0x42>
      LCD_printsprite(EvilStar[i].ln, EvilStar[i].cl, &distr_evilstar_sprite);
 8002ba6:	4642      	mov	r2, r8
 8002ba8:	f994 1002 	ldrsb.w	r1, [r4, #2]
 8002bac:	f994 0001 	ldrsb.w	r0, [r4, #1]
 8002bb0:	f7fe f88a 	bl	8000cc8 <LCD_printsprite>
      if (EvilStar[i].distr_ttl_count++ >= EVILSTAR_DEATHANIMATION_PERIOD) {
 8002bb4:	78e3      	ldrb	r3, [r4, #3]
 8002bb6:	2b01      	cmp	r3, #1
 8002bb8:	d808      	bhi.n	8002bcc <drawevilstar+0x50>
 8002bba:	3301      	adds	r3, #1
 8002bbc:	70e3      	strb	r3, [r4, #3]
  for (uint8 i = 0; i < EVILSTAR_MAX; i++) {
 8002bbe:	3501      	adds	r5, #1
 8002bc0:	2d0f      	cmp	r5, #15
 8002bc2:	f104 0404 	add.w	r4, r4, #4
 8002bc6:	d1e1      	bne.n	8002b8c <drawevilstar+0x10>
}
 8002bc8:	e8bd 81f0 	ldmia.w	sp!, {r4, r5, r6, r7, r8, pc}
        createcoin(&EvilStar[i]);
 8002bcc:	4620      	mov	r0, r4
        EvilStar[i].distr_ttl_count = 0;
 8002bce:	70e6      	strb	r6, [r4, #3]
        EvilStar[i].state = 0;
 8002bd0:	7026      	strb	r6, [r4, #0]
        createcoin(&EvilStar[i]);
 8002bd2:	f7ff fd57 	bl	8002684 <createcoin>
 8002bd6:	e7f2      	b.n	8002bbe <drawevilstar+0x42>
 8002bd8:	20000961 	.word	0x20000961
 8002bdc:	0800846c 	.word	0x0800846c
 8002be0:	08008428 	.word	0x08008428

08002be4 <drawcoin>:
void drawcoin(void) {
 8002be4:	b5f8      	push	{r3, r4, r5, r6, r7, lr}
 8002be6:	2500      	movs	r5, #0
      if (Coin[i].animation_count == 0) Coin[i].animation_count = COIN_ANIMATION_PERIOD;
 8002be8:	270a      	movs	r7, #10
 8002bea:	4c14      	ldr	r4, [pc, #80]	@ (8002c3c <drawcoin+0x58>)
      if (Coin[i].animation_count >= (COIN_ANIMATION_PERIOD / 2)) LCD_printsprite(Coin[i].ln + 1, Coin[i].cl, &coin_sprite);
 8002bec:	4e14      	ldr	r6, [pc, #80]	@ (8002c40 <drawcoin+0x5c>)
    if (Coin[i].state == 1) {
 8002bee:	7823      	ldrb	r3, [r4, #0]
 8002bf0:	2b01      	cmp	r3, #1
 8002bf2:	d110      	bne.n	8002c16 <drawcoin+0x32>
      Coin[i].animation_count--;
 8002bf4:	78e3      	ldrb	r3, [r4, #3]
 8002bf6:	3b01      	subs	r3, #1
 8002bf8:	b2db      	uxtb	r3, r3
      if (Coin[i].animation_count >= (COIN_ANIMATION_PERIOD / 2)) LCD_printsprite(Coin[i].ln + 1, Coin[i].cl, &coin_sprite);
 8002bfa:	2b04      	cmp	r3, #4
      Coin[i].animation_count--;
 8002bfc:	70e3      	strb	r3, [r4, #3]
      if (Coin[i].animation_count >= (COIN_ANIMATION_PERIOD / 2)) LCD_printsprite(Coin[i].ln + 1, Coin[i].cl, &coin_sprite);
 8002bfe:	d810      	bhi.n	8002c22 <drawcoin+0x3e>
      if (Coin[i].animation_count < (COIN_ANIMATION_PERIOD / 2)) LCD_printsprite(Coin[i].ln - 1, Coin[i].cl, &coin_sprite);
 8002c00:	7860      	ldrb	r0, [r4, #1]
 8002c02:	4632      	mov	r2, r6
 8002c04:	3801      	subs	r0, #1
 8002c06:	f994 1002 	ldrsb.w	r1, [r4, #2]
 8002c0a:	b240      	sxtb	r0, r0
 8002c0c:	f7fe f85c 	bl	8000cc8 <LCD_printsprite>
      if (Coin[i].animation_count == 0) Coin[i].animation_count = COIN_ANIMATION_PERIOD;
 8002c10:	78e3      	ldrb	r3, [r4, #3]
 8002c12:	b903      	cbnz	r3, 8002c16 <drawcoin+0x32>
 8002c14:	70e7      	strb	r7, [r4, #3]
  for (uint8 i = 0; i < COIN_MAX; i++) {
 8002c16:	3501      	adds	r5, #1
 8002c18:	2d0f      	cmp	r5, #15
 8002c1a:	f104 0404 	add.w	r4, r4, #4
 8002c1e:	d1e6      	bne.n	8002bee <drawcoin+0xa>
}
 8002c20:	bdf8      	pop	{r3, r4, r5, r6, r7, pc}
      if (Coin[i].animation_count >= (COIN_ANIMATION_PERIOD / 2)) LCD_printsprite(Coin[i].ln + 1, Coin[i].cl, &coin_sprite);
 8002c22:	7860      	ldrb	r0, [r4, #1]
 8002c24:	4632      	mov	r2, r6
 8002c26:	3001      	adds	r0, #1
 8002c28:	f994 1002 	ldrsb.w	r1, [r4, #2]
 8002c2c:	b240      	sxtb	r0, r0
 8002c2e:	f7fe f84b 	bl	8000cc8 <LCD_printsprite>
      if (Coin[i].animation_count < (COIN_ANIMATION_PERIOD / 2)) LCD_printsprite(Coin[i].ln - 1, Coin[i].cl, &coin_sprite);
 8002c32:	78e3      	ldrb	r3, [r4, #3]
 8002c34:	2b04      	cmp	r3, #4
 8002c36:	d8eb      	bhi.n	8002c10 <drawcoin+0x2c>
 8002c38:	e7e2      	b.n	8002c00 <drawcoin+0x1c>
 8002c3a:	bf00      	nop
 8002c3c:	20000925 	.word	0x20000925
 8002c40:	08007ed0 	.word	0x08007ed0

08002c44 <drawminmagaz>:
    if (MinMagaz.state) {
 8002c44:	4b05      	ldr	r3, [pc, #20]	@ (8002c5c <drawminmagaz+0x18>)
 8002c46:	781a      	ldrb	r2, [r3, #0]
 8002c48:	b132      	cbz	r2, 8002c58 <drawminmagaz+0x14>
      LCD_printsprite(MinMagaz.ln, MinMagaz.cl, &minimag_sprite);
 8002c4a:	4a05      	ldr	r2, [pc, #20]	@ (8002c60 <drawminmagaz+0x1c>)
 8002c4c:	f993 1002 	ldrsb.w	r1, [r3, #2]
 8002c50:	f993 0001 	ldrsb.w	r0, [r3, #1]
 8002c54:	f7fe b838 	b.w	8000cc8 <LCD_printsprite>
}
 8002c58:	4770      	bx	lr
 8002c5a:	bf00      	nop
 8002c5c:	20000050 	.word	0x20000050
 8002c60:	080081b0 	.word	0x080081b0

08002c64 <drawgamer>:
  if ((Gamer.health > 0)) {
 8002c64:	4b08      	ldr	r3, [pc, #32]	@ (8002c88 <drawgamer+0x24>)
 8002c66:	f993 2000 	ldrsb.w	r2, [r3]
 8002c6a:	2a00      	cmp	r2, #0
 8002c6c:	dd0b      	ble.n	8002c86 <drawgamer+0x22>
    if (Gamer.gasmask_health > 0) LCD_printsprite(Gamer.ln, Gamer.cl, &gamer_gas_sprite);
 8002c6e:	f993 000c 	ldrsb.w	r0, [r3, #12]
 8002c72:	f993 100d 	ldrsb.w	r1, [r3, #13]
 8002c76:	f993 3003 	ldrsb.w	r3, [r3, #3]
 8002c7a:	2b00      	cmp	r3, #0
 8002c7c:	bfcc      	ite	gt
 8002c7e:	4a03      	ldrgt	r2, [pc, #12]	@ (8002c8c <drawgamer+0x28>)
    else LCD_printsprite(Gamer.ln, Gamer.cl, &gamer_sprite);
 8002c80:	4a03      	ldrle	r2, [pc, #12]	@ (8002c90 <drawgamer+0x2c>)
 8002c82:	f7fe b821 	b.w	8000cc8 <LCD_printsprite>
}
 8002c86:	4770      	bx	lr
 8002c88:	20000a3c 	.word	0x20000a3c
 8002c8c:	08008560 	.word	0x08008560
 8002c90:	080085b0 	.word	0x080085b0

08002c94 <drawbullet>:
void drawbullet(void) {
 8002c94:	b570      	push	{r4, r5, r6, lr}
 8002c96:	2500      	movs	r5, #0
 8002c98:	4c08      	ldr	r4, [pc, #32]	@ (8002cbc <drawbullet+0x28>)
      LCD_printsprite(Bullet[i].ln, Bullet[i].cl, &bullet_sprite);
 8002c9a:	4e09      	ldr	r6, [pc, #36]	@ (8002cc0 <drawbullet+0x2c>)
    if (Bullet[i].state) {
 8002c9c:	7823      	ldrb	r3, [r4, #0]
 8002c9e:	b133      	cbz	r3, 8002cae <drawbullet+0x1a>
      LCD_printsprite(Bullet[i].ln, Bullet[i].cl, &bullet_sprite);
 8002ca0:	4632      	mov	r2, r6
 8002ca2:	f994 1002 	ldrsb.w	r1, [r4, #2]
 8002ca6:	f994 0001 	ldrsb.w	r0, [r4, #1]
 8002caa:	f7fe f80d 	bl	8000cc8 <LCD_printsprite>
  for (uint8 i = 0; i < BULLET_MAX; i++) {
 8002cae:	3501      	adds	r5, #1
 8002cb0:	2d19      	cmp	r5, #25
 8002cb2:	f104 0403 	add.w	r4, r4, #3
 8002cb6:	d1f1      	bne.n	8002c9c <drawbullet+0x8>
}
 8002cb8:	bd70      	pop	{r4, r5, r6, pc}
 8002cba:	bf00      	nop
 8002cbc:	200009f0 	.word	0x200009f0
 8002cc0:	080084b0 	.word	0x080084b0

08002cc4 <drawbomb>:
void drawbomb(uint16 period) {
 8002cc4:	e92d 4ff7 	stmdb	sp!, {r0, r1, r2, r4, r5, r6, r7, r8, r9, sl, fp, lr}
 8002cc8:	f8df a100 	ldr.w	sl, [pc, #256]	@ 8002dcc <drawbomb+0x108>
 8002ccc:	4604      	mov	r4, r0
  for(int i = 0; i < BOMB_MAX; i++) {
 8002cce:	2500      	movs	r5, #0
 8002cd0:	46d3      	mov	fp, sl
      if (Bomb[i].animation_count >= (3 * period / 4)) LCD_printsprite(Bomb[i].ln, Bomb[i].cl, &bomb_sprite[0]);
 8002cd2:	eb00 0640 	add.w	r6, r0, r0, lsl #1
      if(Bomb[i].animation_count > (period / 2)){
 8002cd6:	0843      	lsrs	r3, r0, #1
          LCD_printsprite(Bomb[i].ln, Bomb[i].cl, &bombshards_sprite[1]);
 8002cd8:	4f3d      	ldr	r7, [pc, #244]	@ (8002dd0 <drawbomb+0x10c>)
      if (Bomb[i].animation_count >= (3 * period / 4)) LCD_printsprite(Bomb[i].ln, Bomb[i].cl, &bomb_sprite[0]);
 8002cda:	08b6      	lsrs	r6, r6, #2
         (Bomb[i].animation_count >= (2 * period / 4))) LCD_printsprite(Bomb[i].ln, Bomb[i].cl, &bomb_sprite[1]);
 8002cdc:	f3c0 085d 	ubfx	r8, r0, #1, #30
         (Bomb[i].animation_count >= (period / 4))) LCD_printsprite(Bomb[i].ln, Bomb[i].cl, &bomb_sprite[2]);
 8002ce0:	ea4f 0990 	mov.w	r9, r0, lsr #2
      if(Bomb[i].animation_count > (period / 2)){
 8002ce4:	9301      	str	r3, [sp, #4]
    if(Bomb[i].state == 1){
 8002ce6:	f89a 2000 	ldrb.w	r2, [sl]
 8002cea:	2a01      	cmp	r2, #1
 8002cec:	d139      	bne.n	8002d62 <drawbomb+0x9e>
      if (Bomb[i].animation_count >= (3 * period / 4)) LCD_printsprite(Bomb[i].ln, Bomb[i].cl, &bomb_sprite[0]);
 8002cee:	f8da 2004 	ldr.w	r2, [sl, #4]
 8002cf2:	42b2      	cmp	r2, r6
 8002cf4:	d306      	bcc.n	8002d04 <drawbomb+0x40>
 8002cf6:	4a37      	ldr	r2, [pc, #220]	@ (8002dd4 <drawbomb+0x110>)
 8002cf8:	f99a 1002 	ldrsb.w	r1, [sl, #2]
 8002cfc:	f99a 0001 	ldrsb.w	r0, [sl, #1]
 8002d00:	f7fd ffe2 	bl	8000cc8 <LCD_printsprite>
      if ((Bomb[i].animation_count < (3 * period / 4)) &&
 8002d04:	f8da 2004 	ldr.w	r2, [sl, #4]
 8002d08:	4296      	cmp	r6, r2
 8002d0a:	d908      	bls.n	8002d1e <drawbomb+0x5a>
 8002d0c:	4542      	cmp	r2, r8
 8002d0e:	d306      	bcc.n	8002d1e <drawbomb+0x5a>
         (Bomb[i].animation_count >= (2 * period / 4))) LCD_printsprite(Bomb[i].ln, Bomb[i].cl, &bomb_sprite[1]);
 8002d10:	4a31      	ldr	r2, [pc, #196]	@ (8002dd8 <drawbomb+0x114>)
 8002d12:	f99a 1002 	ldrsb.w	r1, [sl, #2]
 8002d16:	f99a 0001 	ldrsb.w	r0, [sl, #1]
 8002d1a:	f7fd ffd5 	bl	8000cc8 <LCD_printsprite>
      if ((Bomb[i].animation_count < (2 * period / 4)) &&
 8002d1e:	f8da 2004 	ldr.w	r2, [sl, #4]
 8002d22:	4590      	cmp	r8, r2
 8002d24:	d908      	bls.n	8002d38 <drawbomb+0x74>
 8002d26:	454a      	cmp	r2, r9
 8002d28:	d30a      	bcc.n	8002d40 <drawbomb+0x7c>
         (Bomb[i].animation_count >= (period / 4))) LCD_printsprite(Bomb[i].ln, Bomb[i].cl, &bomb_sprite[2]);
 8002d2a:	4a2c      	ldr	r2, [pc, #176]	@ (8002ddc <drawbomb+0x118>)
 8002d2c:	f99a 1002 	ldrsb.w	r1, [sl, #2]
 8002d30:	f99a 0001 	ldrsb.w	r0, [sl, #1]
 8002d34:	f7fd ffc8 	bl	8000cc8 <LCD_printsprite>
      if (Bomb[i].animation_count < (period / 4)) LCD_printsprite(Bomb[i].ln, Bomb[i].cl, &bomb_sprite[3]);
 8002d38:	f8da 2004 	ldr.w	r2, [sl, #4]
 8002d3c:	4591      	cmp	r9, r2
 8002d3e:	d906      	bls.n	8002d4e <drawbomb+0x8a>
 8002d40:	4a27      	ldr	r2, [pc, #156]	@ (8002de0 <drawbomb+0x11c>)
 8002d42:	f99a 1002 	ldrsb.w	r1, [sl, #2]
 8002d46:	f99a 0001 	ldrsb.w	r0, [sl, #1]
 8002d4a:	f7fd ffbd 	bl	8000cc8 <LCD_printsprite>
      if (Bomb[i].animation_count == 0) Bomb[i].animation_count = period;
 8002d4e:	f8da 2004 	ldr.w	r2, [sl, #4]
 8002d52:	b90a      	cbnz	r2, 8002d58 <drawbomb+0x94>
 8002d54:	f8ca 4004 	str.w	r4, [sl, #4]
      Bomb[i].animation_count--;
 8002d58:	f8da 2004 	ldr.w	r2, [sl, #4]
 8002d5c:	3a01      	subs	r2, #1
 8002d5e:	f8ca 2004 	str.w	r2, [sl, #4]
    if(Bomb[i].state > 1){
 8002d62:	f89a 2000 	ldrb.w	r2, [sl]
 8002d66:	2a01      	cmp	r2, #1
 8002d68:	d929      	bls.n	8002dbe <drawbomb+0xfa>
      switch(Bomb[i].state){
 8002d6a:	2a03      	cmp	r2, #3
 8002d6c:	d016      	beq.n	8002d9c <drawbomb+0xd8>
 8002d6e:	2a04      	cmp	r2, #4
 8002d70:	d016      	beq.n	8002da0 <drawbomb+0xdc>
 8002d72:	2a02      	cmp	r2, #2
 8002d74:	d106      	bne.n	8002d84 <drawbomb+0xc0>
          LCD_printsprite(Bomb[i].ln, Bomb[i].cl, &bombshards_sprite[0]);
 8002d76:	4a1b      	ldr	r2, [pc, #108]	@ (8002de4 <drawbomb+0x120>)
          LCD_printsprite(Bomb[i].ln, Bomb[i].cl, &bombshards_sprite[2]);
 8002d78:	f99a 1002 	ldrsb.w	r1, [sl, #2]
 8002d7c:	f99a 0001 	ldrsb.w	r0, [sl, #1]
 8002d80:	f7fd ffa2 	bl	8000cc8 <LCD_printsprite>
      if(Bomb[i].animation_count > (period / 2)){
 8002d84:	f8da 2004 	ldr.w	r2, [sl, #4]
 8002d88:	9b01      	ldr	r3, [sp, #4]
 8002d8a:	429a      	cmp	r2, r3
 8002d8c:	d90a      	bls.n	8002da4 <drawbomb+0xe0>
  	    Bomb[i].animation_count--;
 8002d8e:	eb0b 05c5 	add.w	r5, fp, r5, lsl #3
 8002d92:	3a01      	subs	r2, #1
 8002d94:	606a      	str	r2, [r5, #4]
}
 8002d96:	b003      	add	sp, #12
 8002d98:	e8bd 8ff0 	ldmia.w	sp!, {r4, r5, r6, r7, r8, r9, sl, fp, pc}
          LCD_printsprite(Bomb[i].ln, Bomb[i].cl, &bombshards_sprite[1]);
 8002d9c:	463a      	mov	r2, r7
 8002d9e:	e7eb      	b.n	8002d78 <drawbomb+0xb4>
          LCD_printsprite(Bomb[i].ln, Bomb[i].cl, &bombshards_sprite[2]);
 8002da0:	4a11      	ldr	r2, [pc, #68]	@ (8002de8 <drawbomb+0x124>)
 8002da2:	e7e9      	b.n	8002d78 <drawbomb+0xb4>
	    Bomb[i].state++;
 8002da4:	f89a 2000 	ldrb.w	r2, [sl]
	    Bomb[i].animation_count = period;
 8002da8:	f8ca 4004 	str.w	r4, [sl, #4]
	    Bomb[i].state++;
 8002dac:	3201      	adds	r2, #1
 8002dae:	b2d2      	uxtb	r2, r2
	    if(Bomb[i].state > 4) {
 8002db0:	2a04      	cmp	r2, #4
	    Bomb[i].state++;
 8002db2:	f88a 2000 	strb.w	r2, [sl]
	      Bomb[i].state = 0;
 8002db6:	bf84      	itt	hi
 8002db8:	2200      	movhi	r2, #0
 8002dba:	f88a 2000 	strbhi.w	r2, [sl]
  for(int i = 0; i < BOMB_MAX; i++) {
 8002dbe:	3501      	adds	r5, #1
 8002dc0:	2d0a      	cmp	r5, #10
 8002dc2:	f10a 0a08 	add.w	sl, sl, #8
 8002dc6:	d18e      	bne.n	8002ce6 <drawbomb+0x22>
 8002dc8:	e7e5      	b.n	8002d96 <drawbomb+0xd2>
 8002dca:	bf00      	nop
 8002dcc:	200009a0 	.word	0x200009a0
 8002dd0:	08007ef0 	.word	0x08007ef0
 8002dd4:	08008160 	.word	0x08008160
 8002dd8:	0800816c 	.word	0x0800816c
 8002ddc:	08008178 	.word	0x08008178
 8002de0:	08008184 	.word	0x08008184
 8002de4:	08007ee4 	.word	0x08007ee4
 8002de8:	08007efc 	.word	0x08007efc

08002dec <drawinfo>:
  LCD_printgamestatbar(&Gamer);
 8002dec:	4801      	ldr	r0, [pc, #4]	@ (8002df4 <drawinfo+0x8>)
 8002dee:	f7fe b8dd 	b.w	8000fac <LCD_printgamestatbar>
 8002df2:	bf00      	nop
 8002df4:	20000a3c 	.word	0x20000a3c

08002df8 <createsmallstar>:
{
 8002df8:	b5f8      	push	{r3, r4, r5, r6, r7, lr}
  if(k == 0) k = create_period;
 8002dfa:	4c10      	ldr	r4, [pc, #64]	@ (8002e3c <createsmallstar+0x44>)
 8002dfc:	7823      	ldrb	r3, [r4, #0]
 8002dfe:	b99b      	cbnz	r3, 8002e28 <createsmallstar+0x30>
 8002e00:	7020      	strb	r0, [r4, #0]
{
 8002e02:	2300      	movs	r3, #0
      if(SmallStar[i].state == 0){
 8002e04:	4d0e      	ldr	r5, [pc, #56]	@ (8002e40 <createsmallstar+0x48>)
 8002e06:	eb03 0643 	add.w	r6, r3, r3, lsl #1
 8002e0a:	5daa      	ldrb	r2, [r5, r6]
 8002e0c:	1977      	adds	r7, r6, r5
 8002e0e:	b98a      	cbnz	r2, 8002e34 <createsmallstar+0x3c>
        SmallStar[i].state = getrand(1) + 1;
 8002e10:	2001      	movs	r0, #1
 8002e12:	f7fd f9a1 	bl	8000158 <getrand>
 8002e16:	3001      	adds	r0, #1
 8002e18:	55a8      	strb	r0, [r5, r6]
        SmallStar[i].ln = (int8)getrand(60);
 8002e1a:	203c      	movs	r0, #60	@ 0x3c
 8002e1c:	f7fd f99c 	bl	8000158 <getrand>
        SmallStar[i].cl = 127;
 8002e20:	237f      	movs	r3, #127	@ 0x7f
        SmallStar[i].ln = (int8)getrand(60);
 8002e22:	7078      	strb	r0, [r7, #1]
        SmallStar[i].cl = 127;
 8002e24:	70bb      	strb	r3, [r7, #2]
        break;
 8002e26:	e001      	b.n	8002e2c <createsmallstar+0x34>
  if(k == create_period)
 8002e28:	4283      	cmp	r3, r0
 8002e2a:	d0ea      	beq.n	8002e02 <createsmallstar+0xa>
  k--;
 8002e2c:	7823      	ldrb	r3, [r4, #0]
 8002e2e:	3b01      	subs	r3, #1
 8002e30:	7023      	strb	r3, [r4, #0]
}
 8002e32:	bdf8      	pop	{r3, r4, r5, r6, r7, pc}
    for(int i = 0; i < SMALLSTAR_MAX; i++)
 8002e34:	3301      	adds	r3, #1
 8002e36:	2b14      	cmp	r3, #20
 8002e38:	d1e5      	bne.n	8002e06 <createsmallstar+0xe>
 8002e3a:	e7f7      	b.n	8002e2c <createsmallstar+0x34>
 8002e3c:	200008ce 	.word	0x200008ce
 8002e40:	200008e9 	.word	0x200008e9

08002e44 <movesmallstar>:
{
 8002e44:	b530      	push	{r4, r5, lr}
  if(l == 0) l = move_period;
 8002e46:	490d      	ldr	r1, [pc, #52]	@ (8002e7c <movesmallstar+0x38>)
 8002e48:	780b      	ldrb	r3, [r1, #0]
 8002e4a:	b903      	cbnz	r3, 8002e4e <movesmallstar+0xa>
 8002e4c:	7008      	strb	r0, [r1, #0]
  if(l == move_period) {
 8002e4e:	780c      	ldrb	r4, [r1, #0]
 8002e50:	4284      	cmp	r4, r0
 8002e52:	d110      	bne.n	8002e76 <movesmallstar+0x32>
 8002e54:	2000      	movs	r0, #0
      if(SmallStar[i].cl < -2) SmallStar[i].state = 0;
 8002e56:	4605      	mov	r5, r0
 8002e58:	4b09      	ldr	r3, [pc, #36]	@ (8002e80 <movesmallstar+0x3c>)
      if(SmallStar[i].state != 0) {
 8002e5a:	781a      	ldrb	r2, [r3, #0]
 8002e5c:	b132      	cbz	r2, 8002e6c <movesmallstar+0x28>
      SmallStar[i].cl -= 1;
 8002e5e:	789a      	ldrb	r2, [r3, #2]
 8002e60:	3a01      	subs	r2, #1
 8002e62:	b252      	sxtb	r2, r2
 8002e64:	709a      	strb	r2, [r3, #2]
      if(SmallStar[i].cl < -2) SmallStar[i].state = 0;
 8002e66:	3202      	adds	r2, #2
 8002e68:	bfb8      	it	lt
 8002e6a:	701d      	strblt	r5, [r3, #0]
    for(uint8 i = 0; i < SMALLSTAR_MAX; i++)
 8002e6c:	3001      	adds	r0, #1
 8002e6e:	2814      	cmp	r0, #20
 8002e70:	f103 0303 	add.w	r3, r3, #3
 8002e74:	d1f1      	bne.n	8002e5a <movesmallstar+0x16>
  l--;
 8002e76:	3c01      	subs	r4, #1
 8002e78:	700c      	strb	r4, [r1, #0]
}
 8002e7a:	bd30      	pop	{r4, r5, pc}
 8002e7c:	200008cd 	.word	0x200008cd
 8002e80:	200008e9 	.word	0x200008e9

08002e84 <system_events_period25ms>:
{
 8002e84:	b508      	push	{r3, lr}
  movesmallstar(SMALLSTAR_MOVE_PERIOD_CALLS);
 8002e86:	2002      	movs	r0, #2
 8002e88:	f7ff ffdc 	bl	8002e44 <movesmallstar>
}
 8002e8c:	e8bd 4008 	ldmia.w	sp!, {r3, lr}
  movminmagaz(MINMAGAZ_MOVE_PERIOD_CALLS);
 8002e90:	200a      	movs	r0, #10
 8002e92:	f7ff bcf7 	b.w	8002884 <movminmagaz>
	...

08002e98 <drawsmallstar>:
{
 8002e98:	b5f8      	push	{r3, r4, r5, r6, r7, lr}
 8002e9a:	2500      	movs	r5, #0
      LCD_printsprite(SmallStar[i].ln, SmallStar[i].cl, &smallstar_sprite[SmallStar[i].state - 1]);
 8002e9c:	260c      	movs	r6, #12
 8002e9e:	4c09      	ldr	r4, [pc, #36]	@ (8002ec4 <drawsmallstar+0x2c>)
 8002ea0:	4f09      	ldr	r7, [pc, #36]	@ (8002ec8 <drawsmallstar+0x30>)
    if(SmallStar[i].state) {
 8002ea2:	7822      	ldrb	r2, [r4, #0]
 8002ea4:	b142      	cbz	r2, 8002eb8 <drawsmallstar+0x20>
      LCD_printsprite(SmallStar[i].ln, SmallStar[i].cl, &smallstar_sprite[SmallStar[i].state - 1]);
 8002ea6:	3a01      	subs	r2, #1
 8002ea8:	fb06 7202 	mla	r2, r6, r2, r7
 8002eac:	f994 1002 	ldrsb.w	r1, [r4, #2]
 8002eb0:	f994 0001 	ldrsb.w	r0, [r4, #1]
 8002eb4:	f7fd ff08 	bl	8000cc8 <LCD_printsprite>
  for(uint8 i = 0; i < SMALLSTAR_MAX; i++)
 8002eb8:	3501      	adds	r5, #1
 8002eba:	2d14      	cmp	r5, #20
 8002ebc:	f104 0403 	add.w	r4, r4, #3
 8002ec0:	d1ef      	bne.n	8002ea2 <drawsmallstar+0xa>
}
 8002ec2:	bdf8      	pop	{r3, r4, r5, r6, r7, pc}
 8002ec4:	200008e9 	.word	0x200008e9
 8002ec8:	08007e58 	.word	0x08007e58

08002ecc <system_events_period100ms>:
{
 8002ecc:	b508      	push	{r3, lr}
  batcheck();
 8002ece:	f7fd fa29 	bl	8000324 <batcheck>
  createsmallstar(SMALLSTAR_CREATE_PERIOD_CALLS);
 8002ed2:	2005      	movs	r0, #5
 8002ed4:	f7ff ff90 	bl	8002df8 <createsmallstar>
  drawsmallstar();  
 8002ed8:	f7ff ffde 	bl	8002e98 <drawsmallstar>
  check_btn_jstk();
 8002edc:	f7fd fc22 	bl	8000724 <check_btn_jstk>
}
 8002ee0:	e8bd 4008 	ldmia.w	sp!, {r3, lr}
  LCD_bufupload_buferase();
 8002ee4:	f7fd bd22 	b.w	800092c <LCD_bufupload_buferase>

08002ee8 <SchedGamerunEventsAdd>:
{
 8002ee8:	b508      	push	{r3, lr}
  SchedAddEvent(createevilstar, PRD_EVILSTAR_CREATE);
 8002eea:	4b0e      	ldr	r3, [pc, #56]	@ (8002f24 <SchedGamerunEventsAdd+0x3c>)
 8002eec:	480e      	ldr	r0, [pc, #56]	@ (8002f28 <SchedGamerunEventsAdd+0x40>)
 8002eee:	6819      	ldr	r1, [r3, #0]
 8002ef0:	f7ff f806 	bl	8001f00 <SchedAddEvent>
  SchedAddEvent(createbullet, BULLET_GENERATE_PERIOD_MS);
 8002ef4:	2182      	movs	r1, #130	@ 0x82
 8002ef6:	480d      	ldr	r0, [pc, #52]	@ (8002f2c <SchedGamerunEventsAdd+0x44>)
 8002ef8:	f7ff f802 	bl	8001f00 <SchedAddEvent>
  SchedAddEvent(createbomb, BOMB_GENERATE_PERIOD_MS);
 8002efc:	f44f 7196 	mov.w	r1, #300	@ 0x12c
 8002f00:	480b      	ldr	r0, [pc, #44]	@ (8002f30 <SchedGamerunEventsAdd+0x48>)
 8002f02:	f7fe fffd 	bl	8001f00 <SchedAddEvent>
  SchedAddEvent(movbullet, BULLET_MOVE_PERIOD_MS);
 8002f06:	210d      	movs	r1, #13
 8002f08:	480a      	ldr	r0, [pc, #40]	@ (8002f34 <SchedGamerunEventsAdd+0x4c>)
 8002f0a:	f7fe fff9 	bl	8001f00 <SchedAddEvent>
  SchedAddEvent(move_enemy_objects, PRD_ENEMY_MOVE);
 8002f0e:	4b0a      	ldr	r3, [pc, #40]	@ (8002f38 <SchedGamerunEventsAdd+0x50>)
 8002f10:	480a      	ldr	r0, [pc, #40]	@ (8002f3c <SchedGamerunEventsAdd+0x54>)
 8002f12:	7819      	ldrb	r1, [r3, #0]
 8002f14:	f7fe fff4 	bl	8001f00 <SchedAddEvent>
}
 8002f18:	e8bd 4008 	ldmia.w	sp!, {r3, lr}
  SchedAddEvent(gameprogress, 75);
 8002f1c:	214b      	movs	r1, #75	@ 0x4b
 8002f1e:	4808      	ldr	r0, [pc, #32]	@ (8002f40 <SchedGamerunEventsAdd+0x58>)
 8002f20:	f7fe bfee 	b.w	8001f00 <SchedAddEvent>
 8002f24:	2000004c 	.word	0x2000004c
 8002f28:	080024c5 	.word	0x080024c5
 8002f2c:	08002521 	.word	0x08002521
 8002f30:	08002585 	.word	0x08002585
 8002f34:	0800239d 	.word	0x0800239d
 8002f38:	20000048 	.word	0x20000048
 8002f3c:	08002875 	.word	0x08002875
 8002f40:	080025e9 	.word	0x080025e9

08002f44 <statehandler_gameinitnew>:
{
 8002f44:	b5f8      	push	{r3, r4, r5, r6, r7, lr}
  gamestate = STATE_STARTGAME;
 8002f46:	2706      	movs	r7, #6
  gameevent = EVENT_NONE;
 8002f48:	2400      	movs	r4, #0
  gamestate = STATE_STARTGAME;
 8002f4a:	4b22      	ldr	r3, [pc, #136]	@ (8002fd4 <statehandler_gameinitnew+0x90>)
  if(GAME_STORY_STRING_NUM < 4)
 8002f4c:	4d22      	ldr	r5, [pc, #136]	@ (8002fd8 <statehandler_gameinitnew+0x94>)
  gamestate = STATE_STARTGAME;
 8002f4e:	701f      	strb	r7, [r3, #0]
  if(GAME_STORY_STRING_NUM < 4)
 8002f50:	782b      	ldrb	r3, [r5, #0]
  gameevent = EVENT_NONE;
 8002f52:	4e22      	ldr	r6, [pc, #136]	@ (8002fdc <statehandler_gameinitnew+0x98>)
  if(GAME_STORY_STRING_NUM < 4)
 8002f54:	2b03      	cmp	r3, #3
  gameevent = EVENT_NONE;
 8002f56:	7034      	strb	r4, [r6, #0]
  if(GAME_STORY_STRING_NUM < 4)
 8002f58:	d820      	bhi.n	8002f9c <statehandler_gameinitnew+0x58>
    LCD_printstr8x5(gamestory_string[GAME_STORY_STRING_NUM], 0, 0);
 8002f5a:	2696      	movs	r6, #150	@ 0x96
 8002f5c:	4820      	ldr	r0, [pc, #128]	@ (8002fe0 <statehandler_gameinitnew+0x9c>)
 8002f5e:	4622      	mov	r2, r4
 8002f60:	fb06 0003 	mla	r0, r6, r3, r0
 8002f64:	4621      	mov	r1, r4
 8002f66:	f7fd fc81 	bl	800086c <LCD_printstr8x5>
    LCD_printstr8x5((uint8*)"далее...", 7, 78);
 8002f6a:	224e      	movs	r2, #78	@ 0x4e
 8002f6c:	2107      	movs	r1, #7
 8002f6e:	481d      	ldr	r0, [pc, #116]	@ (8002fe4 <statehandler_gameinitnew+0xa0>)
 8002f70:	f7fd fc7c 	bl	800086c <LCD_printstr8x5>
    if(B1.BtnON || B2.BtnON || B3.BtnON || B4.BtnON)
 8002f74:	4e1c      	ldr	r6, [pc, #112]	@ (8002fe8 <statehandler_gameinitnew+0xa4>)
 8002f76:	481d      	ldr	r0, [pc, #116]	@ (8002fec <statehandler_gameinitnew+0xa8>)
 8002f78:	7c73      	ldrb	r3, [r6, #17]
 8002f7a:	7c42      	ldrb	r2, [r0, #17]
 8002f7c:	491c      	ldr	r1, [pc, #112]	@ (8002ff0 <statehandler_gameinitnew+0xac>)
 8002f7e:	4313      	orrs	r3, r2
 8002f80:	7c4a      	ldrb	r2, [r1, #17]
 8002f82:	4313      	orrs	r3, r2
 8002f84:	4a1b      	ldr	r2, [pc, #108]	@ (8002ff4 <statehandler_gameinitnew+0xb0>)
 8002f86:	7c57      	ldrb	r7, [r2, #17]
 8002f88:	433b      	orrs	r3, r7
 8002f8a:	d006      	beq.n	8002f9a <statehandler_gameinitnew+0x56>
      GAME_STORY_STRING_NUM++;
 8002f8c:	782b      	ldrb	r3, [r5, #0]
      B1.BtnON = 0;
 8002f8e:	7474      	strb	r4, [r6, #17]
      GAME_STORY_STRING_NUM++;
 8002f90:	3301      	adds	r3, #1
      B2.BtnON = 0;
 8002f92:	7444      	strb	r4, [r0, #17]
      B3.BtnON = 0;
 8002f94:	744c      	strb	r4, [r1, #17]
      B4.BtnON = 0;
 8002f96:	7454      	strb	r4, [r2, #17]
      GAME_STORY_STRING_NUM++;
 8002f98:	702b      	strb	r3, [r5, #0]
}
 8002f9a:	bdf8      	pop	{r3, r4, r5, r6, r7, pc}
    Gamer.health = 24;
 8002f9c:	4b16      	ldr	r3, [pc, #88]	@ (8002ff8 <statehandler_gameinitnew+0xb4>)
 8002f9e:	4a17      	ldr	r2, [pc, #92]	@ (8002ffc <statehandler_gameinitnew+0xb8>)
    Gamer.ln = 16;
 8002fa0:	2110      	movs	r1, #16
    Gamer.health = 24;
 8002fa2:	601a      	str	r2, [r3, #0]
    Gamer.bombs = 10;
 8002fa4:	220a      	movs	r2, #10
 8002fa6:	711a      	strb	r2, [r3, #4]
    Gamer.money = 50;
 8002fa8:	2232      	movs	r2, #50	@ 0x32
    Gamer.ln = 16;
 8002faa:	8199      	strh	r1, [r3, #12]
    Gamer.money = 50;
 8002fac:	609a      	str	r2, [r3, #8]
    BTN_HOLD_ON_DELAY = 50;
 8002fae:	4b14      	ldr	r3, [pc, #80]	@ (8003000 <statehandler_gameinitnew+0xbc>)
 8002fb0:	601a      	str	r2, [r3, #0]
    GameFlags.gameflagsreg = 0b00001101;
 8002fb2:	220d      	movs	r2, #13
    Game.level_progress = 0;
 8002fb4:	4b13      	ldr	r3, [pc, #76]	@ (8003004 <statehandler_gameinitnew+0xc0>)
 8002fb6:	705c      	strb	r4, [r3, #1]
    GameFlags.gameflagsreg = 0b00001101;
 8002fb8:	4b13      	ldr	r3, [pc, #76]	@ (8003008 <statehandler_gameinitnew+0xc4>)
 8002fba:	701a      	strb	r2, [r3, #0]
    PRD_EVILSTAR_CREATE = PRD_EVILSTAR_CREATE_INITVAL;
 8002fbc:	f44f 62af 	mov.w	r2, #1400	@ 0x578
 8002fc0:	4b12      	ldr	r3, [pc, #72]	@ (800300c <statehandler_gameinitnew+0xc8>)
 8002fc2:	601a      	str	r2, [r3, #0]
    PRD_ENEMY_MOVE = PRD_ENEMY_MOVE_INITVAL;
 8002fc4:	2218      	movs	r2, #24
 8002fc6:	4b12      	ldr	r3, [pc, #72]	@ (8003010 <statehandler_gameinitnew+0xcc>)
 8002fc8:	701a      	strb	r2, [r3, #0]
    SchedGamerunEventsAdd();
 8002fca:	f7ff ff8d 	bl	8002ee8 <SchedGamerunEventsAdd>
    gameevent = EVENT_EXIT; 
 8002fce:	7037      	strb	r7, [r6, #0]
}
 8002fd0:	e7e3      	b.n	8002f9a <statehandler_gameinitnew+0x56>
 8002fd2:	bf00      	nop
 8002fd4:	200008d2 	.word	0x200008d2
 8002fd8:	200008e8 	.word	0x200008e8
 8002fdc:	200008d0 	.word	0x200008d0
 8002fe0:	08007750 	.word	0x08007750
 8002fe4:	080074bb 	.word	0x080074bb
 8002fe8:	20000134 	.word	0x20000134
 8002fec:	2000011c 	.word	0x2000011c
 8002ff0:	20000104 	.word	0x20000104
 8002ff4:	200000ec 	.word	0x200000ec
 8002ff8:	20000a3c 	.word	0x20000a3c
 8002ffc:	00040418 	.word	0x00040418
 8003000:	20000008 	.word	0x20000008
 8003004:	20000a4c 	.word	0x20000a4c
 8003008:	200008d4 	.word	0x200008d4
 800300c:	2000004c 	.word	0x2000004c
 8003010:	20000048 	.word	0x20000048

08003014 <statehandler_gameload>:
  statehandler_gameinitnew();
 8003014:	f7ff bf96 	b.w	8002f44 <statehandler_gameinitnew>

08003018 <SchedGamerunEventsPause>:
{
 8003018:	b508      	push	{r3, lr}
  SchedPauseEvent(createevilstar);
 800301a:	480a      	ldr	r0, [pc, #40]	@ (8003044 <SchedGamerunEventsPause+0x2c>)
 800301c:	f7fe ffda 	bl	8001fd4 <SchedPauseEvent>
  SchedPauseEvent(createbullet);
 8003020:	4809      	ldr	r0, [pc, #36]	@ (8003048 <SchedGamerunEventsPause+0x30>)
 8003022:	f7fe ffd7 	bl	8001fd4 <SchedPauseEvent>
  SchedPauseEvent(createbomb);
 8003026:	4809      	ldr	r0, [pc, #36]	@ (800304c <SchedGamerunEventsPause+0x34>)
 8003028:	f7fe ffd4 	bl	8001fd4 <SchedPauseEvent>
  SchedPauseEvent(movbullet);
 800302c:	4808      	ldr	r0, [pc, #32]	@ (8003050 <SchedGamerunEventsPause+0x38>)
 800302e:	f7fe ffd1 	bl	8001fd4 <SchedPauseEvent>
  SchedPauseEvent(move_enemy_objects);
 8003032:	4808      	ldr	r0, [pc, #32]	@ (8003054 <SchedGamerunEventsPause+0x3c>)
 8003034:	f7fe ffce 	bl	8001fd4 <SchedPauseEvent>
}
 8003038:	e8bd 4008 	ldmia.w	sp!, {r3, lr}
  SchedPauseEvent(gameprogress);
 800303c:	4806      	ldr	r0, [pc, #24]	@ (8003058 <SchedGamerunEventsPause+0x40>)
 800303e:	f7fe bfc9 	b.w	8001fd4 <SchedPauseEvent>
 8003042:	bf00      	nop
 8003044:	080024c5 	.word	0x080024c5
 8003048:	08002521 	.word	0x08002521
 800304c:	08002585 	.word	0x08002585
 8003050:	0800239d 	.word	0x0800239d
 8003054:	08002875 	.word	0x08002875
 8003058:	080025e9 	.word	0x080025e9

0800305c <SchedGamerunEventsResume>:
{
 800305c:	b508      	push	{r3, lr}
  SchedResumeEvent(createevilstar);
 800305e:	480a      	ldr	r0, [pc, #40]	@ (8003088 <SchedGamerunEventsResume+0x2c>)
 8003060:	f7fe ffce 	bl	8002000 <SchedResumeEvent>
  SchedResumeEvent(createbullet);
 8003064:	4809      	ldr	r0, [pc, #36]	@ (800308c <SchedGamerunEventsResume+0x30>)
 8003066:	f7fe ffcb 	bl	8002000 <SchedResumeEvent>
  SchedResumeEvent(createbomb);
 800306a:	4809      	ldr	r0, [pc, #36]	@ (8003090 <SchedGamerunEventsResume+0x34>)
 800306c:	f7fe ffc8 	bl	8002000 <SchedResumeEvent>
  SchedResumeEvent(movbullet);
 8003070:	4808      	ldr	r0, [pc, #32]	@ (8003094 <SchedGamerunEventsResume+0x38>)
 8003072:	f7fe ffc5 	bl	8002000 <SchedResumeEvent>
  SchedResumeEvent(move_enemy_objects);
 8003076:	4808      	ldr	r0, [pc, #32]	@ (8003098 <SchedGamerunEventsResume+0x3c>)
 8003078:	f7fe ffc2 	bl	8002000 <SchedResumeEvent>
}
 800307c:	e8bd 4008 	ldmia.w	sp!, {r3, lr}
  SchedResumeEvent(gameprogress);
 8003080:	4806      	ldr	r0, [pc, #24]	@ (800309c <SchedGamerunEventsResume+0x40>)
 8003082:	f7fe bfbd 	b.w	8002000 <SchedResumeEvent>
 8003086:	bf00      	nop
 8003088:	080024c5 	.word	0x080024c5
 800308c:	08002521 	.word	0x08002521
 8003090:	08002585 	.word	0x08002585
 8003094:	0800239d 	.word	0x0800239d
 8003098:	08002875 	.word	0x08002875
 800309c:	080025e9 	.word	0x080025e9

080030a0 <statehandler_gamerun>:
{
 80030a0:	b5f0      	push	{r4, r5, r6, r7, lr}
  if(gamestate == STATE_PAUSEMENU) SchedGamerunEventsResume();
 80030a2:	4c85      	ldr	r4, [pc, #532]	@ (80032b8 <statehandler_gamerun+0x218>)
{
 80030a4:	b085      	sub	sp, #20
  if(gamestate == STATE_PAUSEMENU) SchedGamerunEventsResume();
 80030a6:	7823      	ldrb	r3, [r4, #0]
 80030a8:	2b03      	cmp	r3, #3
 80030aa:	d101      	bne.n	80030b0 <statehandler_gamerun+0x10>
 80030ac:	f7ff ffd6 	bl	800305c <SchedGamerunEventsResume>
  gamestate = STATE_RUNGAME;
 80030b0:	2307      	movs	r3, #7
 80030b2:	7023      	strb	r3, [r4, #0]
  if(GameFlags.WinTheGame){
 80030b4:	4b81      	ldr	r3, [pc, #516]	@ (80032bc <statehandler_gamerun+0x21c>)
 80030b6:	781b      	ldrb	r3, [r3, #0]
 80030b8:	f013 0310 	ands.w	r3, r3, #16
 80030bc:	d077      	beq.n	80031ae <statehandler_gamerun+0x10e>
    SchedGamerunEventsPause();
 80030be:	f7ff ffab 	bl	8003018 <SchedGamerunEventsPause>
    LCD_printstr8x5((uint8*)"ПОБЕДА!!!", 2, 35);
 80030c2:	2223      	movs	r2, #35	@ 0x23
 80030c4:	2102      	movs	r1, #2
 80030c6:	487e      	ldr	r0, [pc, #504]	@ (80032c0 <statehandler_gamerun+0x220>)
 80030c8:	f7fd fbd0 	bl	800086c <LCD_printstr8x5>
    u16_to_str(string, StarsKilled, 10);
 80030cc:	4b7d      	ldr	r3, [pc, #500]	@ (80032c4 <statehandler_gamerun+0x224>)
 80030ce:	220a      	movs	r2, #10
 80030d0:	6819      	ldr	r1, [r3, #0]
 80030d2:	a801      	add	r0, sp, #4
 80030d4:	f7fd f851 	bl	800017a <u16_to_str>
    LCD_printstr8x5((uint8*)"  УБИТО ЗВЕЗД:", 4, 5);
 80030d8:	2205      	movs	r2, #5
 80030da:	2104      	movs	r1, #4
 80030dc:	487a      	ldr	r0, [pc, #488]	@ (80032c8 <statehandler_gamerun+0x228>)
 80030de:	f7fd fbc5 	bl	800086c <LCD_printstr8x5>
    LCD_printstr8x5((uint8*)string, 4, 90);
 80030e2:	2104      	movs	r1, #4
 80030e4:	225a      	movs	r2, #90	@ 0x5a
 80030e6:	eb0d 0001 	add.w	r0, sp, r1
 80030ea:	f7fd fbbf 	bl	800086c <LCD_printstr8x5>
    u16_to_str(string, CoinReceived, 10);
 80030ee:	4b77      	ldr	r3, [pc, #476]	@ (80032cc <statehandler_gamerun+0x22c>)
 80030f0:	220a      	movs	r2, #10
 80030f2:	6819      	ldr	r1, [r3, #0]
 80030f4:	a801      	add	r0, sp, #4
 80030f6:	f7fd f840 	bl	800017a <u16_to_str>
    LCD_printstr8x5((uint8*)"СОБРАНО МОНЕТ:", 5, 5);
 80030fa:	2205      	movs	r2, #5
    if(tempcounter++ > 50) {
 80030fc:	4d74      	ldr	r5, [pc, #464]	@ (80032d0 <statehandler_gamerun+0x230>)
    LCD_printstr8x5((uint8*)"СОБРАНО МОНЕТ:", 5, 5);
 80030fe:	4611      	mov	r1, r2
 8003100:	4874      	ldr	r0, [pc, #464]	@ (80032d4 <statehandler_gamerun+0x234>)
 8003102:	f7fd fbb3 	bl	800086c <LCD_printstr8x5>
    LCD_printstr8x5((uint8*)string, 5, 90);
 8003106:	225a      	movs	r2, #90	@ 0x5a
 8003108:	2105      	movs	r1, #5
 800310a:	a801      	add	r0, sp, #4
 800310c:	f7fd fbae 	bl	800086c <LCD_printstr8x5>
    if(tempcounter++ > 50) {
 8003110:	682b      	ldr	r3, [r5, #0]
 8003112:	4c71      	ldr	r4, [pc, #452]	@ (80032d8 <statehandler_gamerun+0x238>)
 8003114:	1c5a      	adds	r2, r3, #1
 8003116:	2b32      	cmp	r3, #50	@ 0x32
 8003118:	602a      	str	r2, [r5, #0]
 800311a:	4870      	ldr	r0, [pc, #448]	@ (80032dc <statehandler_gamerun+0x23c>)
 800311c:	4970      	ldr	r1, [pc, #448]	@ (80032e0 <statehandler_gamerun+0x240>)
 800311e:	4a71      	ldr	r2, [pc, #452]	@ (80032e4 <statehandler_gamerun+0x244>)
		IF_ANY_BTN_PRESS(
 8003120:	7c63      	ldrb	r3, [r4, #17]
    if(tempcounter++ > 50) {
 8003122:	d93b      	bls.n	800319c <statehandler_gamerun+0xfc>
		IF_ANY_BTN_PRESS(
 8003124:	7c46      	ldrb	r6, [r0, #17]
 8003126:	4333      	orrs	r3, r6
 8003128:	7c4e      	ldrb	r6, [r1, #17]
 800312a:	4333      	orrs	r3, r6
 800312c:	7c56      	ldrb	r6, [r2, #17]
 800312e:	4333      	orrs	r3, r6
 8003130:	d00b      	beq.n	800314a <statehandler_gamerun+0xaa>
 8003132:	2300      	movs	r3, #0
 8003134:	744b      	strb	r3, [r1, #17]
 8003136:	2114      	movs	r1, #20
 8003138:	7453      	strb	r3, [r2, #17]
 800313a:	4a6b      	ldr	r2, [pc, #428]	@ (80032e8 <statehandler_gamerun+0x248>)
 800313c:	7463      	strb	r3, [r4, #17]
 800313e:	7011      	strb	r1, [r2, #0]
 8003140:	2106      	movs	r1, #6
 8003142:	4a6a      	ldr	r2, [pc, #424]	@ (80032ec <statehandler_gamerun+0x24c>)
 8003144:	7443      	strb	r3, [r0, #17]
 8003146:	7011      	strb	r1, [r2, #0]
 8003148:	602b      	str	r3, [r5, #0]
  SchedEventSetPeriod(createevilstar, PRD_EVILSTAR_CREATE);
 800314a:	4b69      	ldr	r3, [pc, #420]	@ (80032f0 <statehandler_gamerun+0x250>)
 800314c:	4869      	ldr	r0, [pc, #420]	@ (80032f4 <statehandler_gamerun+0x254>)
 800314e:	6819      	ldr	r1, [r3, #0]
 8003150:	f7fe ff6c 	bl	800202c <SchedEventSetPeriod>
  SchedEventSetPeriod(move_enemy_objects, PRD_ENEMY_MOVE);
 8003154:	4b68      	ldr	r3, [pc, #416]	@ (80032f8 <statehandler_gamerun+0x258>)
 8003156:	4869      	ldr	r0, [pc, #420]	@ (80032fc <statehandler_gamerun+0x25c>)
 8003158:	7819      	ldrb	r1, [r3, #0]
 800315a:	f7fe ff67 	bl	800202c <SchedEventSetPeriod>
  movgamer();
 800315e:	f7ff faaf 	bl	80026c0 <movgamer>
  movbomb();
 8003162:	f7ff fb51 	bl	8002808 <movbomb>
  bullet_evilstar_collision();
 8003166:	f7ff fbb3 	bl	80028d0 <bullet_evilstar_collision>
  gamer_evilstar_collision();
 800316a:	f7ff fc5d 	bl	8002a28 <gamer_evilstar_collision>
  gamer_coin_collision();
 800316e:	f7ff fc9f 	bl	8002ab0 <gamer_coin_collision>
  gamer_minmagaz_collision();
 8003172:	f7ff fcd7 	bl	8002b24 <gamer_minmagaz_collision>
  bomb_evilstar_collision();
 8003176:	f7ff fbed 	bl	8002954 <bomb_evilstar_collision>
  drawevilstar();
 800317a:	f7ff fcff 	bl	8002b7c <drawevilstar>
  drawcoin();
 800317e:	f7ff fd31 	bl	8002be4 <drawcoin>
  drawminmagaz();
 8003182:	f7ff fd5f 	bl	8002c44 <drawminmagaz>
  drawbullet();
 8003186:	f7ff fd85 	bl	8002c94 <drawbullet>
  drawbomb(BOMB_ANIMATION_PERIOD_CALLS);
 800318a:	2004      	movs	r0, #4
 800318c:	f7ff fd9a 	bl	8002cc4 <drawbomb>
  drawgamer();
 8003190:	f7ff fd68 	bl	8002c64 <drawgamer>
  drawinfo();
 8003194:	f7ff fe2a 	bl	8002dec <drawinfo>
}
 8003198:	b005      	add	sp, #20
 800319a:	bdf0      	pop	{r4, r5, r6, r7, pc}
    IF_ANY_BTN_PRESS();
 800319c:	2b00      	cmp	r3, #0
 800319e:	f000 8082 	beq.w	80032a6 <statehandler_gamerun+0x206>
 80031a2:	2300      	movs	r3, #0
 80031a4:	7463      	strb	r3, [r4, #17]
 80031a6:	7443      	strb	r3, [r0, #17]
 80031a8:	744b      	strb	r3, [r1, #17]
 80031aa:	7453      	strb	r3, [r2, #17]
 80031ac:	e7cd      	b.n	800314a <statehandler_gamerun+0xaa>
    if(Gamer.health > 0)
 80031ae:	4d54      	ldr	r5, [pc, #336]	@ (8003300 <statehandler_gamerun+0x260>)
 80031b0:	f995 2000 	ldrsb.w	r2, [r5]
 80031b4:	2a00      	cmp	r2, #0
 80031b6:	dd09      	ble.n	80031cc <statehandler_gamerun+0x12c>
      if(B4.BtnON) {
 80031b8:	484a      	ldr	r0, [pc, #296]	@ (80032e4 <statehandler_gamerun+0x244>)
 80031ba:	4a4c      	ldr	r2, [pc, #304]	@ (80032ec <statehandler_gamerun+0x24c>)
 80031bc:	7c41      	ldrb	r1, [r0, #17]
 80031be:	b119      	cbz	r1, 80031c8 <statehandler_gamerun+0x128>
        B4.BtnON = 0;
 80031c0:	7443      	strb	r3, [r0, #17]
        gameevent = EVENT_PAUSE;
 80031c2:	2305      	movs	r3, #5
 80031c4:	7013      	strb	r3, [r2, #0]
 80031c6:	e7c0      	b.n	800314a <statehandler_gamerun+0xaa>
      else gameevent = EVENT_NONE;
 80031c8:	7011      	strb	r1, [r2, #0]
 80031ca:	e7be      	b.n	800314a <statehandler_gamerun+0xaa>
      if(deadgamerdrawcounter >= (3 * (GAMERDEATH_ANIMATION_PERIOD / 4))){
 80031cc:	4c46      	ldr	r4, [pc, #280]	@ (80032e8 <statehandler_gamerun+0x248>)
 80031ce:	7823      	ldrb	r3, [r4, #0]
 80031d0:	2b0e      	cmp	r3, #14
 80031d2:	d909      	bls.n	80031e8 <statehandler_gamerun+0x148>
        LCD_printsprite(Gamer.ln, Gamer.cl, &gamer_dead_0_sprite);
 80031d4:	4a4b      	ldr	r2, [pc, #300]	@ (8003304 <statehandler_gamerun+0x264>)
 80031d6:	f995 100d 	ldrsb.w	r1, [r5, #13]
 80031da:	f995 000c 	ldrsb.w	r0, [r5, #12]
 80031de:	f7fd fd73 	bl	8000cc8 <LCD_printsprite>
         deadgamerdrawcounter--;
 80031e2:	7823      	ldrb	r3, [r4, #0]
 80031e4:	3b01      	subs	r3, #1
 80031e6:	7023      	strb	r3, [r4, #0]
      if(deadgamerdrawcounter < (3 * (GAMERDEATH_ANIMATION_PERIOD / 4) + (GAMERDEATH_ANIMATION_PERIOD % 4)) && deadgamerdrawcounter > 0) {
 80031e8:	7823      	ldrb	r3, [r4, #0]
 80031ea:	3b01      	subs	r3, #1
 80031ec:	2b0d      	cmp	r3, #13
 80031ee:	d81a      	bhi.n	8003226 <statehandler_gamerun+0x186>
        LCD_printsprite(Gamer.ln, Gamer.cl, &gamer_dead_1_sprite);
 80031f0:	f995 100d 	ldrsb.w	r1, [r5, #13]
 80031f4:	f995 000c 	ldrsb.w	r0, [r5, #12]
 80031f8:	4a43      	ldr	r2, [pc, #268]	@ (8003308 <statehandler_gamerun+0x268>)
 80031fa:	f7fd fd65 	bl	8000cc8 <LCD_printsprite>
        deadgamerdrawcounter--;
 80031fe:	7823      	ldrb	r3, [r4, #0]
        IF_ANY_BTN_PRESS()
 8003200:	4d35      	ldr	r5, [pc, #212]	@ (80032d8 <statehandler_gamerun+0x238>)
 8003202:	4836      	ldr	r0, [pc, #216]	@ (80032dc <statehandler_gamerun+0x23c>)
        deadgamerdrawcounter--;
 8003204:	3b01      	subs	r3, #1
        IF_ANY_BTN_PRESS()
 8003206:	7c42      	ldrb	r2, [r0, #17]
 8003208:	4935      	ldr	r1, [pc, #212]	@ (80032e0 <statehandler_gamerun+0x240>)
        deadgamerdrawcounter--;
 800320a:	7023      	strb	r3, [r4, #0]
        IF_ANY_BTN_PRESS()
 800320c:	7c6b      	ldrb	r3, [r5, #17]
 800320e:	4313      	orrs	r3, r2
 8003210:	7c4a      	ldrb	r2, [r1, #17]
 8003212:	4313      	orrs	r3, r2
 8003214:	4a33      	ldr	r2, [pc, #204]	@ (80032e4 <statehandler_gamerun+0x244>)
 8003216:	7c56      	ldrb	r6, [r2, #17]
 8003218:	4333      	orrs	r3, r6
 800321a:	d004      	beq.n	8003226 <statehandler_gamerun+0x186>
 800321c:	2300      	movs	r3, #0
 800321e:	746b      	strb	r3, [r5, #17]
 8003220:	7443      	strb	r3, [r0, #17]
 8003222:	744b      	strb	r3, [r1, #17]
 8003224:	7453      	strb	r3, [r2, #17]
      if(deadgamerdrawcounter == 0)
 8003226:	7825      	ldrb	r5, [r4, #0]
 8003228:	2d00      	cmp	r5, #0
 800322a:	d18e      	bne.n	800314a <statehandler_gamerun+0xaa>
        LCD_printstr8x5((uint8*)"ЗВЕЗДАНУЛСЯ НАСМЕРТЬ!", 2, 2);
 800322c:	2202      	movs	r2, #2
 800322e:	4837      	ldr	r0, [pc, #220]	@ (800330c <statehandler_gamerun+0x26c>)
 8003230:	4611      	mov	r1, r2
 8003232:	f7fd fb1b 	bl	800086c <LCD_printstr8x5>
        u16_to_str(string, StarsKilled, 10);
 8003236:	4b23      	ldr	r3, [pc, #140]	@ (80032c4 <statehandler_gamerun+0x224>)
 8003238:	220a      	movs	r2, #10
 800323a:	6819      	ldr	r1, [r3, #0]
 800323c:	a801      	add	r0, sp, #4
 800323e:	f7fc ff9c 	bl	800017a <u16_to_str>
		LCD_printstr8x5((uint8*)"  УБИТО ЗВЕЗД:", 4, 5);
 8003242:	2205      	movs	r2, #5
 8003244:	2104      	movs	r1, #4
 8003246:	4820      	ldr	r0, [pc, #128]	@ (80032c8 <statehandler_gamerun+0x228>)
 8003248:	f7fd fb10 	bl	800086c <LCD_printstr8x5>
		LCD_printstr8x5((uint8*)string, 4, 90);
 800324c:	2104      	movs	r1, #4
 800324e:	225a      	movs	r2, #90	@ 0x5a
 8003250:	eb0d 0001 	add.w	r0, sp, r1
 8003254:	f7fd fb0a 	bl	800086c <LCD_printstr8x5>
		u16_to_str(string, CoinReceived, 10);
 8003258:	4b1c      	ldr	r3, [pc, #112]	@ (80032cc <statehandler_gamerun+0x22c>)
 800325a:	220a      	movs	r2, #10
 800325c:	6819      	ldr	r1, [r3, #0]
 800325e:	a801      	add	r0, sp, #4
 8003260:	f7fc ff8b 	bl	800017a <u16_to_str>
		LCD_printstr8x5((uint8*)"СОБРАНО МОНЕТ:", 5, 5);
 8003264:	2205      	movs	r2, #5
 8003266:	481b      	ldr	r0, [pc, #108]	@ (80032d4 <statehandler_gamerun+0x234>)
 8003268:	4611      	mov	r1, r2
 800326a:	f7fd faff 	bl	800086c <LCD_printstr8x5>
		LCD_printstr8x5((uint8*)string, 5, 90);
 800326e:	225a      	movs	r2, #90	@ 0x5a
 8003270:	2105      	movs	r1, #5
 8003272:	a801      	add	r0, sp, #4
 8003274:	f7fd fafa 	bl	800086c <LCD_printstr8x5>
        IF_ANY_BTN_PRESS(
 8003278:	4e17      	ldr	r6, [pc, #92]	@ (80032d8 <statehandler_gamerun+0x238>)
 800327a:	4818      	ldr	r0, [pc, #96]	@ (80032dc <statehandler_gamerun+0x23c>)
 800327c:	7c73      	ldrb	r3, [r6, #17]
 800327e:	7c42      	ldrb	r2, [r0, #17]
 8003280:	4917      	ldr	r1, [pc, #92]	@ (80032e0 <statehandler_gamerun+0x240>)
 8003282:	4313      	orrs	r3, r2
 8003284:	7c4a      	ldrb	r2, [r1, #17]
 8003286:	4313      	orrs	r3, r2
 8003288:	4a16      	ldr	r2, [pc, #88]	@ (80032e4 <statehandler_gamerun+0x244>)
 800328a:	7c57      	ldrb	r7, [r2, #17]
 800328c:	433b      	orrs	r3, r7
 800328e:	f43f af5c 	beq.w	800314a <statehandler_gamerun+0xaa>
 8003292:	2314      	movs	r3, #20
 8003294:	7455      	strb	r5, [r2, #17]
 8003296:	2206      	movs	r2, #6
 8003298:	7023      	strb	r3, [r4, #0]
 800329a:	4b14      	ldr	r3, [pc, #80]	@ (80032ec <statehandler_gamerun+0x24c>)
 800329c:	7475      	strb	r5, [r6, #17]
 800329e:	7445      	strb	r5, [r0, #17]
 80032a0:	744d      	strb	r5, [r1, #17]
 80032a2:	701a      	strb	r2, [r3, #0]
 80032a4:	e751      	b.n	800314a <statehandler_gamerun+0xaa>
    IF_ANY_BTN_PRESS();
 80032a6:	7c4d      	ldrb	r5, [r1, #17]
 80032a8:	7c43      	ldrb	r3, [r0, #17]
 80032aa:	432b      	orrs	r3, r5
 80032ac:	7c55      	ldrb	r5, [r2, #17]
 80032ae:	432b      	orrs	r3, r5
 80032b0:	f47f af77 	bne.w	80031a2 <statehandler_gamerun+0x102>
 80032b4:	e749      	b.n	800314a <statehandler_gamerun+0xaa>
 80032b6:	bf00      	nop
 80032b8:	200008d2 	.word	0x200008d2
 80032bc:	200008d4 	.word	0x200008d4
 80032c0:	080074c4 	.word	0x080074c4
 80032c4:	200008d8 	.word	0x200008d8
 80032c8:	080074ce 	.word	0x080074ce
 80032cc:	200008dc 	.word	0x200008dc
 80032d0:	200008c8 	.word	0x200008c8
 80032d4:	080074dd 	.word	0x080074dd
 80032d8:	20000134 	.word	0x20000134
 80032dc:	2000011c 	.word	0x2000011c
 80032e0:	20000104 	.word	0x20000104
 80032e4:	200000ec 	.word	0x200000ec
 80032e8:	2000001a 	.word	0x2000001a
 80032ec:	200008d0 	.word	0x200008d0
 80032f0:	2000004c 	.word	0x2000004c
 80032f4:	080024c5 	.word	0x080024c5
 80032f8:	20000048 	.word	0x20000048
 80032fc:	08002875 	.word	0x08002875
 8003300:	20000a3c 	.word	0x20000a3c
 8003304:	08008510 	.word	0x08008510
 8003308:	080084c0 	.word	0x080084c0
 800330c:	080074ec 	.word	0x080074ec

08003310 <stateinit_exitmagazin>:
{
 8003310:	b508      	push	{r3, lr}
  if(++counter < 15) LCD_printsprite((int8)(8 + counter * 4), 64, &magazin_sprite);
 8003312:	4a0f      	ldr	r2, [pc, #60]	@ (8003350 <stateinit_exitmagazin+0x40>)
 8003314:	7810      	ldrb	r0, [r2, #0]
 8003316:	1c43      	adds	r3, r0, #1
 8003318:	b2db      	uxtb	r3, r3
 800331a:	2b0e      	cmp	r3, #14
 800331c:	7013      	strb	r3, [r2, #0]
 800331e:	d80c      	bhi.n	800333a <stateinit_exitmagazin+0x2a>
 8003320:	3003      	adds	r0, #3
 8003322:	0080      	lsls	r0, r0, #2
 8003324:	2140      	movs	r1, #64	@ 0x40
 8003326:	4a0b      	ldr	r2, [pc, #44]	@ (8003354 <stateinit_exitmagazin+0x44>)
 8003328:	b240      	sxtb	r0, r0
 800332a:	f7fd fccd 	bl	8000cc8 <LCD_printsprite>
  drawgamer();
 800332e:	f7ff fc99 	bl	8002c64 <drawgamer>
}
 8003332:	e8bd 4008 	ldmia.w	sp!, {r3, lr}
  drawinfo();
 8003336:	f7ff bd59 	b.w	8002dec <drawinfo>
    counter = 0;
 800333a:	2300      	movs	r3, #0
    gamestate = STATE_RUNGAME;
 800333c:	2107      	movs	r1, #7
    counter = 0;
 800333e:	7013      	strb	r3, [r2, #0]
    gamestate = STATE_RUNGAME;
 8003340:	4a05      	ldr	r2, [pc, #20]	@ (8003358 <stateinit_exitmagazin+0x48>)
 8003342:	7011      	strb	r1, [r2, #0]
    gameevent = EVENT_NONE;
 8003344:	4a05      	ldr	r2, [pc, #20]	@ (800335c <stateinit_exitmagazin+0x4c>)
 8003346:	7013      	strb	r3, [r2, #0]
    SchedGamerunEventsResume();
 8003348:	f7ff fe88 	bl	800305c <SchedGamerunEventsResume>
 800334c:	e7ef      	b.n	800332e <stateinit_exitmagazin+0x1e>
 800334e:	bf00      	nop
 8003350:	200008c4 	.word	0x200008c4
 8003354:	0800825c 	.word	0x0800825c
 8003358:	200008d2 	.word	0x200008d2
 800335c:	200008d0 	.word	0x200008d0

08003360 <SchedGamerunEventsRemove>:
{
 8003360:	b508      	push	{r3, lr}
  SchedRemoveEvent(createevilstar);
 8003362:	480a      	ldr	r0, [pc, #40]	@ (800338c <SchedGamerunEventsRemove+0x2c>)
 8003364:	f7fe fe14 	bl	8001f90 <SchedRemoveEvent>
  SchedRemoveEvent(createbullet);
 8003368:	4809      	ldr	r0, [pc, #36]	@ (8003390 <SchedGamerunEventsRemove+0x30>)
 800336a:	f7fe fe11 	bl	8001f90 <SchedRemoveEvent>
  SchedRemoveEvent(createbomb);
 800336e:	4809      	ldr	r0, [pc, #36]	@ (8003394 <SchedGamerunEventsRemove+0x34>)
 8003370:	f7fe fe0e 	bl	8001f90 <SchedRemoveEvent>
  SchedRemoveEvent(movbullet);
 8003374:	4808      	ldr	r0, [pc, #32]	@ (8003398 <SchedGamerunEventsRemove+0x38>)
 8003376:	f7fe fe0b 	bl	8001f90 <SchedRemoveEvent>
  SchedRemoveEvent(move_enemy_objects);
 800337a:	4808      	ldr	r0, [pc, #32]	@ (800339c <SchedGamerunEventsRemove+0x3c>)
 800337c:	f7fe fe08 	bl	8001f90 <SchedRemoveEvent>
}
 8003380:	e8bd 4008 	ldmia.w	sp!, {r3, lr}
  SchedRemoveEvent(gameprogress);
 8003384:	4806      	ldr	r0, [pc, #24]	@ (80033a0 <SchedGamerunEventsRemove+0x40>)
 8003386:	f7fe be03 	b.w	8001f90 <SchedRemoveEvent>
 800338a:	bf00      	nop
 800338c:	080024c5 	.word	0x080024c5
 8003390:	08002521 	.word	0x08002521
 8003394:	08002585 	.word	0x08002585
 8003398:	0800239d 	.word	0x0800239d
 800339c:	08002875 	.word	0x08002875
 80033a0:	080025e9 	.word	0x080025e9

080033a4 <stateinit_gamestop>:
{
 80033a4:	b508      	push	{r3, lr}
  SchedGamerunEventsRemove();
 80033a6:	f7ff ffdb 	bl	8003360 <SchedGamerunEventsRemove>
 80033aa:	2300      	movs	r3, #0
  for(uint8 i = 0; i < EVILSTAR_MAX; i++) EvilStar[i].state = 0;
 80033ac:	4619      	mov	r1, r3
 80033ae:	4a13      	ldr	r2, [pc, #76]	@ (80033fc <stateinit_gamestop+0x58>)
 80033b0:	f802 1023 	strb.w	r1, [r2, r3, lsl #2]
 80033b4:	3301      	adds	r3, #1
 80033b6:	2b0f      	cmp	r3, #15
 80033b8:	d1fa      	bne.n	80033b0 <stateinit_gamestop+0xc>
 80033ba:	2300      	movs	r3, #0
  for(uint8 i = 0; i < COIN_MAX; i++) Coin[i].state = 0;
 80033bc:	4619      	mov	r1, r3
 80033be:	4a10      	ldr	r2, [pc, #64]	@ (8003400 <stateinit_gamestop+0x5c>)
 80033c0:	f802 1023 	strb.w	r1, [r2, r3, lsl #2]
 80033c4:	3301      	adds	r3, #1
 80033c6:	2b0f      	cmp	r3, #15
 80033c8:	d1fa      	bne.n	80033c0 <stateinit_gamestop+0x1c>
 80033ca:	2200      	movs	r2, #0
  for(uint8 i = 0; i < BULLET_MAX; i++) Bullet[i].state = 0;
 80033cc:	4613      	mov	r3, r2
 80033ce:	480d      	ldr	r0, [pc, #52]	@ (8003404 <stateinit_gamestop+0x60>)
 80033d0:	eb02 0142 	add.w	r1, r2, r2, lsl #1
 80033d4:	3201      	adds	r2, #1
 80033d6:	2a19      	cmp	r2, #25
 80033d8:	5443      	strb	r3, [r0, r1]
 80033da:	d1f9      	bne.n	80033d0 <stateinit_gamestop+0x2c>
  BTN_HOLD_ON_DELAY = 300;
 80033dc:	f44f 7196 	mov.w	r1, #300	@ 0x12c
  GAME_STORY_STRING_NUM = 0;
 80033e0:	4a09      	ldr	r2, [pc, #36]	@ (8003408 <stateinit_gamestop+0x64>)
 80033e2:	7013      	strb	r3, [r2, #0]
  BTN_HOLD_ON_DELAY = 300;
 80033e4:	4a09      	ldr	r2, [pc, #36]	@ (800340c <stateinit_gamestop+0x68>)
 80033e6:	6011      	str	r1, [r2, #0]
  Game.level_progress = 0;
 80033e8:	4a09      	ldr	r2, [pc, #36]	@ (8003410 <stateinit_gamestop+0x6c>)
 80033ea:	7053      	strb	r3, [r2, #1]
  gamestate = STATE_MAINMENU;
 80033ec:	4a09      	ldr	r2, [pc, #36]	@ (8003414 <stateinit_gamestop+0x70>)
 80033ee:	7013      	strb	r3, [r2, #0]
  gameevent = EVENT_NONE;
 80033f0:	4a09      	ldr	r2, [pc, #36]	@ (8003418 <stateinit_gamestop+0x74>)
 80033f2:	7013      	strb	r3, [r2, #0]
  coursorpos = COURS_POS_1;
 80033f4:	4a09      	ldr	r2, [pc, #36]	@ (800341c <stateinit_gamestop+0x78>)
 80033f6:	7013      	strb	r3, [r2, #0]
}
 80033f8:	bd08      	pop	{r3, pc}
 80033fa:	bf00      	nop
 80033fc:	20000961 	.word	0x20000961
 8003400:	20000925 	.word	0x20000925
 8003404:	200009f0 	.word	0x200009f0
 8003408:	200008e8 	.word	0x200008e8
 800340c:	20000008 	.word	0x20000008
 8003410:	20000a4c 	.word	0x20000a4c
 8003414:	200008d2 	.word	0x200008d2
 8003418:	200008d0 	.word	0x200008d0
 800341c:	200008d1 	.word	0x200008d1

08003420 <menu_getevent>:
{
 8003420:	b530      	push	{r4, r5, lr}
  IF_ANY_BTN_PRESS(
 8003422:	4d14      	ldr	r5, [pc, #80]	@ (8003474 <menu_getevent+0x54>)
 8003424:	4c14      	ldr	r4, [pc, #80]	@ (8003478 <menu_getevent+0x58>)
 8003426:	7c6b      	ldrb	r3, [r5, #17]
 8003428:	7c62      	ldrb	r2, [r4, #17]
 800342a:	4814      	ldr	r0, [pc, #80]	@ (800347c <menu_getevent+0x5c>)
 800342c:	4313      	orrs	r3, r2
 800342e:	7c42      	ldrb	r2, [r0, #17]
 8003430:	4313      	orrs	r3, r2
 8003432:	4a13      	ldr	r2, [pc, #76]	@ (8003480 <menu_getevent+0x60>)
 8003434:	7c51      	ldrb	r1, [r2, #17]
 8003436:	430b      	orrs	r3, r1
 8003438:	4912      	ldr	r1, [pc, #72]	@ (8003484 <menu_getevent+0x64>)
 800343a:	d015      	beq.n	8003468 <menu_getevent+0x48>
 800343c:	2300      	movs	r3, #0
 800343e:	7453      	strb	r3, [r2, #17]
 8003440:	746b      	strb	r3, [r5, #17]
 8003442:	7463      	strb	r3, [r4, #17]
 8003444:	7443      	strb	r3, [r0, #17]
 8003446:	4b10      	ldr	r3, [pc, #64]	@ (8003488 <menu_getevent+0x68>)
 8003448:	781a      	ldrb	r2, [r3, #0]
 800344a:	2a04      	cmp	r2, #4
 800344c:	d805      	bhi.n	800345a <menu_getevent+0x3a>
 800344e:	2a01      	cmp	r2, #1
 8003450:	4b0e      	ldr	r3, [pc, #56]	@ (800348c <menu_getevent+0x6c>)
 8003452:	d807      	bhi.n	8003464 <menu_getevent+0x44>
 8003454:	b922      	cbnz	r2, 8003460 <menu_getevent+0x40>
 8003456:	2201      	movs	r2, #1
 8003458:	701a      	strb	r2, [r3, #0]
  if(somethinghappen) somethinghappen = 0;
 800345a:	2300      	movs	r3, #0
 800345c:	700b      	strb	r3, [r1, #0]
}
 800345e:	bd30      	pop	{r4, r5, pc}
  IF_ANY_BTN_PRESS(
 8003460:	2202      	movs	r2, #2
 8003462:	e7f9      	b.n	8003458 <menu_getevent+0x38>
 8003464:	2203      	movs	r2, #3
 8003466:	e7f7      	b.n	8003458 <menu_getevent+0x38>
  if(somethinghappen) somethinghappen = 0;
 8003468:	780b      	ldrb	r3, [r1, #0]
 800346a:	2b00      	cmp	r3, #0
 800346c:	d1f5      	bne.n	800345a <menu_getevent+0x3a>
  else gameevent = EVENT_NONE;
 800346e:	4a07      	ldr	r2, [pc, #28]	@ (800348c <menu_getevent+0x6c>)
 8003470:	7013      	strb	r3, [r2, #0]
}
 8003472:	e7f4      	b.n	800345e <menu_getevent+0x3e>
 8003474:	20000134 	.word	0x20000134
 8003478:	2000011c 	.word	0x2000011c
 800347c:	20000104 	.word	0x20000104
 8003480:	200000ec 	.word	0x200000ec
 8003484:	200008c6 	.word	0x200008c6
 8003488:	200008d1 	.word	0x200008d1
 800348c:	200008d0 	.word	0x200008d0

08003490 <magaz_getevent>:
{
 8003490:	b530      	push	{r4, r5, lr}
  IF_ANY_BTN_PRESS(
 8003492:	4d19      	ldr	r5, [pc, #100]	@ (80034f8 <magaz_getevent+0x68>)
 8003494:	4c19      	ldr	r4, [pc, #100]	@ (80034fc <magaz_getevent+0x6c>)
 8003496:	7c6b      	ldrb	r3, [r5, #17]
 8003498:	7c62      	ldrb	r2, [r4, #17]
 800349a:	4819      	ldr	r0, [pc, #100]	@ (8003500 <magaz_getevent+0x70>)
 800349c:	4313      	orrs	r3, r2
 800349e:	4919      	ldr	r1, [pc, #100]	@ (8003504 <magaz_getevent+0x74>)
 80034a0:	7c42      	ldrb	r2, [r0, #17]
 80034a2:	4313      	orrs	r3, r2
 80034a4:	7c4a      	ldrb	r2, [r1, #17]
 80034a6:	4313      	orrs	r3, r2
 80034a8:	4a17      	ldr	r2, [pc, #92]	@ (8003508 <magaz_getevent+0x78>)
 80034aa:	d01f      	beq.n	80034ec <magaz_getevent+0x5c>
 80034ac:	2300      	movs	r3, #0
 80034ae:	746b      	strb	r3, [r5, #17]
 80034b0:	7463      	strb	r3, [r4, #17]
 80034b2:	7443      	strb	r3, [r0, #17]
 80034b4:	744b      	strb	r3, [r1, #17]
 80034b6:	4b15      	ldr	r3, [pc, #84]	@ (800350c <magaz_getevent+0x7c>)
 80034b8:	781b      	ldrb	r3, [r3, #0]
 80034ba:	2b04      	cmp	r3, #4
 80034bc:	d807      	bhi.n	80034ce <magaz_getevent+0x3e>
 80034be:	e8df f003 	tbb	[pc, r3]
 80034c2:	0903      	.short	0x0903
 80034c4:	0f0c      	.short	0x0f0c
 80034c6:	12          	.byte	0x12
 80034c7:	00          	.byte	0x00
 80034c8:	2106      	movs	r1, #6
 80034ca:	4b11      	ldr	r3, [pc, #68]	@ (8003510 <magaz_getevent+0x80>)
 80034cc:	7019      	strb	r1, [r3, #0]
  if(somethinghappen) somethinghappen = 0;
 80034ce:	2300      	movs	r3, #0
  else gameevent = EVENT_NONE;
 80034d0:	7013      	strb	r3, [r2, #0]
}
 80034d2:	bd30      	pop	{r4, r5, pc}
  IF_ANY_BTN_PRESS(
 80034d4:	2101      	movs	r1, #1
 80034d6:	4b0e      	ldr	r3, [pc, #56]	@ (8003510 <magaz_getevent+0x80>)
 80034d8:	e7f8      	b.n	80034cc <magaz_getevent+0x3c>
 80034da:	2102      	movs	r1, #2
 80034dc:	4b0c      	ldr	r3, [pc, #48]	@ (8003510 <magaz_getevent+0x80>)
 80034de:	e7f5      	b.n	80034cc <magaz_getevent+0x3c>
 80034e0:	2103      	movs	r1, #3
 80034e2:	4b0b      	ldr	r3, [pc, #44]	@ (8003510 <magaz_getevent+0x80>)
 80034e4:	e7f2      	b.n	80034cc <magaz_getevent+0x3c>
 80034e6:	2104      	movs	r1, #4
 80034e8:	4b09      	ldr	r3, [pc, #36]	@ (8003510 <magaz_getevent+0x80>)
 80034ea:	e7ef      	b.n	80034cc <magaz_getevent+0x3c>
  if(somethinghappen) somethinghappen = 0;
 80034ec:	7813      	ldrb	r3, [r2, #0]
 80034ee:	2b00      	cmp	r3, #0
 80034f0:	d1ed      	bne.n	80034ce <magaz_getevent+0x3e>
  else gameevent = EVENT_NONE;
 80034f2:	4a07      	ldr	r2, [pc, #28]	@ (8003510 <magaz_getevent+0x80>)
 80034f4:	e7ec      	b.n	80034d0 <magaz_getevent+0x40>
 80034f6:	bf00      	nop
 80034f8:	20000134 	.word	0x20000134
 80034fc:	2000011c 	.word	0x2000011c
 8003500:	20000104 	.word	0x20000104
 8003504:	200000ec 	.word	0x200000ec
 8003508:	200008c5 	.word	0x200008c5
 800350c:	200008d1 	.word	0x200008d1
 8003510:	200008d0 	.word	0x200008d0

08003514 <coursormovdisp>:
{
 8003514:	b510      	push	{r4, lr}
  if(gamestate != STATE_MAGAZIN)
 8003516:	4c55      	ldr	r4, [pc, #340]	@ (800366c <coursormovdisp+0x158>)
    if (joystick.down) {
 8003518:	4855      	ldr	r0, [pc, #340]	@ (8003670 <coursormovdisp+0x15c>)
  if(gamestate != STATE_MAGAZIN)
 800351a:	7824      	ldrb	r4, [r4, #0]
      coursorpos++; 
 800351c:	4b55      	ldr	r3, [pc, #340]	@ (8003674 <coursormovdisp+0x160>)
  if(gamestate != STATE_MAGAZIN)
 800351e:	2c08      	cmp	r4, #8
    if (joystick.down) {
 8003520:	7802      	ldrb	r2, [r0, #0]
      coursorpos++; 
 8003522:	7819      	ldrb	r1, [r3, #0]
  if(gamestate != STATE_MAGAZIN)
 8003524:	d028      	beq.n	8003578 <coursormovdisp+0x64>
    if (joystick.down) {
 8003526:	0794      	lsls	r4, r2, #30
 8003528:	d509      	bpl.n	800353e <coursormovdisp+0x2a>
      coursorpos++; 
 800352a:	3101      	adds	r1, #1
 800352c:	b2c9      	uxtb	r1, r1
      joystick.down = 0;
 800352e:	f36f 0241 	bfc	r2, #1, #1
      if(coursorpos >= COURS_POS_3) coursorpos = COURS_POS_3;
 8003532:	2901      	cmp	r1, #1
      joystick.down = 0;
 8003534:	7002      	strb	r2, [r0, #0]
      if(coursorpos >= COURS_POS_3) coursorpos = COURS_POS_3;
 8003536:	bf8a      	itet	hi
 8003538:	2202      	movhi	r2, #2
      coursorpos++; 
 800353a:	7019      	strbls	r1, [r3, #0]
      if(coursorpos >= COURS_POS_3) coursorpos = COURS_POS_3;
 800353c:	701a      	strbhi	r2, [r3, #0]
    if (joystick.up){
 800353e:	7802      	ldrb	r2, [r0, #0]
      if(coursorpos != COURS_POS_1) coursorpos--; 
 8003540:	7819      	ldrb	r1, [r3, #0]
    if (joystick.up){
 8003542:	07d4      	lsls	r4, r2, #31
 8003544:	d505      	bpl.n	8003552 <coursormovdisp+0x3e>
      joystick.up = 0;
 8003546:	f36f 0200 	bfc	r2, #0, #1
 800354a:	7002      	strb	r2, [r0, #0]
      if(coursorpos != COURS_POS_1) coursorpos--; 
 800354c:	b141      	cbz	r1, 8003560 <coursormovdisp+0x4c>
 800354e:	3901      	subs	r1, #1
 8003550:	7019      	strb	r1, [r3, #0]
    switch(coursorpos)
 8003552:	781b      	ldrb	r3, [r3, #0]
 8003554:	2b04      	cmp	r3, #4
 8003556:	f200 8088 	bhi.w	800366a <coursormovdisp+0x156>
 800355a:	2b01      	cmp	r3, #1
 800355c:	d809      	bhi.n	8003572 <coursormovdisp+0x5e>
 800355e:	b92b      	cbnz	r3, 800356c <coursormovdisp+0x58>
		LCD_printmenucoursor(2, 4);
 8003560:	2104      	movs	r1, #4
 8003562:	2002      	movs	r0, #2
}
 8003564:	e8bd 4010 	ldmia.w	sp!, {r4, lr}
		LCD_printmenucoursor(4, 4);
 8003568:	f7fd baf4 	b.w	8000b54 <LCD_printmenucoursor>
 800356c:	2104      	movs	r1, #4
 800356e:	4608      	mov	r0, r1
 8003570:	e7f8      	b.n	8003564 <coursormovdisp+0x50>
		LCD_printmenucoursor(6, 4);
 8003572:	2104      	movs	r1, #4
 8003574:	2006      	movs	r0, #6
 8003576:	e7f5      	b.n	8003564 <coursormovdisp+0x50>
    if (joystick.right) {
 8003578:	0714      	lsls	r4, r2, #28
 800357a:	d508      	bpl.n	800358e <coursormovdisp+0x7a>
      if(coursorpos >= COURS_POS_5) coursorpos = COURS_POS_5;
 800357c:	2903      	cmp	r1, #3
      joystick.right = 0;
 800357e:	f36f 02c3 	bfc	r2, #3, #1
 8003582:	7002      	strb	r2, [r0, #0]
      if(coursorpos >= COURS_POS_5) coursorpos = COURS_POS_5;
 8003584:	bf8b      	itete	hi
 8003586:	2204      	movhi	r2, #4
      else coursorpos++; 
 8003588:	3101      	addls	r1, #1
      if(coursorpos >= COURS_POS_5) coursorpos = COURS_POS_5;
 800358a:	701a      	strbhi	r2, [r3, #0]
      else coursorpos++; 
 800358c:	7019      	strbls	r1, [r3, #0]
    if (joystick.left){
 800358e:	7802      	ldrb	r2, [r0, #0]
      if(coursorpos != COURS_POS_1) coursorpos--; 
 8003590:	7819      	ldrb	r1, [r3, #0]
    if (joystick.left){
 8003592:	0754      	lsls	r4, r2, #29
 8003594:	d505      	bpl.n	80035a2 <coursormovdisp+0x8e>
      joystick.left = 0;
 8003596:	f36f 0282 	bfc	r2, #2, #1
 800359a:	7002      	strb	r2, [r0, #0]
      if(coursorpos != COURS_POS_1) coursorpos--; 
 800359c:	b149      	cbz	r1, 80035b2 <coursormovdisp+0x9e>
 800359e:	3901      	subs	r1, #1
 80035a0:	7019      	strb	r1, [r3, #0]
    switch(coursorpos)
 80035a2:	781b      	ldrb	r3, [r3, #0]
 80035a4:	2b04      	cmp	r3, #4
 80035a6:	d860      	bhi.n	800366a <coursormovdisp+0x156>
 80035a8:	e8df f003 	tbb	[pc, r3]
 80035ac:	3d2c1903 	.word	0x3d2c1903
 80035b0:	4e          	.byte	0x4e
 80035b1:	00          	.byte	0x00
        LCD_printhorline(26, 63, 36);
 80035b2:	2224      	movs	r2, #36	@ 0x24
 80035b4:	213f      	movs	r1, #63	@ 0x3f
 80035b6:	201a      	movs	r0, #26
 80035b8:	f7fd fb5c 	bl	8000c74 <LCD_printhorline>
        LCD_printhorline(26, 54, 36);
 80035bc:	2224      	movs	r2, #36	@ 0x24
 80035be:	2136      	movs	r1, #54	@ 0x36
 80035c0:	201a      	movs	r0, #26
 80035c2:	f7fd fb57 	bl	8000c74 <LCD_printhorline>
        LCD_printvertline(9, 54, 36);
 80035c6:	2224      	movs	r2, #36	@ 0x24
 80035c8:	2136      	movs	r1, #54	@ 0x36
 80035ca:	2009      	movs	r0, #9
 80035cc:	f7fd faf6 	bl	8000bbc <LCD_printvertline>
        LCD_printvertline(9, 54, 62);
 80035d0:	223e      	movs	r2, #62	@ 0x3e
 80035d2:	2136      	movs	r1, #54	@ 0x36
 80035d4:	2009      	movs	r0, #9
}
 80035d6:	e8bd 4010 	ldmia.w	sp!, {r4, lr}
        LCD_printvertline(3, 58, 125);
 80035da:	f7fd baef 	b.w	8000bbc <LCD_printvertline>
        LCD_printhorline(12, 61, 66);
 80035de:	2242      	movs	r2, #66	@ 0x42
 80035e0:	213d      	movs	r1, #61	@ 0x3d
 80035e2:	200c      	movs	r0, #12
 80035e4:	f7fd fb46 	bl	8000c74 <LCD_printhorline>
        LCD_printhorline(12, 62, 66);
 80035e8:	2242      	movs	r2, #66	@ 0x42
 80035ea:	213e      	movs	r1, #62	@ 0x3e
 80035ec:	200c      	movs	r0, #12
 80035ee:	f7fd fb41 	bl	8000c74 <LCD_printhorline>
        LCD_printvertline(3, 58, 66);
 80035f2:	2242      	movs	r2, #66	@ 0x42
 80035f4:	213a      	movs	r1, #58	@ 0x3a
 80035f6:	2003      	movs	r0, #3
 80035f8:	f7fd fae0 	bl	8000bbc <LCD_printvertline>
        LCD_printvertline(3, 58, 78);
 80035fc:	224e      	movs	r2, #78	@ 0x4e
        LCD_printvertline(3, 58, 125);
 80035fe:	213a      	movs	r1, #58	@ 0x3a
 8003600:	2003      	movs	r0, #3
 8003602:	e7e8      	b.n	80035d6 <coursormovdisp+0xc2>
        LCD_printhorline(18, 61, 78);
 8003604:	224e      	movs	r2, #78	@ 0x4e
 8003606:	213d      	movs	r1, #61	@ 0x3d
 8003608:	2012      	movs	r0, #18
 800360a:	f7fd fb33 	bl	8000c74 <LCD_printhorline>
        LCD_printhorline(18, 62, 78);
 800360e:	224e      	movs	r2, #78	@ 0x4e
 8003610:	213e      	movs	r1, #62	@ 0x3e
 8003612:	2012      	movs	r0, #18
 8003614:	f7fd fb2e 	bl	8000c74 <LCD_printhorline>
        LCD_printvertline(3, 58, 78);
 8003618:	224e      	movs	r2, #78	@ 0x4e
 800361a:	213a      	movs	r1, #58	@ 0x3a
 800361c:	2003      	movs	r0, #3
 800361e:	f7fd facd 	bl	8000bbc <LCD_printvertline>
        LCD_printvertline(3, 58, 96);
 8003622:	2260      	movs	r2, #96	@ 0x60
 8003624:	e7eb      	b.n	80035fe <coursormovdisp+0xea>
        LCD_printhorline(14, 61, 97);
 8003626:	2261      	movs	r2, #97	@ 0x61
 8003628:	213d      	movs	r1, #61	@ 0x3d
 800362a:	200e      	movs	r0, #14
 800362c:	f7fd fb22 	bl	8000c74 <LCD_printhorline>
        LCD_printhorline(14, 62, 97);
 8003630:	2261      	movs	r2, #97	@ 0x61
 8003632:	213e      	movs	r1, #62	@ 0x3e
 8003634:	200e      	movs	r0, #14
 8003636:	f7fd fb1d 	bl	8000c74 <LCD_printhorline>
        LCD_printvertline(3, 58, 97);
 800363a:	2261      	movs	r2, #97	@ 0x61
 800363c:	213a      	movs	r1, #58	@ 0x3a
 800363e:	2003      	movs	r0, #3
 8003640:	f7fd fabc 	bl	8000bbc <LCD_printvertline>
        LCD_printvertline(3, 58, 111);
 8003644:	226f      	movs	r2, #111	@ 0x6f
 8003646:	e7da      	b.n	80035fe <coursormovdisp+0xea>
        LCD_printhorline(14, 61, 111);
 8003648:	226f      	movs	r2, #111	@ 0x6f
 800364a:	213d      	movs	r1, #61	@ 0x3d
 800364c:	200e      	movs	r0, #14
 800364e:	f7fd fb11 	bl	8000c74 <LCD_printhorline>
        LCD_printhorline(14, 62, 111);
 8003652:	226f      	movs	r2, #111	@ 0x6f
 8003654:	213e      	movs	r1, #62	@ 0x3e
 8003656:	200e      	movs	r0, #14
 8003658:	f7fd fb0c 	bl	8000c74 <LCD_printhorline>
        LCD_printvertline(3, 58, 111);
 800365c:	226f      	movs	r2, #111	@ 0x6f
 800365e:	213a      	movs	r1, #58	@ 0x3a
 8003660:	2003      	movs	r0, #3
 8003662:	f7fd faab 	bl	8000bbc <LCD_printvertline>
        LCD_printvertline(3, 58, 125);
 8003666:	227d      	movs	r2, #125	@ 0x7d
 8003668:	e7c9      	b.n	80035fe <coursormovdisp+0xea>
}
 800366a:	bd10      	pop	{r4, pc}
 800366c:	200008d2 	.word	0x200008d2
 8003670:	200000e8 	.word	0x200000e8
 8003674:	200008d1 	.word	0x200008d1

08003678 <statehandler_menumain>:
{
 8003678:	b510      	push	{r4, lr}
  gamestate = STATE_MAINMENU;
 800367a:	2400      	movs	r4, #0
 800367c:	4b10      	ldr	r3, [pc, #64]	@ (80036c0 <statehandler_menumain+0x48>)
 800367e:	701c      	strb	r4, [r3, #0]
  menu_getevent();
 8003680:	f7ff fece 	bl	8003420 <menu_getevent>
  LCD_printstr8x5((uint8*)"ГАЛАКТИЧЕСКИЙ ЗВЕЗДЕЦ", 0, 0);
 8003684:	4622      	mov	r2, r4
 8003686:	4621      	mov	r1, r4
 8003688:	480e      	ldr	r0, [pc, #56]	@ (80036c4 <statehandler_menumain+0x4c>)
 800368a:	f7fd f8ef 	bl	800086c <LCD_printstr8x5>
  LCD_printstr8x5((uint8*)"НОВАЯ ИГРА", 2, 19);
 800368e:	2213      	movs	r2, #19
 8003690:	2102      	movs	r1, #2
 8003692:	480d      	ldr	r0, [pc, #52]	@ (80036c8 <statehandler_menumain+0x50>)
 8003694:	f7fd f8ea 	bl	800086c <LCD_printstr8x5>
  LCD_printstr8x5((uint8*)"ЗАГРУЗИТЬ ИГРУ", 4, 19);
 8003698:	2213      	movs	r2, #19
 800369a:	2104      	movs	r1, #4
 800369c:	480b      	ldr	r0, [pc, #44]	@ (80036cc <statehandler_menumain+0x54>)
 800369e:	f7fd f8e5 	bl	800086c <LCD_printstr8x5>
  LCD_printstr8x5((uint8*)"ВЫЙТИ", 6, 19);
 80036a2:	2213      	movs	r2, #19
 80036a4:	2106      	movs	r1, #6
 80036a6:	480a      	ldr	r0, [pc, #40]	@ (80036d0 <statehandler_menumain+0x58>)
 80036a8:	f7fd f8e0 	bl	800086c <LCD_printstr8x5>
  coursormovdisp();
 80036ac:	f7ff ff32 	bl	8003514 <coursormovdisp>
  if(gameevent == EVENT_SELPOS_2) coursorpos = COURS_POS_1; // coursor position when entering the load menu in "SLOT1"
 80036b0:	4b08      	ldr	r3, [pc, #32]	@ (80036d4 <statehandler_menumain+0x5c>)
 80036b2:	781b      	ldrb	r3, [r3, #0]
 80036b4:	2b02      	cmp	r3, #2
 80036b6:	bf04      	itt	eq
 80036b8:	4b07      	ldreq	r3, [pc, #28]	@ (80036d8 <statehandler_menumain+0x60>)
 80036ba:	701c      	strbeq	r4, [r3, #0]
}
 80036bc:	bd10      	pop	{r4, pc}
 80036be:	bf00      	nop
 80036c0:	200008d2 	.word	0x200008d2
 80036c4:	08007502 	.word	0x08007502
 80036c8:	08007518 	.word	0x08007518
 80036cc:	08007523 	.word	0x08007523
 80036d0:	08007532 	.word	0x08007532
 80036d4:	200008d0 	.word	0x200008d0
 80036d8:	200008d1 	.word	0x200008d1

080036dc <statehandler_menuload>:
{ 
 80036dc:	b510      	push	{r4, lr}
  gamestate = STATE_LOADMENU;
 80036de:	2401      	movs	r4, #1
 80036e0:	4b10      	ldr	r3, [pc, #64]	@ (8003724 <statehandler_menuload+0x48>)
 80036e2:	701c      	strb	r4, [r3, #0]
  menu_getevent();
 80036e4:	f7ff fe9c 	bl	8003420 <menu_getevent>
  LCD_printstr8x5((uint8*)"ЗАГРУЗКА ИГРЫ", 0, 5);
 80036e8:	2205      	movs	r2, #5
 80036ea:	2100      	movs	r1, #0
 80036ec:	480e      	ldr	r0, [pc, #56]	@ (8003728 <statehandler_menuload+0x4c>)
 80036ee:	f7fd f8bd 	bl	800086c <LCD_printstr8x5>
  LCD_printstr8x5(gameslot1, 2, 19);
 80036f2:	2213      	movs	r2, #19
 80036f4:	2102      	movs	r1, #2
 80036f6:	480d      	ldr	r0, [pc, #52]	@ (800372c <statehandler_menuload+0x50>)
 80036f8:	f7fd f8b8 	bl	800086c <LCD_printstr8x5>
  LCD_printstr8x5(gameslot2, 4, 19);
 80036fc:	2213      	movs	r2, #19
 80036fe:	2104      	movs	r1, #4
 8003700:	480b      	ldr	r0, [pc, #44]	@ (8003730 <statehandler_menuload+0x54>)
 8003702:	f7fd f8b3 	bl	800086c <LCD_printstr8x5>
  LCD_printstr8x5((uint8*)"НАЗАД", 6, 19);
 8003706:	2213      	movs	r2, #19
 8003708:	2106      	movs	r1, #6
 800370a:	480a      	ldr	r0, [pc, #40]	@ (8003734 <statehandler_menuload+0x58>)
 800370c:	f7fd f8ae 	bl	800086c <LCD_printstr8x5>
  coursormovdisp();
 8003710:	f7ff ff00 	bl	8003514 <coursormovdisp>
  if(gameevent == EVENT_SELPOS_3) coursorpos = COURS_POS_2; // coursor position when returning to the main menu in "LOAD"
 8003714:	4b08      	ldr	r3, [pc, #32]	@ (8003738 <statehandler_menuload+0x5c>)
 8003716:	781b      	ldrb	r3, [r3, #0]
 8003718:	2b03      	cmp	r3, #3
 800371a:	bf04      	itt	eq
 800371c:	4b07      	ldreq	r3, [pc, #28]	@ (800373c <statehandler_menuload+0x60>)
 800371e:	701c      	strbeq	r4, [r3, #0]
}
 8003720:	bd10      	pop	{r4, pc}
 8003722:	bf00      	nop
 8003724:	200008d2 	.word	0x200008d2
 8003728:	08007538 	.word	0x08007538
 800372c:	2000002f 	.word	0x2000002f
 8003730:	2000001b 	.word	0x2000001b
 8003734:	08007546 	.word	0x08007546
 8003738:	200008d0 	.word	0x200008d0
 800373c:	200008d1 	.word	0x200008d1

08003740 <statehandler_menupause>:
{
 8003740:	b510      	push	{r4, lr}
  if(gamestate == STATE_RUNGAME) SchedGamerunEventsPause();
 8003742:	4c11      	ldr	r4, [pc, #68]	@ (8003788 <statehandler_menupause+0x48>)
 8003744:	7823      	ldrb	r3, [r4, #0]
 8003746:	2b07      	cmp	r3, #7
 8003748:	d101      	bne.n	800374e <statehandler_menupause+0xe>
 800374a:	f7ff fc65 	bl	8003018 <SchedGamerunEventsPause>
  gamestate = STATE_PAUSEMENU;
 800374e:	2303      	movs	r3, #3
 8003750:	7023      	strb	r3, [r4, #0]
  menu_getevent();
 8003752:	f7ff fe65 	bl	8003420 <menu_getevent>
  LCD_printstr8x5((uint8*)"ПАУЗА", 0, 5);
 8003756:	2205      	movs	r2, #5
 8003758:	2100      	movs	r1, #0
 800375a:	480c      	ldr	r0, [pc, #48]	@ (800378c <statehandler_menupause+0x4c>)
 800375c:	f7fd f886 	bl	800086c <LCD_printstr8x5>
  LCD_printstr8x5((uint8*)"СОХРАНИТЬ", 2, 19);
 8003760:	2213      	movs	r2, #19
 8003762:	2102      	movs	r1, #2
 8003764:	480a      	ldr	r0, [pc, #40]	@ (8003790 <statehandler_menupause+0x50>)
 8003766:	f7fd f881 	bl	800086c <LCD_printstr8x5>
  LCD_printstr8x5((uint8*)"ВЕРНУТЬСЯ К ИГРЕ", 4, 19);
 800376a:	2213      	movs	r2, #19
 800376c:	2104      	movs	r1, #4
 800376e:	4809      	ldr	r0, [pc, #36]	@ (8003794 <statehandler_menupause+0x54>)
 8003770:	f7fd f87c 	bl	800086c <LCD_printstr8x5>
  LCD_printstr8x5((uint8*)"ВЫЙТИ", 6, 19);
 8003774:	2213      	movs	r2, #19
 8003776:	2106      	movs	r1, #6
 8003778:	4807      	ldr	r0, [pc, #28]	@ (8003798 <statehandler_menupause+0x58>)
 800377a:	f7fd f877 	bl	800086c <LCD_printstr8x5>
}
 800377e:	e8bd 4010 	ldmia.w	sp!, {r4, lr}
  coursormovdisp();
 8003782:	f7ff bec7 	b.w	8003514 <coursormovdisp>
 8003786:	bf00      	nop
 8003788:	200008d2 	.word	0x200008d2
 800378c:	0800754c 	.word	0x0800754c
 8003790:	08007552 	.word	0x08007552
 8003794:	0800755c 	.word	0x0800755c
 8003798:	08007532 	.word	0x08007532

0800379c <statehandler_menusave>:
{
 800379c:	b510      	push	{r4, lr}
  gamestate = STATE_SAVEMENU;
 800379e:	2404      	movs	r4, #4
 80037a0:	4b10      	ldr	r3, [pc, #64]	@ (80037e4 <statehandler_menusave+0x48>)
 80037a2:	701c      	strb	r4, [r3, #0]
  menu_getevent();
 80037a4:	f7ff fe3c 	bl	8003420 <menu_getevent>
  LCD_printstr8x5((uint8*)"СОХРАНЕНИЕ ИГРЫ", 0, 5);
 80037a8:	2205      	movs	r2, #5
 80037aa:	2100      	movs	r1, #0
 80037ac:	480e      	ldr	r0, [pc, #56]	@ (80037e8 <statehandler_menusave+0x4c>)
 80037ae:	f7fd f85d 	bl	800086c <LCD_printstr8x5>
  LCD_printstr8x5(gameslot1, 2, 19);
 80037b2:	2213      	movs	r2, #19
 80037b4:	2102      	movs	r1, #2
 80037b6:	480d      	ldr	r0, [pc, #52]	@ (80037ec <statehandler_menusave+0x50>)
 80037b8:	f7fd f858 	bl	800086c <LCD_printstr8x5>
  LCD_printstr8x5(gameslot2, 4, 19);
 80037bc:	2213      	movs	r2, #19
 80037be:	4621      	mov	r1, r4
 80037c0:	480b      	ldr	r0, [pc, #44]	@ (80037f0 <statehandler_menusave+0x54>)
 80037c2:	f7fd f853 	bl	800086c <LCD_printstr8x5>
  LCD_printstr8x5((uint8*)"НАЗАД", 6, 19);
 80037c6:	2213      	movs	r2, #19
 80037c8:	2106      	movs	r1, #6
 80037ca:	480a      	ldr	r0, [pc, #40]	@ (80037f4 <statehandler_menusave+0x58>)
 80037cc:	f7fd f84e 	bl	800086c <LCD_printstr8x5>
  coursormovdisp();
 80037d0:	f7ff fea0 	bl	8003514 <coursormovdisp>
  if(gameevent == EVENT_SELPOS_3) coursorpos = COURS_POS_1; // coursor position when returning to the pause menu in "SAVE"
 80037d4:	4b08      	ldr	r3, [pc, #32]	@ (80037f8 <statehandler_menusave+0x5c>)
 80037d6:	781b      	ldrb	r3, [r3, #0]
 80037d8:	2b03      	cmp	r3, #3
 80037da:	bf02      	ittt	eq
 80037dc:	2200      	moveq	r2, #0
 80037de:	4b07      	ldreq	r3, [pc, #28]	@ (80037fc <statehandler_menusave+0x60>)
 80037e0:	701a      	strbeq	r2, [r3, #0]
}
 80037e2:	bd10      	pop	{r4, pc}
 80037e4:	200008d2 	.word	0x200008d2
 80037e8:	0800756d 	.word	0x0800756d
 80037ec:	2000002f 	.word	0x2000002f
 80037f0:	2000001b 	.word	0x2000001b
 80037f4:	08007546 	.word	0x08007546
 80037f8:	200008d0 	.word	0x200008d0
 80037fc:	200008d1 	.word	0x200008d1

08003800 <statehandler_magazin>:
{
 8003800:	e92d 4ff7 	stmdb	sp!, {r0, r1, r2, r4, r5, r6, r7, r8, r9, sl, fp, lr}
  if(gamestate == STATE_RUNGAME) SchedGamerunEventsPause();
 8003804:	4c70      	ldr	r4, [pc, #448]	@ (80039c8 <statehandler_magazin+0x1c8>)
 8003806:	7823      	ldrb	r3, [r4, #0]
 8003808:	2b07      	cmp	r3, #7
 800380a:	d101      	bne.n	8003810 <statehandler_magazin+0x10>
 800380c:	f7ff fc04 	bl	8003018 <SchedGamerunEventsPause>
  gamestate = STATE_MAGAZIN; 
 8003810:	2008      	movs	r0, #8
  if(gameevent == EVENT_ENTERMAGAZ) // entering magazin animation
 8003812:	f8df a1b8 	ldr.w	sl, [pc, #440]	@ 80039cc <statehandler_magazin+0x1cc>
  gamestate = STATE_MAGAZIN; 
 8003816:	7020      	strb	r0, [r4, #0]
  if(gameevent == EVENT_ENTERMAGAZ) // entering magazin animation
 8003818:	f89a b000 	ldrb.w	fp, [sl]
 800381c:	f1bb 0f07 	cmp.w	fp, #7
 8003820:	f040 8084 	bne.w	800392c <statehandler_magazin+0x12c>
    if(GameFlags.FirstMagazEnter) {
 8003824:	f8df 91a8 	ldr.w	r9, [pc, #424]	@ 80039d0 <statehandler_magazin+0x1d0>
 8003828:	f8df 81a8 	ldr.w	r8, [pc, #424]	@ 80039d4 <statehandler_magazin+0x1d4>
 800382c:	f899 4000 	ldrb.w	r4, [r9]
 8003830:	4f69      	ldr	r7, [pc, #420]	@ (80039d8 <statehandler_magazin+0x1d8>)
 8003832:	f014 0404 	ands.w	r4, r4, #4
 8003836:	4e69      	ldr	r6, [pc, #420]	@ (80039dc <statehandler_magazin+0x1dc>)
 8003838:	4d69      	ldr	r5, [pc, #420]	@ (80039e0 <statehandler_magazin+0x1e0>)
 800383a:	d051      	beq.n	80038e0 <statehandler_magazin+0xe0>
      if(k == 0){
 800383c:	f8df a1a4 	ldr.w	sl, [pc, #420]	@ 80039e4 <statehandler_magazin+0x1e4>
 8003840:	f89a 4000 	ldrb.w	r4, [sl]
 8003844:	2c00      	cmp	r4, #0
 8003846:	d138      	bne.n	80038ba <statehandler_magazin+0xba>
        LCD_printstr8x5(gamestory_string[4], 1, 0);
 8003848:	4622      	mov	r2, r4
 800384a:	2101      	movs	r1, #1
 800384c:	4866      	ldr	r0, [pc, #408]	@ (80039e8 <statehandler_magazin+0x1e8>)
 800384e:	f7fd f80d 	bl	800086c <LCD_printstr8x5>
        LCD_printstr8x5((uint8*)"далее...", 7, 78);
 8003852:	224e      	movs	r2, #78	@ 0x4e
 8003854:	4659      	mov	r1, fp
 8003856:	4865      	ldr	r0, [pc, #404]	@ (80039ec <statehandler_magazin+0x1ec>)
 8003858:	f7fd f808 	bl	800086c <LCD_printstr8x5>
        IF_ANY_BTN_PRESS(
 800385c:	7c7a      	ldrb	r2, [r7, #17]
 800385e:	f898 3011 	ldrb.w	r3, [r8, #17]
 8003862:	4313      	orrs	r3, r2
 8003864:	7c72      	ldrb	r2, [r6, #17]
 8003866:	4313      	orrs	r3, r2
 8003868:	7c6a      	ldrb	r2, [r5, #17]
 800386a:	4313      	orrs	r3, r2
 800386c:	d00d      	beq.n	800388a <statehandler_magazin+0x8a>
 800386e:	f899 3000 	ldrb.w	r3, [r9]
 8003872:	f888 4011 	strb.w	r4, [r8, #17]
 8003876:	f364 0382 	bfi	r3, r4, #2, #1
 800387a:	f889 3000 	strb.w	r3, [r9]
 800387e:	230a      	movs	r3, #10
 8003880:	747c      	strb	r4, [r7, #17]
 8003882:	7474      	strb	r4, [r6, #17]
 8003884:	746c      	strb	r4, [r5, #17]
 8003886:	f88a 3000 	strb.w	r3, [sl]
  if(Gamer.cl > 8) Gamer.cl -= 4; else Gamer.cl = 0;
 800388a:	4a59      	ldr	r2, [pc, #356]	@ (80039f0 <statehandler_magazin+0x1f0>)
 800388c:	f992 300d 	ldrsb.w	r3, [r2, #13]
 8003890:	2b08      	cmp	r3, #8
 8003892:	bfd2      	itee	le
 8003894:	2300      	movle	r3, #0
 8003896:	3b04      	subgt	r3, #4
 8003898:	b25b      	sxtbgt	r3, r3
 800389a:	7353      	strb	r3, [r2, #13]
  if(Gamer.ln < 40) Gamer.ln += 4; else Gamer.ln = 47;
 800389c:	f992 300c 	ldrsb.w	r3, [r2, #12]
 80038a0:	2b27      	cmp	r3, #39	@ 0x27
 80038a2:	bfce      	itee	gt
 80038a4:	232f      	movgt	r3, #47	@ 0x2f
 80038a6:	3304      	addle	r3, #4
 80038a8:	b25b      	sxtble	r3, r3
 80038aa:	7313      	strb	r3, [r2, #12]
  drawgamer();
 80038ac:	f7ff f9da 	bl	8002c64 <drawgamer>
}
 80038b0:	b003      	add	sp, #12
 80038b2:	e8bd 4ff0 	ldmia.w	sp!, {r4, r5, r6, r7, r8, r9, sl, fp, lr}
  drawinfo();
 80038b6:	f7ff ba99 	b.w	8002dec <drawinfo>
        IF_ANY_BTN_PRESS()
 80038ba:	7c7a      	ldrb	r2, [r7, #17]
 80038bc:	f898 3011 	ldrb.w	r3, [r8, #17]
 80038c0:	4313      	orrs	r3, r2
 80038c2:	7c72      	ldrb	r2, [r6, #17]
 80038c4:	4313      	orrs	r3, r2
 80038c6:	7c6a      	ldrb	r2, [r5, #17]
 80038c8:	4313      	orrs	r3, r2
 80038ca:	d005      	beq.n	80038d8 <statehandler_magazin+0xd8>
 80038cc:	2300      	movs	r3, #0
 80038ce:	f888 3011 	strb.w	r3, [r8, #17]
 80038d2:	747b      	strb	r3, [r7, #17]
 80038d4:	7473      	strb	r3, [r6, #17]
 80038d6:	746b      	strb	r3, [r5, #17]
        k--;
 80038d8:	3c01      	subs	r4, #1
 80038da:	f88a 4000 	strb.w	r4, [sl]
 80038de:	e7d4      	b.n	800388a <statehandler_magazin+0x8a>
      LCD_printsprite(8, (64 + (int8)j * 4), &magazin_sprite);
 80038e0:	f8df 9110 	ldr.w	r9, [pc, #272]	@ 80039f4 <statehandler_magazin+0x1f4>
 80038e4:	4a44      	ldr	r2, [pc, #272]	@ (80039f8 <statehandler_magazin+0x1f8>)
 80038e6:	f999 1000 	ldrsb.w	r1, [r9]
 80038ea:	3110      	adds	r1, #16
 80038ec:	0089      	lsls	r1, r1, #2
 80038ee:	b249      	sxtb	r1, r1
 80038f0:	f7fd f9ea 	bl	8000cc8 <LCD_printsprite>
      IF_ANY_BTN_PRESS()
 80038f4:	7c79      	ldrb	r1, [r7, #17]
 80038f6:	f898 2011 	ldrb.w	r2, [r8, #17]
      j--;
 80038fa:	f899 3000 	ldrb.w	r3, [r9]
      IF_ANY_BTN_PRESS()
 80038fe:	430a      	orrs	r2, r1
 8003900:	7c71      	ldrb	r1, [r6, #17]
      j--;
 8003902:	3b01      	subs	r3, #1
      IF_ANY_BTN_PRESS()
 8003904:	430a      	orrs	r2, r1
 8003906:	7c69      	ldrb	r1, [r5, #17]
      j--;
 8003908:	b2db      	uxtb	r3, r3
      IF_ANY_BTN_PRESS()
 800390a:	430a      	orrs	r2, r1
      j--;
 800390c:	f889 3000 	strb.w	r3, [r9]
      IF_ANY_BTN_PRESS()
 8003910:	bf1f      	itttt	ne
 8003912:	f888 4011 	strbne.w	r4, [r8, #17]
 8003916:	747c      	strbne	r4, [r7, #17]
 8003918:	7474      	strbne	r4, [r6, #17]
 800391a:	746c      	strbne	r4, [r5, #17]
      if(j == 0) {
 800391c:	2b00      	cmp	r3, #0
 800391e:	d1b4      	bne.n	800388a <statehandler_magazin+0x8a>
        gameevent = EVENT_NONE;
 8003920:	f88a 3000 	strb.w	r3, [sl]
        j = MAGAZIN_INTROANIMATION_PERIOD;
 8003924:	2310      	movs	r3, #16
 8003926:	f889 3000 	strb.w	r3, [r9]
 800392a:	e7ae      	b.n	800388a <statehandler_magazin+0x8a>
    coursormovdisp();
 800392c:	f7ff fdf2 	bl	8003514 <coursormovdisp>
    magaz_getevent();
 8003930:	f7ff fdae 	bl	8003490 <magaz_getevent>
    LCD_printsprite(8, 64, &magazin_sprite);
 8003934:	2140      	movs	r1, #64	@ 0x40
 8003936:	2008      	movs	r0, #8
 8003938:	4a2f      	ldr	r2, [pc, #188]	@ (80039f8 <statehandler_magazin+0x1f8>)
 800393a:	f7fd f9c5 	bl	8000cc8 <LCD_printsprite>
    LCD_printstr8x5((uint8*)"ЦЕНА:", 3, 94);
 800393e:	225e      	movs	r2, #94	@ 0x5e
 8003940:	2103      	movs	r1, #3
 8003942:	482e      	ldr	r0, [pc, #184]	@ (80039fc <statehandler_magazin+0x1fc>)
 8003944:	f7fc ff92 	bl	800086c <LCD_printstr8x5>
    LCD_printstr8x5((uint8*)"магазин", 1, 80);
 8003948:	2250      	movs	r2, #80	@ 0x50
 800394a:	2101      	movs	r1, #1
 800394c:	482c      	ldr	r0, [pc, #176]	@ (8003a00 <statehandler_magazin+0x200>)
 800394e:	f7fc ff8d 	bl	800086c <LCD_printstr8x5>
    LCD_printstr8x5((uint8*)"ВЫХ.", 7, 38);
 8003952:	2226      	movs	r2, #38	@ 0x26
 8003954:	2107      	movs	r1, #7
 8003956:	482b      	ldr	r0, [pc, #172]	@ (8003a04 <statehandler_magazin+0x204>)
 8003958:	f7fc ff88 	bl	800086c <LCD_printstr8x5>
    switch(coursorpos)
 800395c:	4b2a      	ldr	r3, [pc, #168]	@ (8003a08 <statehandler_magazin+0x208>)
 800395e:	781b      	ldrb	r3, [r3, #0]
 8003960:	2b04      	cmp	r3, #4
 8003962:	d892      	bhi.n	800388a <statehandler_magazin+0x8a>
 8003964:	e8df f003 	tbb	[pc, r3]
 8003968:	23150903 	.word	0x23150903
 800396c:	2b          	.byte	0x2b
 800396d:	00          	.byte	0x00
        LCD_printstr8x5((uint8*)"До\nсвидания!", 2, 0);
 800396e:	2200      	movs	r2, #0
 8003970:	2102      	movs	r1, #2
 8003972:	4826      	ldr	r0, [pc, #152]	@ (8003a0c <statehandler_magazin+0x20c>)
        LCD_printstr8x5((uint8*)price, 4, 100);
 8003974:	f7fc ff7a 	bl	800086c <LCD_printstr8x5>
        break;
 8003978:	e787      	b.n	800388a <statehandler_magazin+0x8a>
        LCD_printstr8x5((uint8*)"БОМБА!!!\nБОЛЬШОЙ\nБАДАБУМ!", 2, 0);
 800397a:	2200      	movs	r2, #0
 800397c:	2102      	movs	r1, #2
 800397e:	4824      	ldr	r0, [pc, #144]	@ (8003a10 <statehandler_magazin+0x210>)
        LCD_printstr8x5((uint8*)"Аптечка!", 2, 0);
 8003980:	f7fc ff74 	bl	800086c <LCD_printstr8x5>
        u16_to_str(price, HEALTH_MONEY_COST, 1);
 8003984:	2201      	movs	r2, #1
 8003986:	2105      	movs	r1, #5
 8003988:	4668      	mov	r0, sp
 800398a:	f7fc fbf6 	bl	800017a <u16_to_str>
        LCD_printstr8x5((uint8*)price, 4, 100);
 800398e:	2264      	movs	r2, #100	@ 0x64
 8003990:	e00a      	b.n	80039a8 <statehandler_magazin+0x1a8>
        LCD_printstr8x5((uint8*)"<Бронешлем.\nСнижает\nурон.", 2, 0);
 8003992:	2200      	movs	r2, #0
 8003994:	2102      	movs	r1, #2
 8003996:	481f      	ldr	r0, [pc, #124]	@ (8003a14 <statehandler_magazin+0x214>)
 8003998:	f7fc ff68 	bl	800086c <LCD_printstr8x5>
        u16_to_str(price, GASMASK_MONEY_COST, 2);
 800399c:	2202      	movs	r2, #2
 800399e:	210f      	movs	r1, #15
        u16_to_str(price, BATTERY_MONEY_COST, 2);
 80039a0:	4668      	mov	r0, sp
 80039a2:	f7fc fbea 	bl	800017a <u16_to_str>
        LCD_printstr8x5((uint8*)price, 4, 94);
 80039a6:	225e      	movs	r2, #94	@ 0x5e
        LCD_printstr8x5((uint8*)price, 4, 100);
 80039a8:	2104      	movs	r1, #4
 80039aa:	4668      	mov	r0, sp
 80039ac:	e7e2      	b.n	8003974 <statehandler_magazin+0x174>
        LCD_printstr8x5((uint8*)"Батарейка!", 2, 0);
 80039ae:	2200      	movs	r2, #0
 80039b0:	2102      	movs	r1, #2
 80039b2:	4819      	ldr	r0, [pc, #100]	@ (8003a18 <statehandler_magazin+0x218>)
 80039b4:	f7fc ff5a 	bl	800086c <LCD_printstr8x5>
        u16_to_str(price, BATTERY_MONEY_COST, 2);
 80039b8:	2202      	movs	r2, #2
 80039ba:	2132      	movs	r1, #50	@ 0x32
 80039bc:	e7f0      	b.n	80039a0 <statehandler_magazin+0x1a0>
        LCD_printstr8x5((uint8*)"Аптечка!", 2, 0);
 80039be:	2200      	movs	r2, #0
 80039c0:	2102      	movs	r1, #2
 80039c2:	4816      	ldr	r0, [pc, #88]	@ (8003a1c <statehandler_magazin+0x21c>)
 80039c4:	e7dc      	b.n	8003980 <statehandler_magazin+0x180>
 80039c6:	bf00      	nop
 80039c8:	200008d2 	.word	0x200008d2
 80039cc:	200008d0 	.word	0x200008d0
 80039d0:	200008d4 	.word	0x200008d4
 80039d4:	20000134 	.word	0x20000134
 80039d8:	2000011c 	.word	0x2000011c
 80039dc:	20000104 	.word	0x20000104
 80039e0:	200000ec 	.word	0x200000ec
 80039e4:	20000019 	.word	0x20000019
 80039e8:	080079a8 	.word	0x080079a8
 80039ec:	080074bb 	.word	0x080074bb
 80039f0:	20000a3c 	.word	0x20000a3c
 80039f4:	20000018 	.word	0x20000018
 80039f8:	0800825c 	.word	0x0800825c
 80039fc:	0800757d 	.word	0x0800757d
 8003a00:	08007583 	.word	0x08007583
 8003a04:	0800758b 	.word	0x0800758b
 8003a08:	200008d1 	.word	0x200008d1
 8003a0c:	08007590 	.word	0x08007590
 8003a10:	0800759d 	.word	0x0800759d
 8003a14:	080075b7 	.word	0x080075b7
 8003a18:	080075d1 	.word	0x080075d1
 8003a1c:	080075dc 	.word	0x080075dc

08003a20 <ufobattle>:
/*******************************************************************************
 *                              MAIN ENTRY - GAME CYCLE                     
 *******************************************************************************
 */
void ufobattle(void)
{
 8003a20:	b510      	push	{r4, lr}
  randinit();
 8003a22:	f7fc fb93 	bl	800014c <randinit>
  SchedAddEvent(system_events_period25ms, 25);
 8003a26:	2119      	movs	r1, #25
 8003a28:	4811      	ldr	r0, [pc, #68]	@ (8003a70 <ufobattle+0x50>)
 8003a2a:	f7fe fa69 	bl	8001f00 <SchedAddEvent>
  SchedAddEvent(system_events_period50ms, 50);
 8003a2e:	2132      	movs	r1, #50	@ 0x32
 8003a30:	4810      	ldr	r0, [pc, #64]	@ (8003a74 <ufobattle+0x54>)
 8003a32:	f7fe fa65 	bl	8001f00 <SchedAddEvent>
  SchedAddEvent(system_events_period100ms, 100);
 8003a36:	2164      	movs	r1, #100	@ 0x64
 8003a38:	480f      	ldr	r0, [pc, #60]	@ (8003a78 <ufobattle+0x58>)
 8003a3a:	f7fe fa61 	bl	8001f00 <SchedAddEvent>
  SchedAddEvent(gamestatesprocess, 75);
 8003a3e:	214b      	movs	r1, #75	@ 0x4b
 8003a40:	480e      	ldr	r0, [pc, #56]	@ (8003a7c <ufobattle+0x5c>)
 8003a42:	f7fe fa5d 	bl	8001f00 <SchedAddEvent>
  SchedAddEvent(energyregen, PRD_GAMER_ENERGYREGEN);
 8003a46:	4b0e      	ldr	r3, [pc, #56]	@ (8003a80 <ufobattle+0x60>)
 8003a48:	480e      	ldr	r0, [pc, #56]	@ (8003a84 <ufobattle+0x64>)
 8003a4a:	6819      	ldr	r1, [r3, #0]
 8003a4c:	f7fe fa58 	bl	8001f00 <SchedAddEvent>
  gamestate = STATE_MAINMENU;
 8003a50:	2300      	movs	r3, #0
 8003a52:	4a0d      	ldr	r2, [pc, #52]	@ (8003a88 <ufobattle+0x68>)
  gameevent = EVENT_NONE;
  coursorpos = COURS_POS_1;
  
  while (CFlags.RunGameFl)
 8003a54:	4c0d      	ldr	r4, [pc, #52]	@ (8003a8c <ufobattle+0x6c>)
  gamestate = STATE_MAINMENU;
 8003a56:	7013      	strb	r3, [r2, #0]
  gameevent = EVENT_NONE;
 8003a58:	4a0d      	ldr	r2, [pc, #52]	@ (8003a90 <ufobattle+0x70>)
 8003a5a:	7013      	strb	r3, [r2, #0]
  coursorpos = COURS_POS_1;
 8003a5c:	4a0d      	ldr	r2, [pc, #52]	@ (8003a94 <ufobattle+0x74>)
 8003a5e:	7013      	strb	r3, [r2, #0]
  while (CFlags.RunGameFl)
 8003a60:	7823      	ldrb	r3, [r4, #0]
 8003a62:	079b      	lsls	r3, r3, #30
 8003a64:	d400      	bmi.n	8003a68 <ufobattle+0x48>
  {
    SchedEventProcess();
  }
}
 8003a66:	bd10      	pop	{r4, pc}
    SchedEventProcess();
 8003a68:	f7fe fa64 	bl	8001f34 <SchedEventProcess>
 8003a6c:	e7f8      	b.n	8003a60 <ufobattle+0x40>
 8003a6e:	bf00      	nop
 8003a70:	08002e85 	.word	0x08002e85
 8003a74:	0800251d 	.word	0x0800251d
 8003a78:	08002ecd 	.word	0x08002ecd
 8003a7c:	080024a1 	.word	0x080024a1
 8003a80:	20000044 	.word	0x20000044
 8003a84:	0800237d 	.word	0x0800237d
 8003a88:	200008d2 	.word	0x200008d2
 8003a8c:	20000010 	.word	0x20000010
 8003a90:	200008d0 	.word	0x200008d0
 8003a94:	200008d1 	.word	0x200008d1

08003a98 <Reset_Handler>:
  .weak Reset_Handler
  .type Reset_Handler, %function
Reset_Handler:

/* Copy the data segment initializers from flash to SRAM */
  ldr r0, =_sdata
 8003a98:	480c      	ldr	r0, [pc, #48]	@ (8003acc <LoopFillZerobss+0x12>)
  ldr r1, =_edata
 8003a9a:	490d      	ldr	r1, [pc, #52]	@ (8003ad0 <LoopFillZerobss+0x16>)
  ldr r2, =_sidata
 8003a9c:	4a0d      	ldr	r2, [pc, #52]	@ (8003ad4 <LoopFillZerobss+0x1a>)
  movs r3, #0
 8003a9e:	2300      	movs	r3, #0
  b LoopCopyDataInit
 8003aa0:	e002      	b.n	8003aa8 <LoopCopyDataInit>

08003aa2 <CopyDataInit>:

CopyDataInit:
  ldr r4, [r2, r3]
 8003aa2:	58d4      	ldr	r4, [r2, r3]
  str r4, [r0, r3]
 8003aa4:	50c4      	str	r4, [r0, r3]
  adds r3, r3, #4
 8003aa6:	3304      	adds	r3, #4

08003aa8 <LoopCopyDataInit>:

LoopCopyDataInit:
  adds r4, r0, r3
 8003aa8:	18c4      	adds	r4, r0, r3
  cmp r4, r1
 8003aaa:	428c      	cmp	r4, r1
  bcc CopyDataInit
 8003aac:	d3f9      	bcc.n	8003aa2 <CopyDataInit>
  
/* Zero fill the bss segment. */
  ldr r2, =_sbss
 8003aae:	4a0a      	ldr	r2, [pc, #40]	@ (8003ad8 <LoopFillZerobss+0x1e>)
  ldr r4, =_ebss
 8003ab0:	4c0a      	ldr	r4, [pc, #40]	@ (8003adc <LoopFillZerobss+0x22>)
  movs r3, #0
 8003ab2:	2300      	movs	r3, #0
  b LoopFillZerobss
 8003ab4:	e001      	b.n	8003aba <LoopFillZerobss>

08003ab6 <FillZerobss>:

FillZerobss:
  str  r3, [r2]
 8003ab6:	6013      	str	r3, [r2, #0]
  adds r2, r2, #4
 8003ab8:	3204      	adds	r2, #4

08003aba <LoopFillZerobss>:

LoopFillZerobss:
  cmp r2, r4
 8003aba:	42a2      	cmp	r2, r4
  bcc FillZerobss
 8003abc:	d3fb      	bcc.n	8003ab6 <FillZerobss>

/* Call the clock system intitialization function.*/
    bl  SystemInit
 8003abe:	f7fe fc5b 	bl	8002378 <SystemInit>
/* Call static constructors */
    bl __libc_init_array
 8003ac2:	f002 f8e3 	bl	8005c8c <__libc_init_array>
/* Call the application's entry point.*/
  bl main
 8003ac6:	f7fd fb29 	bl	800111c <main>
  bx lr
 8003aca:	4770      	bx	lr
  ldr r0, =_sdata
 8003acc:	20000000 	.word	0x20000000
  ldr r1, =_edata
 8003ad0:	200000b4 	.word	0x200000b4
  ldr r2, =_sidata
 8003ad4:	08008708 	.word	0x08008708
  ldr r2, =_sbss
 8003ad8:	200000b4 	.word	0x200000b4
  ldr r4, =_ebss
 8003adc:	20000ba4 	.word	0x20000ba4

08003ae0 <ADC1_2_IRQHandler>:
 * @retval : None
*/
    .section .text.Default_Handler,"ax",%progbits
Default_Handler:
Infinite_Loop:
  b Infinite_Loop
 8003ae0:	e7fe      	b.n	8003ae0 <ADC1_2_IRQHandler>
	...

08003ae4 <HAL_InitTick>:
  *       implementation  in user file.
  * @param TickPriority Tick interrupt priority.
  * @retval HAL status
  */
__weak HAL_StatusTypeDef HAL_InitTick(uint32_t TickPriority)
{
 8003ae4:	b538      	push	{r3, r4, r5, lr}
  /* Configure the SysTick to have interrupt in 1ms time basis*/
  if (HAL_SYSTICK_Config(SystemCoreClock / (1000U / uwTickFreq)) > 0U)
 8003ae6:	4b0e      	ldr	r3, [pc, #56]	@ (8003b20 <HAL_InitTick+0x3c>)
{
 8003ae8:	4605      	mov	r5, r0
  if (HAL_SYSTICK_Config(SystemCoreClock / (1000U / uwTickFreq)) > 0U)
 8003aea:	781a      	ldrb	r2, [r3, #0]
 8003aec:	f44f 737a 	mov.w	r3, #1000	@ 0x3e8
 8003af0:	fbb3 f3f2 	udiv	r3, r3, r2
 8003af4:	4a0b      	ldr	r2, [pc, #44]	@ (8003b24 <HAL_InitTick+0x40>)
 8003af6:	6810      	ldr	r0, [r2, #0]
 8003af8:	fbb0 f0f3 	udiv	r0, r0, r3
 8003afc:	f000 fab8 	bl	8004070 <HAL_SYSTICK_Config>
 8003b00:	4604      	mov	r4, r0
 8003b02:	b958      	cbnz	r0, 8003b1c <HAL_InitTick+0x38>
  {
    return HAL_ERROR;
  }

  /* Configure the SysTick IRQ priority */
  if (TickPriority < (1UL << __NVIC_PRIO_BITS))
 8003b04:	2d0f      	cmp	r5, #15
 8003b06:	d809      	bhi.n	8003b1c <HAL_InitTick+0x38>
  {
    HAL_NVIC_SetPriority(SysTick_IRQn, TickPriority, 0U);
 8003b08:	4602      	mov	r2, r0
 8003b0a:	4629      	mov	r1, r5
 8003b0c:	f04f 30ff 	mov.w	r0, #4294967295
 8003b10:	f000 fa70 	bl	8003ff4 <HAL_NVIC_SetPriority>
    uwTickPrio = TickPriority;
 8003b14:	4620      	mov	r0, r4
 8003b16:	4b04      	ldr	r3, [pc, #16]	@ (8003b28 <HAL_InitTick+0x44>)
 8003b18:	601d      	str	r5, [r3, #0]
    return HAL_ERROR;
  }

  /* Return function status */
  return HAL_OK;
}
 8003b1a:	bd38      	pop	{r3, r4, r5, pc}
    return HAL_ERROR;
 8003b1c:	2001      	movs	r0, #1
 8003b1e:	e7fc      	b.n	8003b1a <HAL_InitTick+0x36>
 8003b20:	20000053 	.word	0x20000053
 8003b24:	20000014 	.word	0x20000014
 8003b28:	20000054 	.word	0x20000054

08003b2c <HAL_Init>:
  __HAL_FLASH_PREFETCH_BUFFER_ENABLE();
 8003b2c:	4a07      	ldr	r2, [pc, #28]	@ (8003b4c <HAL_Init+0x20>)
{
 8003b2e:	b508      	push	{r3, lr}
  __HAL_FLASH_PREFETCH_BUFFER_ENABLE();
 8003b30:	6813      	ldr	r3, [r2, #0]
  HAL_NVIC_SetPriorityGrouping(NVIC_PRIORITYGROUP_4);
 8003b32:	2003      	movs	r0, #3
  __HAL_FLASH_PREFETCH_BUFFER_ENABLE();
 8003b34:	f043 0310 	orr.w	r3, r3, #16
 8003b38:	6013      	str	r3, [r2, #0]
  HAL_NVIC_SetPriorityGrouping(NVIC_PRIORITYGROUP_4);
 8003b3a:	f000 fa49 	bl	8003fd0 <HAL_NVIC_SetPriorityGrouping>
  HAL_InitTick(TICK_INT_PRIORITY);
 8003b3e:	200f      	movs	r0, #15
 8003b40:	f7ff ffd0 	bl	8003ae4 <HAL_InitTick>
  HAL_MspInit();
 8003b44:	f7fe fa86 	bl	8002054 <HAL_MspInit>
}
 8003b48:	2000      	movs	r0, #0
 8003b4a:	bd08      	pop	{r3, pc}
 8003b4c:	40022000 	.word	0x40022000

08003b50 <HAL_GetTick>:
  *       implementations in user file.
  * @retval tick value
  */
__weak uint32_t HAL_GetTick(void)
{
  return uwTick;
 8003b50:	4b01      	ldr	r3, [pc, #4]	@ (8003b58 <HAL_GetTick+0x8>)
 8003b52:	6818      	ldr	r0, [r3, #0]
}
 8003b54:	4770      	bx	lr
 8003b56:	bf00      	nop
 8003b58:	20000a54 	.word	0x20000a54

08003b5c <HAL_Delay>:
  *       implementations in user file.
  * @param Delay specifies the delay time length, in milliseconds.
  * @retval None
  */
__weak void HAL_Delay(uint32_t Delay)
{
 8003b5c:	b538      	push	{r3, r4, r5, lr}
 8003b5e:	4604      	mov	r4, r0
  uint32_t tickstart = HAL_GetTick();
 8003b60:	f7ff fff6 	bl	8003b50 <HAL_GetTick>
 8003b64:	4605      	mov	r5, r0
  uint32_t wait = Delay;

  /* Add a freq to guarantee minimum wait */
  if (wait < HAL_MAX_DELAY)
 8003b66:	1c63      	adds	r3, r4, #1
  {
    wait += (uint32_t)(uwTickFreq);
 8003b68:	bf1e      	ittt	ne
 8003b6a:	4b04      	ldrne	r3, [pc, #16]	@ (8003b7c <HAL_Delay+0x20>)
 8003b6c:	781b      	ldrbne	r3, [r3, #0]
 8003b6e:	18e4      	addne	r4, r4, r3
  }

  while ((HAL_GetTick() - tickstart) < wait)
 8003b70:	f7ff ffee 	bl	8003b50 <HAL_GetTick>
 8003b74:	1b43      	subs	r3, r0, r5
 8003b76:	42a3      	cmp	r3, r4
 8003b78:	d3fa      	bcc.n	8003b70 <HAL_Delay+0x14>
  {
  }
}
 8003b7a:	bd38      	pop	{r3, r4, r5, pc}
 8003b7c:	20000053 	.word	0x20000053

08003b80 <ADC_DMAConvCplt>:
  * @retval None
  */
void ADC_DMAConvCplt(DMA_HandleTypeDef *hdma)
{
  /* Retrieve ADC handle corresponding to current DMA handle */
  ADC_HandleTypeDef* hadc = ( ADC_HandleTypeDef* )((DMA_HandleTypeDef* )hdma)->Parent;
 8003b80:	6a43      	ldr	r3, [r0, #36]	@ 0x24
{
 8003b82:	b510      	push	{r4, lr}
 
  /* Update state machine on conversion status if not in error state */
  if (HAL_IS_BIT_CLR(hadc->State, HAL_ADC_STATE_ERROR_INTERNAL | HAL_ADC_STATE_ERROR_DMA))
 8003b84:	6a9a      	ldr	r2, [r3, #40]	@ 0x28
 8003b86:	f012 0f50 	tst.w	r2, #80	@ 0x50
 8003b8a:	d11b      	bne.n	8003bc4 <ADC_DMAConvCplt+0x44>
  {
    /* Update ADC state machine */
    SET_BIT(hadc->State, HAL_ADC_STATE_REG_EOC);
 8003b8c:	6a9a      	ldr	r2, [r3, #40]	@ 0x28
 8003b8e:	f442 7200 	orr.w	r2, r2, #512	@ 0x200
 8003b92:	629a      	str	r2, [r3, #40]	@ 0x28
    /* Determine whether any further conversion upcoming on group regular     */
    /* by external trigger, continuous mode or scan sequence on going.        */
    /* Note: On STM32F1 devices, in case of sequencer enabled                 */
    /*       (several ranks selected), end of conversion flag is raised       */
    /*       at the end of the sequence.                                      */
    if(ADC_IS_SOFTWARE_START_REGULAR(hadc)        && 
 8003b94:	681a      	ldr	r2, [r3, #0]
 8003b96:	6892      	ldr	r2, [r2, #8]
 8003b98:	f402 2260 	and.w	r2, r2, #917504	@ 0xe0000
 8003b9c:	f5b2 2f60 	cmp.w	r2, #917504	@ 0xe0000
 8003ba0:	d10c      	bne.n	8003bbc <ADC_DMAConvCplt+0x3c>
 8003ba2:	7b1a      	ldrb	r2, [r3, #12]
 8003ba4:	b952      	cbnz	r2, 8003bbc <ADC_DMAConvCplt+0x3c>
       (hadc->Init.ContinuousConvMode == DISABLE)   )
    {
      /* Set ADC state */
      CLEAR_BIT(hadc->State, HAL_ADC_STATE_REG_BUSY);   
 8003ba6:	6a9a      	ldr	r2, [r3, #40]	@ 0x28
 8003ba8:	f422 7280 	bic.w	r2, r2, #256	@ 0x100
 8003bac:	629a      	str	r2, [r3, #40]	@ 0x28
      
      if (HAL_IS_BIT_CLR(hadc->State, HAL_ADC_STATE_INJ_BUSY))
 8003bae:	6a9a      	ldr	r2, [r3, #40]	@ 0x28
 8003bb0:	04d2      	lsls	r2, r2, #19
      {
        SET_BIT(hadc->State, HAL_ADC_STATE_READY);
 8003bb2:	bf5e      	ittt	pl
 8003bb4:	6a9a      	ldrpl	r2, [r3, #40]	@ 0x28
 8003bb6:	f042 0201 	orrpl.w	r2, r2, #1
 8003bba:	629a      	strpl	r2, [r3, #40]	@ 0x28
    
    /* Conversion complete callback */
#if (USE_HAL_ADC_REGISTER_CALLBACKS == 1)
    hadc->ConvCpltCallback(hadc);
#else
    HAL_ADC_ConvCpltCallback(hadc);
 8003bbc:	4618      	mov	r0, r3
 8003bbe:	f7fd fc57 	bl	8001470 <HAL_ADC_ConvCpltCallback>
  else
  {
    /* Call DMA error callback */
    hadc->DMA_Handle->XferErrorCallback(hdma);
  }
}
 8003bc2:	bd10      	pop	{r4, pc}
    hadc->DMA_Handle->XferErrorCallback(hdma);
 8003bc4:	6a1b      	ldr	r3, [r3, #32]
}
 8003bc6:	e8bd 4010 	ldmia.w	sp!, {r4, lr}
    hadc->DMA_Handle->XferErrorCallback(hdma);
 8003bca:	6b1b      	ldr	r3, [r3, #48]	@ 0x30
 8003bcc:	4718      	bx	r3

08003bce <HAL_ADC_ConvHalfCpltCallback>:
__weak void HAL_ADC_ConvHalfCpltCallback(ADC_HandleTypeDef* hadc)
 8003bce:	4770      	bx	lr

08003bd0 <ADC_DMAHalfConvCplt>:
  * @brief  DMA half transfer complete callback. 
  * @param  hdma: pointer to DMA handle.
  * @retval None
  */
void ADC_DMAHalfConvCplt(DMA_HandleTypeDef *hdma)   
{
 8003bd0:	b508      	push	{r3, lr}
  
  /* Half conversion callback */
#if (USE_HAL_ADC_REGISTER_CALLBACKS == 1)
    hadc->ConvHalfCpltCallback(hadc);
#else
  HAL_ADC_ConvHalfCpltCallback(hadc);
 8003bd2:	6a40      	ldr	r0, [r0, #36]	@ 0x24
 8003bd4:	f7ff fffb 	bl	8003bce <HAL_ADC_ConvHalfCpltCallback>
#endif /* USE_HAL_ADC_REGISTER_CALLBACKS */
}
 8003bd8:	bd08      	pop	{r3, pc}

08003bda <HAL_ADC_ErrorCallback>:
__weak void HAL_ADC_ErrorCallback(ADC_HandleTypeDef *hadc)
 8003bda:	4770      	bx	lr

08003bdc <ADC_DMAError>:
  * @retval None
  */
void ADC_DMAError(DMA_HandleTypeDef *hdma)   
{
  /* Retrieve ADC handle corresponding to current DMA handle */
  ADC_HandleTypeDef* hadc = ( ADC_HandleTypeDef* )((DMA_HandleTypeDef* )hdma)->Parent;
 8003bdc:	6a40      	ldr	r0, [r0, #36]	@ 0x24
{
 8003bde:	b508      	push	{r3, lr}
  
  /* Set ADC state */
  SET_BIT(hadc->State, HAL_ADC_STATE_ERROR_DMA);
 8003be0:	6a83      	ldr	r3, [r0, #40]	@ 0x28
 8003be2:	f043 0340 	orr.w	r3, r3, #64	@ 0x40
 8003be6:	6283      	str	r3, [r0, #40]	@ 0x28
  
  /* Set ADC error code to DMA error */
  SET_BIT(hadc->ErrorCode, HAL_ADC_ERROR_DMA);
 8003be8:	6ac3      	ldr	r3, [r0, #44]	@ 0x2c
 8003bea:	f043 0304 	orr.w	r3, r3, #4
 8003bee:	62c3      	str	r3, [r0, #44]	@ 0x2c
  
  /* Error callback */
#if (USE_HAL_ADC_REGISTER_CALLBACKS == 1)
  hadc->ErrorCallback(hadc);
#else
  HAL_ADC_ErrorCallback(hadc);
 8003bf0:	f7ff fff3 	bl	8003bda <HAL_ADC_ErrorCallback>
#endif /* USE_HAL_ADC_REGISTER_CALLBACKS */
}
 8003bf4:	bd08      	pop	{r3, pc}
	...

08003bf8 <HAL_ADC_ConfigChannel>:
  __IO uint32_t wait_loop_index = 0U;
 8003bf8:	2300      	movs	r3, #0
{ 
 8003bfa:	b573      	push	{r0, r1, r4, r5, r6, lr}
  __IO uint32_t wait_loop_index = 0U;
 8003bfc:	9301      	str	r3, [sp, #4]
  __HAL_LOCK(hadc);
 8003bfe:	f890 3024 	ldrb.w	r3, [r0, #36]	@ 0x24
{ 
 8003c02:	4604      	mov	r4, r0
  __HAL_LOCK(hadc);
 8003c04:	2b01      	cmp	r3, #1
 8003c06:	d06c      	beq.n	8003ce2 <HAL_ADC_ConfigChannel+0xea>
 8003c08:	2301      	movs	r3, #1
 8003c0a:	f880 3024 	strb.w	r3, [r0, #36]	@ 0x24
  if (sConfig->Rank < 7U)
 8003c0e:	684d      	ldr	r5, [r1, #4]
    MODIFY_REG(hadc->Instance->SQR3                        ,
 8003c10:	6802      	ldr	r2, [r0, #0]
  if (sConfig->Rank < 7U)
 8003c12:	2d06      	cmp	r5, #6
    MODIFY_REG(hadc->Instance->SQR3                        ,
 8003c14:	6808      	ldr	r0, [r1, #0]
 8003c16:	eb05 0385 	add.w	r3, r5, r5, lsl #2
  if (sConfig->Rank < 7U)
 8003c1a:	d822      	bhi.n	8003c62 <HAL_ADC_ConfigChannel+0x6a>
    MODIFY_REG(hadc->Instance->SQR3                        ,
 8003c1c:	261f      	movs	r6, #31
 8003c1e:	6b55      	ldr	r5, [r2, #52]	@ 0x34
 8003c20:	3b05      	subs	r3, #5
 8003c22:	409e      	lsls	r6, r3
 8003c24:	ea25 0506 	bic.w	r5, r5, r6
 8003c28:	fa00 f303 	lsl.w	r3, r0, r3
 8003c2c:	432b      	orrs	r3, r5
 8003c2e:	6353      	str	r3, [r2, #52]	@ 0x34
  if (sConfig->Channel >= ADC_CHANNEL_10)
 8003c30:	2809      	cmp	r0, #9
    MODIFY_REG(hadc->Instance->SMPR1                             ,
 8003c32:	688b      	ldr	r3, [r1, #8]
 8003c34:	eb00 0540 	add.w	r5, r0, r0, lsl #1
 8003c38:	f04f 0107 	mov.w	r1, #7
  if (sConfig->Channel >= ADC_CHANNEL_10)
 8003c3c:	d929      	bls.n	8003c92 <HAL_ADC_ConfigChannel+0x9a>
    MODIFY_REG(hadc->Instance->SMPR1                             ,
 8003c3e:	68d6      	ldr	r6, [r2, #12]
 8003c40:	3d1e      	subs	r5, #30
 8003c42:	40a9      	lsls	r1, r5
 8003c44:	ea26 0101 	bic.w	r1, r6, r1
 8003c48:	40ab      	lsls	r3, r5
 8003c4a:	430b      	orrs	r3, r1
 8003c4c:	60d3      	str	r3, [r2, #12]
  if ((sConfig->Channel == ADC_CHANNEL_TEMPSENSOR) ||
 8003c4e:	f1a0 0310 	sub.w	r3, r0, #16
 8003c52:	2b01      	cmp	r3, #1
 8003c54:	d925      	bls.n	8003ca2 <HAL_ADC_ConfigChannel+0xaa>
  HAL_StatusTypeDef tmp_hal_status = HAL_OK;
 8003c56:	2000      	movs	r0, #0
  __HAL_UNLOCK(hadc);
 8003c58:	2300      	movs	r3, #0
 8003c5a:	f884 3024 	strb.w	r3, [r4, #36]	@ 0x24
}
 8003c5e:	b002      	add	sp, #8
 8003c60:	bd70      	pop	{r4, r5, r6, pc}
  else if (sConfig->Rank < 13U)
 8003c62:	2d0c      	cmp	r5, #12
 8003c64:	f04f 051f 	mov.w	r5, #31
 8003c68:	d809      	bhi.n	8003c7e <HAL_ADC_ConfigChannel+0x86>
    MODIFY_REG(hadc->Instance->SQR2                        ,
 8003c6a:	6b16      	ldr	r6, [r2, #48]	@ 0x30
 8003c6c:	3b23      	subs	r3, #35	@ 0x23
 8003c6e:	409d      	lsls	r5, r3
 8003c70:	ea26 0505 	bic.w	r5, r6, r5
 8003c74:	fa00 f303 	lsl.w	r3, r0, r3
 8003c78:	432b      	orrs	r3, r5
 8003c7a:	6313      	str	r3, [r2, #48]	@ 0x30
 8003c7c:	e7d8      	b.n	8003c30 <HAL_ADC_ConfigChannel+0x38>
    MODIFY_REG(hadc->Instance->SQR1                        ,
 8003c7e:	6ad6      	ldr	r6, [r2, #44]	@ 0x2c
 8003c80:	3b41      	subs	r3, #65	@ 0x41
 8003c82:	409d      	lsls	r5, r3
 8003c84:	ea26 0505 	bic.w	r5, r6, r5
 8003c88:	fa00 f303 	lsl.w	r3, r0, r3
 8003c8c:	432b      	orrs	r3, r5
 8003c8e:	62d3      	str	r3, [r2, #44]	@ 0x2c
 8003c90:	e7ce      	b.n	8003c30 <HAL_ADC_ConfigChannel+0x38>
    MODIFY_REG(hadc->Instance->SMPR2                             ,
 8003c92:	6910      	ldr	r0, [r2, #16]
 8003c94:	40a9      	lsls	r1, r5
 8003c96:	ea20 0101 	bic.w	r1, r0, r1
 8003c9a:	40ab      	lsls	r3, r5
 8003c9c:	430b      	orrs	r3, r1
 8003c9e:	6113      	str	r3, [r2, #16]
  if ((sConfig->Channel == ADC_CHANNEL_TEMPSENSOR) ||
 8003ca0:	e7d9      	b.n	8003c56 <HAL_ADC_ConfigChannel+0x5e>
    if (hadc->Instance == ADC1)
 8003ca2:	4b11      	ldr	r3, [pc, #68]	@ (8003ce8 <HAL_ADC_ConfigChannel+0xf0>)
 8003ca4:	429a      	cmp	r2, r3
 8003ca6:	d116      	bne.n	8003cd6 <HAL_ADC_ConfigChannel+0xde>
      if (READ_BIT(hadc->Instance->CR2, ADC_CR2_TSVREFE) == RESET)
 8003ca8:	6893      	ldr	r3, [r2, #8]
 8003caa:	021b      	lsls	r3, r3, #8
 8003cac:	d4d3      	bmi.n	8003c56 <HAL_ADC_ConfigChannel+0x5e>
        SET_BIT(hadc->Instance->CR2, ADC_CR2_TSVREFE);
 8003cae:	6893      	ldr	r3, [r2, #8]
        if (sConfig->Channel == ADC_CHANNEL_TEMPSENSOR)
 8003cb0:	2810      	cmp	r0, #16
        SET_BIT(hadc->Instance->CR2, ADC_CR2_TSVREFE);
 8003cb2:	f443 0300 	orr.w	r3, r3, #8388608	@ 0x800000
 8003cb6:	6093      	str	r3, [r2, #8]
        if (sConfig->Channel == ADC_CHANNEL_TEMPSENSOR)
 8003cb8:	d1cd      	bne.n	8003c56 <HAL_ADC_ConfigChannel+0x5e>
          wait_loop_index = (ADC_TEMPSENSOR_DELAY_US * (SystemCoreClock / 1000000U));
 8003cba:	4b0c      	ldr	r3, [pc, #48]	@ (8003cec <HAL_ADC_ConfigChannel+0xf4>)
 8003cbc:	4a0c      	ldr	r2, [pc, #48]	@ (8003cf0 <HAL_ADC_ConfigChannel+0xf8>)
 8003cbe:	681b      	ldr	r3, [r3, #0]
 8003cc0:	fbb3 f3f2 	udiv	r3, r3, r2
 8003cc4:	220a      	movs	r2, #10
 8003cc6:	4353      	muls	r3, r2
            wait_loop_index--;
 8003cc8:	9301      	str	r3, [sp, #4]
          while(wait_loop_index != 0U)
 8003cca:	9b01      	ldr	r3, [sp, #4]
 8003ccc:	2b00      	cmp	r3, #0
 8003cce:	d0c2      	beq.n	8003c56 <HAL_ADC_ConfigChannel+0x5e>
            wait_loop_index--;
 8003cd0:	9b01      	ldr	r3, [sp, #4]
 8003cd2:	3b01      	subs	r3, #1
 8003cd4:	e7f8      	b.n	8003cc8 <HAL_ADC_ConfigChannel+0xd0>
      SET_BIT(hadc->State, HAL_ADC_STATE_ERROR_CONFIG);
 8003cd6:	6aa3      	ldr	r3, [r4, #40]	@ 0x28
      tmp_hal_status = HAL_ERROR;
 8003cd8:	2001      	movs	r0, #1
      SET_BIT(hadc->State, HAL_ADC_STATE_ERROR_CONFIG);
 8003cda:	f043 0320 	orr.w	r3, r3, #32
 8003cde:	62a3      	str	r3, [r4, #40]	@ 0x28
      tmp_hal_status = HAL_ERROR;
 8003ce0:	e7ba      	b.n	8003c58 <HAL_ADC_ConfigChannel+0x60>
  __HAL_LOCK(hadc);
 8003ce2:	2002      	movs	r0, #2
 8003ce4:	e7bb      	b.n	8003c5e <HAL_ADC_ConfigChannel+0x66>
 8003ce6:	bf00      	nop
 8003ce8:	40012400 	.word	0x40012400
 8003cec:	20000014 	.word	0x20000014
 8003cf0:	000f4240 	.word	0x000f4240

08003cf4 <ADC_Enable>:
  __IO uint32_t wait_loop_index = 0U;
 8003cf4:	2300      	movs	r3, #0
{
 8003cf6:	b537      	push	{r0, r1, r2, r4, r5, lr}
  __IO uint32_t wait_loop_index = 0U;
 8003cf8:	9301      	str	r3, [sp, #4]
  if (ADC_IS_ENABLE(hadc) == RESET)
 8003cfa:	6803      	ldr	r3, [r0, #0]
{
 8003cfc:	4604      	mov	r4, r0
  if (ADC_IS_ENABLE(hadc) == RESET)
 8003cfe:	689a      	ldr	r2, [r3, #8]
 8003d00:	07d2      	lsls	r2, r2, #31
 8003d02:	d502      	bpl.n	8003d0a <ADC_Enable+0x16>
  return HAL_OK;
 8003d04:	2000      	movs	r0, #0
}
 8003d06:	b003      	add	sp, #12
 8003d08:	bd30      	pop	{r4, r5, pc}
    __HAL_ADC_ENABLE(hadc);
 8003d0a:	689a      	ldr	r2, [r3, #8]
 8003d0c:	f042 0201 	orr.w	r2, r2, #1
 8003d10:	609a      	str	r2, [r3, #8]
    wait_loop_index = (ADC_STAB_DELAY_US * (SystemCoreClock / 1000000U));
 8003d12:	4b14      	ldr	r3, [pc, #80]	@ (8003d64 <ADC_Enable+0x70>)
 8003d14:	4a14      	ldr	r2, [pc, #80]	@ (8003d68 <ADC_Enable+0x74>)
 8003d16:	681b      	ldr	r3, [r3, #0]
 8003d18:	fbb3 f3f2 	udiv	r3, r3, r2
      wait_loop_index--;
 8003d1c:	9301      	str	r3, [sp, #4]
    while(wait_loop_index != 0U)
 8003d1e:	9b01      	ldr	r3, [sp, #4]
 8003d20:	b9e3      	cbnz	r3, 8003d5c <ADC_Enable+0x68>
    tickstart = HAL_GetTick();
 8003d22:	f7ff ff15 	bl	8003b50 <HAL_GetTick>
 8003d26:	4605      	mov	r5, r0
    while(ADC_IS_ENABLE(hadc) == RESET)
 8003d28:	6823      	ldr	r3, [r4, #0]
 8003d2a:	689b      	ldr	r3, [r3, #8]
 8003d2c:	07db      	lsls	r3, r3, #31
 8003d2e:	d4e9      	bmi.n	8003d04 <ADC_Enable+0x10>
      if((HAL_GetTick() - tickstart) > ADC_ENABLE_TIMEOUT)
 8003d30:	f7ff ff0e 	bl	8003b50 <HAL_GetTick>
 8003d34:	1b40      	subs	r0, r0, r5
 8003d36:	2802      	cmp	r0, #2
 8003d38:	d9f6      	bls.n	8003d28 <ADC_Enable+0x34>
        if(ADC_IS_ENABLE(hadc) == RESET)
 8003d3a:	6823      	ldr	r3, [r4, #0]
 8003d3c:	689b      	ldr	r3, [r3, #8]
 8003d3e:	f013 0301 	ands.w	r3, r3, #1
 8003d42:	d1f1      	bne.n	8003d28 <ADC_Enable+0x34>
          SET_BIT(hadc->State, HAL_ADC_STATE_ERROR_INTERNAL);
 8003d44:	6aa2      	ldr	r2, [r4, #40]	@ 0x28
          return HAL_ERROR;
 8003d46:	2001      	movs	r0, #1
          SET_BIT(hadc->State, HAL_ADC_STATE_ERROR_INTERNAL);
 8003d48:	f042 0210 	orr.w	r2, r2, #16
 8003d4c:	62a2      	str	r2, [r4, #40]	@ 0x28
          SET_BIT(hadc->ErrorCode, HAL_ADC_ERROR_INTERNAL);
 8003d4e:	6ae2      	ldr	r2, [r4, #44]	@ 0x2c
          __HAL_UNLOCK(hadc);
 8003d50:	f884 3024 	strb.w	r3, [r4, #36]	@ 0x24
          SET_BIT(hadc->ErrorCode, HAL_ADC_ERROR_INTERNAL);
 8003d54:	f042 0201 	orr.w	r2, r2, #1
 8003d58:	62e2      	str	r2, [r4, #44]	@ 0x2c
          return HAL_ERROR;
 8003d5a:	e7d4      	b.n	8003d06 <ADC_Enable+0x12>
      wait_loop_index--;
 8003d5c:	9b01      	ldr	r3, [sp, #4]
 8003d5e:	3b01      	subs	r3, #1
 8003d60:	e7dc      	b.n	8003d1c <ADC_Enable+0x28>
 8003d62:	bf00      	nop
 8003d64:	20000014 	.word	0x20000014
 8003d68:	000f4240 	.word	0x000f4240

08003d6c <HAL_ADC_Start_DMA>:
{
 8003d6c:	e92d 41f0 	stmdb	sp!, {r4, r5, r6, r7, r8, lr}
  if(ADC_MULTIMODE_IS_ENABLE(hadc) == RESET)
 8003d70:	4b40      	ldr	r3, [pc, #256]	@ (8003e74 <HAL_ADC_Start_DMA+0x108>)
{
 8003d72:	4690      	mov	r8, r2
  if(ADC_MULTIMODE_IS_ENABLE(hadc) == RESET)
 8003d74:	6802      	ldr	r2, [r0, #0]
{
 8003d76:	4604      	mov	r4, r0
  if(ADC_MULTIMODE_IS_ENABLE(hadc) == RESET)
 8003d78:	429a      	cmp	r2, r3
{
 8003d7a:	460f      	mov	r7, r1
  if(ADC_MULTIMODE_IS_ENABLE(hadc) == RESET)
 8003d7c:	d002      	beq.n	8003d84 <HAL_ADC_Start_DMA+0x18>
 8003d7e:	493e      	ldr	r1, [pc, #248]	@ (8003e78 <HAL_ADC_Start_DMA+0x10c>)
 8003d80:	428a      	cmp	r2, r1
 8003d82:	d103      	bne.n	8003d8c <HAL_ADC_Start_DMA+0x20>
 8003d84:	685b      	ldr	r3, [r3, #4]
 8003d86:	f413 2f70 	tst.w	r3, #983040	@ 0xf0000
 8003d8a:	d16e      	bne.n	8003e6a <HAL_ADC_Start_DMA+0xfe>
    __HAL_LOCK(hadc);
 8003d8c:	f894 3024 	ldrb.w	r3, [r4, #36]	@ 0x24
 8003d90:	2b01      	cmp	r3, #1
 8003d92:	d06c      	beq.n	8003e6e <HAL_ADC_Start_DMA+0x102>
 8003d94:	2301      	movs	r3, #1
    tmp_hal_status = ADC_Enable(hadc);
 8003d96:	4620      	mov	r0, r4
    __HAL_LOCK(hadc);
 8003d98:	f884 3024 	strb.w	r3, [r4, #36]	@ 0x24
    tmp_hal_status = ADC_Enable(hadc);
 8003d9c:	f7ff ffaa 	bl	8003cf4 <ADC_Enable>
    if (tmp_hal_status == HAL_OK)
 8003da0:	4606      	mov	r6, r0
 8003da2:	2800      	cmp	r0, #0
 8003da4:	d15d      	bne.n	8003e62 <HAL_ADC_Start_DMA+0xf6>
      ADC_STATE_CLR_SET(hadc->State,
 8003da6:	6aa5      	ldr	r5, [r4, #40]	@ 0x28
    if (ADC_NONMULTIMODE_OR_MULTIMODEMASTER(hadc))
 8003da8:	6821      	ldr	r1, [r4, #0]
 8003daa:	4b33      	ldr	r3, [pc, #204]	@ (8003e78 <HAL_ADC_Start_DMA+0x10c>)
      ADC_STATE_CLR_SET(hadc->State,
 8003dac:	f425 6570 	bic.w	r5, r5, #3840	@ 0xf00
 8003db0:	f025 0501 	bic.w	r5, r5, #1
 8003db4:	f445 7580 	orr.w	r5, r5, #256	@ 0x100
    if (ADC_NONMULTIMODE_OR_MULTIMODEMASTER(hadc))
 8003db8:	4299      	cmp	r1, r3
      ADC_STATE_CLR_SET(hadc->State,
 8003dba:	62a5      	str	r5, [r4, #40]	@ 0x28
    if (ADC_NONMULTIMODE_OR_MULTIMODEMASTER(hadc))
 8003dbc:	d104      	bne.n	8003dc8 <HAL_ADC_Start_DMA+0x5c>
 8003dbe:	4a2d      	ldr	r2, [pc, #180]	@ (8003e74 <HAL_ADC_Start_DMA+0x108>)
 8003dc0:	6853      	ldr	r3, [r2, #4]
 8003dc2:	f413 2f70 	tst.w	r3, #983040	@ 0xf0000
 8003dc6:	d13e      	bne.n	8003e46 <HAL_ADC_Start_DMA+0xda>
      CLEAR_BIT(hadc->State, HAL_ADC_STATE_MULTIMODE_SLAVE);
 8003dc8:	6aa3      	ldr	r3, [r4, #40]	@ 0x28
 8003dca:	f423 1380 	bic.w	r3, r3, #1048576	@ 0x100000
 8003dce:	62a3      	str	r3, [r4, #40]	@ 0x28
      if (READ_BIT(hadc->Instance->CR1, ADC_CR1_JAUTO) != RESET)
 8003dd0:	684b      	ldr	r3, [r1, #4]
 8003dd2:	055a      	lsls	r2, r3, #21
 8003dd4:	d505      	bpl.n	8003de2 <HAL_ADC_Start_DMA+0x76>
        ADC_STATE_CLR_SET(hadc->State, HAL_ADC_STATE_INJ_EOC, HAL_ADC_STATE_INJ_BUSY);  
 8003dd6:	6aa3      	ldr	r3, [r4, #40]	@ 0x28
 8003dd8:	f423 5340 	bic.w	r3, r3, #12288	@ 0x3000
 8003ddc:	f443 5380 	orr.w	r3, r3, #4096	@ 0x1000
 8003de0:	62a3      	str	r3, [r4, #40]	@ 0x28
      if (HAL_IS_BIT_SET(hadc->State, HAL_ADC_STATE_INJ_BUSY))
 8003de2:	6aa3      	ldr	r3, [r4, #40]	@ 0x28
      hadc->DMA_Handle->XferCpltCallback = ADC_DMAConvCplt;
 8003de4:	6a20      	ldr	r0, [r4, #32]
      if (HAL_IS_BIT_SET(hadc->State, HAL_ADC_STATE_INJ_BUSY))
 8003de6:	f413 5380 	ands.w	r3, r3, #4096	@ 0x1000
        CLEAR_BIT(hadc->ErrorCode, (HAL_ADC_ERROR_OVR | HAL_ADC_ERROR_DMA));         
 8003dea:	bf18      	it	ne
 8003dec:	6ae3      	ldrne	r3, [r4, #44]	@ 0x2c
      HAL_DMA_Start_IT(hadc->DMA_Handle, (uint32_t)&hadc->Instance->DR, (uint32_t)pData, Length);
 8003dee:	463a      	mov	r2, r7
        CLEAR_BIT(hadc->ErrorCode, (HAL_ADC_ERROR_OVR | HAL_ADC_ERROR_DMA));         
 8003df0:	bf18      	it	ne
 8003df2:	f023 0306 	bicne.w	r3, r3, #6
        ADC_CLEAR_ERRORCODE(hadc);
 8003df6:	62e3      	str	r3, [r4, #44]	@ 0x2c
      __HAL_UNLOCK(hadc);
 8003df8:	2300      	movs	r3, #0
 8003dfa:	f884 3024 	strb.w	r3, [r4, #36]	@ 0x24
      hadc->DMA_Handle->XferCpltCallback = ADC_DMAConvCplt;
 8003dfe:	4b1f      	ldr	r3, [pc, #124]	@ (8003e7c <HAL_ADC_Start_DMA+0x110>)
      HAL_DMA_Start_IT(hadc->DMA_Handle, (uint32_t)&hadc->Instance->DR, (uint32_t)pData, Length);
 8003e00:	314c      	adds	r1, #76	@ 0x4c
      hadc->DMA_Handle->XferCpltCallback = ADC_DMAConvCplt;
 8003e02:	6283      	str	r3, [r0, #40]	@ 0x28
      hadc->DMA_Handle->XferHalfCpltCallback = ADC_DMAHalfConvCplt;
 8003e04:	4b1e      	ldr	r3, [pc, #120]	@ (8003e80 <HAL_ADC_Start_DMA+0x114>)
 8003e06:	62c3      	str	r3, [r0, #44]	@ 0x2c
      hadc->DMA_Handle->XferErrorCallback = ADC_DMAError;
 8003e08:	4b1e      	ldr	r3, [pc, #120]	@ (8003e84 <HAL_ADC_Start_DMA+0x118>)
 8003e0a:	6303      	str	r3, [r0, #48]	@ 0x30
      __HAL_ADC_CLEAR_FLAG(hadc, ADC_FLAG_EOC);
 8003e0c:	f06f 0302 	mvn.w	r3, #2
 8003e10:	f841 3c4c 	str.w	r3, [r1, #-76]
      SET_BIT(hadc->Instance->CR2, ADC_CR2_DMA);
 8003e14:	f851 3c44 	ldr.w	r3, [r1, #-68]
 8003e18:	f443 7380 	orr.w	r3, r3, #256	@ 0x100
 8003e1c:	f841 3c44 	str.w	r3, [r1, #-68]
      HAL_DMA_Start_IT(hadc->DMA_Handle, (uint32_t)&hadc->Instance->DR, (uint32_t)pData, Length);
 8003e20:	4643      	mov	r3, r8
 8003e22:	f000 f96b 	bl	80040fc <HAL_DMA_Start_IT>
      if (ADC_IS_SOFTWARE_START_REGULAR(hadc))
 8003e26:	6823      	ldr	r3, [r4, #0]
 8003e28:	689a      	ldr	r2, [r3, #8]
 8003e2a:	f402 2260 	and.w	r2, r2, #917504	@ 0xe0000
 8003e2e:	f5b2 2f60 	cmp.w	r2, #917504	@ 0xe0000
        SET_BIT(hadc->Instance->CR2, (ADC_CR2_SWSTART | ADC_CR2_EXTTRIG));
 8003e32:	689a      	ldr	r2, [r3, #8]
 8003e34:	bf0c      	ite	eq
 8003e36:	f442 02a0 	orreq.w	r2, r2, #5242880	@ 0x500000
        SET_BIT(hadc->Instance->CR2, ADC_CR2_EXTTRIG);
 8003e3a:	f442 1280 	orrne.w	r2, r2, #1048576	@ 0x100000
 8003e3e:	609a      	str	r2, [r3, #8]
}
 8003e40:	4630      	mov	r0, r6
 8003e42:	e8bd 81f0 	ldmia.w	sp!, {r4, r5, r6, r7, r8, pc}
      SET_BIT(hadc->State, HAL_ADC_STATE_MULTIMODE_SLAVE);
 8003e46:	6aa3      	ldr	r3, [r4, #40]	@ 0x28
 8003e48:	f443 1380 	orr.w	r3, r3, #1048576	@ 0x100000
 8003e4c:	62a3      	str	r3, [r4, #40]	@ 0x28
      if (ADC_MULTIMODE_AUTO_INJECTED(hadc))
 8003e4e:	6853      	ldr	r3, [r2, #4]
 8003e50:	055b      	lsls	r3, r3, #21
        ADC_STATE_CLR_SET(hadc->State, HAL_ADC_STATE_INJ_EOC, HAL_ADC_STATE_INJ_BUSY);
 8003e52:	bf41      	itttt	mi
 8003e54:	6aa0      	ldrmi	r0, [r4, #40]	@ 0x28
 8003e56:	f420 5040 	bicmi.w	r0, r0, #12288	@ 0x3000
 8003e5a:	f440 5080 	orrmi.w	r0, r0, #4096	@ 0x1000
 8003e5e:	62a0      	strmi	r0, [r4, #40]	@ 0x28
 8003e60:	e7bf      	b.n	8003de2 <HAL_ADC_Start_DMA+0x76>
      __HAL_UNLOCK(hadc);
 8003e62:	2300      	movs	r3, #0
 8003e64:	f884 3024 	strb.w	r3, [r4, #36]	@ 0x24
 8003e68:	e7ea      	b.n	8003e40 <HAL_ADC_Start_DMA+0xd4>
    tmp_hal_status = HAL_ERROR;
 8003e6a:	2601      	movs	r6, #1
 8003e6c:	e7e8      	b.n	8003e40 <HAL_ADC_Start_DMA+0xd4>
    __HAL_LOCK(hadc);
 8003e6e:	2602      	movs	r6, #2
 8003e70:	e7e6      	b.n	8003e40 <HAL_ADC_Start_DMA+0xd4>
 8003e72:	bf00      	nop
 8003e74:	40012400 	.word	0x40012400
 8003e78:	40012800 	.word	0x40012800
 8003e7c:	08003b81 	.word	0x08003b81
 8003e80:	08003bd1 	.word	0x08003bd1
 8003e84:	08003bdd 	.word	0x08003bdd

08003e88 <ADC_ConversionStop_Disable>:
{
 8003e88:	b538      	push	{r3, r4, r5, lr}
  if (ADC_IS_ENABLE(hadc) != RESET)
 8003e8a:	6803      	ldr	r3, [r0, #0]
{
 8003e8c:	4604      	mov	r4, r0
  if (ADC_IS_ENABLE(hadc) != RESET)
 8003e8e:	689a      	ldr	r2, [r3, #8]
 8003e90:	07d1      	lsls	r1, r2, #31
 8003e92:	d401      	bmi.n	8003e98 <ADC_ConversionStop_Disable+0x10>
  return HAL_OK;
 8003e94:	2000      	movs	r0, #0
}
 8003e96:	bd38      	pop	{r3, r4, r5, pc}
    __HAL_ADC_DISABLE(hadc);
 8003e98:	689a      	ldr	r2, [r3, #8]
 8003e9a:	f022 0201 	bic.w	r2, r2, #1
 8003e9e:	609a      	str	r2, [r3, #8]
    tickstart = HAL_GetTick();
 8003ea0:	f7ff fe56 	bl	8003b50 <HAL_GetTick>
 8003ea4:	4605      	mov	r5, r0
    while(ADC_IS_ENABLE(hadc) != RESET)
 8003ea6:	6823      	ldr	r3, [r4, #0]
 8003ea8:	689b      	ldr	r3, [r3, #8]
 8003eaa:	07db      	lsls	r3, r3, #31
 8003eac:	d5f2      	bpl.n	8003e94 <ADC_ConversionStop_Disable+0xc>
      if((HAL_GetTick() - tickstart) > ADC_DISABLE_TIMEOUT)
 8003eae:	f7ff fe4f 	bl	8003b50 <HAL_GetTick>
 8003eb2:	1b40      	subs	r0, r0, r5
 8003eb4:	2802      	cmp	r0, #2
 8003eb6:	d9f6      	bls.n	8003ea6 <ADC_ConversionStop_Disable+0x1e>
        if(ADC_IS_ENABLE(hadc) != RESET)
 8003eb8:	6823      	ldr	r3, [r4, #0]
 8003eba:	689b      	ldr	r3, [r3, #8]
 8003ebc:	07da      	lsls	r2, r3, #31
 8003ebe:	d5f2      	bpl.n	8003ea6 <ADC_ConversionStop_Disable+0x1e>
          SET_BIT(hadc->State, HAL_ADC_STATE_ERROR_INTERNAL);
 8003ec0:	6aa3      	ldr	r3, [r4, #40]	@ 0x28
          return HAL_ERROR;
 8003ec2:	2001      	movs	r0, #1
          SET_BIT(hadc->State, HAL_ADC_STATE_ERROR_INTERNAL);
 8003ec4:	f043 0310 	orr.w	r3, r3, #16
 8003ec8:	62a3      	str	r3, [r4, #40]	@ 0x28
          SET_BIT(hadc->ErrorCode, HAL_ADC_ERROR_INTERNAL);
 8003eca:	6ae3      	ldr	r3, [r4, #44]	@ 0x2c
 8003ecc:	f043 0301 	orr.w	r3, r3, #1
 8003ed0:	62e3      	str	r3, [r4, #44]	@ 0x2c
          return HAL_ERROR;
 8003ed2:	e7e0      	b.n	8003e96 <ADC_ConversionStop_Disable+0xe>

08003ed4 <HAL_ADC_Init>:
{
 8003ed4:	b5f8      	push	{r3, r4, r5, r6, r7, lr}
  if(hadc == NULL)
 8003ed6:	4604      	mov	r4, r0
 8003ed8:	2800      	cmp	r0, #0
 8003eda:	d06d      	beq.n	8003fb8 <HAL_ADC_Init+0xe4>
  if (hadc->State == HAL_ADC_STATE_RESET)
 8003edc:	6a83      	ldr	r3, [r0, #40]	@ 0x28
 8003ede:	b923      	cbnz	r3, 8003eea <HAL_ADC_Init+0x16>
    ADC_CLEAR_ERRORCODE(hadc);
 8003ee0:	62c3      	str	r3, [r0, #44]	@ 0x2c
    hadc->Lock = HAL_UNLOCKED;
 8003ee2:	f880 3024 	strb.w	r3, [r0, #36]	@ 0x24
    HAL_ADC_MspInit(hadc);
 8003ee6:	f7fe f8d7 	bl	8002098 <HAL_ADC_MspInit>
  tmp_hal_status = ADC_ConversionStop_Disable(hadc);
 8003eea:	4620      	mov	r0, r4
 8003eec:	f7ff ffcc 	bl	8003e88 <ADC_ConversionStop_Disable>
  if (HAL_IS_BIT_CLR(hadc->State, HAL_ADC_STATE_ERROR_INTERNAL) &&
 8003ef0:	6aa3      	ldr	r3, [r4, #40]	@ 0x28
 8003ef2:	f013 0310 	ands.w	r3, r3, #16
 8003ef6:	d161      	bne.n	8003fbc <HAL_ADC_Init+0xe8>
 8003ef8:	2800      	cmp	r0, #0
 8003efa:	d15f      	bne.n	8003fbc <HAL_ADC_Init+0xe8>
    ADC_STATE_CLR_SET(hadc->State,
 8003efc:	6aa2      	ldr	r2, [r4, #40]	@ 0x28
    tmp_cr2 |= (hadc->Init.DataAlign                                          |
 8003efe:	6861      	ldr	r1, [r4, #4]
    ADC_STATE_CLR_SET(hadc->State,
 8003f00:	f422 5288 	bic.w	r2, r2, #4352	@ 0x1100
 8003f04:	f022 0202 	bic.w	r2, r2, #2
 8003f08:	f042 0202 	orr.w	r2, r2, #2
    tmp_cr2 |= (hadc->Init.DataAlign                                          |
 8003f0c:	69e5      	ldr	r5, [r4, #28]
    tmp_cr1 |= (ADC_CR1_SCAN_SET(hadc->Init.ScanConvMode));
 8003f0e:	68a6      	ldr	r6, [r4, #8]
    ADC_STATE_CLR_SET(hadc->State,
 8003f10:	62a2      	str	r2, [r4, #40]	@ 0x28
                ADC_CR2_CONTINUOUS((uint32_t)hadc->Init.ContinuousConvMode)   );
 8003f12:	7b22      	ldrb	r2, [r4, #12]
    tmp_cr2 |= (hadc->Init.DataAlign                                          |
 8003f14:	4329      	orrs	r1, r5
    tmp_cr1 |= (ADC_CR1_SCAN_SET(hadc->Init.ScanConvMode));
 8003f16:	f5b6 7f80 	cmp.w	r6, #256	@ 0x100
                ADC_CFGR_EXTSEL(hadc, hadc->Init.ExternalTrigConv)            |
 8003f1a:	ea41 0142 	orr.w	r1, r1, r2, lsl #1
    tmp_cr1 |= (ADC_CR1_SCAN_SET(hadc->Init.ScanConvMode));
 8003f1e:	d036      	beq.n	8003f8e <HAL_ADC_Init+0xba>
 8003f20:	1e77      	subs	r7, r6, #1
 8003f22:	427d      	negs	r5, r7
 8003f24:	417d      	adcs	r5, r7
 8003f26:	022d      	lsls	r5, r5, #8
    if (hadc->Init.DiscontinuousConvMode == ENABLE)
 8003f28:	7d27      	ldrb	r7, [r4, #20]
 8003f2a:	2f01      	cmp	r7, #1
 8003f2c:	d106      	bne.n	8003f3c <HAL_ADC_Init+0x68>
      if (hadc->Init.ContinuousConvMode == DISABLE)
 8003f2e:	bb82      	cbnz	r2, 8003f92 <HAL_ADC_Init+0xbe>
        SET_BIT(tmp_cr1, ADC_CR1_DISCEN                                            |
 8003f30:	69a2      	ldr	r2, [r4, #24]
 8003f32:	3a01      	subs	r2, #1
 8003f34:	ea45 3242 	orr.w	r2, r5, r2, lsl #13
 8003f38:	f442 6500 	orr.w	r5, r2, #2048	@ 0x800
      MODIFY_REG(hadc->Instance->CR1,
 8003f3c:	6822      	ldr	r2, [r4, #0]
    if (ADC_CR1_SCAN_SET(hadc->Init.ScanConvMode) == ADC_SCAN_ENABLE)
 8003f3e:	f5b6 7f80 	cmp.w	r6, #256	@ 0x100
      MODIFY_REG(hadc->Instance->CR1,
 8003f42:	6857      	ldr	r7, [r2, #4]
 8003f44:	f427 4769 	bic.w	r7, r7, #59648	@ 0xe900
 8003f48:	ea45 0507 	orr.w	r5, r5, r7
 8003f4c:	6055      	str	r5, [r2, #4]
      MODIFY_REG(hadc->Instance->CR2,
 8003f4e:	6897      	ldr	r7, [r2, #8]
 8003f50:	4d1d      	ldr	r5, [pc, #116]	@ (8003fc8 <HAL_ADC_Init+0xf4>)
 8003f52:	ea05 0507 	and.w	r5, r5, r7
 8003f56:	ea45 0501 	orr.w	r5, r5, r1
 8003f5a:	6095      	str	r5, [r2, #8]
    if (ADC_CR1_SCAN_SET(hadc->Init.ScanConvMode) == ADC_SCAN_ENABLE)
 8003f5c:	d001      	beq.n	8003f62 <HAL_ADC_Init+0x8e>
 8003f5e:	2e01      	cmp	r6, #1
 8003f60:	d102      	bne.n	8003f68 <HAL_ADC_Init+0x94>
      tmp_sqr1 = ADC_SQR1_L_SHIFT(hadc->Init.NbrOfConversion);
 8003f62:	6923      	ldr	r3, [r4, #16]
 8003f64:	3b01      	subs	r3, #1
 8003f66:	051b      	lsls	r3, r3, #20
    MODIFY_REG(hadc->Instance->SQR1,
 8003f68:	6ad5      	ldr	r5, [r2, #44]	@ 0x2c
 8003f6a:	f425 0570 	bic.w	r5, r5, #15728640	@ 0xf00000
 8003f6e:	432b      	orrs	r3, r5
 8003f70:	62d3      	str	r3, [r2, #44]	@ 0x2c
    if (READ_BIT(hadc->Instance->CR2, ~(ADC_CR2_ADON | ADC_CR2_DMA |
 8003f72:	6892      	ldr	r2, [r2, #8]
 8003f74:	4b15      	ldr	r3, [pc, #84]	@ (8003fcc <HAL_ADC_Init+0xf8>)
 8003f76:	4013      	ands	r3, r2
 8003f78:	4299      	cmp	r1, r3
 8003f7a:	d113      	bne.n	8003fa4 <HAL_ADC_Init+0xd0>
      ADC_CLEAR_ERRORCODE(hadc);
 8003f7c:	2300      	movs	r3, #0
 8003f7e:	62e3      	str	r3, [r4, #44]	@ 0x2c
      ADC_STATE_CLR_SET(hadc->State,
 8003f80:	6aa3      	ldr	r3, [r4, #40]	@ 0x28
 8003f82:	f023 0303 	bic.w	r3, r3, #3
 8003f86:	f043 0301 	orr.w	r3, r3, #1
 8003f8a:	62a3      	str	r3, [r4, #40]	@ 0x28
}
 8003f8c:	bdf8      	pop	{r3, r4, r5, r6, r7, pc}
    tmp_cr1 |= (ADC_CR1_SCAN_SET(hadc->Init.ScanConvMode));
 8003f8e:	4635      	mov	r5, r6
 8003f90:	e7ca      	b.n	8003f28 <HAL_ADC_Init+0x54>
        SET_BIT(hadc->State, HAL_ADC_STATE_ERROR_CONFIG);
 8003f92:	6aa2      	ldr	r2, [r4, #40]	@ 0x28
 8003f94:	f042 0220 	orr.w	r2, r2, #32
 8003f98:	62a2      	str	r2, [r4, #40]	@ 0x28
        SET_BIT(hadc->ErrorCode, HAL_ADC_ERROR_INTERNAL);
 8003f9a:	6ae2      	ldr	r2, [r4, #44]	@ 0x2c
 8003f9c:	f042 0201 	orr.w	r2, r2, #1
 8003fa0:	62e2      	str	r2, [r4, #44]	@ 0x2c
 8003fa2:	e7cb      	b.n	8003f3c <HAL_ADC_Init+0x68>
      ADC_STATE_CLR_SET(hadc->State,
 8003fa4:	6aa3      	ldr	r3, [r4, #40]	@ 0x28
 8003fa6:	f023 0312 	bic.w	r3, r3, #18
 8003faa:	f043 0310 	orr.w	r3, r3, #16
 8003fae:	62a3      	str	r3, [r4, #40]	@ 0x28
      SET_BIT(hadc->ErrorCode, HAL_ADC_ERROR_INTERNAL);
 8003fb0:	6ae3      	ldr	r3, [r4, #44]	@ 0x2c
 8003fb2:	f043 0301 	orr.w	r3, r3, #1
 8003fb6:	62e3      	str	r3, [r4, #44]	@ 0x2c
    return HAL_ERROR;
 8003fb8:	2001      	movs	r0, #1
 8003fba:	e7e7      	b.n	8003f8c <HAL_ADC_Init+0xb8>
    SET_BIT(hadc->State, HAL_ADC_STATE_ERROR_INTERNAL);
 8003fbc:	6aa3      	ldr	r3, [r4, #40]	@ 0x28
 8003fbe:	f043 0310 	orr.w	r3, r3, #16
 8003fc2:	62a3      	str	r3, [r4, #40]	@ 0x28
    tmp_hal_status = HAL_ERROR;
 8003fc4:	e7f8      	b.n	8003fb8 <HAL_ADC_Init+0xe4>
 8003fc6:	bf00      	nop
 8003fc8:	ffe1f7fd 	.word	0xffe1f7fd
 8003fcc:	ff1f0efe 	.word	0xff1f0efe

08003fd0 <HAL_NVIC_SetPriorityGrouping>:
  reg_value  =  SCB->AIRCR;                                                   /* read old register configuration    */
 8003fd0:	4907      	ldr	r1, [pc, #28]	@ (8003ff0 <HAL_NVIC_SetPriorityGrouping+0x20>)
                (PriorityGroupTmp << SCB_AIRCR_PRIGROUP_Pos) );               /* Insert write key and priority group */
 8003fd2:	0203      	lsls	r3, r0, #8
  reg_value  =  SCB->AIRCR;                                                   /* read old register configuration    */
 8003fd4:	68ca      	ldr	r2, [r1, #12]
                (PriorityGroupTmp << SCB_AIRCR_PRIGROUP_Pos) );               /* Insert write key and priority group */
 8003fd6:	f403 63e0 	and.w	r3, r3, #1792	@ 0x700
  reg_value &= ~((uint32_t)(SCB_AIRCR_VECTKEY_Msk | SCB_AIRCR_PRIGROUP_Msk)); /* clear bits to change               */
 8003fda:	f422 62e0 	bic.w	r2, r2, #1792	@ 0x700
 8003fde:	0412      	lsls	r2, r2, #16
 8003fe0:	0c12      	lsrs	r2, r2, #16
                ((uint32_t)0x5FAUL << SCB_AIRCR_VECTKEY_Pos) |
 8003fe2:	4313      	orrs	r3, r2
  reg_value  =  (reg_value                                   |
 8003fe4:	f043 63bf 	orr.w	r3, r3, #100139008	@ 0x5f80000
 8003fe8:	f443 3300 	orr.w	r3, r3, #131072	@ 0x20000
  SCB->AIRCR =  reg_value;
 8003fec:	60cb      	str	r3, [r1, #12]
  /* Check the parameters */
  assert_param(IS_NVIC_PRIORITY_GROUP(PriorityGroup));
  
  /* Set the PRIGROUP[10:8] bits according to the PriorityGroup parameter value */
  NVIC_SetPriorityGrouping(PriorityGroup);
}
 8003fee:	4770      	bx	lr
 8003ff0:	e000ed00 	.word	0xe000ed00

08003ff4 <HAL_NVIC_SetPriority>:
  return ((uint32_t)((SCB->AIRCR & SCB_AIRCR_PRIGROUP_Msk) >> SCB_AIRCR_PRIGROUP_Pos));
 8003ff4:	4b15      	ldr	r3, [pc, #84]	@ (800404c <HAL_NVIC_SetPriority+0x58>)
  *         This parameter can be a value between 0 and 15
  *         A lower priority value indicates a higher priority.          
  * @retval None
  */
void HAL_NVIC_SetPriority(IRQn_Type IRQn, uint32_t PreemptPriority, uint32_t SubPriority)
{ 
 8003ff6:	b530      	push	{r4, r5, lr}
 8003ff8:	68dc      	ldr	r4, [r3, #12]
 8003ffa:	f3c4 2402 	ubfx	r4, r4, #8, #3
  PreemptPriorityBits = ((7UL - PriorityGroupTmp) > (uint32_t)(__NVIC_PRIO_BITS)) ? (uint32_t)(__NVIC_PRIO_BITS) : (uint32_t)(7UL - PriorityGroupTmp);
 8003ffe:	f1c4 0307 	rsb	r3, r4, #7
  SubPriorityBits     = ((PriorityGroupTmp + (uint32_t)(__NVIC_PRIO_BITS)) < (uint32_t)7UL) ? (uint32_t)0UL : (uint32_t)((PriorityGroupTmp - 7UL) + (uint32_t)(__NVIC_PRIO_BITS));
 8004002:	1d25      	adds	r5, r4, #4
  PreemptPriorityBits = ((7UL - PriorityGroupTmp) > (uint32_t)(__NVIC_PRIO_BITS)) ? (uint32_t)(__NVIC_PRIO_BITS) : (uint32_t)(7UL - PriorityGroupTmp);
 8004004:	2b04      	cmp	r3, #4
 8004006:	bf28      	it	cs
 8004008:	2304      	movcs	r3, #4
  SubPriorityBits     = ((PriorityGroupTmp + (uint32_t)(__NVIC_PRIO_BITS)) < (uint32_t)7UL) ? (uint32_t)0UL : (uint32_t)((PriorityGroupTmp - 7UL) + (uint32_t)(__NVIC_PRIO_BITS));
 800400a:	2d06      	cmp	r5, #6
           ((PreemptPriority & (uint32_t)((1UL << (PreemptPriorityBits)) - 1UL)) << SubPriorityBits) |
 800400c:	f04f 35ff 	mov.w	r5, #4294967295
  SubPriorityBits     = ((PriorityGroupTmp + (uint32_t)(__NVIC_PRIO_BITS)) < (uint32_t)7UL) ? (uint32_t)0UL : (uint32_t)((PriorityGroupTmp - 7UL) + (uint32_t)(__NVIC_PRIO_BITS));
 8004010:	bf94      	ite	ls
 8004012:	2400      	movls	r4, #0
 8004014:	3c03      	subhi	r4, #3
           ((PreemptPriority & (uint32_t)((1UL << (PreemptPriorityBits)) - 1UL)) << SubPriorityBits) |
 8004016:	fa05 f303 	lsl.w	r3, r5, r3
 800401a:	ea21 0303 	bic.w	r3, r1, r3
           ((SubPriority     & (uint32_t)((1UL << (SubPriorityBits    )) - 1UL)))
 800401e:	40a5      	lsls	r5, r4
 8004020:	ea22 0205 	bic.w	r2, r2, r5
           ((PreemptPriority & (uint32_t)((1UL << (PreemptPriorityBits)) - 1UL)) << SubPriorityBits) |
 8004024:	40a3      	lsls	r3, r4
  if ((int32_t)(IRQn) >= 0)
 8004026:	2800      	cmp	r0, #0
           ((PreemptPriority & (uint32_t)((1UL << (PreemptPriorityBits)) - 1UL)) << SubPriorityBits) |
 8004028:	ea43 0302 	orr.w	r3, r3, r2
    NVIC->IP[((uint32_t)IRQn)]               = (uint8_t)((priority << (8U - __NVIC_PRIO_BITS)) & (uint32_t)0xFFUL);
 800402c:	bfac      	ite	ge
 800402e:	f100 4060 	addge.w	r0, r0, #3758096384	@ 0xe0000000
    SCB->SHP[(((uint32_t)IRQn) & 0xFUL)-4UL] = (uint8_t)((priority << (8U - __NVIC_PRIO_BITS)) & (uint32_t)0xFFUL);
 8004032:	4a07      	ldrlt	r2, [pc, #28]	@ (8004050 <HAL_NVIC_SetPriority+0x5c>)
    NVIC->IP[((uint32_t)IRQn)]               = (uint8_t)((priority << (8U - __NVIC_PRIO_BITS)) & (uint32_t)0xFFUL);
 8004034:	ea4f 1303 	mov.w	r3, r3, lsl #4
 8004038:	b2db      	uxtb	r3, r3
 800403a:	bfab      	itete	ge
 800403c:	f500 4061 	addge.w	r0, r0, #57600	@ 0xe100
    SCB->SHP[(((uint32_t)IRQn) & 0xFUL)-4UL] = (uint8_t)((priority << (8U - __NVIC_PRIO_BITS)) & (uint32_t)0xFFUL);
 8004040:	f000 000f 	andlt.w	r0, r0, #15
    NVIC->IP[((uint32_t)IRQn)]               = (uint8_t)((priority << (8U - __NVIC_PRIO_BITS)) & (uint32_t)0xFFUL);
 8004044:	f880 3300 	strbge.w	r3, [r0, #768]	@ 0x300
    SCB->SHP[(((uint32_t)IRQn) & 0xFUL)-4UL] = (uint8_t)((priority << (8U - __NVIC_PRIO_BITS)) & (uint32_t)0xFFUL);
 8004048:	5413      	strblt	r3, [r2, r0]
  assert_param(IS_NVIC_PREEMPTION_PRIORITY(PreemptPriority));
  
  prioritygroup = NVIC_GetPriorityGrouping();
  
  NVIC_SetPriority(IRQn, NVIC_EncodePriority(prioritygroup, PreemptPriority, SubPriority));
}
 800404a:	bd30      	pop	{r4, r5, pc}
 800404c:	e000ed00 	.word	0xe000ed00
 8004050:	e000ed14 	.word	0xe000ed14

08004054 <HAL_NVIC_EnableIRQ>:
  if ((int32_t)(IRQn) >= 0)
 8004054:	2800      	cmp	r0, #0
 8004056:	db07      	blt.n	8004068 <HAL_NVIC_EnableIRQ+0x14>
    NVIC->ISER[(((uint32_t)IRQn) >> 5UL)] = (uint32_t)(1UL << (((uint32_t)IRQn) & 0x1FUL));
 8004058:	2301      	movs	r3, #1
 800405a:	0941      	lsrs	r1, r0, #5
 800405c:	4a03      	ldr	r2, [pc, #12]	@ (800406c <HAL_NVIC_EnableIRQ+0x18>)
 800405e:	f000 001f 	and.w	r0, r0, #31
 8004062:	4083      	lsls	r3, r0
 8004064:	f842 3021 	str.w	r3, [r2, r1, lsl #2]
  /* Check the parameters */
  assert_param(IS_NVIC_DEVICE_IRQ(IRQn));

  /* Enable interrupt */
  NVIC_EnableIRQ(IRQn);
}
 8004068:	4770      	bx	lr
 800406a:	bf00      	nop
 800406c:	e000e100 	.word	0xe000e100

08004070 <HAL_SYSTICK_Config>:
  if ((ticks - 1UL) > SysTick_LOAD_RELOAD_Msk)
 8004070:	3801      	subs	r0, #1
 8004072:	f1b0 7f80 	cmp.w	r0, #16777216	@ 0x1000000
 8004076:	d20b      	bcs.n	8004090 <HAL_SYSTICK_Config+0x20>
  SysTick->LOAD  = (uint32_t)(ticks - 1UL);                         /* set reload register */
 8004078:	f04f 23e0 	mov.w	r3, #3758153728	@ 0xe000e000
    SCB->SHP[(((uint32_t)IRQn) & 0xFUL)-4UL] = (uint8_t)((priority << (8U - __NVIC_PRIO_BITS)) & (uint32_t)0xFFUL);
 800407c:	21f0      	movs	r1, #240	@ 0xf0
 800407e:	4a05      	ldr	r2, [pc, #20]	@ (8004094 <HAL_SYSTICK_Config+0x24>)
  SysTick->LOAD  = (uint32_t)(ticks - 1UL);                         /* set reload register */
 8004080:	6158      	str	r0, [r3, #20]
    SCB->SHP[(((uint32_t)IRQn) & 0xFUL)-4UL] = (uint8_t)((priority << (8U - __NVIC_PRIO_BITS)) & (uint32_t)0xFFUL);
 8004082:	f882 1023 	strb.w	r1, [r2, #35]	@ 0x23
  SysTick->VAL   = 0UL;                                             /* Load the SysTick Counter Value */
 8004086:	2000      	movs	r0, #0
  SysTick->CTRL  = SysTick_CTRL_CLKSOURCE_Msk |
 8004088:	2207      	movs	r2, #7
  SysTick->VAL   = 0UL;                                             /* Load the SysTick Counter Value */
 800408a:	6198      	str	r0, [r3, #24]
  SysTick->CTRL  = SysTick_CTRL_CLKSOURCE_Msk |
 800408c:	611a      	str	r2, [r3, #16]
  return (0UL);                                                     /* Function successful */
 800408e:	4770      	bx	lr
    return (1UL);                                                   /* Reload value impossible */
 8004090:	2001      	movs	r0, #1
  *                  - 1  Function failed.
  */
uint32_t HAL_SYSTICK_Config(uint32_t TicksNumb)
{
   return SysTick_Config(TicksNumb);
}
 8004092:	4770      	bx	lr
 8004094:	e000ed00 	.word	0xe000ed00

08004098 <HAL_DMA_Init>:
HAL_StatusTypeDef HAL_DMA_Init(DMA_HandleTypeDef *hdma)
{
  uint32_t tmp = 0U;

  /* Check the DMA handle allocation */
  if(hdma == NULL)
 8004098:	4603      	mov	r3, r0
{
 800409a:	b510      	push	{r4, lr}
  if(hdma == NULL)
 800409c:	b340      	cbz	r0, 80040f0 <HAL_DMA_Init+0x58>
    hdma->ChannelIndex = (((uint32_t)hdma->Instance - (uint32_t)DMA2_Channel1) / ((uint32_t)DMA2_Channel2 - (uint32_t)DMA2_Channel1)) << 2;
    hdma->DmaBaseAddress = DMA2;
  }
#else
  /* DMA1 */
  hdma->ChannelIndex = (((uint32_t)hdma->Instance - (uint32_t)DMA1_Channel1) / ((uint32_t)DMA1_Channel2 - (uint32_t)DMA1_Channel1)) << 2;
 800409e:	2114      	movs	r1, #20
 80040a0:	6800      	ldr	r0, [r0, #0]
 80040a2:	4a14      	ldr	r2, [pc, #80]	@ (80040f4 <HAL_DMA_Init+0x5c>)
 80040a4:	4402      	add	r2, r0
 80040a6:	fbb2 f2f1 	udiv	r2, r2, r1
 80040aa:	0092      	lsls	r2, r2, #2
 80040ac:	641a      	str	r2, [r3, #64]	@ 0x40
  hdma->DmaBaseAddress = DMA1;
 80040ae:	4a12      	ldr	r2, [pc, #72]	@ (80040f8 <HAL_DMA_Init+0x60>)
 80040b0:	63da      	str	r2, [r3, #60]	@ 0x3c
#endif /* DMA2 */

  /* Change DMA peripheral state */
  hdma->State = HAL_DMA_STATE_BUSY;
 80040b2:	2202      	movs	r2, #2
 80040b4:	f883 2021 	strb.w	r2, [r3, #33]	@ 0x21
  tmp &= ((uint32_t)~(DMA_CCR_PL    | DMA_CCR_MSIZE  | DMA_CCR_PSIZE  | \
                      DMA_CCR_MINC  | DMA_CCR_PINC   | DMA_CCR_CIRC   | \
                      DMA_CCR_DIR));

  /* Prepare the DMA Channel configuration */
  tmp |=  hdma->Init.Direction        |
 80040b8:	e9d3 2401 	ldrd	r2, r4, [r3, #4]
 80040bc:	4322      	orrs	r2, r4
          hdma->Init.PeriphInc           | hdma->Init.MemInc           |
 80040be:	68dc      	ldr	r4, [r3, #12]
  tmp = hdma->Instance->CCR;
 80040c0:	6801      	ldr	r1, [r0, #0]
          hdma->Init.PeriphInc           | hdma->Init.MemInc           |
 80040c2:	4322      	orrs	r2, r4
 80040c4:	691c      	ldr	r4, [r3, #16]
  tmp &= ((uint32_t)~(DMA_CCR_PL    | DMA_CCR_MSIZE  | DMA_CCR_PSIZE  | \
 80040c6:	f421 517f 	bic.w	r1, r1, #16320	@ 0x3fc0
          hdma->Init.PeriphInc           | hdma->Init.MemInc           |
 80040ca:	4322      	orrs	r2, r4
          hdma->Init.PeriphDataAlignment | hdma->Init.MemDataAlignment |
 80040cc:	695c      	ldr	r4, [r3, #20]
  tmp &= ((uint32_t)~(DMA_CCR_PL    | DMA_CCR_MSIZE  | DMA_CCR_PSIZE  | \
 80040ce:	f021 0130 	bic.w	r1, r1, #48	@ 0x30
          hdma->Init.PeriphDataAlignment | hdma->Init.MemDataAlignment |
 80040d2:	4322      	orrs	r2, r4
 80040d4:	699c      	ldr	r4, [r3, #24]
 80040d6:	4322      	orrs	r2, r4
          hdma->Init.Mode                | hdma->Init.Priority;
 80040d8:	69dc      	ldr	r4, [r3, #28]
 80040da:	4322      	orrs	r2, r4
  tmp |=  hdma->Init.Direction        |
 80040dc:	430a      	orrs	r2, r1

  /* Write to DMA Channel CR register */
  hdma->Instance->CCR = tmp;
 80040de:	6002      	str	r2, [r0, #0]

  /* Initialise the error code */
  hdma->ErrorCode = HAL_DMA_ERROR_NONE;
 80040e0:	2000      	movs	r0, #0

  /* Initialize the DMA state*/
  hdma->State = HAL_DMA_STATE_READY;
 80040e2:	2201      	movs	r2, #1
  hdma->ErrorCode = HAL_DMA_ERROR_NONE;
 80040e4:	6398      	str	r0, [r3, #56]	@ 0x38
  /* Allocate lock resource and initialize it */
  hdma->Lock = HAL_UNLOCKED;
 80040e6:	f883 0020 	strb.w	r0, [r3, #32]
  hdma->State = HAL_DMA_STATE_READY;
 80040ea:	f883 2021 	strb.w	r2, [r3, #33]	@ 0x21

  return HAL_OK;
}
 80040ee:	bd10      	pop	{r4, pc}
    return HAL_ERROR;
 80040f0:	2001      	movs	r0, #1
 80040f2:	e7fc      	b.n	80040ee <HAL_DMA_Init+0x56>
 80040f4:	bffdfff8 	.word	0xbffdfff8
 80040f8:	40020000 	.word	0x40020000

080040fc <HAL_DMA_Start_IT>:
  * @param  DstAddress: The destination memory Buffer address
  * @param  DataLength: The length of data to be transferred from source to destination
  * @retval HAL status
  */
HAL_StatusTypeDef HAL_DMA_Start_IT(DMA_HandleTypeDef *hdma, uint32_t SrcAddress, uint32_t DstAddress, uint32_t DataLength)
{
 80040fc:	b5f0      	push	{r4, r5, r6, r7, lr}

  /* Check the parameters */
  assert_param(IS_DMA_BUFFER_SIZE(DataLength));

  /* Process locked */
  __HAL_LOCK(hdma);
 80040fe:	f890 4020 	ldrb.w	r4, [r0, #32]
 8004102:	2c01      	cmp	r4, #1
 8004104:	d034      	beq.n	8004170 <HAL_DMA_Start_IT+0x74>
 8004106:	2401      	movs	r4, #1
 8004108:	f880 4020 	strb.w	r4, [r0, #32]
  
  if(HAL_DMA_STATE_READY == hdma->State)
 800410c:	f890 4021 	ldrb.w	r4, [r0, #33]	@ 0x21
 8004110:	2c01      	cmp	r4, #1
 8004112:	b2e5      	uxtb	r5, r4
 8004114:	f04f 0400 	mov.w	r4, #0
 8004118:	d128      	bne.n	800416c <HAL_DMA_Start_IT+0x70>
  {
    /* Change DMA peripheral state */
    hdma->State = HAL_DMA_STATE_BUSY;
 800411a:	2602      	movs	r6, #2
 800411c:	f880 6021 	strb.w	r6, [r0, #33]	@ 0x21
    hdma->ErrorCode = HAL_DMA_ERROR_NONE;
 8004120:	6384      	str	r4, [r0, #56]	@ 0x38
    
    /* Disable the peripheral */
    __HAL_DMA_DISABLE(hdma);
 8004122:	6804      	ldr	r4, [r0, #0]
 8004124:	6826      	ldr	r6, [r4, #0]
 8004126:	f026 0601 	bic.w	r6, r6, #1
 800412a:	6026      	str	r6, [r4, #0]
  * @retval HAL status
  */
static void DMA_SetConfig(DMA_HandleTypeDef *hdma, uint32_t SrcAddress, uint32_t DstAddress, uint32_t DataLength)
{
  /* Clear all flags */
  hdma->DmaBaseAddress->IFCR = (DMA_ISR_GIF1 << hdma->ChannelIndex);
 800412c:	e9d0 670f 	ldrd	r6, r7, [r0, #60]	@ 0x3c
 8004130:	40bd      	lsls	r5, r7
 8004132:	6075      	str	r5, [r6, #4]

  /* Configure DMA Channel data length */
  hdma->Instance->CNDTR = DataLength;
 8004134:	6063      	str	r3, [r4, #4]

  /* Memory to Peripheral */
  if((hdma->Init.Direction) == DMA_MEMORY_TO_PERIPH)
 8004136:	6843      	ldr	r3, [r0, #4]
 8004138:	2b10      	cmp	r3, #16
    if(NULL != hdma->XferHalfCpltCallback)
 800413a:	6ac3      	ldr	r3, [r0, #44]	@ 0x2c
  {
    /* Configure DMA Channel destination address */
    hdma->Instance->CPAR = DstAddress;
 800413c:	bf0b      	itete	eq
 800413e:	60a2      	streq	r2, [r4, #8]
  }
  /* Peripheral to Memory */
  else
  {
    /* Configure DMA Channel source address */
    hdma->Instance->CPAR = SrcAddress;
 8004140:	60a1      	strne	r1, [r4, #8]
    hdma->Instance->CMAR = SrcAddress;
 8004142:	60e1      	streq	r1, [r4, #12]

    /* Configure DMA Channel destination address */
    hdma->Instance->CMAR = DstAddress;
 8004144:	60e2      	strne	r2, [r4, #12]
    if(NULL != hdma->XferHalfCpltCallback)
 8004146:	b14b      	cbz	r3, 800415c <HAL_DMA_Start_IT+0x60>
      __HAL_DMA_ENABLE_IT(hdma, (DMA_IT_TC | DMA_IT_HT | DMA_IT_TE));
 8004148:	6823      	ldr	r3, [r4, #0]
 800414a:	f043 030e 	orr.w	r3, r3, #14
  HAL_StatusTypeDef status = HAL_OK;
 800414e:	2000      	movs	r0, #0
      __HAL_DMA_ENABLE_IT(hdma, (DMA_IT_TC | DMA_IT_TE));
 8004150:	6023      	str	r3, [r4, #0]
    __HAL_DMA_ENABLE(hdma);
 8004152:	6823      	ldr	r3, [r4, #0]
 8004154:	f043 0301 	orr.w	r3, r3, #1
 8004158:	6023      	str	r3, [r4, #0]
}
 800415a:	bdf0      	pop	{r4, r5, r6, r7, pc}
      __HAL_DMA_DISABLE_IT(hdma, DMA_IT_HT);
 800415c:	6823      	ldr	r3, [r4, #0]
 800415e:	f023 0304 	bic.w	r3, r3, #4
 8004162:	6023      	str	r3, [r4, #0]
      __HAL_DMA_ENABLE_IT(hdma, (DMA_IT_TC | DMA_IT_TE));
 8004164:	6823      	ldr	r3, [r4, #0]
 8004166:	f043 030a 	orr.w	r3, r3, #10
 800416a:	e7f0      	b.n	800414e <HAL_DMA_Start_IT+0x52>
    __HAL_UNLOCK(hdma); 
 800416c:	f880 4020 	strb.w	r4, [r0, #32]
  __HAL_LOCK(hdma);
 8004170:	2002      	movs	r0, #2
 8004172:	e7f2      	b.n	800415a <HAL_DMA_Start_IT+0x5e>

08004174 <HAL_DMA_IRQHandler>:
{
 8004174:	b470      	push	{r4, r5, r6}
  if (((flag_it & (DMA_FLAG_HT1 << hdma->ChannelIndex)) != RESET) && ((source_it & DMA_IT_HT) != RESET))
 8004176:	2504      	movs	r5, #4
  uint32_t flag_it = hdma->DmaBaseAddress->ISR;
 8004178:	6bc6      	ldr	r6, [r0, #60]	@ 0x3c
  if (((flag_it & (DMA_FLAG_HT1 << hdma->ChannelIndex)) != RESET) && ((source_it & DMA_IT_HT) != RESET))
 800417a:	6c02      	ldr	r2, [r0, #64]	@ 0x40
  uint32_t flag_it = hdma->DmaBaseAddress->ISR;
 800417c:	6834      	ldr	r4, [r6, #0]
  uint32_t source_it = hdma->Instance->CCR;
 800417e:	6803      	ldr	r3, [r0, #0]
  if (((flag_it & (DMA_FLAG_HT1 << hdma->ChannelIndex)) != RESET) && ((source_it & DMA_IT_HT) != RESET))
 8004180:	4095      	lsls	r5, r2
 8004182:	4225      	tst	r5, r4
  uint32_t source_it = hdma->Instance->CCR;
 8004184:	6819      	ldr	r1, [r3, #0]
  if (((flag_it & (DMA_FLAG_HT1 << hdma->ChannelIndex)) != RESET) && ((source_it & DMA_IT_HT) != RESET))
 8004186:	d032      	beq.n	80041ee <HAL_DMA_IRQHandler+0x7a>
 8004188:	074d      	lsls	r5, r1, #29
 800418a:	d530      	bpl.n	80041ee <HAL_DMA_IRQHandler+0x7a>
    if((hdma->Instance->CCR & DMA_CCR_CIRC) == 0U)
 800418c:	681a      	ldr	r2, [r3, #0]
 800418e:	0696      	lsls	r6, r2, #26
      __HAL_DMA_DISABLE_IT(hdma, DMA_IT_HT);
 8004190:	bf5e      	ittt	pl
 8004192:	681a      	ldrpl	r2, [r3, #0]
 8004194:	f022 0204 	bicpl.w	r2, r2, #4
 8004198:	601a      	strpl	r2, [r3, #0]
    __HAL_DMA_CLEAR_FLAG(hdma, __HAL_DMA_GET_HT_FLAG_INDEX(hdma));
 800419a:	4a3e      	ldr	r2, [pc, #248]	@ (8004294 <HAL_DMA_IRQHandler+0x120>)
 800419c:	4293      	cmp	r3, r2
 800419e:	d019      	beq.n	80041d4 <HAL_DMA_IRQHandler+0x60>
 80041a0:	3214      	adds	r2, #20
 80041a2:	4293      	cmp	r3, r2
 80041a4:	d018      	beq.n	80041d8 <HAL_DMA_IRQHandler+0x64>
 80041a6:	3214      	adds	r2, #20
 80041a8:	4293      	cmp	r3, r2
 80041aa:	d017      	beq.n	80041dc <HAL_DMA_IRQHandler+0x68>
 80041ac:	3214      	adds	r2, #20
 80041ae:	4293      	cmp	r3, r2
 80041b0:	d017      	beq.n	80041e2 <HAL_DMA_IRQHandler+0x6e>
 80041b2:	3214      	adds	r2, #20
 80041b4:	4293      	cmp	r3, r2
 80041b6:	d017      	beq.n	80041e8 <HAL_DMA_IRQHandler+0x74>
 80041b8:	3214      	adds	r2, #20
 80041ba:	4293      	cmp	r3, r2
 80041bc:	bf14      	ite	ne
 80041be:	f04f 6380 	movne.w	r3, #67108864	@ 0x4000000
 80041c2:	f44f 0380 	moveq.w	r3, #4194304	@ 0x400000
 80041c6:	4a34      	ldr	r2, [pc, #208]	@ (8004298 <HAL_DMA_IRQHandler+0x124>)
 80041c8:	6053      	str	r3, [r2, #4]
    if(hdma->XferHalfCpltCallback != NULL)
 80041ca:	6ac3      	ldr	r3, [r0, #44]	@ 0x2c
    if (hdma->XferErrorCallback != NULL)
 80041cc:	2b00      	cmp	r3, #0
 80041ce:	d05e      	beq.n	800428e <HAL_DMA_IRQHandler+0x11a>
}
 80041d0:	bc70      	pop	{r4, r5, r6}
      hdma->XferErrorCallback(hdma);
 80041d2:	4718      	bx	r3
    __HAL_DMA_CLEAR_FLAG(hdma, __HAL_DMA_GET_HT_FLAG_INDEX(hdma));
 80041d4:	2304      	movs	r3, #4
 80041d6:	e7f6      	b.n	80041c6 <HAL_DMA_IRQHandler+0x52>
 80041d8:	2340      	movs	r3, #64	@ 0x40
 80041da:	e7f4      	b.n	80041c6 <HAL_DMA_IRQHandler+0x52>
 80041dc:	f44f 6380 	mov.w	r3, #1024	@ 0x400
 80041e0:	e7f1      	b.n	80041c6 <HAL_DMA_IRQHandler+0x52>
 80041e2:	f44f 4380 	mov.w	r3, #16384	@ 0x4000
 80041e6:	e7ee      	b.n	80041c6 <HAL_DMA_IRQHandler+0x52>
 80041e8:	f44f 2380 	mov.w	r3, #262144	@ 0x40000
 80041ec:	e7eb      	b.n	80041c6 <HAL_DMA_IRQHandler+0x52>
  else if (((flag_it & (DMA_FLAG_TC1 << hdma->ChannelIndex)) != RESET) && ((source_it & DMA_IT_TC) != RESET))
 80041ee:	2502      	movs	r5, #2
 80041f0:	4095      	lsls	r5, r2
 80041f2:	4225      	tst	r5, r4
 80041f4:	d035      	beq.n	8004262 <HAL_DMA_IRQHandler+0xee>
 80041f6:	078d      	lsls	r5, r1, #30
 80041f8:	d533      	bpl.n	8004262 <HAL_DMA_IRQHandler+0xee>
    if((hdma->Instance->CCR & DMA_CCR_CIRC) == 0U)
 80041fa:	681a      	ldr	r2, [r3, #0]
 80041fc:	0694      	lsls	r4, r2, #26
 80041fe:	d406      	bmi.n	800420e <HAL_DMA_IRQHandler+0x9a>
      __HAL_DMA_DISABLE_IT(hdma, DMA_IT_TE | DMA_IT_TC);  
 8004200:	681a      	ldr	r2, [r3, #0]
 8004202:	f022 020a 	bic.w	r2, r2, #10
 8004206:	601a      	str	r2, [r3, #0]
      hdma->State = HAL_DMA_STATE_READY;
 8004208:	2201      	movs	r2, #1
 800420a:	f880 2021 	strb.w	r2, [r0, #33]	@ 0x21
      __HAL_DMA_CLEAR_FLAG(hdma, __HAL_DMA_GET_TC_FLAG_INDEX(hdma));
 800420e:	4a21      	ldr	r2, [pc, #132]	@ (8004294 <HAL_DMA_IRQHandler+0x120>)
 8004210:	4293      	cmp	r3, r2
 8004212:	d019      	beq.n	8004248 <HAL_DMA_IRQHandler+0xd4>
 8004214:	3214      	adds	r2, #20
 8004216:	4293      	cmp	r3, r2
 8004218:	d018      	beq.n	800424c <HAL_DMA_IRQHandler+0xd8>
 800421a:	3214      	adds	r2, #20
 800421c:	4293      	cmp	r3, r2
 800421e:	d017      	beq.n	8004250 <HAL_DMA_IRQHandler+0xdc>
 8004220:	3214      	adds	r2, #20
 8004222:	4293      	cmp	r3, r2
 8004224:	d017      	beq.n	8004256 <HAL_DMA_IRQHandler+0xe2>
 8004226:	3214      	adds	r2, #20
 8004228:	4293      	cmp	r3, r2
 800422a:	d017      	beq.n	800425c <HAL_DMA_IRQHandler+0xe8>
 800422c:	3214      	adds	r2, #20
 800422e:	4293      	cmp	r3, r2
 8004230:	bf14      	ite	ne
 8004232:	f04f 7300 	movne.w	r3, #33554432	@ 0x2000000
 8004236:	f44f 1300 	moveq.w	r3, #2097152	@ 0x200000
 800423a:	4a17      	ldr	r2, [pc, #92]	@ (8004298 <HAL_DMA_IRQHandler+0x124>)
 800423c:	6053      	str	r3, [r2, #4]
    __HAL_UNLOCK(hdma);
 800423e:	2300      	movs	r3, #0
 8004240:	f880 3020 	strb.w	r3, [r0, #32]
    if(hdma->XferCpltCallback != NULL)
 8004244:	6a83      	ldr	r3, [r0, #40]	@ 0x28
 8004246:	e7c1      	b.n	80041cc <HAL_DMA_IRQHandler+0x58>
      __HAL_DMA_CLEAR_FLAG(hdma, __HAL_DMA_GET_TC_FLAG_INDEX(hdma));
 8004248:	2302      	movs	r3, #2
 800424a:	e7f6      	b.n	800423a <HAL_DMA_IRQHandler+0xc6>
 800424c:	2320      	movs	r3, #32
 800424e:	e7f4      	b.n	800423a <HAL_DMA_IRQHandler+0xc6>
 8004250:	f44f 7300 	mov.w	r3, #512	@ 0x200
 8004254:	e7f1      	b.n	800423a <HAL_DMA_IRQHandler+0xc6>
 8004256:	f44f 5300 	mov.w	r3, #8192	@ 0x2000
 800425a:	e7ee      	b.n	800423a <HAL_DMA_IRQHandler+0xc6>
 800425c:	f44f 3300 	mov.w	r3, #131072	@ 0x20000
 8004260:	e7eb      	b.n	800423a <HAL_DMA_IRQHandler+0xc6>
  else if (( RESET != (flag_it & (DMA_FLAG_TE1 << hdma->ChannelIndex))) && (RESET != (source_it & DMA_IT_TE)))
 8004262:	2508      	movs	r5, #8
 8004264:	4095      	lsls	r5, r2
 8004266:	4225      	tst	r5, r4
 8004268:	d011      	beq.n	800428e <HAL_DMA_IRQHandler+0x11a>
 800426a:	0709      	lsls	r1, r1, #28
 800426c:	d50f      	bpl.n	800428e <HAL_DMA_IRQHandler+0x11a>
    __HAL_DMA_DISABLE_IT(hdma, (DMA_IT_TC | DMA_IT_HT | DMA_IT_TE));
 800426e:	6819      	ldr	r1, [r3, #0]
 8004270:	f021 010e 	bic.w	r1, r1, #14
 8004274:	6019      	str	r1, [r3, #0]
    hdma->DmaBaseAddress->IFCR = (DMA_ISR_GIF1 << hdma->ChannelIndex);
 8004276:	2301      	movs	r3, #1
 8004278:	fa03 f202 	lsl.w	r2, r3, r2
 800427c:	6072      	str	r2, [r6, #4]
    hdma->ErrorCode = HAL_DMA_ERROR_TE;
 800427e:	6383      	str	r3, [r0, #56]	@ 0x38
    hdma->State = HAL_DMA_STATE_READY;
 8004280:	f880 3021 	strb.w	r3, [r0, #33]	@ 0x21
    __HAL_UNLOCK(hdma);
 8004284:	2300      	movs	r3, #0
 8004286:	f880 3020 	strb.w	r3, [r0, #32]
    if (hdma->XferErrorCallback != NULL)
 800428a:	6b03      	ldr	r3, [r0, #48]	@ 0x30
 800428c:	e79e      	b.n	80041cc <HAL_DMA_IRQHandler+0x58>
}
 800428e:	bc70      	pop	{r4, r5, r6}
 8004290:	4770      	bx	lr
 8004292:	bf00      	nop
 8004294:	40020008 	.word	0x40020008
 8004298:	40020000 	.word	0x40020000

0800429c <HAL_GPIO_Init>:
  * @param  GPIO_Init: pointer to a GPIO_InitTypeDef structure that contains
  *         the configuration information for the specified GPIO peripheral.
  * @retval None
  */
void HAL_GPIO_Init(GPIO_TypeDef  *GPIOx, GPIO_InitTypeDef *GPIO_Init)
{
 800429c:	e92d 4ff7 	stmdb	sp!, {r0, r1, r2, r4, r5, r6, r7, r8, r9, sl, fp, lr}
  uint32_t position = 0x00u;
  uint32_t ioposition;
  uint32_t iocurrent;
  uint32_t temp;
  uint32_t config = 0x00u;
 80042a0:	2400      	movs	r4, #0
  uint32_t position = 0x00u;
 80042a2:	4626      	mov	r6, r4
      /*--------------------- EXTI Mode Configuration ------------------------*/
      /* Configure the External Interrupt or event for the current IO */
      if ((GPIO_Init->Mode & EXTI_MODE) == EXTI_MODE)
      {
        /* Enable AFIO Clock */
        __HAL_RCC_AFIO_CLK_ENABLE();
 80042a4:	f8df c188 	ldr.w	ip, [pc, #392]	@ 8004430 <HAL_GPIO_Init+0x194>
 80042a8:	4b62      	ldr	r3, [pc, #392]	@ (8004434 <HAL_GPIO_Init+0x198>)
      switch (GPIO_Init->Mode)
 80042aa:	f8df e18c 	ldr.w	lr, [pc, #396]	@ 8004438 <HAL_GPIO_Init+0x19c>
 80042ae:	f8df 818c 	ldr.w	r8, [pc, #396]	@ 800443c <HAL_GPIO_Init+0x1a0>
  while (((GPIO_Init->Pin) >> position) != 0x00u)
 80042b2:	680a      	ldr	r2, [r1, #0]
 80042b4:	fa32 f506 	lsrs.w	r5, r2, r6
 80042b8:	d102      	bne.n	80042c0 <HAL_GPIO_Init+0x24>
      }
    }

	position++;
  }
}
 80042ba:	b003      	add	sp, #12
 80042bc:	e8bd 8ff0 	ldmia.w	sp!, {r4, r5, r6, r7, r8, r9, sl, fp, pc}
    ioposition = (0x01uL << position);
 80042c0:	2701      	movs	r7, #1
 80042c2:	40b7      	lsls	r7, r6
    iocurrent = (uint32_t)(GPIO_Init->Pin) & ioposition;
 80042c4:	ea02 0507 	and.w	r5, r2, r7
    if (iocurrent == ioposition)
 80042c8:	ea37 0202 	bics.w	r2, r7, r2
 80042cc:	d17a      	bne.n	80043c4 <HAL_GPIO_Init+0x128>
      switch (GPIO_Init->Mode)
 80042ce:	684a      	ldr	r2, [r1, #4]
 80042d0:	2a03      	cmp	r2, #3
 80042d2:	d807      	bhi.n	80042e4 <HAL_GPIO_Init+0x48>
 80042d4:	3a01      	subs	r2, #1
 80042d6:	2a02      	cmp	r2, #2
 80042d8:	f200 8083 	bhi.w	80043e2 <HAL_GPIO_Init+0x146>
 80042dc:	e8df f002 	tbb	[pc, r2]
 80042e0:	9792      	.short	0x9792
 80042e2:	9d          	.byte	0x9d
 80042e3:	00          	.byte	0x00
 80042e4:	2a12      	cmp	r2, #18
 80042e6:	f000 8095 	beq.w	8004414 <HAL_GPIO_Init+0x178>
 80042ea:	d86d      	bhi.n	80043c8 <HAL_GPIO_Init+0x12c>
 80042ec:	2a11      	cmp	r2, #17
 80042ee:	f000 808b 	beq.w	8004408 <HAL_GPIO_Init+0x16c>
      configregister = (iocurrent < GPIO_PIN_8) ? &GPIOx->CRL     : &GPIOx->CRH;
 80042f2:	2dff      	cmp	r5, #255	@ 0xff
 80042f4:	bf98      	it	ls
 80042f6:	4681      	movls	r9, r0
      MODIFY_REG((*configregister), ((GPIO_CRL_MODE0 | GPIO_CRL_CNF0) << registeroffset), (config << registeroffset));
 80042f8:	f04f 0b0f 	mov.w	fp, #15
      configregister = (iocurrent < GPIO_PIN_8) ? &GPIOx->CRL     : &GPIOx->CRH;
 80042fc:	bf88      	it	hi
 80042fe:	f100 0904 	addhi.w	r9, r0, #4
 8004302:	ea4f 0286 	mov.w	r2, r6, lsl #2
      MODIFY_REG((*configregister), ((GPIO_CRL_MODE0 | GPIO_CRL_CNF0) << registeroffset), (config << registeroffset));
 8004306:	f8d9 7000 	ldr.w	r7, [r9]
      registeroffset = (iocurrent < GPIO_PIN_8) ? (position << 2u) : ((position - 8u) << 2u);
 800430a:	bf88      	it	hi
 800430c:	3a20      	subhi	r2, #32
      MODIFY_REG((*configregister), ((GPIO_CRL_MODE0 | GPIO_CRL_CNF0) << registeroffset), (config << registeroffset));
 800430e:	fa0b fa02 	lsl.w	sl, fp, r2
 8004312:	ea27 070a 	bic.w	r7, r7, sl
 8004316:	fa04 f202 	lsl.w	r2, r4, r2
 800431a:	4317      	orrs	r7, r2
 800431c:	f8c9 7000 	str.w	r7, [r9]
      if ((GPIO_Init->Mode & EXTI_MODE) == EXTI_MODE)
 8004320:	f8d1 9004 	ldr.w	r9, [r1, #4]
 8004324:	f019 5f80 	tst.w	r9, #268435456	@ 0x10000000
 8004328:	d04c      	beq.n	80043c4 <HAL_GPIO_Init+0x128>
        __HAL_RCC_AFIO_CLK_ENABLE();
 800432a:	f8dc 2018 	ldr.w	r2, [ip, #24]
 800432e:	f026 0703 	bic.w	r7, r6, #3
 8004332:	f042 0201 	orr.w	r2, r2, #1
 8004336:	f8cc 2018 	str.w	r2, [ip, #24]
 800433a:	f8dc 2018 	ldr.w	r2, [ip, #24]
 800433e:	f107 4780 	add.w	r7, r7, #1073741824	@ 0x40000000
 8004342:	f002 0201 	and.w	r2, r2, #1
 8004346:	9201      	str	r2, [sp, #4]
 8004348:	f507 3780 	add.w	r7, r7, #65536	@ 0x10000
        CLEAR_BIT(temp, (0x0Fu) << (4u * (position & 0x03u)));
 800434c:	f006 0a03 	and.w	sl, r6, #3
        __HAL_RCC_AFIO_CLK_ENABLE();
 8004350:	9a01      	ldr	r2, [sp, #4]
        CLEAR_BIT(temp, (0x0Fu) << (4u * (position & 0x03u)));
 8004352:	ea4f 0a8a 	mov.w	sl, sl, lsl #2
        temp = AFIO->EXTICR[position >> 2u];
 8004356:	68ba      	ldr	r2, [r7, #8]
        CLEAR_BIT(temp, (0x0Fu) << (4u * (position & 0x03u)));
 8004358:	fa0b fb0a 	lsl.w	fp, fp, sl
 800435c:	ea22 0b0b 	bic.w	fp, r2, fp
        SET_BIT(temp, (GPIO_GET_INDEX(GPIOx)) << (4u * (position & 0x03u)));
 8004360:	4a37      	ldr	r2, [pc, #220]	@ (8004440 <HAL_GPIO_Init+0x1a4>)
 8004362:	4290      	cmp	r0, r2
 8004364:	d05d      	beq.n	8004422 <HAL_GPIO_Init+0x186>
 8004366:	f502 6280 	add.w	r2, r2, #1024	@ 0x400
 800436a:	4290      	cmp	r0, r2
 800436c:	d05b      	beq.n	8004426 <HAL_GPIO_Init+0x18a>
 800436e:	f502 6280 	add.w	r2, r2, #1024	@ 0x400
 8004372:	4290      	cmp	r0, r2
 8004374:	d059      	beq.n	800442a <HAL_GPIO_Init+0x18e>
 8004376:	f502 6280 	add.w	r2, r2, #1024	@ 0x400
 800437a:	4290      	cmp	r0, r2
 800437c:	bf14      	ite	ne
 800437e:	2204      	movne	r2, #4
 8004380:	2203      	moveq	r2, #3
 8004382:	fa02 f20a 	lsl.w	r2, r2, sl
 8004386:	ea42 020b 	orr.w	r2, r2, fp
        AFIO->EXTICR[position >> 2u] = temp;
 800438a:	60ba      	str	r2, [r7, #8]
          SET_BIT(EXTI->RTSR, iocurrent);
 800438c:	689a      	ldr	r2, [r3, #8]
        if ((GPIO_Init->Mode & RISING_EDGE) == RISING_EDGE)
 800438e:	f419 1f80 	tst.w	r9, #1048576	@ 0x100000
          SET_BIT(EXTI->RTSR, iocurrent);
 8004392:	bf14      	ite	ne
 8004394:	432a      	orrne	r2, r5
          CLEAR_BIT(EXTI->RTSR, iocurrent);
 8004396:	43aa      	biceq	r2, r5
 8004398:	609a      	str	r2, [r3, #8]
          SET_BIT(EXTI->FTSR, iocurrent);
 800439a:	68da      	ldr	r2, [r3, #12]
        if ((GPIO_Init->Mode & FALLING_EDGE) == FALLING_EDGE)
 800439c:	f419 1f00 	tst.w	r9, #2097152	@ 0x200000
          SET_BIT(EXTI->FTSR, iocurrent);
 80043a0:	bf14      	ite	ne
 80043a2:	432a      	orrne	r2, r5
          CLEAR_BIT(EXTI->FTSR, iocurrent);
 80043a4:	43aa      	biceq	r2, r5
 80043a6:	60da      	str	r2, [r3, #12]
          SET_BIT(EXTI->EMR, iocurrent);
 80043a8:	685a      	ldr	r2, [r3, #4]
        if ((GPIO_Init->Mode & GPIO_MODE_EVT) == GPIO_MODE_EVT)
 80043aa:	f419 3f00 	tst.w	r9, #131072	@ 0x20000
          SET_BIT(EXTI->EMR, iocurrent);
 80043ae:	bf14      	ite	ne
 80043b0:	432a      	orrne	r2, r5
          CLEAR_BIT(EXTI->EMR, iocurrent);
 80043b2:	43aa      	biceq	r2, r5
 80043b4:	605a      	str	r2, [r3, #4]
          SET_BIT(EXTI->IMR, iocurrent);
 80043b6:	681a      	ldr	r2, [r3, #0]
        if ((GPIO_Init->Mode & GPIO_MODE_IT) == GPIO_MODE_IT)
 80043b8:	f419 3f80 	tst.w	r9, #65536	@ 0x10000
          SET_BIT(EXTI->IMR, iocurrent);
 80043bc:	bf14      	ite	ne
 80043be:	432a      	orrne	r2, r5
          CLEAR_BIT(EXTI->IMR, iocurrent);
 80043c0:	43aa      	biceq	r2, r5
 80043c2:	601a      	str	r2, [r3, #0]
	position++;
 80043c4:	3601      	adds	r6, #1
 80043c6:	e774      	b.n	80042b2 <HAL_GPIO_Init+0x16>
      switch (GPIO_Init->Mode)
 80043c8:	f8df 9078 	ldr.w	r9, [pc, #120]	@ 8004444 <HAL_GPIO_Init+0x1a8>
 80043cc:	454a      	cmp	r2, r9
 80043ce:	d008      	beq.n	80043e2 <HAL_GPIO_Init+0x146>
 80043d0:	d810      	bhi.n	80043f4 <HAL_GPIO_Init+0x158>
 80043d2:	f5a9 1980 	sub.w	r9, r9, #1048576	@ 0x100000
 80043d6:	454a      	cmp	r2, r9
 80043d8:	d003      	beq.n	80043e2 <HAL_GPIO_Init+0x146>
 80043da:	4572      	cmp	r2, lr
 80043dc:	d001      	beq.n	80043e2 <HAL_GPIO_Init+0x146>
 80043de:	4542      	cmp	r2, r8
 80043e0:	d187      	bne.n	80042f2 <HAL_GPIO_Init+0x56>
          if (GPIO_Init->Pull == GPIO_NOPULL)
 80043e2:	688a      	ldr	r2, [r1, #8]
 80043e4:	b1da      	cbz	r2, 800441e <HAL_GPIO_Init+0x182>
          else if (GPIO_Init->Pull == GPIO_PULLUP)
 80043e6:	2a01      	cmp	r2, #1
            config = GPIO_CR_MODE_INPUT + GPIO_CR_CNF_INPUT_PU_PD;
 80043e8:	f04f 0408 	mov.w	r4, #8
            GPIOx->BSRR = ioposition;
 80043ec:	bf0c      	ite	eq
 80043ee:	6107      	streq	r7, [r0, #16]
            GPIOx->BRR = ioposition;
 80043f0:	6147      	strne	r7, [r0, #20]
 80043f2:	e77e      	b.n	80042f2 <HAL_GPIO_Init+0x56>
      switch (GPIO_Init->Mode)
 80043f4:	f8df 9050 	ldr.w	r9, [pc, #80]	@ 8004448 <HAL_GPIO_Init+0x1ac>
 80043f8:	454a      	cmp	r2, r9
 80043fa:	d0f2      	beq.n	80043e2 <HAL_GPIO_Init+0x146>
 80043fc:	f509 3980 	add.w	r9, r9, #65536	@ 0x10000
 8004400:	454a      	cmp	r2, r9
 8004402:	e7ed      	b.n	80043e0 <HAL_GPIO_Init+0x144>
          config = GPIO_Init->Speed + GPIO_CR_CNF_GP_OUTPUT_PP;
 8004404:	68cc      	ldr	r4, [r1, #12]
          break;
 8004406:	e774      	b.n	80042f2 <HAL_GPIO_Init+0x56>
          config = GPIO_Init->Speed + GPIO_CR_CNF_GP_OUTPUT_OD;
 8004408:	68cc      	ldr	r4, [r1, #12]
 800440a:	3404      	adds	r4, #4
          break;
 800440c:	e771      	b.n	80042f2 <HAL_GPIO_Init+0x56>
          config = GPIO_Init->Speed + GPIO_CR_CNF_AF_OUTPUT_PP;
 800440e:	68cc      	ldr	r4, [r1, #12]
 8004410:	3408      	adds	r4, #8
          break;
 8004412:	e76e      	b.n	80042f2 <HAL_GPIO_Init+0x56>
          config = GPIO_Init->Speed + GPIO_CR_CNF_AF_OUTPUT_OD;
 8004414:	68cc      	ldr	r4, [r1, #12]
 8004416:	340c      	adds	r4, #12
          break;
 8004418:	e76b      	b.n	80042f2 <HAL_GPIO_Init+0x56>
      switch (GPIO_Init->Mode)
 800441a:	2400      	movs	r4, #0
 800441c:	e769      	b.n	80042f2 <HAL_GPIO_Init+0x56>
            config = GPIO_CR_MODE_INPUT + GPIO_CR_CNF_INPUT_FLOATING;
 800441e:	2404      	movs	r4, #4
 8004420:	e767      	b.n	80042f2 <HAL_GPIO_Init+0x56>
        SET_BIT(temp, (GPIO_GET_INDEX(GPIOx)) << (4u * (position & 0x03u)));
 8004422:	2200      	movs	r2, #0
 8004424:	e7ad      	b.n	8004382 <HAL_GPIO_Init+0xe6>
 8004426:	2201      	movs	r2, #1
 8004428:	e7ab      	b.n	8004382 <HAL_GPIO_Init+0xe6>
 800442a:	2202      	movs	r2, #2
 800442c:	e7a9      	b.n	8004382 <HAL_GPIO_Init+0xe6>
 800442e:	bf00      	nop
 8004430:	40021000 	.word	0x40021000
 8004434:	40010400 	.word	0x40010400
 8004438:	10210000 	.word	0x10210000
 800443c:	10110000 	.word	0x10110000
 8004440:	40010800 	.word	0x40010800
 8004444:	10220000 	.word	0x10220000
 8004448:	10310000 	.word	0x10310000

0800444c <HAL_GPIO_ReadPin>:
  GPIO_PinState bitstatus;

  /* Check the parameters */
  assert_param(IS_GPIO_PIN(GPIO_Pin));

  if ((GPIOx->IDR & GPIO_Pin) != (uint32_t)GPIO_PIN_RESET)
 800444c:	6883      	ldr	r3, [r0, #8]
 800444e:	4219      	tst	r1, r3
  else
  {
    bitstatus = GPIO_PIN_RESET;
  }
  return bitstatus;
}
 8004450:	bf14      	ite	ne
 8004452:	2001      	movne	r0, #1
 8004454:	2000      	moveq	r0, #0
 8004456:	4770      	bx	lr

08004458 <HAL_GPIO_WritePin>:
{
  /* Check the parameters */
  assert_param(IS_GPIO_PIN(GPIO_Pin));
  assert_param(IS_GPIO_PIN_ACTION(PinState));

  if (PinState != GPIO_PIN_RESET)
 8004458:	b10a      	cbz	r2, 800445e <HAL_GPIO_WritePin+0x6>
  {
    GPIOx->BSRR = GPIO_Pin;
  }
  else
  {
    GPIOx->BSRR = (uint32_t)GPIO_Pin << 16u;
 800445a:	6101      	str	r1, [r0, #16]
  }
}
 800445c:	4770      	bx	lr
    GPIOx->BSRR = (uint32_t)GPIO_Pin << 16u;
 800445e:	0409      	lsls	r1, r1, #16
 8004460:	e7fb      	b.n	800445a <HAL_GPIO_WritePin+0x2>
	...

08004464 <HAL_PWR_EnableBkUpAccess>:
  * @retval None
  */
void HAL_PWR_EnableBkUpAccess(void)
{
  /* Enable access to RTC and backup registers */
  *(__IO uint32_t *) CR_DBP_BB = (uint32_t)ENABLE;
 8004464:	2201      	movs	r2, #1
 8004466:	4b01      	ldr	r3, [pc, #4]	@ (800446c <HAL_PWR_EnableBkUpAccess+0x8>)
 8004468:	621a      	str	r2, [r3, #32]
}
 800446a:	4770      	bx	lr
 800446c:	420e0000 	.word	0x420e0000

08004470 <HAL_RCC_OscConfig>:
  *         supported by this macro. User should request a transition to HSE Off
  *         first and then HSE On or HSE Bypass.
  * @retval HAL status
  */
HAL_StatusTypeDef HAL_RCC_OscConfig(const RCC_OscInitTypeDef  *RCC_OscInitStruct)
{
 8004470:	e92d 41f3 	stmdb	sp!, {r0, r1, r4, r5, r6, r7, r8, lr}
  uint32_t tickstart;
  uint32_t pll_config;

  /* Check Null pointer */
  if (RCC_OscInitStruct == NULL)
 8004474:	4605      	mov	r5, r0
 8004476:	b338      	cbz	r0, 80044c8 <HAL_RCC_OscConfig+0x58>

  /* Check the parameters */
  assert_param(IS_RCC_OSCILLATORTYPE(RCC_OscInitStruct->OscillatorType));

  /*------------------------------- HSE Configuration ------------------------*/
  if (((RCC_OscInitStruct->OscillatorType) & RCC_OSCILLATORTYPE_HSE) == RCC_OSCILLATORTYPE_HSE)
 8004478:	6803      	ldr	r3, [r0, #0]
 800447a:	07db      	lsls	r3, r3, #31
 800447c:	d410      	bmi.n	80044a0 <HAL_RCC_OscConfig+0x30>
        }
      }
    }
  }
  /*----------------------------- HSI Configuration --------------------------*/
  if (((RCC_OscInitStruct->OscillatorType) & RCC_OSCILLATORTYPE_HSI) == RCC_OSCILLATORTYPE_HSI)
 800447e:	682b      	ldr	r3, [r5, #0]
 8004480:	079f      	lsls	r7, r3, #30
 8004482:	d45e      	bmi.n	8004542 <HAL_RCC_OscConfig+0xd2>
        }
      }
    }
  }
  /*------------------------------ LSI Configuration -------------------------*/
  if (((RCC_OscInitStruct->OscillatorType) & RCC_OSCILLATORTYPE_LSI) == RCC_OSCILLATORTYPE_LSI)
 8004484:	682b      	ldr	r3, [r5, #0]
 8004486:	0719      	lsls	r1, r3, #28
 8004488:	f100 8095 	bmi.w	80045b6 <HAL_RCC_OscConfig+0x146>
        }
      }
    }
  }
  /*------------------------------ LSE Configuration -------------------------*/
  if (((RCC_OscInitStruct->OscillatorType) & RCC_OSCILLATORTYPE_LSE) == RCC_OSCILLATORTYPE_LSE)
 800448c:	682b      	ldr	r3, [r5, #0]
 800448e:	075a      	lsls	r2, r3, #29
 8004490:	f100 80c1 	bmi.w	8004616 <HAL_RCC_OscConfig+0x1a6>

#endif /* RCC_CR_PLL2ON */
  /*-------------------------------- PLL Configuration -----------------------*/
  /* Check the parameters */
  assert_param(IS_RCC_PLL(RCC_OscInitStruct->PLL.PLLState));
  if ((RCC_OscInitStruct->PLL.PLLState) != RCC_PLL_NONE)
 8004494:	69eb      	ldr	r3, [r5, #28]
 8004496:	2b00      	cmp	r3, #0
 8004498:	f040 812c 	bne.w	80046f4 <HAL_RCC_OscConfig+0x284>
        }
      }
    }
  }

  return HAL_OK;
 800449c:	2000      	movs	r0, #0
 800449e:	e029      	b.n	80044f4 <HAL_RCC_OscConfig+0x84>
    if ((__HAL_RCC_GET_SYSCLK_SOURCE() == RCC_SYSCLKSOURCE_STATUS_HSE)
 80044a0:	4c90      	ldr	r4, [pc, #576]	@ (80046e4 <HAL_RCC_OscConfig+0x274>)
 80044a2:	6863      	ldr	r3, [r4, #4]
 80044a4:	f003 030c 	and.w	r3, r3, #12
 80044a8:	2b04      	cmp	r3, #4
 80044aa:	d007      	beq.n	80044bc <HAL_RCC_OscConfig+0x4c>
        || ((__HAL_RCC_GET_SYSCLK_SOURCE() == RCC_SYSCLKSOURCE_STATUS_PLLCLK) && (__HAL_RCC_GET_PLL_OSCSOURCE() == RCC_PLLSOURCE_HSE)))
 80044ac:	6863      	ldr	r3, [r4, #4]
 80044ae:	f003 030c 	and.w	r3, r3, #12
 80044b2:	2b08      	cmp	r3, #8
 80044b4:	d10a      	bne.n	80044cc <HAL_RCC_OscConfig+0x5c>
 80044b6:	6863      	ldr	r3, [r4, #4]
 80044b8:	03de      	lsls	r6, r3, #15
 80044ba:	d507      	bpl.n	80044cc <HAL_RCC_OscConfig+0x5c>
      if ((__HAL_RCC_GET_FLAG(RCC_FLAG_HSERDY) != RESET) && (RCC_OscInitStruct->HSEState == RCC_HSE_OFF))
 80044bc:	6823      	ldr	r3, [r4, #0]
 80044be:	039c      	lsls	r4, r3, #14
 80044c0:	d5dd      	bpl.n	800447e <HAL_RCC_OscConfig+0xe>
 80044c2:	686b      	ldr	r3, [r5, #4]
 80044c4:	2b00      	cmp	r3, #0
 80044c6:	d1da      	bne.n	800447e <HAL_RCC_OscConfig+0xe>
    return HAL_ERROR;
 80044c8:	2001      	movs	r0, #1
 80044ca:	e013      	b.n	80044f4 <HAL_RCC_OscConfig+0x84>
      __HAL_RCC_HSE_CONFIG(RCC_OscInitStruct->HSEState);
 80044cc:	686b      	ldr	r3, [r5, #4]
 80044ce:	f5b3 3f80 	cmp.w	r3, #65536	@ 0x10000
 80044d2:	d112      	bne.n	80044fa <HAL_RCC_OscConfig+0x8a>
 80044d4:	6823      	ldr	r3, [r4, #0]
 80044d6:	f443 3380 	orr.w	r3, r3, #65536	@ 0x10000
 80044da:	6023      	str	r3, [r4, #0]
        tickstart = HAL_GetTick();
 80044dc:	f7ff fb38 	bl	8003b50 <HAL_GetTick>
 80044e0:	4606      	mov	r6, r0
        while (__HAL_RCC_GET_FLAG(RCC_FLAG_HSERDY) == RESET)
 80044e2:	6823      	ldr	r3, [r4, #0]
 80044e4:	0398      	lsls	r0, r3, #14
 80044e6:	d4ca      	bmi.n	800447e <HAL_RCC_OscConfig+0xe>
          if ((HAL_GetTick() - tickstart) > HSE_TIMEOUT_VALUE)
 80044e8:	f7ff fb32 	bl	8003b50 <HAL_GetTick>
 80044ec:	1b80      	subs	r0, r0, r6
 80044ee:	2864      	cmp	r0, #100	@ 0x64
 80044f0:	d9f7      	bls.n	80044e2 <HAL_RCC_OscConfig+0x72>
            return HAL_TIMEOUT;
 80044f2:	2003      	movs	r0, #3
}
 80044f4:	b002      	add	sp, #8
 80044f6:	e8bd 81f0 	ldmia.w	sp!, {r4, r5, r6, r7, r8, pc}
      __HAL_RCC_HSE_CONFIG(RCC_OscInitStruct->HSEState);
 80044fa:	b99b      	cbnz	r3, 8004524 <HAL_RCC_OscConfig+0xb4>
 80044fc:	6823      	ldr	r3, [r4, #0]
 80044fe:	f423 3380 	bic.w	r3, r3, #65536	@ 0x10000
 8004502:	6023      	str	r3, [r4, #0]
 8004504:	6823      	ldr	r3, [r4, #0]
 8004506:	f423 2380 	bic.w	r3, r3, #262144	@ 0x40000
 800450a:	6023      	str	r3, [r4, #0]
        tickstart = HAL_GetTick();
 800450c:	f7ff fb20 	bl	8003b50 <HAL_GetTick>
 8004510:	4606      	mov	r6, r0
        while (__HAL_RCC_GET_FLAG(RCC_FLAG_HSERDY) != RESET)
 8004512:	6823      	ldr	r3, [r4, #0]
 8004514:	0399      	lsls	r1, r3, #14
 8004516:	d5b2      	bpl.n	800447e <HAL_RCC_OscConfig+0xe>
          if ((HAL_GetTick() - tickstart) > HSE_TIMEOUT_VALUE)
 8004518:	f7ff fb1a 	bl	8003b50 <HAL_GetTick>
 800451c:	1b80      	subs	r0, r0, r6
 800451e:	2864      	cmp	r0, #100	@ 0x64
 8004520:	d9f7      	bls.n	8004512 <HAL_RCC_OscConfig+0xa2>
 8004522:	e7e6      	b.n	80044f2 <HAL_RCC_OscConfig+0x82>
      __HAL_RCC_HSE_CONFIG(RCC_OscInitStruct->HSEState);
 8004524:	f5b3 2fa0 	cmp.w	r3, #327680	@ 0x50000
 8004528:	6823      	ldr	r3, [r4, #0]
 800452a:	d103      	bne.n	8004534 <HAL_RCC_OscConfig+0xc4>
 800452c:	f443 2380 	orr.w	r3, r3, #262144	@ 0x40000
 8004530:	6023      	str	r3, [r4, #0]
 8004532:	e7cf      	b.n	80044d4 <HAL_RCC_OscConfig+0x64>
 8004534:	f423 3380 	bic.w	r3, r3, #65536	@ 0x10000
 8004538:	6023      	str	r3, [r4, #0]
 800453a:	6823      	ldr	r3, [r4, #0]
 800453c:	f423 2380 	bic.w	r3, r3, #262144	@ 0x40000
 8004540:	e7cb      	b.n	80044da <HAL_RCC_OscConfig+0x6a>
    if ((__HAL_RCC_GET_SYSCLK_SOURCE() == RCC_SYSCLKSOURCE_STATUS_HSI)
 8004542:	4c68      	ldr	r4, [pc, #416]	@ (80046e4 <HAL_RCC_OscConfig+0x274>)
 8004544:	6863      	ldr	r3, [r4, #4]
 8004546:	f013 0f0c 	tst.w	r3, #12
 800454a:	d007      	beq.n	800455c <HAL_RCC_OscConfig+0xec>
        || ((__HAL_RCC_GET_SYSCLK_SOURCE() == RCC_SYSCLKSOURCE_STATUS_PLLCLK) && (__HAL_RCC_GET_PLL_OSCSOURCE() == RCC_PLLSOURCE_HSI_DIV2)))
 800454c:	6863      	ldr	r3, [r4, #4]
 800454e:	f003 030c 	and.w	r3, r3, #12
 8004552:	2b08      	cmp	r3, #8
 8004554:	d110      	bne.n	8004578 <HAL_RCC_OscConfig+0x108>
 8004556:	6863      	ldr	r3, [r4, #4]
 8004558:	03da      	lsls	r2, r3, #15
 800455a:	d40d      	bmi.n	8004578 <HAL_RCC_OscConfig+0x108>
      if ((__HAL_RCC_GET_FLAG(RCC_FLAG_HSIRDY) != RESET) && (RCC_OscInitStruct->HSIState != RCC_HSI_ON))
 800455c:	6823      	ldr	r3, [r4, #0]
 800455e:	079b      	lsls	r3, r3, #30
 8004560:	d502      	bpl.n	8004568 <HAL_RCC_OscConfig+0xf8>
 8004562:	692b      	ldr	r3, [r5, #16]
 8004564:	2b01      	cmp	r3, #1
 8004566:	d1af      	bne.n	80044c8 <HAL_RCC_OscConfig+0x58>
        __HAL_RCC_HSI_CALIBRATIONVALUE_ADJUST(RCC_OscInitStruct->HSICalibrationValue);
 8004568:	6823      	ldr	r3, [r4, #0]
 800456a:	696a      	ldr	r2, [r5, #20]
 800456c:	f023 03f8 	bic.w	r3, r3, #248	@ 0xf8
 8004570:	ea43 03c2 	orr.w	r3, r3, r2, lsl #3
 8004574:	6023      	str	r3, [r4, #0]
 8004576:	e785      	b.n	8004484 <HAL_RCC_OscConfig+0x14>
      if (RCC_OscInitStruct->HSIState != RCC_HSI_OFF)
 8004578:	692a      	ldr	r2, [r5, #16]
 800457a:	4b5b      	ldr	r3, [pc, #364]	@ (80046e8 <HAL_RCC_OscConfig+0x278>)
 800457c:	b16a      	cbz	r2, 800459a <HAL_RCC_OscConfig+0x12a>
        __HAL_RCC_HSI_ENABLE();
 800457e:	2201      	movs	r2, #1
 8004580:	601a      	str	r2, [r3, #0]
        tickstart = HAL_GetTick();
 8004582:	f7ff fae5 	bl	8003b50 <HAL_GetTick>
 8004586:	4606      	mov	r6, r0
        while (__HAL_RCC_GET_FLAG(RCC_FLAG_HSIRDY) == RESET)
 8004588:	6823      	ldr	r3, [r4, #0]
 800458a:	079f      	lsls	r7, r3, #30
 800458c:	d4ec      	bmi.n	8004568 <HAL_RCC_OscConfig+0xf8>
          if ((HAL_GetTick() - tickstart) > HSI_TIMEOUT_VALUE)
 800458e:	f7ff fadf 	bl	8003b50 <HAL_GetTick>
 8004592:	1b80      	subs	r0, r0, r6
 8004594:	2802      	cmp	r0, #2
 8004596:	d9f7      	bls.n	8004588 <HAL_RCC_OscConfig+0x118>
 8004598:	e7ab      	b.n	80044f2 <HAL_RCC_OscConfig+0x82>
        __HAL_RCC_HSI_DISABLE();
 800459a:	601a      	str	r2, [r3, #0]
        tickstart = HAL_GetTick();
 800459c:	f7ff fad8 	bl	8003b50 <HAL_GetTick>
 80045a0:	4606      	mov	r6, r0
        while (__HAL_RCC_GET_FLAG(RCC_FLAG_HSIRDY) != RESET)
 80045a2:	6823      	ldr	r3, [r4, #0]
 80045a4:	0798      	lsls	r0, r3, #30
 80045a6:	f57f af6d 	bpl.w	8004484 <HAL_RCC_OscConfig+0x14>
          if ((HAL_GetTick() - tickstart) > HSI_TIMEOUT_VALUE)
 80045aa:	f7ff fad1 	bl	8003b50 <HAL_GetTick>
 80045ae:	1b80      	subs	r0, r0, r6
 80045b0:	2802      	cmp	r0, #2
 80045b2:	d9f6      	bls.n	80045a2 <HAL_RCC_OscConfig+0x132>
 80045b4:	e79d      	b.n	80044f2 <HAL_RCC_OscConfig+0x82>
    if (RCC_OscInitStruct->LSIState != RCC_LSI_OFF)
 80045b6:	69aa      	ldr	r2, [r5, #24]
 80045b8:	4e4a      	ldr	r6, [pc, #296]	@ (80046e4 <HAL_RCC_OscConfig+0x274>)
 80045ba:	4b4b      	ldr	r3, [pc, #300]	@ (80046e8 <HAL_RCC_OscConfig+0x278>)
 80045bc:	b1e2      	cbz	r2, 80045f8 <HAL_RCC_OscConfig+0x188>
      __HAL_RCC_LSI_ENABLE();
 80045be:	2201      	movs	r2, #1
 80045c0:	f8c3 2480 	str.w	r2, [r3, #1152]	@ 0x480
      tickstart = HAL_GetTick();
 80045c4:	f7ff fac4 	bl	8003b50 <HAL_GetTick>
 80045c8:	4604      	mov	r4, r0
      while (__HAL_RCC_GET_FLAG(RCC_FLAG_LSIRDY) == RESET)
 80045ca:	6a73      	ldr	r3, [r6, #36]	@ 0x24
 80045cc:	079b      	lsls	r3, r3, #30
 80045ce:	d50d      	bpl.n	80045ec <HAL_RCC_OscConfig+0x17c>
  * @param  mdelay: specifies the delay time length, in milliseconds.
  * @retval None
  */
static void RCC_Delay(uint32_t mdelay)
{
  __IO uint32_t Delay = mdelay * (SystemCoreClock / 8U / 1000U);
 80045d0:	f44f 52fa 	mov.w	r2, #8000	@ 0x1f40
 80045d4:	4b45      	ldr	r3, [pc, #276]	@ (80046ec <HAL_RCC_OscConfig+0x27c>)
 80045d6:	681b      	ldr	r3, [r3, #0]
 80045d8:	fbb3 f3f2 	udiv	r3, r3, r2
 80045dc:	9301      	str	r3, [sp, #4]
  do
  {
    __NOP();
 80045de:	bf00      	nop
  }
  while (Delay --);
 80045e0:	9b01      	ldr	r3, [sp, #4]
 80045e2:	1e5a      	subs	r2, r3, #1
 80045e4:	9201      	str	r2, [sp, #4]
 80045e6:	2b00      	cmp	r3, #0
 80045e8:	d1f9      	bne.n	80045de <HAL_RCC_OscConfig+0x16e>
 80045ea:	e74f      	b.n	800448c <HAL_RCC_OscConfig+0x1c>
        if ((HAL_GetTick() - tickstart) > LSI_TIMEOUT_VALUE)
 80045ec:	f7ff fab0 	bl	8003b50 <HAL_GetTick>
 80045f0:	1b00      	subs	r0, r0, r4
 80045f2:	2802      	cmp	r0, #2
 80045f4:	d9e9      	bls.n	80045ca <HAL_RCC_OscConfig+0x15a>
 80045f6:	e77c      	b.n	80044f2 <HAL_RCC_OscConfig+0x82>
      __HAL_RCC_LSI_DISABLE();
 80045f8:	f8c3 2480 	str.w	r2, [r3, #1152]	@ 0x480
      tickstart = HAL_GetTick();
 80045fc:	f7ff faa8 	bl	8003b50 <HAL_GetTick>
 8004600:	4604      	mov	r4, r0
      while (__HAL_RCC_GET_FLAG(RCC_FLAG_LSIRDY) != RESET)
 8004602:	6a73      	ldr	r3, [r6, #36]	@ 0x24
 8004604:	079f      	lsls	r7, r3, #30
 8004606:	f57f af41 	bpl.w	800448c <HAL_RCC_OscConfig+0x1c>
        if ((HAL_GetTick() - tickstart) > LSI_TIMEOUT_VALUE)
 800460a:	f7ff faa1 	bl	8003b50 <HAL_GetTick>
 800460e:	1b00      	subs	r0, r0, r4
 8004610:	2802      	cmp	r0, #2
 8004612:	d9f6      	bls.n	8004602 <HAL_RCC_OscConfig+0x192>
 8004614:	e76d      	b.n	80044f2 <HAL_RCC_OscConfig+0x82>
    if (__HAL_RCC_PWR_IS_CLK_DISABLED())
 8004616:	4c33      	ldr	r4, [pc, #204]	@ (80046e4 <HAL_RCC_OscConfig+0x274>)
 8004618:	69e3      	ldr	r3, [r4, #28]
 800461a:	00d8      	lsls	r0, r3, #3
 800461c:	d424      	bmi.n	8004668 <HAL_RCC_OscConfig+0x1f8>
      pwrclkchanged = SET;
 800461e:	2701      	movs	r7, #1
      __HAL_RCC_PWR_CLK_ENABLE();
 8004620:	69e3      	ldr	r3, [r4, #28]
 8004622:	f043 5380 	orr.w	r3, r3, #268435456	@ 0x10000000
 8004626:	61e3      	str	r3, [r4, #28]
 8004628:	69e3      	ldr	r3, [r4, #28]
 800462a:	f003 5380 	and.w	r3, r3, #268435456	@ 0x10000000
 800462e:	9300      	str	r3, [sp, #0]
 8004630:	9b00      	ldr	r3, [sp, #0]
    if (HAL_IS_BIT_CLR(PWR->CR, PWR_CR_DBP))
 8004632:	4e2f      	ldr	r6, [pc, #188]	@ (80046f0 <HAL_RCC_OscConfig+0x280>)
 8004634:	6833      	ldr	r3, [r6, #0]
 8004636:	05d9      	lsls	r1, r3, #23
 8004638:	d518      	bpl.n	800466c <HAL_RCC_OscConfig+0x1fc>
    __HAL_RCC_LSE_CONFIG(RCC_OscInitStruct->LSEState);
 800463a:	68eb      	ldr	r3, [r5, #12]
 800463c:	2b01      	cmp	r3, #1
 800463e:	d126      	bne.n	800468e <HAL_RCC_OscConfig+0x21e>
 8004640:	6a23      	ldr	r3, [r4, #32]
 8004642:	f043 0301 	orr.w	r3, r3, #1
 8004646:	6223      	str	r3, [r4, #32]
      tickstart = HAL_GetTick();
 8004648:	f7ff fa82 	bl	8003b50 <HAL_GetTick>
        if ((HAL_GetTick() - tickstart) > RCC_LSE_TIMEOUT_VALUE)
 800464c:	f241 3888 	movw	r8, #5000	@ 0x1388
      tickstart = HAL_GetTick();
 8004650:	4606      	mov	r6, r0
      while (__HAL_RCC_GET_FLAG(RCC_FLAG_LSERDY) == RESET)
 8004652:	6a23      	ldr	r3, [r4, #32]
 8004654:	079b      	lsls	r3, r3, #30
 8004656:	d53f      	bpl.n	80046d8 <HAL_RCC_OscConfig+0x268>
    if (pwrclkchanged == SET)
 8004658:	2f00      	cmp	r7, #0
 800465a:	f43f af1b 	beq.w	8004494 <HAL_RCC_OscConfig+0x24>
      __HAL_RCC_PWR_CLK_DISABLE();
 800465e:	69e3      	ldr	r3, [r4, #28]
 8004660:	f023 5380 	bic.w	r3, r3, #268435456	@ 0x10000000
 8004664:	61e3      	str	r3, [r4, #28]
 8004666:	e715      	b.n	8004494 <HAL_RCC_OscConfig+0x24>
    FlagStatus       pwrclkchanged = RESET;
 8004668:	2700      	movs	r7, #0
 800466a:	e7e2      	b.n	8004632 <HAL_RCC_OscConfig+0x1c2>
      SET_BIT(PWR->CR, PWR_CR_DBP);
 800466c:	6833      	ldr	r3, [r6, #0]
 800466e:	f443 7380 	orr.w	r3, r3, #256	@ 0x100
 8004672:	6033      	str	r3, [r6, #0]
      tickstart = HAL_GetTick();
 8004674:	f7ff fa6c 	bl	8003b50 <HAL_GetTick>
 8004678:	4680      	mov	r8, r0
      while (HAL_IS_BIT_CLR(PWR->CR, PWR_CR_DBP))
 800467a:	6833      	ldr	r3, [r6, #0]
 800467c:	05da      	lsls	r2, r3, #23
 800467e:	d4dc      	bmi.n	800463a <HAL_RCC_OscConfig+0x1ca>
        if ((HAL_GetTick() - tickstart) > RCC_DBP_TIMEOUT_VALUE)
 8004680:	f7ff fa66 	bl	8003b50 <HAL_GetTick>
 8004684:	eba0 0008 	sub.w	r0, r0, r8
 8004688:	2864      	cmp	r0, #100	@ 0x64
 800468a:	d9f6      	bls.n	800467a <HAL_RCC_OscConfig+0x20a>
 800468c:	e731      	b.n	80044f2 <HAL_RCC_OscConfig+0x82>
    __HAL_RCC_LSE_CONFIG(RCC_OscInitStruct->LSEState);
 800468e:	b9ab      	cbnz	r3, 80046bc <HAL_RCC_OscConfig+0x24c>
 8004690:	6a23      	ldr	r3, [r4, #32]
        if ((HAL_GetTick() - tickstart) > RCC_LSE_TIMEOUT_VALUE)
 8004692:	f241 3888 	movw	r8, #5000	@ 0x1388
    __HAL_RCC_LSE_CONFIG(RCC_OscInitStruct->LSEState);
 8004696:	f023 0301 	bic.w	r3, r3, #1
 800469a:	6223      	str	r3, [r4, #32]
 800469c:	6a23      	ldr	r3, [r4, #32]
 800469e:	f023 0304 	bic.w	r3, r3, #4
 80046a2:	6223      	str	r3, [r4, #32]
      tickstart = HAL_GetTick();
 80046a4:	f7ff fa54 	bl	8003b50 <HAL_GetTick>
 80046a8:	4606      	mov	r6, r0
      while (__HAL_RCC_GET_FLAG(RCC_FLAG_LSERDY) != RESET)
 80046aa:	6a23      	ldr	r3, [r4, #32]
 80046ac:	0798      	lsls	r0, r3, #30
 80046ae:	d5d3      	bpl.n	8004658 <HAL_RCC_OscConfig+0x1e8>
        if ((HAL_GetTick() - tickstart) > RCC_LSE_TIMEOUT_VALUE)
 80046b0:	f7ff fa4e 	bl	8003b50 <HAL_GetTick>
 80046b4:	1b80      	subs	r0, r0, r6
 80046b6:	4540      	cmp	r0, r8
 80046b8:	d9f7      	bls.n	80046aa <HAL_RCC_OscConfig+0x23a>
 80046ba:	e71a      	b.n	80044f2 <HAL_RCC_OscConfig+0x82>
    __HAL_RCC_LSE_CONFIG(RCC_OscInitStruct->LSEState);
 80046bc:	2b05      	cmp	r3, #5
 80046be:	6a23      	ldr	r3, [r4, #32]
 80046c0:	d103      	bne.n	80046ca <HAL_RCC_OscConfig+0x25a>
 80046c2:	f043 0304 	orr.w	r3, r3, #4
 80046c6:	6223      	str	r3, [r4, #32]
 80046c8:	e7ba      	b.n	8004640 <HAL_RCC_OscConfig+0x1d0>
 80046ca:	f023 0301 	bic.w	r3, r3, #1
 80046ce:	6223      	str	r3, [r4, #32]
 80046d0:	6a23      	ldr	r3, [r4, #32]
 80046d2:	f023 0304 	bic.w	r3, r3, #4
 80046d6:	e7b6      	b.n	8004646 <HAL_RCC_OscConfig+0x1d6>
        if ((HAL_GetTick() - tickstart) > RCC_LSE_TIMEOUT_VALUE)
 80046d8:	f7ff fa3a 	bl	8003b50 <HAL_GetTick>
 80046dc:	1b80      	subs	r0, r0, r6
 80046de:	4540      	cmp	r0, r8
 80046e0:	d9b7      	bls.n	8004652 <HAL_RCC_OscConfig+0x1e2>
 80046e2:	e706      	b.n	80044f2 <HAL_RCC_OscConfig+0x82>
 80046e4:	40021000 	.word	0x40021000
 80046e8:	42420000 	.word	0x42420000
 80046ec:	20000014 	.word	0x20000014
 80046f0:	40007000 	.word	0x40007000
    if (__HAL_RCC_GET_SYSCLK_SOURCE() != RCC_SYSCLKSOURCE_STATUS_PLLCLK)
 80046f4:	4c2a      	ldr	r4, [pc, #168]	@ (80047a0 <HAL_RCC_OscConfig+0x330>)
 80046f6:	6862      	ldr	r2, [r4, #4]
 80046f8:	f002 020c 	and.w	r2, r2, #12
 80046fc:	2a08      	cmp	r2, #8
 80046fe:	d03e      	beq.n	800477e <HAL_RCC_OscConfig+0x30e>
      if ((RCC_OscInitStruct->PLL.PLLState) == RCC_PLL_ON)
 8004700:	2200      	movs	r2, #0
 8004702:	2b02      	cmp	r3, #2
 8004704:	4b27      	ldr	r3, [pc, #156]	@ (80047a4 <HAL_RCC_OscConfig+0x334>)
        __HAL_RCC_PLL_DISABLE();
 8004706:	661a      	str	r2, [r3, #96]	@ 0x60
      if ((RCC_OscInitStruct->PLL.PLLState) == RCC_PLL_ON)
 8004708:	d12c      	bne.n	8004764 <HAL_RCC_OscConfig+0x2f4>
        tickstart = HAL_GetTick();
 800470a:	f7ff fa21 	bl	8003b50 <HAL_GetTick>
 800470e:	4606      	mov	r6, r0
        while (__HAL_RCC_GET_FLAG(RCC_FLAG_PLLRDY)  != RESET)
 8004710:	6823      	ldr	r3, [r4, #0]
 8004712:	0199      	lsls	r1, r3, #6
 8004714:	d420      	bmi.n	8004758 <HAL_RCC_OscConfig+0x2e8>
        if (RCC_OscInitStruct->PLL.PLLSource == RCC_PLLSOURCE_HSE)
 8004716:	6a2b      	ldr	r3, [r5, #32]
 8004718:	f5b3 3f80 	cmp.w	r3, #65536	@ 0x10000
 800471c:	d105      	bne.n	800472a <HAL_RCC_OscConfig+0x2ba>
          __HAL_RCC_HSE_PREDIV_CONFIG(RCC_OscInitStruct->HSEPredivValue);
 800471e:	6862      	ldr	r2, [r4, #4]
 8004720:	68a9      	ldr	r1, [r5, #8]
 8004722:	f422 3200 	bic.w	r2, r2, #131072	@ 0x20000
 8004726:	430a      	orrs	r2, r1
 8004728:	6062      	str	r2, [r4, #4]
        __HAL_RCC_PLL_CONFIG(RCC_OscInitStruct->PLL.PLLSource,
 800472a:	6a69      	ldr	r1, [r5, #36]	@ 0x24
 800472c:	6862      	ldr	r2, [r4, #4]
 800472e:	430b      	orrs	r3, r1
 8004730:	f422 1274 	bic.w	r2, r2, #3997696	@ 0x3d0000
 8004734:	4313      	orrs	r3, r2
        __HAL_RCC_PLL_ENABLE();
 8004736:	2201      	movs	r2, #1
        __HAL_RCC_PLL_CONFIG(RCC_OscInitStruct->PLL.PLLSource,
 8004738:	6063      	str	r3, [r4, #4]
        __HAL_RCC_PLL_ENABLE();
 800473a:	4b1a      	ldr	r3, [pc, #104]	@ (80047a4 <HAL_RCC_OscConfig+0x334>)
 800473c:	661a      	str	r2, [r3, #96]	@ 0x60
        tickstart = HAL_GetTick();
 800473e:	f7ff fa07 	bl	8003b50 <HAL_GetTick>
 8004742:	4605      	mov	r5, r0
        while (__HAL_RCC_GET_FLAG(RCC_FLAG_PLLRDY)  == RESET)
 8004744:	6823      	ldr	r3, [r4, #0]
 8004746:	019a      	lsls	r2, r3, #6
 8004748:	f53f aea8 	bmi.w	800449c <HAL_RCC_OscConfig+0x2c>
          if ((HAL_GetTick() - tickstart) > PLL_TIMEOUT_VALUE)
 800474c:	f7ff fa00 	bl	8003b50 <HAL_GetTick>
 8004750:	1b40      	subs	r0, r0, r5
 8004752:	2802      	cmp	r0, #2
 8004754:	d9f6      	bls.n	8004744 <HAL_RCC_OscConfig+0x2d4>
 8004756:	e6cc      	b.n	80044f2 <HAL_RCC_OscConfig+0x82>
          if ((HAL_GetTick() - tickstart) > PLL_TIMEOUT_VALUE)
 8004758:	f7ff f9fa 	bl	8003b50 <HAL_GetTick>
 800475c:	1b80      	subs	r0, r0, r6
 800475e:	2802      	cmp	r0, #2
 8004760:	d9d6      	bls.n	8004710 <HAL_RCC_OscConfig+0x2a0>
 8004762:	e6c6      	b.n	80044f2 <HAL_RCC_OscConfig+0x82>
        tickstart = HAL_GetTick();
 8004764:	f7ff f9f4 	bl	8003b50 <HAL_GetTick>
 8004768:	4605      	mov	r5, r0
        while (__HAL_RCC_GET_FLAG(RCC_FLAG_PLLRDY)  != RESET)
 800476a:	6823      	ldr	r3, [r4, #0]
 800476c:	019b      	lsls	r3, r3, #6
 800476e:	f57f ae95 	bpl.w	800449c <HAL_RCC_OscConfig+0x2c>
          if ((HAL_GetTick() - tickstart) > PLL_TIMEOUT_VALUE)
 8004772:	f7ff f9ed 	bl	8003b50 <HAL_GetTick>
 8004776:	1b40      	subs	r0, r0, r5
 8004778:	2802      	cmp	r0, #2
 800477a:	d9f6      	bls.n	800476a <HAL_RCC_OscConfig+0x2fa>
 800477c:	e6b9      	b.n	80044f2 <HAL_RCC_OscConfig+0x82>
      if ((RCC_OscInitStruct->PLL.PLLState) == RCC_PLL_OFF)
 800477e:	2b01      	cmp	r3, #1
 8004780:	f43f aea2 	beq.w	80044c8 <HAL_RCC_OscConfig+0x58>
        pll_config = RCC->CFGR;
 8004784:	6860      	ldr	r0, [r4, #4]
        if ((READ_BIT(pll_config, RCC_CFGR_PLLSRC) != RCC_OscInitStruct->PLL.PLLSource) ||
 8004786:	6a2b      	ldr	r3, [r5, #32]
 8004788:	f400 3280 	and.w	r2, r0, #65536	@ 0x10000
 800478c:	429a      	cmp	r2, r3
 800478e:	f47f ae9b 	bne.w	80044c8 <HAL_RCC_OscConfig+0x58>
 8004792:	6a6b      	ldr	r3, [r5, #36]	@ 0x24
            (READ_BIT(pll_config, RCC_CFGR_PLLMULL) != RCC_OscInitStruct->PLL.PLLMUL))
 8004794:	f400 1070 	and.w	r0, r0, #3932160	@ 0x3c0000
        if ((READ_BIT(pll_config, RCC_CFGR_PLLSRC) != RCC_OscInitStruct->PLL.PLLSource) ||
 8004798:	1ac0      	subs	r0, r0, r3
 800479a:	bf18      	it	ne
 800479c:	2001      	movne	r0, #1
 800479e:	e6a9      	b.n	80044f4 <HAL_RCC_OscConfig+0x84>
 80047a0:	40021000 	.word	0x40021000
 80047a4:	42420000 	.word	0x42420000

080047a8 <HAL_RCC_GetSysClockFreq>:
  tmpreg = RCC->CFGR;
 80047a8:	4a0d      	ldr	r2, [pc, #52]	@ (80047e0 <HAL_RCC_GetSysClockFreq+0x38>)
 80047aa:	6853      	ldr	r3, [r2, #4]
  switch (tmpreg & RCC_CFGR_SWS)
 80047ac:	f003 010c 	and.w	r1, r3, #12
 80047b0:	2908      	cmp	r1, #8
 80047b2:	d112      	bne.n	80047da <HAL_RCC_GetSysClockFreq+0x32>
      pllmul = aPLLMULFactorTable[(uint32_t)(tmpreg & RCC_CFGR_PLLMULL) >> RCC_CFGR_PLLMULL_Pos];
 80047b4:	480b      	ldr	r0, [pc, #44]	@ (80047e4 <HAL_RCC_GetSysClockFreq+0x3c>)
 80047b6:	f3c3 4183 	ubfx	r1, r3, #18, #4
      if ((tmpreg & RCC_CFGR_PLLSRC) != RCC_PLLSOURCE_HSI_DIV2)
 80047ba:	03db      	lsls	r3, r3, #15
      pllmul = aPLLMULFactorTable[(uint32_t)(tmpreg & RCC_CFGR_PLLMULL) >> RCC_CFGR_PLLMULL_Pos];
 80047bc:	5c40      	ldrb	r0, [r0, r1]
      if ((tmpreg & RCC_CFGR_PLLSRC) != RCC_PLLSOURCE_HSI_DIV2)
 80047be:	d509      	bpl.n	80047d4 <HAL_RCC_GetSysClockFreq+0x2c>
        prediv = aPredivFactorTable[(uint32_t)(RCC->CFGR & RCC_CFGR_PLLXTPRE) >> RCC_CFGR_PLLXTPRE_Pos];
 80047c0:	6853      	ldr	r3, [r2, #4]
        pllclk = (uint32_t)((HSE_VALUE  * pllmul) / prediv);
 80047c2:	4a09      	ldr	r2, [pc, #36]	@ (80047e8 <HAL_RCC_GetSysClockFreq+0x40>)
        prediv = aPredivFactorTable[(uint32_t)(RCC->CFGR & RCC_CFGR_PLLXTPRE) >> RCC_CFGR_PLLXTPRE_Pos];
 80047c4:	f3c3 4340 	ubfx	r3, r3, #17, #1
        pllclk = (uint32_t)((HSE_VALUE  * pllmul) / prediv);
 80047c8:	4350      	muls	r0, r2
        prediv = aPredivFactorTable[(uint32_t)(RCC->CFGR & RCC_CFGR_PLLXTPRE) >> RCC_CFGR_PLLXTPRE_Pos];
 80047ca:	4a08      	ldr	r2, [pc, #32]	@ (80047ec <HAL_RCC_GetSysClockFreq+0x44>)
 80047cc:	5cd3      	ldrb	r3, [r2, r3]
        pllclk = (uint32_t)((HSE_VALUE  * pllmul) / prediv);
 80047ce:	fbb0 f0f3 	udiv	r0, r0, r3
 80047d2:	4770      	bx	lr
        pllclk = (uint32_t)((HSI_VALUE >> 1) * pllmul);
 80047d4:	4b06      	ldr	r3, [pc, #24]	@ (80047f0 <HAL_RCC_GetSysClockFreq+0x48>)
 80047d6:	4358      	muls	r0, r3
 80047d8:	4770      	bx	lr
      sysclockfreq = HSE_VALUE;
 80047da:	4803      	ldr	r0, [pc, #12]	@ (80047e8 <HAL_RCC_GetSysClockFreq+0x40>)
}
 80047dc:	4770      	bx	lr
 80047de:	bf00      	nop
 80047e0:	40021000 	.word	0x40021000
 80047e4:	08008600 	.word	0x08008600
 80047e8:	007a1200 	.word	0x007a1200
 80047ec:	080085fe 	.word	0x080085fe
 80047f0:	003d0900 	.word	0x003d0900

080047f4 <HAL_RCC_ClockConfig>:
{
 80047f4:	e92d 41f0 	stmdb	sp!, {r4, r5, r6, r7, r8, lr}
 80047f8:	460d      	mov	r5, r1
  if (RCC_ClkInitStruct == NULL)
 80047fa:	4604      	mov	r4, r0
 80047fc:	b910      	cbnz	r0, 8004804 <HAL_RCC_ClockConfig+0x10>
    return HAL_ERROR;
 80047fe:	2001      	movs	r0, #1
}
 8004800:	e8bd 81f0 	ldmia.w	sp!, {r4, r5, r6, r7, r8, pc}
  if (FLatency > __HAL_FLASH_GET_LATENCY())
 8004804:	4a44      	ldr	r2, [pc, #272]	@ (8004918 <HAL_RCC_ClockConfig+0x124>)
 8004806:	6813      	ldr	r3, [r2, #0]
 8004808:	f003 0307 	and.w	r3, r3, #7
 800480c:	428b      	cmp	r3, r1
 800480e:	d328      	bcc.n	8004862 <HAL_RCC_ClockConfig+0x6e>
if (((RCC_ClkInitStruct->ClockType) & RCC_CLOCKTYPE_HCLK) == RCC_CLOCKTYPE_HCLK)
 8004810:	6821      	ldr	r1, [r4, #0]
 8004812:	078e      	lsls	r6, r1, #30
 8004814:	d430      	bmi.n	8004878 <HAL_RCC_ClockConfig+0x84>
  if (((RCC_ClkInitStruct->ClockType) & RCC_CLOCKTYPE_SYSCLK) == RCC_CLOCKTYPE_SYSCLK)
 8004816:	07ca      	lsls	r2, r1, #31
 8004818:	d443      	bmi.n	80048a2 <HAL_RCC_ClockConfig+0xae>
  if (FLatency < __HAL_FLASH_GET_LATENCY())
 800481a:	4a3f      	ldr	r2, [pc, #252]	@ (8004918 <HAL_RCC_ClockConfig+0x124>)
 800481c:	6813      	ldr	r3, [r2, #0]
 800481e:	f003 0307 	and.w	r3, r3, #7
 8004822:	42ab      	cmp	r3, r5
 8004824:	d865      	bhi.n	80048f2 <HAL_RCC_ClockConfig+0xfe>
if (((RCC_ClkInitStruct->ClockType) & RCC_CLOCKTYPE_PCLK1) == RCC_CLOCKTYPE_PCLK1)
 8004826:	6822      	ldr	r2, [r4, #0]
 8004828:	4d3c      	ldr	r5, [pc, #240]	@ (800491c <HAL_RCC_ClockConfig+0x128>)
 800482a:	f012 0f04 	tst.w	r2, #4
 800482e:	d16c      	bne.n	800490a <HAL_RCC_ClockConfig+0x116>
  if (((RCC_ClkInitStruct->ClockType) & RCC_CLOCKTYPE_PCLK2) == RCC_CLOCKTYPE_PCLK2)
 8004830:	0713      	lsls	r3, r2, #28
 8004832:	d506      	bpl.n	8004842 <HAL_RCC_ClockConfig+0x4e>
    MODIFY_REG(RCC->CFGR, RCC_CFGR_PPRE2, ((RCC_ClkInitStruct->APB2CLKDivider) << 3));
 8004834:	686b      	ldr	r3, [r5, #4]
 8004836:	6922      	ldr	r2, [r4, #16]
 8004838:	f423 5360 	bic.w	r3, r3, #14336	@ 0x3800
 800483c:	ea43 03c2 	orr.w	r3, r3, r2, lsl #3
 8004840:	606b      	str	r3, [r5, #4]
  SystemCoreClock = HAL_RCC_GetSysClockFreq() >> AHBPrescTable[(RCC->CFGR & RCC_CFGR_HPRE) >> RCC_CFGR_HPRE_Pos];
 8004842:	f7ff ffb1 	bl	80047a8 <HAL_RCC_GetSysClockFreq>
 8004846:	686b      	ldr	r3, [r5, #4]
 8004848:	4a35      	ldr	r2, [pc, #212]	@ (8004920 <HAL_RCC_ClockConfig+0x12c>)
 800484a:	f3c3 1303 	ubfx	r3, r3, #4, #4
 800484e:	5cd3      	ldrb	r3, [r2, r3]
 8004850:	40d8      	lsrs	r0, r3
 8004852:	4b34      	ldr	r3, [pc, #208]	@ (8004924 <HAL_RCC_ClockConfig+0x130>)
 8004854:	6018      	str	r0, [r3, #0]
  HAL_InitTick(uwTickPrio);
 8004856:	4b34      	ldr	r3, [pc, #208]	@ (8004928 <HAL_RCC_ClockConfig+0x134>)
 8004858:	6818      	ldr	r0, [r3, #0]
 800485a:	f7ff f943 	bl	8003ae4 <HAL_InitTick>
  return HAL_OK;
 800485e:	2000      	movs	r0, #0
 8004860:	e7ce      	b.n	8004800 <HAL_RCC_ClockConfig+0xc>
    __HAL_FLASH_SET_LATENCY(FLatency);
 8004862:	6813      	ldr	r3, [r2, #0]
 8004864:	f023 0307 	bic.w	r3, r3, #7
 8004868:	430b      	orrs	r3, r1
 800486a:	6013      	str	r3, [r2, #0]
    if (__HAL_FLASH_GET_LATENCY() != FLatency)
 800486c:	6813      	ldr	r3, [r2, #0]
 800486e:	f003 0307 	and.w	r3, r3, #7
 8004872:	428b      	cmp	r3, r1
 8004874:	d1c3      	bne.n	80047fe <HAL_RCC_ClockConfig+0xa>
 8004876:	e7cb      	b.n	8004810 <HAL_RCC_ClockConfig+0x1c>
    if (((RCC_ClkInitStruct->ClockType) & RCC_CLOCKTYPE_PCLK1) == RCC_CLOCKTYPE_PCLK1)
 8004878:	4b28      	ldr	r3, [pc, #160]	@ (800491c <HAL_RCC_ClockConfig+0x128>)
 800487a:	f011 0f04 	tst.w	r1, #4
      MODIFY_REG(RCC->CFGR, RCC_CFGR_PPRE1, RCC_HCLK_DIV16);
 800487e:	bf1e      	ittt	ne
 8004880:	685a      	ldrne	r2, [r3, #4]
 8004882:	f442 62e0 	orrne.w	r2, r2, #1792	@ 0x700
 8004886:	605a      	strne	r2, [r3, #4]
    if (((RCC_ClkInitStruct->ClockType) & RCC_CLOCKTYPE_PCLK2) == RCC_CLOCKTYPE_PCLK2)
 8004888:	0708      	lsls	r0, r1, #28
      MODIFY_REG(RCC->CFGR, RCC_CFGR_PPRE2, (RCC_HCLK_DIV16 << 3));
 800488a:	bf42      	ittt	mi
 800488c:	685a      	ldrmi	r2, [r3, #4]
 800488e:	f442 5260 	orrmi.w	r2, r2, #14336	@ 0x3800
 8004892:	605a      	strmi	r2, [r3, #4]
    MODIFY_REG(RCC->CFGR, RCC_CFGR_HPRE, RCC_ClkInitStruct->AHBCLKDivider);
 8004894:	685a      	ldr	r2, [r3, #4]
 8004896:	68a0      	ldr	r0, [r4, #8]
 8004898:	f022 02f0 	bic.w	r2, r2, #240	@ 0xf0
 800489c:	4302      	orrs	r2, r0
 800489e:	605a      	str	r2, [r3, #4]
 80048a0:	e7b9      	b.n	8004816 <HAL_RCC_ClockConfig+0x22>
    if (RCC_ClkInitStruct->SYSCLKSource == RCC_SYSCLKSOURCE_HSE)
 80048a2:	6862      	ldr	r2, [r4, #4]
 80048a4:	4e1d      	ldr	r6, [pc, #116]	@ (800491c <HAL_RCC_ClockConfig+0x128>)
 80048a6:	2a01      	cmp	r2, #1
      if (__HAL_RCC_GET_FLAG(RCC_FLAG_HSERDY) == RESET)
 80048a8:	6833      	ldr	r3, [r6, #0]
    if (RCC_ClkInitStruct->SYSCLKSource == RCC_SYSCLKSOURCE_HSE)
 80048aa:	d11a      	bne.n	80048e2 <HAL_RCC_ClockConfig+0xee>
      if (__HAL_RCC_GET_FLAG(RCC_FLAG_HSERDY) == RESET)
 80048ac:	f413 3f00 	tst.w	r3, #131072	@ 0x20000
      if (__HAL_RCC_GET_FLAG(RCC_FLAG_HSIRDY) == RESET)
 80048b0:	d0a5      	beq.n	80047fe <HAL_RCC_ClockConfig+0xa>
    __HAL_RCC_SYSCLK_CONFIG(RCC_ClkInitStruct->SYSCLKSource);
 80048b2:	6873      	ldr	r3, [r6, #4]
      if ((HAL_GetTick() - tickstart) > CLOCKSWITCH_TIMEOUT_VALUE)
 80048b4:	f241 3888 	movw	r8, #5000	@ 0x1388
    __HAL_RCC_SYSCLK_CONFIG(RCC_ClkInitStruct->SYSCLKSource);
 80048b8:	f023 0303 	bic.w	r3, r3, #3
 80048bc:	4313      	orrs	r3, r2
 80048be:	6073      	str	r3, [r6, #4]
    tickstart = HAL_GetTick();
 80048c0:	f7ff f946 	bl	8003b50 <HAL_GetTick>
 80048c4:	4607      	mov	r7, r0
    while (__HAL_RCC_GET_SYSCLK_SOURCE() != (RCC_ClkInitStruct->SYSCLKSource << RCC_CFGR_SWS_Pos))
 80048c6:	6873      	ldr	r3, [r6, #4]
 80048c8:	6862      	ldr	r2, [r4, #4]
 80048ca:	f003 030c 	and.w	r3, r3, #12
 80048ce:	ebb3 0f82 	cmp.w	r3, r2, lsl #2
 80048d2:	d0a2      	beq.n	800481a <HAL_RCC_ClockConfig+0x26>
      if ((HAL_GetTick() - tickstart) > CLOCKSWITCH_TIMEOUT_VALUE)
 80048d4:	f7ff f93c 	bl	8003b50 <HAL_GetTick>
 80048d8:	1bc0      	subs	r0, r0, r7
 80048da:	4540      	cmp	r0, r8
 80048dc:	d9f3      	bls.n	80048c6 <HAL_RCC_ClockConfig+0xd2>
        return HAL_TIMEOUT;
 80048de:	2003      	movs	r0, #3
 80048e0:	e78e      	b.n	8004800 <HAL_RCC_ClockConfig+0xc>
    else if (RCC_ClkInitStruct->SYSCLKSource == RCC_SYSCLKSOURCE_PLLCLK)
 80048e2:	2a02      	cmp	r2, #2
 80048e4:	d102      	bne.n	80048ec <HAL_RCC_ClockConfig+0xf8>
      if (__HAL_RCC_GET_FLAG(RCC_FLAG_PLLRDY) == RESET)
 80048e6:	f013 7f00 	tst.w	r3, #33554432	@ 0x2000000
 80048ea:	e7e1      	b.n	80048b0 <HAL_RCC_ClockConfig+0xbc>
      if (__HAL_RCC_GET_FLAG(RCC_FLAG_HSIRDY) == RESET)
 80048ec:	f013 0f02 	tst.w	r3, #2
 80048f0:	e7de      	b.n	80048b0 <HAL_RCC_ClockConfig+0xbc>
    __HAL_FLASH_SET_LATENCY(FLatency);
 80048f2:	6813      	ldr	r3, [r2, #0]
 80048f4:	f023 0307 	bic.w	r3, r3, #7
 80048f8:	432b      	orrs	r3, r5
 80048fa:	6013      	str	r3, [r2, #0]
    if (__HAL_FLASH_GET_LATENCY() != FLatency)
 80048fc:	6813      	ldr	r3, [r2, #0]
 80048fe:	f003 0307 	and.w	r3, r3, #7
 8004902:	42ab      	cmp	r3, r5
 8004904:	f47f af7b 	bne.w	80047fe <HAL_RCC_ClockConfig+0xa>
 8004908:	e78d      	b.n	8004826 <HAL_RCC_ClockConfig+0x32>
    MODIFY_REG(RCC->CFGR, RCC_CFGR_PPRE1, RCC_ClkInitStruct->APB1CLKDivider);
 800490a:	686b      	ldr	r3, [r5, #4]
 800490c:	68e1      	ldr	r1, [r4, #12]
 800490e:	f423 63e0 	bic.w	r3, r3, #1792	@ 0x700
 8004912:	430b      	orrs	r3, r1
 8004914:	606b      	str	r3, [r5, #4]
 8004916:	e78b      	b.n	8004830 <HAL_RCC_ClockConfig+0x3c>
 8004918:	40022000 	.word	0x40022000
 800491c:	40021000 	.word	0x40021000
 8004920:	080074ab 	.word	0x080074ab
 8004924:	20000014 	.word	0x20000014
 8004928:	20000054 	.word	0x20000054

0800492c <HAL_RCC_GetPCLK2Freq>:
  return (HAL_RCC_GetHCLKFreq() >> APBPrescTable[(RCC->CFGR & RCC_CFGR_PPRE2) >> RCC_CFGR_PPRE2_Pos]);
 800492c:	4b04      	ldr	r3, [pc, #16]	@ (8004940 <HAL_RCC_GetPCLK2Freq+0x14>)
 800492e:	4a05      	ldr	r2, [pc, #20]	@ (8004944 <HAL_RCC_GetPCLK2Freq+0x18>)
 8004930:	685b      	ldr	r3, [r3, #4]
 8004932:	f3c3 23c2 	ubfx	r3, r3, #11, #3
 8004936:	5cd3      	ldrb	r3, [r2, r3]
 8004938:	4a03      	ldr	r2, [pc, #12]	@ (8004948 <HAL_RCC_GetPCLK2Freq+0x1c>)
 800493a:	6810      	ldr	r0, [r2, #0]
}
 800493c:	40d8      	lsrs	r0, r3
 800493e:	4770      	bx	lr
 8004940:	40021000 	.word	0x40021000
 8004944:	080074a3 	.word	0x080074a3
 8004948:	20000014 	.word	0x20000014

0800494c <HAL_RCCEx_PeriphCLKConfig>:

  /* Check the parameters */
  assert_param(IS_RCC_PERIPHCLOCK(PeriphClkInit->PeriphClockSelection));

  /*------------------------------- RTC/LCD Configuration ------------------------*/
  if ((((PeriphClkInit->PeriphClockSelection) & RCC_PERIPHCLK_RTC) == RCC_PERIPHCLK_RTC))
 800494c:	6803      	ldr	r3, [r0, #0]
{
 800494e:	e92d 41f3 	stmdb	sp!, {r0, r1, r4, r5, r6, r7, r8, lr}
 8004952:	4605      	mov	r5, r0
  if ((((PeriphClkInit->PeriphClockSelection) & RCC_PERIPHCLK_RTC) == RCC_PERIPHCLK_RTC))
 8004954:	07d8      	lsls	r0, r3, #31
 8004956:	d521      	bpl.n	800499c <HAL_RCCEx_PeriphCLKConfig+0x50>
    assert_param(IS_RCC_RTCCLKSOURCE(PeriphClkInit->RTCClockSelection));

    /* As soon as function is called to change RTC clock source, activation of the
       power domain is done. */
    /* Requires to enable write access to Backup Domain of necessary */
    if (__HAL_RCC_PWR_IS_CLK_DISABLED())
 8004958:	4c36      	ldr	r4, [pc, #216]	@ (8004a34 <HAL_RCCEx_PeriphCLKConfig+0xe8>)
 800495a:	69e3      	ldr	r3, [r4, #28]
 800495c:	00d9      	lsls	r1, r3, #3
 800495e:	d42b      	bmi.n	80049b8 <HAL_RCCEx_PeriphCLKConfig+0x6c>
    {
      __HAL_RCC_PWR_CLK_ENABLE();
      pwrclkchanged = SET;
 8004960:	2601      	movs	r6, #1
      __HAL_RCC_PWR_CLK_ENABLE();
 8004962:	69e3      	ldr	r3, [r4, #28]
 8004964:	f043 5380 	orr.w	r3, r3, #268435456	@ 0x10000000
 8004968:	61e3      	str	r3, [r4, #28]
 800496a:	69e3      	ldr	r3, [r4, #28]
 800496c:	f003 5380 	and.w	r3, r3, #268435456	@ 0x10000000
 8004970:	9301      	str	r3, [sp, #4]
 8004972:	9b01      	ldr	r3, [sp, #4]
    }

    if (HAL_IS_BIT_CLR(PWR->CR, PWR_CR_DBP))
 8004974:	4f30      	ldr	r7, [pc, #192]	@ (8004a38 <HAL_RCCEx_PeriphCLKConfig+0xec>)
 8004976:	683b      	ldr	r3, [r7, #0]
 8004978:	05da      	lsls	r2, r3, #23
 800497a:	d51f      	bpl.n	80049bc <HAL_RCCEx_PeriphCLKConfig+0x70>
        }
      }
    }

    /* Reset the Backup domain only if the RTC Clock source selection is modified from reset value */
    temp_reg = (RCC->BDCR & RCC_BDCR_RTCSEL);
 800497c:	6a23      	ldr	r3, [r4, #32]
    if ((temp_reg != 0x00000000U) && (temp_reg != (PeriphClkInit->RTCClockSelection & RCC_BDCR_RTCSEL)))
 800497e:	686a      	ldr	r2, [r5, #4]
 8004980:	f413 7340 	ands.w	r3, r3, #768	@ 0x300
 8004984:	d12e      	bne.n	80049e4 <HAL_RCCEx_PeriphCLKConfig+0x98>
            return HAL_TIMEOUT;
          }
        }
      }
    }
    __HAL_RCC_RTC_CONFIG(PeriphClkInit->RTCClockSelection);
 8004986:	6a23      	ldr	r3, [r4, #32]
 8004988:	686a      	ldr	r2, [r5, #4]
 800498a:	f423 7340 	bic.w	r3, r3, #768	@ 0x300
 800498e:	4313      	orrs	r3, r2
 8004990:	6223      	str	r3, [r4, #32]

    /* Require to disable power clock if necessary */
    if (pwrclkchanged == SET)
 8004992:	b11e      	cbz	r6, 800499c <HAL_RCCEx_PeriphCLKConfig+0x50>
    {
      __HAL_RCC_PWR_CLK_DISABLE();
 8004994:	69e3      	ldr	r3, [r4, #28]
 8004996:	f023 5380 	bic.w	r3, r3, #268435456	@ 0x10000000
 800499a:	61e3      	str	r3, [r4, #28]
    }
  }

  /*------------------------------ ADC clock Configuration ------------------*/
  if (((PeriphClkInit->PeriphClockSelection) & RCC_PERIPHCLK_ADC) == RCC_PERIPHCLK_ADC)
 800499c:	682a      	ldr	r2, [r5, #0]
 800499e:	0791      	lsls	r1, r2, #30
 80049a0:	d506      	bpl.n	80049b0 <HAL_RCCEx_PeriphCLKConfig+0x64>
  {
    /* Check the parameters */
    assert_param(IS_RCC_ADCPLLCLK_DIV(PeriphClkInit->AdcClockSelection));

    /* Configure the ADC clock source */
    __HAL_RCC_ADC_CONFIG(PeriphClkInit->AdcClockSelection);
 80049a2:	4924      	ldr	r1, [pc, #144]	@ (8004a34 <HAL_RCCEx_PeriphCLKConfig+0xe8>)
 80049a4:	68a8      	ldr	r0, [r5, #8]
 80049a6:	684b      	ldr	r3, [r1, #4]
 80049a8:	f423 4340 	bic.w	r3, r3, #49152	@ 0xc000
 80049ac:	4303      	orrs	r3, r0
 80049ae:	604b      	str	r3, [r1, #4]

#if defined(STM32F102x6) || defined(STM32F102xB) || defined(STM32F103x6)\
 || defined(STM32F103xB) || defined(STM32F103xE) || defined(STM32F103xG)\
 || defined(STM32F105xC) || defined(STM32F107xC)
  /*------------------------------ USB clock Configuration ------------------*/
  if (((PeriphClkInit->PeriphClockSelection) & RCC_PERIPHCLK_USB) == RCC_PERIPHCLK_USB)
 80049b0:	06d3      	lsls	r3, r2, #27
 80049b2:	d436      	bmi.n	8004a22 <HAL_RCCEx_PeriphCLKConfig+0xd6>
    /* Configure the USB clock source */
    __HAL_RCC_USB_CONFIG(PeriphClkInit->UsbClockSelection);
  }
#endif /* STM32F102x6 || STM32F102xB || STM32F103x6 || STM32F103xB || STM32F103xE || STM32F103xG || STM32F105xC || STM32F107xC */

  return HAL_OK;
 80049b4:	2000      	movs	r0, #0
 80049b6:	e012      	b.n	80049de <HAL_RCCEx_PeriphCLKConfig+0x92>
    FlagStatus pwrclkchanged = RESET;
 80049b8:	2600      	movs	r6, #0
 80049ba:	e7db      	b.n	8004974 <HAL_RCCEx_PeriphCLKConfig+0x28>
      SET_BIT(PWR->CR, PWR_CR_DBP);
 80049bc:	683b      	ldr	r3, [r7, #0]
 80049be:	f443 7380 	orr.w	r3, r3, #256	@ 0x100
 80049c2:	603b      	str	r3, [r7, #0]
      tickstart = HAL_GetTick();
 80049c4:	f7ff f8c4 	bl	8003b50 <HAL_GetTick>
 80049c8:	4680      	mov	r8, r0
      while (HAL_IS_BIT_CLR(PWR->CR, PWR_CR_DBP))
 80049ca:	683b      	ldr	r3, [r7, #0]
 80049cc:	05db      	lsls	r3, r3, #23
 80049ce:	d4d5      	bmi.n	800497c <HAL_RCCEx_PeriphCLKConfig+0x30>
        if ((HAL_GetTick() - tickstart) > RCC_DBP_TIMEOUT_VALUE)
 80049d0:	f7ff f8be 	bl	8003b50 <HAL_GetTick>
 80049d4:	eba0 0008 	sub.w	r0, r0, r8
 80049d8:	2864      	cmp	r0, #100	@ 0x64
 80049da:	d9f6      	bls.n	80049ca <HAL_RCCEx_PeriphCLKConfig+0x7e>
          return HAL_TIMEOUT;
 80049dc:	2003      	movs	r0, #3
}
 80049de:	b002      	add	sp, #8
 80049e0:	e8bd 81f0 	ldmia.w	sp!, {r4, r5, r6, r7, r8, pc}
    if ((temp_reg != 0x00000000U) && (temp_reg != (PeriphClkInit->RTCClockSelection & RCC_BDCR_RTCSEL)))
 80049e4:	f402 7240 	and.w	r2, r2, #768	@ 0x300
 80049e8:	429a      	cmp	r2, r3
 80049ea:	d0cc      	beq.n	8004986 <HAL_RCCEx_PeriphCLKConfig+0x3a>
      __HAL_RCC_BACKUPRESET_FORCE();
 80049ec:	2001      	movs	r0, #1
 80049ee:	4a13      	ldr	r2, [pc, #76]	@ (8004a3c <HAL_RCCEx_PeriphCLKConfig+0xf0>)
      temp_reg = (RCC->BDCR & ~(RCC_BDCR_RTCSEL));
 80049f0:	6a23      	ldr	r3, [r4, #32]
      __HAL_RCC_BACKUPRESET_FORCE();
 80049f2:	f8c2 0440 	str.w	r0, [r2, #1088]	@ 0x440
      __HAL_RCC_BACKUPRESET_RELEASE();
 80049f6:	2000      	movs	r0, #0
      temp_reg = (RCC->BDCR & ~(RCC_BDCR_RTCSEL));
 80049f8:	f423 7140 	bic.w	r1, r3, #768	@ 0x300
      if (HAL_IS_BIT_SET(temp_reg, RCC_BDCR_LSEON))
 80049fc:	07df      	lsls	r7, r3, #31
      __HAL_RCC_BACKUPRESET_RELEASE();
 80049fe:	f8c2 0440 	str.w	r0, [r2, #1088]	@ 0x440
      RCC->BDCR = temp_reg;
 8004a02:	6221      	str	r1, [r4, #32]
      if (HAL_IS_BIT_SET(temp_reg, RCC_BDCR_LSEON))
 8004a04:	d5bf      	bpl.n	8004986 <HAL_RCCEx_PeriphCLKConfig+0x3a>
        tickstart = HAL_GetTick();
 8004a06:	f7ff f8a3 	bl	8003b50 <HAL_GetTick>
          if ((HAL_GetTick() - tickstart) > RCC_LSE_TIMEOUT_VALUE)
 8004a0a:	f241 3888 	movw	r8, #5000	@ 0x1388
        tickstart = HAL_GetTick();
 8004a0e:	4607      	mov	r7, r0
        while (__HAL_RCC_GET_FLAG(RCC_FLAG_LSERDY) == RESET)
 8004a10:	6a23      	ldr	r3, [r4, #32]
 8004a12:	0798      	lsls	r0, r3, #30
 8004a14:	d4b7      	bmi.n	8004986 <HAL_RCCEx_PeriphCLKConfig+0x3a>
          if ((HAL_GetTick() - tickstart) > RCC_LSE_TIMEOUT_VALUE)
 8004a16:	f7ff f89b 	bl	8003b50 <HAL_GetTick>
 8004a1a:	1bc0      	subs	r0, r0, r7
 8004a1c:	4540      	cmp	r0, r8
 8004a1e:	d9f7      	bls.n	8004a10 <HAL_RCCEx_PeriphCLKConfig+0xc4>
 8004a20:	e7dc      	b.n	80049dc <HAL_RCCEx_PeriphCLKConfig+0x90>
    __HAL_RCC_USB_CONFIG(PeriphClkInit->UsbClockSelection);
 8004a22:	4a04      	ldr	r2, [pc, #16]	@ (8004a34 <HAL_RCCEx_PeriphCLKConfig+0xe8>)
 8004a24:	68e9      	ldr	r1, [r5, #12]
 8004a26:	6853      	ldr	r3, [r2, #4]
 8004a28:	f423 0380 	bic.w	r3, r3, #4194304	@ 0x400000
 8004a2c:	430b      	orrs	r3, r1
 8004a2e:	6053      	str	r3, [r2, #4]
 8004a30:	e7c0      	b.n	80049b4 <HAL_RCCEx_PeriphCLKConfig+0x68>
 8004a32:	bf00      	nop
 8004a34:	40021000 	.word	0x40021000
 8004a38:	40007000 	.word	0x40007000
 8004a3c:	42420000 	.word	0x42420000

08004a40 <HAL_RCCEx_GetPeriphCLKFreq>:
  uint32_t temp_reg = 0U, frequency = 0U;

  /* Check the parameters */
  assert_param(IS_RCC_PERIPHCLOCK(PeriphClk));

  switch (PeriphClk)
 8004a40:	2802      	cmp	r0, #2
{
 8004a42:	b508      	push	{r3, lr}
  switch (PeriphClk)
 8004a44:	d044      	beq.n	8004ad0 <HAL_RCCEx_GetPeriphCLKFreq+0x90>
 8004a46:	2810      	cmp	r0, #16
 8004a48:	d003      	beq.n	8004a52 <HAL_RCCEx_GetPeriphCLKFreq+0x12>
 8004a4a:	2801      	cmp	r0, #1
 8004a4c:	d022      	beq.n	8004a94 <HAL_RCCEx_GetPeriphCLKFreq+0x54>
  uint32_t temp_reg = 0U, frequency = 0U;
 8004a4e:	2000      	movs	r0, #0
    default:
    {
      break;
    }
  }
  return (frequency);
 8004a50:	e034      	b.n	8004abc <HAL_RCCEx_GetPeriphCLKFreq+0x7c>
      temp_reg = RCC->CFGR;
 8004a52:	4b25      	ldr	r3, [pc, #148]	@ (8004ae8 <HAL_RCCEx_GetPeriphCLKFreq+0xa8>)
 8004a54:	685a      	ldr	r2, [r3, #4]
      if (HAL_IS_BIT_SET(RCC->CR, RCC_CR_PLLON))
 8004a56:	6818      	ldr	r0, [r3, #0]
 8004a58:	f010 7080 	ands.w	r0, r0, #16777216	@ 0x1000000
 8004a5c:	d02e      	beq.n	8004abc <HAL_RCCEx_GetPeriphCLKFreq+0x7c>
        pllmul = aPLLMULFactorTable[(uint32_t)(temp_reg & RCC_CFGR_PLLMULL) >> RCC_CFGR_PLLMULL_Pos];
 8004a5e:	f3c2 4183 	ubfx	r1, r2, #18, #4
 8004a62:	4822      	ldr	r0, [pc, #136]	@ (8004aec <HAL_RCCEx_GetPeriphCLKFreq+0xac>)
        if ((temp_reg & RCC_CFGR_PLLSRC) != RCC_PLLSOURCE_HSI_DIV2)
 8004a64:	03d2      	lsls	r2, r2, #15
          prediv1 = aPredivFactorTable[(uint32_t)(RCC->CFGR & RCC_CFGR_PLLXTPRE) >> RCC_CFGR_PLLXTPRE_Pos];
 8004a66:	bf48      	it	mi
 8004a68:	685a      	ldrmi	r2, [r3, #4]
        pllmul = aPLLMULFactorTable[(uint32_t)(temp_reg & RCC_CFGR_PLLMULL) >> RCC_CFGR_PLLMULL_Pos];
 8004a6a:	5c40      	ldrb	r0, [r0, r1]
          prediv1 = aPredivFactorTable[(uint32_t)(RCC->CFGR & RCC_CFGR_PLLXTPRE) >> RCC_CFGR_PLLXTPRE_Pos];
 8004a6c:	bf41      	itttt	mi
 8004a6e:	4920      	ldrmi	r1, [pc, #128]	@ (8004af0 <HAL_RCCEx_GetPeriphCLKFreq+0xb0>)
 8004a70:	f3c2 4240 	ubfxmi	r2, r2, #17, #1
 8004a74:	5c89      	ldrbmi	r1, [r1, r2]
            pllclk = (uint32_t)((HSE_VALUE / prediv1) * pllmul);
 8004a76:	4a1f      	ldrmi	r2, [pc, #124]	@ (8004af4 <HAL_RCCEx_GetPeriphCLKFreq+0xb4>)
        if (__HAL_RCC_GET_USB_SOURCE() == RCC_USBCLKSOURCE_PLL)
 8004a78:	685b      	ldr	r3, [r3, #4]
            pllclk = (uint32_t)((HSE_VALUE / prediv1) * pllmul);
 8004a7a:	bf4c      	ite	mi
 8004a7c:	fbb2 f2f1 	udivmi	r2, r2, r1
          pllclk = (uint32_t)((HSI_VALUE >> 1) * pllmul);
 8004a80:	4a1d      	ldrpl	r2, [pc, #116]	@ (8004af8 <HAL_RCCEx_GetPeriphCLKFreq+0xb8>)
        if (__HAL_RCC_GET_USB_SOURCE() == RCC_USBCLKSOURCE_PLL)
 8004a82:	025b      	lsls	r3, r3, #9
          pllclk = (uint32_t)((HSI_VALUE >> 1) * pllmul);
 8004a84:	fb02 f000 	mul.w	r0, r2, r0
        if (__HAL_RCC_GET_USB_SOURCE() == RCC_USBCLKSOURCE_PLL)
 8004a88:	d418      	bmi.n	8004abc <HAL_RCCEx_GetPeriphCLKFreq+0x7c>
          frequency = (pllclk * 2) / 3;
 8004a8a:	2303      	movs	r3, #3
 8004a8c:	0040      	lsls	r0, r0, #1
      frequency = HAL_RCC_GetPCLK2Freq() / (((__HAL_RCC_GET_ADC_SOURCE() >> RCC_CFGR_ADCPRE_Pos) + 1) * 2);
 8004a8e:	fbb0 f0f3 	udiv	r0, r0, r3
      break;
 8004a92:	e013      	b.n	8004abc <HAL_RCCEx_GetPeriphCLKFreq+0x7c>
      if (((temp_reg & RCC_BDCR_RTCSEL) == RCC_RTCCLKSOURCE_LSE) && (HAL_IS_BIT_SET(temp_reg, RCC_BDCR_LSERDY)))
 8004a94:	f240 3102 	movw	r1, #770	@ 0x302
      temp_reg = RCC->BDCR;
 8004a98:	4a13      	ldr	r2, [pc, #76]	@ (8004ae8 <HAL_RCCEx_GetPeriphCLKFreq+0xa8>)
 8004a9a:	6a13      	ldr	r3, [r2, #32]
      if (((temp_reg & RCC_BDCR_RTCSEL) == RCC_RTCCLKSOURCE_LSE) && (HAL_IS_BIT_SET(temp_reg, RCC_BDCR_LSERDY)))
 8004a9c:	4019      	ands	r1, r3
 8004a9e:	f5b1 7f81 	cmp.w	r1, #258	@ 0x102
 8004aa2:	d01e      	beq.n	8004ae2 <HAL_RCCEx_GetPeriphCLKFreq+0xa2>
      else if (((temp_reg & RCC_BDCR_RTCSEL) == RCC_RTCCLKSOURCE_LSI) && (HAL_IS_BIT_SET(RCC->CSR, RCC_CSR_LSIRDY)))
 8004aa4:	f403 7340 	and.w	r3, r3, #768	@ 0x300
 8004aa8:	f5b3 7f00 	cmp.w	r3, #512	@ 0x200
 8004aac:	d107      	bne.n	8004abe <HAL_RCCEx_GetPeriphCLKFreq+0x7e>
        frequency = LSI_VALUE;
 8004aae:	f649 4340 	movw	r3, #40000	@ 0x9c40
      else if (((temp_reg & RCC_BDCR_RTCSEL) == RCC_RTCCLKSOURCE_LSI) && (HAL_IS_BIT_SET(RCC->CSR, RCC_CSR_LSIRDY)))
 8004ab2:	6a50      	ldr	r0, [r2, #36]	@ 0x24
        frequency = LSI_VALUE;
 8004ab4:	f010 0002 	ands.w	r0, r0, #2
        frequency = HSE_VALUE / 128U;
 8004ab8:	bf18      	it	ne
 8004aba:	4618      	movne	r0, r3
}
 8004abc:	bd08      	pop	{r3, pc}
      else if (((temp_reg & RCC_BDCR_RTCSEL) == RCC_RTCCLKSOURCE_HSE_DIV128) && (HAL_IS_BIT_SET(RCC->CR, RCC_CR_HSERDY)))
 8004abe:	f5b3 7f40 	cmp.w	r3, #768	@ 0x300
 8004ac2:	d1c4      	bne.n	8004a4e <HAL_RCCEx_GetPeriphCLKFreq+0xe>
 8004ac4:	6810      	ldr	r0, [r2, #0]
        frequency = HSE_VALUE / 128U;
 8004ac6:	f24f 4324 	movw	r3, #62500	@ 0xf424
 8004aca:	f410 3000 	ands.w	r0, r0, #131072	@ 0x20000
 8004ace:	e7f3      	b.n	8004ab8 <HAL_RCCEx_GetPeriphCLKFreq+0x78>
      frequency = HAL_RCC_GetPCLK2Freq() / (((__HAL_RCC_GET_ADC_SOURCE() >> RCC_CFGR_ADCPRE_Pos) + 1) * 2);
 8004ad0:	f7ff ff2c 	bl	800492c <HAL_RCC_GetPCLK2Freq>
 8004ad4:	4b04      	ldr	r3, [pc, #16]	@ (8004ae8 <HAL_RCCEx_GetPeriphCLKFreq+0xa8>)
 8004ad6:	685b      	ldr	r3, [r3, #4]
 8004ad8:	f3c3 3381 	ubfx	r3, r3, #14, #2
 8004adc:	3301      	adds	r3, #1
 8004ade:	005b      	lsls	r3, r3, #1
 8004ae0:	e7d5      	b.n	8004a8e <HAL_RCCEx_GetPeriphCLKFreq+0x4e>
        frequency = LSE_VALUE;
 8004ae2:	f44f 4000 	mov.w	r0, #32768	@ 0x8000
 8004ae6:	e7e9      	b.n	8004abc <HAL_RCCEx_GetPeriphCLKFreq+0x7c>
 8004ae8:	40021000 	.word	0x40021000
 8004aec:	08008612 	.word	0x08008612
 8004af0:	08008610 	.word	0x08008610
 8004af4:	007a1200 	.word	0x007a1200
 8004af8:	003d0900 	.word	0x003d0900

08004afc <RTC_ReadTimeCounter>:
static uint32_t RTC_ReadTimeCounter(RTC_HandleTypeDef *hrtc)
{
  uint16_t high1 = 0U, high2 = 0U, low = 0U;
  uint32_t timecounter = 0U;

  high1 = READ_REG(hrtc->Instance->CNTH & RTC_CNTH_RTC_CNT);
 8004afc:	6803      	ldr	r3, [r0, #0]
{
 8004afe:	b530      	push	{r4, r5, lr}
  high1 = READ_REG(hrtc->Instance->CNTH & RTC_CNTH_RTC_CNT);
 8004b00:	699a      	ldr	r2, [r3, #24]
  low   = READ_REG(hrtc->Instance->CNTL & RTC_CNTL_RTC_CNT);
 8004b02:	69d8      	ldr	r0, [r3, #28]
  high2 = READ_REG(hrtc->Instance->CNTH & RTC_CNTH_RTC_CNT);
 8004b04:	6999      	ldr	r1, [r3, #24]

  if (high1 != high2)
 8004b06:	b295      	uxth	r5, r2
 8004b08:	b28c      	uxth	r4, r1
 8004b0a:	42a5      	cmp	r5, r4
  {
    /* In this case the counter roll over during reading of CNTL and CNTH registers,
       read again CNTL register then return the counter value */
    timecounter = (((uint32_t) high2 << 16U) | READ_REG(hrtc->Instance->CNTL & RTC_CNTL_RTC_CNT));
 8004b0c:	bf17      	itett	ne
 8004b0e:	69d8      	ldrne	r0, [r3, #28]
  }
  else
  {
    /* No counter roll over during reading of CNTL and CNTH registers, counter
       value is equal to first value of CNTL and CNTH */
    timecounter = (((uint32_t) high1 << 16U) | low);
 8004b10:	b280      	uxtheq	r0, r0
    timecounter = (((uint32_t) high2 << 16U) | READ_REG(hrtc->Instance->CNTL & RTC_CNTL_RTC_CNT));
 8004b12:	b280      	uxthne	r0, r0
 8004b14:	ea40 4001 	orrne.w	r0, r0, r1, lsl #16
    timecounter = (((uint32_t) high1 << 16U) | low);
 8004b18:	bf08      	it	eq
 8004b1a:	ea40 4002 	orreq.w	r0, r0, r2, lsl #16
  }

  return timecounter;
}
 8004b1e:	bd30      	pop	{r4, r5, pc}

08004b20 <RTC_ReadAlarmCounter>:
  */
static uint32_t RTC_ReadAlarmCounter(RTC_HandleTypeDef *hrtc)
{
  uint16_t high1 = 0U, low = 0U;

  high1 = READ_REG(hrtc->Instance->ALRH & RTC_CNTH_RTC_CNT);
 8004b20:	6803      	ldr	r3, [r0, #0]
 8004b22:	6a18      	ldr	r0, [r3, #32]
  low   = READ_REG(hrtc->Instance->ALRL & RTC_CNTL_RTC_CNT);
 8004b24:	6a5b      	ldr	r3, [r3, #36]	@ 0x24

  return (((uint32_t) high1 << 16U) | low);
 8004b26:	b29b      	uxth	r3, r3
}
 8004b28:	ea43 4000 	orr.w	r0, r3, r0, lsl #16
 8004b2c:	4770      	bx	lr

08004b2e <RTC_ByteToBcd2>:
  * @param  Value: Byte to be converted
  * @retval Converted byte
  */
static uint8_t RTC_ByteToBcd2(uint8_t Value)
{
  uint32_t bcdhigh = 0U;
 8004b2e:	2300      	movs	r3, #0

  while (Value >= 10U)
 8004b30:	2809      	cmp	r0, #9
 8004b32:	d803      	bhi.n	8004b3c <RTC_ByteToBcd2+0xe>
  {
    bcdhigh++;
    Value -= 10U;
  }

  return ((uint8_t)(bcdhigh << 4U) | Value);
 8004b34:	ea40 1003 	orr.w	r0, r0, r3, lsl #4
}
 8004b38:	b2c0      	uxtb	r0, r0
 8004b3a:	4770      	bx	lr
    Value -= 10U;
 8004b3c:	380a      	subs	r0, #10
    bcdhigh++;
 8004b3e:	3301      	adds	r3, #1
    Value -= 10U;
 8004b40:	b2c0      	uxtb	r0, r0
 8004b42:	e7f5      	b.n	8004b30 <RTC_ByteToBcd2+0x2>

08004b44 <RTC_Bcd2ToByte>:
  */
static uint8_t RTC_Bcd2ToByte(uint8_t Value)
{
  uint32_t tmp = 0U;
  tmp = ((uint8_t)(Value & (uint8_t)0xF0) >> (uint8_t)0x4) * 10U;
  return (tmp + (Value & (uint8_t)0x0F));
 8004b44:	220a      	movs	r2, #10
  tmp = ((uint8_t)(Value & (uint8_t)0xF0) >> (uint8_t)0x4) * 10U;
 8004b46:	0903      	lsrs	r3, r0, #4
  return (tmp + (Value & (uint8_t)0x0F));
 8004b48:	f000 000f 	and.w	r0, r0, #15
 8004b4c:	fb02 0003 	mla	r0, r2, r3, r0
}
 8004b50:	b2c0      	uxtb	r0, r0
 8004b52:	4770      	bx	lr

08004b54 <RTC_WeekDayNum>:
  *         @arg RTC_WEEKDAY_FRIDAY
  *         @arg RTC_WEEKDAY_SATURDAY
  *         @arg RTC_WEEKDAY_SUNDAY
  */
static uint8_t RTC_WeekDayNum(uint32_t nYear, uint8_t nMonth, uint8_t nDay)
{
 8004b54:	b530      	push	{r4, r5, lr}
  year = 2000U + nYear;

  if (nMonth < 3U)
  {
    /*D = { [(23 x month)/9] + day + 4 + year + [(year-1)/4] - [(year-1)/100] + [(year-1)/400] } mod 7*/
    weekday = (((23U * nMonth) / 9U) + nDay + 4U + year + ((year - 1U) / 4U) - ((year - 1U) / 100U) + ((year - 1U) / 400U)) % 7U;
 8004b56:	2517      	movs	r5, #23
 8004b58:	2309      	movs	r3, #9
 8004b5a:	434d      	muls	r5, r1
  if (nMonth < 3U)
 8004b5c:	2902      	cmp	r1, #2
    weekday = (((23U * nMonth) / 9U) + nDay + 4U + year + ((year - 1U) / 4U) - ((year - 1U) / 100U) + ((year - 1U) / 400U)) % 7U;
 8004b5e:	fbb5 f5f3 	udiv	r5, r5, r3
  year = 2000U + nYear;
 8004b62:	f500 64fa 	add.w	r4, r0, #2000	@ 0x7d0
  if (nMonth < 3U)
 8004b66:	d817      	bhi.n	8004b98 <RTC_WeekDayNum+0x44>
    weekday = (((23U * nMonth) / 9U) + nDay + 4U + year + ((year - 1U) / 4U) - ((year - 1U) / 100U) + ((year - 1U) / 400U)) % 7U;
 8004b68:	f200 73cf 	addw	r3, r0, #1999	@ 0x7cf
 8004b6c:	1d10      	adds	r0, r2, #4
 8004b6e:	f44f 72c8 	mov.w	r2, #400	@ 0x190
 8004b72:	fbb3 f2f2 	udiv	r2, r3, r2
 8004b76:	4420      	add	r0, r4
 8004b78:	4428      	add	r0, r5
 8004b7a:	eb00 0093 	add.w	r0, r0, r3, lsr #2
 8004b7e:	4410      	add	r0, r2
 8004b80:	2264      	movs	r2, #100	@ 0x64
 8004b82:	fbb3 f3f2 	udiv	r3, r3, r2
 8004b86:	1ac0      	subs	r0, r0, r3
  }
  else
  {
    /*D = { [(23 x month)/9] + day + 4 + year + [year/4] - [year/100] + [year/400] - 2 } mod 7*/
    weekday = (((23U * nMonth) / 9U) + nDay + 4U + year + (year / 4U) - (year / 100U) + (year / 400U) - 2U) % 7U;
 8004b88:	2307      	movs	r3, #7
 8004b8a:	fbb0 f3f3 	udiv	r3, r0, r3
 8004b8e:	ebc3 03c3 	rsb	r3, r3, r3, lsl #3
 8004b92:	1ac0      	subs	r0, r0, r3
  }

  return (uint8_t)weekday;
}
 8004b94:	b2c0      	uxtb	r0, r0
 8004b96:	bd30      	pop	{r4, r5, pc}
    weekday = (((23U * nMonth) / 9U) + nDay + 4U + year + (year / 4U) - (year / 100U) + (year / 400U) - 2U) % 7U;
 8004b98:	f44f 73c8 	mov.w	r3, #400	@ 0x190
 8004b9c:	fbb4 f3f3 	udiv	r3, r4, r3
 8004ba0:	1c90      	adds	r0, r2, #2
 8004ba2:	4420      	add	r0, r4
 8004ba4:	4428      	add	r0, r5
 8004ba6:	eb00 0094 	add.w	r0, r0, r4, lsr #2
 8004baa:	4418      	add	r0, r3
 8004bac:	2364      	movs	r3, #100	@ 0x64
 8004bae:	fbb4 f4f3 	udiv	r4, r4, r3
 8004bb2:	1b00      	subs	r0, r0, r4
 8004bb4:	e7e8      	b.n	8004b88 <RTC_WeekDayNum+0x34>

08004bb6 <RTC_EnterInitMode>:
{
 8004bb6:	b538      	push	{r3, r4, r5, lr}
 8004bb8:	4604      	mov	r4, r0
  tickstart = HAL_GetTick();
 8004bba:	f7fe ffc9 	bl	8003b50 <HAL_GetTick>
 8004bbe:	4605      	mov	r5, r0
  while ((hrtc->Instance->CRL & RTC_CRL_RTOFF) == (uint32_t)RESET)
 8004bc0:	6823      	ldr	r3, [r4, #0]
 8004bc2:	685a      	ldr	r2, [r3, #4]
 8004bc4:	0692      	lsls	r2, r2, #26
 8004bc6:	d505      	bpl.n	8004bd4 <RTC_EnterInitMode+0x1e>
  return HAL_OK;
 8004bc8:	2000      	movs	r0, #0
  __HAL_RTC_WRITEPROTECTION_DISABLE(hrtc);
 8004bca:	685a      	ldr	r2, [r3, #4]
 8004bcc:	f042 0210 	orr.w	r2, r2, #16
 8004bd0:	605a      	str	r2, [r3, #4]
}
 8004bd2:	bd38      	pop	{r3, r4, r5, pc}
    if ((HAL_GetTick() - tickstart) >  RTC_TIMEOUT_VALUE)
 8004bd4:	f7fe ffbc 	bl	8003b50 <HAL_GetTick>
 8004bd8:	1b40      	subs	r0, r0, r5
 8004bda:	f5b0 7f7a 	cmp.w	r0, #1000	@ 0x3e8
 8004bde:	d9ef      	bls.n	8004bc0 <RTC_EnterInitMode+0xa>
      return HAL_TIMEOUT;
 8004be0:	2003      	movs	r0, #3
 8004be2:	e7f6      	b.n	8004bd2 <RTC_EnterInitMode+0x1c>

08004be4 <RTC_ExitInitMode>:
  __HAL_RTC_WRITEPROTECTION_ENABLE(hrtc);
 8004be4:	6802      	ldr	r2, [r0, #0]
{
 8004be6:	b538      	push	{r3, r4, r5, lr}
  __HAL_RTC_WRITEPROTECTION_ENABLE(hrtc);
 8004be8:	6853      	ldr	r3, [r2, #4]
{
 8004bea:	4604      	mov	r4, r0
  __HAL_RTC_WRITEPROTECTION_ENABLE(hrtc);
 8004bec:	f023 0310 	bic.w	r3, r3, #16
 8004bf0:	6053      	str	r3, [r2, #4]
  tickstart = HAL_GetTick();
 8004bf2:	f7fe ffad 	bl	8003b50 <HAL_GetTick>
 8004bf6:	4605      	mov	r5, r0
  while ((hrtc->Instance->CRL & RTC_CRL_RTOFF) == (uint32_t)RESET)
 8004bf8:	6823      	ldr	r3, [r4, #0]
 8004bfa:	685b      	ldr	r3, [r3, #4]
 8004bfc:	069b      	lsls	r3, r3, #26
 8004bfe:	d501      	bpl.n	8004c04 <RTC_ExitInitMode+0x20>
  return HAL_OK;
 8004c00:	2000      	movs	r0, #0
}
 8004c02:	bd38      	pop	{r3, r4, r5, pc}
    if ((HAL_GetTick() - tickstart) >  RTC_TIMEOUT_VALUE)
 8004c04:	f7fe ffa4 	bl	8003b50 <HAL_GetTick>
 8004c08:	1b40      	subs	r0, r0, r5
 8004c0a:	f5b0 7f7a 	cmp.w	r0, #1000	@ 0x3e8
 8004c0e:	d9f3      	bls.n	8004bf8 <RTC_ExitInitMode+0x14>
      return HAL_TIMEOUT;
 8004c10:	2003      	movs	r0, #3
 8004c12:	e7f6      	b.n	8004c02 <RTC_ExitInitMode+0x1e>

08004c14 <RTC_WriteTimeCounter>:
{
 8004c14:	b538      	push	{r3, r4, r5, lr}
 8004c16:	4605      	mov	r5, r0
 8004c18:	460c      	mov	r4, r1
  if (RTC_EnterInitMode(hrtc) != HAL_OK)
 8004c1a:	f7ff ffcc 	bl	8004bb6 <RTC_EnterInitMode>
 8004c1e:	b958      	cbnz	r0, 8004c38 <RTC_WriteTimeCounter+0x24>
    WRITE_REG(hrtc->Instance->CNTH, (TimeCounter >> 16U));
 8004c20:	682b      	ldr	r3, [r5, #0]
 8004c22:	0c22      	lsrs	r2, r4, #16
    WRITE_REG(hrtc->Instance->CNTL, (TimeCounter & RTC_CNTL_RTC_CNT));
 8004c24:	b2a4      	uxth	r4, r4
    WRITE_REG(hrtc->Instance->CNTH, (TimeCounter >> 16U));
 8004c26:	619a      	str	r2, [r3, #24]
    if (RTC_ExitInitMode(hrtc) != HAL_OK)
 8004c28:	4628      	mov	r0, r5
    WRITE_REG(hrtc->Instance->CNTL, (TimeCounter & RTC_CNTL_RTC_CNT));
 8004c2a:	61dc      	str	r4, [r3, #28]
    if (RTC_ExitInitMode(hrtc) != HAL_OK)
 8004c2c:	f7ff ffda 	bl	8004be4 <RTC_ExitInitMode>
 8004c30:	3800      	subs	r0, #0
 8004c32:	bf18      	it	ne
 8004c34:	2001      	movne	r0, #1
}
 8004c36:	bd38      	pop	{r3, r4, r5, pc}
    status = HAL_ERROR;
 8004c38:	2001      	movs	r0, #1
 8004c3a:	e7fc      	b.n	8004c36 <RTC_WriteTimeCounter+0x22>

08004c3c <RTC_WriteAlarmCounter>:
{
 8004c3c:	b538      	push	{r3, r4, r5, lr}
 8004c3e:	4605      	mov	r5, r0
 8004c40:	460c      	mov	r4, r1
  if (RTC_EnterInitMode(hrtc) != HAL_OK)
 8004c42:	f7ff ffb8 	bl	8004bb6 <RTC_EnterInitMode>
 8004c46:	b958      	cbnz	r0, 8004c60 <RTC_WriteAlarmCounter+0x24>
    WRITE_REG(hrtc->Instance->ALRH, (AlarmCounter >> 16U));
 8004c48:	682b      	ldr	r3, [r5, #0]
 8004c4a:	0c22      	lsrs	r2, r4, #16
    WRITE_REG(hrtc->Instance->ALRL, (AlarmCounter & RTC_ALRL_RTC_ALR));
 8004c4c:	b2a4      	uxth	r4, r4
    WRITE_REG(hrtc->Instance->ALRH, (AlarmCounter >> 16U));
 8004c4e:	621a      	str	r2, [r3, #32]
    if (RTC_ExitInitMode(hrtc) != HAL_OK)
 8004c50:	4628      	mov	r0, r5
    WRITE_REG(hrtc->Instance->ALRL, (AlarmCounter & RTC_ALRL_RTC_ALR));
 8004c52:	625c      	str	r4, [r3, #36]	@ 0x24
    if (RTC_ExitInitMode(hrtc) != HAL_OK)
 8004c54:	f7ff ffc6 	bl	8004be4 <RTC_ExitInitMode>
 8004c58:	3800      	subs	r0, #0
 8004c5a:	bf18      	it	ne
 8004c5c:	2001      	movne	r0, #1
}
 8004c5e:	bd38      	pop	{r3, r4, r5, pc}
    status = HAL_ERROR;
 8004c60:	2001      	movs	r0, #1
 8004c62:	e7fc      	b.n	8004c5e <RTC_WriteAlarmCounter+0x22>

08004c64 <HAL_RTC_SetTime>:
{
 8004c64:	b5f8      	push	{r3, r4, r5, r6, r7, lr}
  if ((hrtc == NULL) || (sTime == NULL))
 8004c66:	4604      	mov	r4, r0
 8004c68:	b1e8      	cbz	r0, 8004ca6 <HAL_RTC_SetTime+0x42>
 8004c6a:	b1e1      	cbz	r1, 8004ca6 <HAL_RTC_SetTime+0x42>
  __HAL_LOCK(hrtc);
 8004c6c:	7c03      	ldrb	r3, [r0, #16]
 8004c6e:	2602      	movs	r6, #2
 8004c70:	2b01      	cmp	r3, #1
 8004c72:	d019      	beq.n	8004ca8 <HAL_RTC_SetTime+0x44>
 8004c74:	2301      	movs	r3, #1
  hrtc->State = HAL_RTC_STATE_BUSY;
 8004c76:	7446      	strb	r6, [r0, #17]
  __HAL_LOCK(hrtc);
 8004c78:	7403      	strb	r3, [r0, #16]
    counter_time = (uint32_t)(((uint32_t)sTime->Hours * 3600U) + \
 8004c7a:	7808      	ldrb	r0, [r1, #0]
                              ((uint32_t)sTime->Minutes * 60U) + \
 8004c7c:	784d      	ldrb	r5, [r1, #1]
                              ((uint32_t)sTime->Seconds));
 8004c7e:	788f      	ldrb	r7, [r1, #2]
  if (Format == RTC_FORMAT_BIN)
 8004c80:	b9a2      	cbnz	r2, 8004cac <HAL_RTC_SetTime+0x48>
                              ((uint32_t)sTime->Minutes * 60U) + \
 8004c82:	233c      	movs	r3, #60	@ 0x3c
 8004c84:	435d      	muls	r5, r3
    counter_time = (uint32_t)(((uint32_t)sTime->Hours * 3600U) + \
 8004c86:	f44f 6361 	mov.w	r3, #3600	@ 0xe10
 8004c8a:	fb03 5500 	mla	r5, r3, r0, r5
 8004c8e:	443d      	add	r5, r7
  if (RTC_WriteTimeCounter(hrtc, counter_time) != HAL_OK)
 8004c90:	4629      	mov	r1, r5
 8004c92:	4620      	mov	r0, r4
 8004c94:	f7ff ffbe 	bl	8004c14 <RTC_WriteTimeCounter>
 8004c98:	4607      	mov	r7, r0
 8004c9a:	4606      	mov	r6, r0
 8004c9c:	b1c0      	cbz	r0, 8004cd0 <HAL_RTC_SetTime+0x6c>
    hrtc->State = HAL_RTC_STATE_ERROR;
 8004c9e:	2304      	movs	r3, #4
 8004ca0:	7463      	strb	r3, [r4, #17]
    __HAL_UNLOCK(hrtc);
 8004ca2:	2300      	movs	r3, #0
 8004ca4:	7423      	strb	r3, [r4, #16]
    return HAL_ERROR;
 8004ca6:	2601      	movs	r6, #1
}
 8004ca8:	4630      	mov	r0, r6
 8004caa:	bdf8      	pop	{r3, r4, r5, r6, r7, pc}
    counter_time = (((uint32_t)(RTC_Bcd2ToByte(sTime->Hours)) * 3600U) + \
 8004cac:	f7ff ff4a 	bl	8004b44 <RTC_Bcd2ToByte>
 8004cb0:	4606      	mov	r6, r0
                    ((uint32_t)(RTC_Bcd2ToByte(sTime->Minutes)) * 60U) + \
 8004cb2:	4628      	mov	r0, r5
 8004cb4:	f7ff ff46 	bl	8004b44 <RTC_Bcd2ToByte>
 8004cb8:	233c      	movs	r3, #60	@ 0x3c
 8004cba:	fb03 f100 	mul.w	r1, r3, r0
    counter_time = (((uint32_t)(RTC_Bcd2ToByte(sTime->Hours)) * 3600U) + \
 8004cbe:	f44f 6361 	mov.w	r3, #3600	@ 0xe10
                    ((uint32_t)(RTC_Bcd2ToByte(sTime->Seconds))));
 8004cc2:	4638      	mov	r0, r7
    counter_time = (((uint32_t)(RTC_Bcd2ToByte(sTime->Hours)) * 3600U) + \
 8004cc4:	fb03 1106 	mla	r1, r3, r6, r1
                    ((uint32_t)(RTC_Bcd2ToByte(sTime->Seconds))));
 8004cc8:	f7ff ff3c 	bl	8004b44 <RTC_Bcd2ToByte>
    counter_time = (((uint32_t)(RTC_Bcd2ToByte(sTime->Hours)) * 3600U) + \
 8004ccc:	1845      	adds	r5, r0, r1
 8004cce:	e7df      	b.n	8004c90 <HAL_RTC_SetTime+0x2c>
    CLEAR_BIT(hrtc->Instance->CRL, (RTC_FLAG_SEC | RTC_FLAG_OW));
 8004cd0:	6822      	ldr	r2, [r4, #0]
    counter_alarm = RTC_ReadAlarmCounter(hrtc);
 8004cd2:	4620      	mov	r0, r4
    CLEAR_BIT(hrtc->Instance->CRL, (RTC_FLAG_SEC | RTC_FLAG_OW));
 8004cd4:	6853      	ldr	r3, [r2, #4]
 8004cd6:	f023 0305 	bic.w	r3, r3, #5
 8004cda:	6053      	str	r3, [r2, #4]
    counter_alarm = RTC_ReadAlarmCounter(hrtc);
 8004cdc:	f7ff ff20 	bl	8004b20 <RTC_ReadAlarmCounter>
      if (counter_alarm < counter_time)
 8004ce0:	4285      	cmp	r5, r0
 8004ce2:	d90b      	bls.n	8004cfc <HAL_RTC_SetTime+0x98>
        if (RTC_WriteAlarmCounter(hrtc, counter_alarm) != HAL_OK)
 8004ce4:	f500 31a8 	add.w	r1, r0, #86016	@ 0x15000
 8004ce8:	f501 71c0 	add.w	r1, r1, #384	@ 0x180
 8004cec:	4620      	mov	r0, r4
 8004cee:	f7ff ffa5 	bl	8004c3c <RTC_WriteAlarmCounter>
 8004cf2:	b118      	cbz	r0, 8004cfc <HAL_RTC_SetTime+0x98>
          hrtc->State = HAL_RTC_STATE_ERROR;
 8004cf4:	2304      	movs	r3, #4
          __HAL_UNLOCK(hrtc);
 8004cf6:	7427      	strb	r7, [r4, #16]
          hrtc->State = HAL_RTC_STATE_ERROR;
 8004cf8:	7463      	strb	r3, [r4, #17]
          return HAL_ERROR;
 8004cfa:	e7d4      	b.n	8004ca6 <HAL_RTC_SetTime+0x42>
    hrtc->State = HAL_RTC_STATE_READY;
 8004cfc:	2301      	movs	r3, #1
 8004cfe:	7463      	strb	r3, [r4, #17]
    __HAL_UNLOCK(hrtc);
 8004d00:	2300      	movs	r3, #0
 8004d02:	7423      	strb	r3, [r4, #16]
    return HAL_OK;
 8004d04:	e7d0      	b.n	8004ca8 <HAL_RTC_SetTime+0x44>
	...

08004d08 <HAL_RTC_GetTime>:
{
 8004d08:	e92d 47f0 	stmdb	sp!, {r4, r5, r6, r7, r8, r9, sl, lr}
 8004d0c:	460e      	mov	r6, r1
 8004d0e:	4617      	mov	r7, r2
  if ((hrtc == NULL) || (sTime == NULL))
 8004d10:	4605      	mov	r5, r0
 8004d12:	b910      	cbnz	r0, 8004d1a <HAL_RTC_GetTime+0x12>
    return HAL_ERROR;
 8004d14:	2001      	movs	r0, #1
}
 8004d16:	e8bd 87f0 	ldmia.w	sp!, {r4, r5, r6, r7, r8, r9, sl, pc}
  if ((hrtc == NULL) || (sTime == NULL))
 8004d1a:	2900      	cmp	r1, #0
 8004d1c:	d0fa      	beq.n	8004d14 <HAL_RTC_GetTime+0xc>
  if (__HAL_RTC_OVERFLOW_GET_FLAG(hrtc, RTC_FLAG_OW))
 8004d1e:	6803      	ldr	r3, [r0, #0]
 8004d20:	685b      	ldr	r3, [r3, #4]
 8004d22:	f013 0804 	ands.w	r8, r3, #4
 8004d26:	d1f5      	bne.n	8004d14 <HAL_RTC_GetTime+0xc>
  counter_time = RTC_ReadTimeCounter(hrtc);
 8004d28:	f7ff fee8 	bl	8004afc <RTC_ReadTimeCounter>
  hours = counter_time / 3600U;
 8004d2c:	f44f 6361 	mov.w	r3, #3600	@ 0xe10
 8004d30:	fbb0 f2f3 	udiv	r2, r0, r3
  counter_time = RTC_ReadTimeCounter(hrtc);
 8004d34:	4604      	mov	r4, r0
  sTime->Minutes  = (uint8_t)((counter_time % 3600U) / 60U);
 8004d36:	fb03 0312 	mls	r3, r3, r2, r0
 8004d3a:	203c      	movs	r0, #60	@ 0x3c
 8004d3c:	fbb3 f1f0 	udiv	r1, r3, r0
  sTime->Seconds  = (uint8_t)((counter_time % 3600U) % 60U);
 8004d40:	fb00 3311 	mls	r3, r0, r1, r3
 8004d44:	70b3      	strb	r3, [r6, #2]
  if (hours >= 24U)
 8004d46:	4b48      	ldr	r3, [pc, #288]	@ (8004e68 <HAL_RTC_GetTime+0x160>)
  sTime->Minutes  = (uint8_t)((counter_time % 3600U) / 60U);
 8004d48:	7071      	strb	r1, [r6, #1]
  if (hours >= 24U)
 8004d4a:	429c      	cmp	r4, r3
 8004d4c:	d97c      	bls.n	8004e48 <HAL_RTC_GetTime+0x140>
    days_elapsed = (hours / 24U);
 8004d4e:	2318      	movs	r3, #24
 8004d50:	fbb2 f9f3 	udiv	r9, r2, r3
    sTime->Hours = (hours % 24U);
 8004d54:	fb03 2219 	mls	r2, r3, r9, r2
    counter_alarm = RTC_ReadAlarmCounter(hrtc);
 8004d58:	4628      	mov	r0, r5
    sTime->Hours = (hours % 24U);
 8004d5a:	7032      	strb	r2, [r6, #0]
    counter_alarm = RTC_ReadAlarmCounter(hrtc);
 8004d5c:	f7ff fee0 	bl	8004b20 <RTC_ReadAlarmCounter>
    if ((counter_alarm != RTC_ALARM_RESETVALUE) && (counter_alarm > counter_time))
 8004d60:	f1b0 3fff 	cmp.w	r0, #4294967295
    counter_alarm = RTC_ReadAlarmCounter(hrtc);
 8004d64:	4682      	mov	sl, r0
    if ((counter_alarm != RTC_ALARM_RESETVALUE) && (counter_alarm > counter_time))
 8004d66:	d005      	beq.n	8004d74 <HAL_RTC_GetTime+0x6c>
 8004d68:	4284      	cmp	r4, r0
      counter_alarm = RTC_ALARM_RESETVALUE;
 8004d6a:	bf2c      	ite	cs
 8004d6c:	f04f 3aff 	movcs.w	sl, #4294967295
      counter_alarm -= counter_time;
 8004d70:	eba0 0a04 	subcc.w	sl, r0, r4
    counter_time -= (days_elapsed * 24U * 3600U);
 8004d74:	4b3d      	ldr	r3, [pc, #244]	@ (8004e6c <HAL_RTC_GetTime+0x164>)
    if (RTC_WriteTimeCounter(hrtc, counter_time) != HAL_OK)
 8004d76:	4628      	mov	r0, r5
    counter_time -= (days_elapsed * 24U * 3600U);
 8004d78:	fb03 4419 	mls	r4, r3, r9, r4
    if (RTC_WriteTimeCounter(hrtc, counter_time) != HAL_OK)
 8004d7c:	4621      	mov	r1, r4
 8004d7e:	f7ff ff49 	bl	8004c14 <RTC_WriteTimeCounter>
 8004d82:	2800      	cmp	r0, #0
 8004d84:	d1c6      	bne.n	8004d14 <HAL_RTC_GetTime+0xc>
    if (counter_alarm != RTC_ALARM_RESETVALUE)
 8004d86:	f1ba 3fff 	cmp.w	sl, #4294967295
 8004d8a:	d028      	beq.n	8004dde <HAL_RTC_GetTime+0xd6>
      if (RTC_WriteAlarmCounter(hrtc, counter_alarm) != HAL_OK)
 8004d8c:	eb0a 0104 	add.w	r1, sl, r4
      if (RTC_WriteAlarmCounter(hrtc, counter_alarm) != HAL_OK)
 8004d90:	4628      	mov	r0, r5
 8004d92:	f7ff ff53 	bl	8004c3c <RTC_WriteAlarmCounter>
 8004d96:	2800      	cmp	r0, #0
 8004d98:	d1bc      	bne.n	8004d14 <HAL_RTC_GetTime+0xc>
  year = hrtc->DateToUpdate.Year;
 8004d9a:	2101      	movs	r1, #1
 8004d9c:	f241 5caa 	movw	ip, #5546	@ 0x15aa
 8004da0:	7be8      	ldrb	r0, [r5, #15]
  month = hrtc->DateToUpdate.Month;
 8004da2:	7b6c      	ldrb	r4, [r5, #13]
  day = hrtc->DateToUpdate.Date;
 8004da4:	7bab      	ldrb	r3, [r5, #14]
    if ((month == 1U) || (month == 3U) || (month == 5U) || (month == 7U) || \
 8004da6:	2c0c      	cmp	r4, #12
 8004da8:	d809      	bhi.n	8004dbe <HAL_RTC_GetTime+0xb6>
 8004daa:	fa01 f204 	lsl.w	r2, r1, r4
 8004dae:	ea12 0f0c 	tst.w	r2, ip
 8004db2:	d116      	bne.n	8004de2 <HAL_RTC_GetTime+0xda>
 8004db4:	f412 6f25 	tst.w	r2, #2640	@ 0xa50
 8004db8:	d120      	bne.n	8004dfc <HAL_RTC_GetTime+0xf4>
 8004dba:	2c02      	cmp	r4, #2
 8004dbc:	d021      	beq.n	8004e02 <HAL_RTC_GetTime+0xfa>
  for (loop = 0U; loop < DayElapsed; loop++)
 8004dbe:	f108 0801 	add.w	r8, r8, #1
 8004dc2:	45c1      	cmp	r9, r8
 8004dc4:	d1ef      	bne.n	8004da6 <HAL_RTC_GetTime+0x9e>
  hrtc->DateToUpdate.Month = month;
 8004dc6:	b2e1      	uxtb	r1, r4
  hrtc->DateToUpdate.Date = day;
 8004dc8:	b2da      	uxtb	r2, r3
  hrtc->DateToUpdate.Year = year;
 8004dca:	73e8      	strb	r0, [r5, #15]
  hrtc->DateToUpdate.Month = month;
 8004dcc:	7369      	strb	r1, [r5, #13]
  hrtc->DateToUpdate.Date = day;
 8004dce:	73aa      	strb	r2, [r5, #14]
  hrtc->DateToUpdate.WeekDay = RTC_WeekDayNum(year, month, day);
 8004dd0:	f7ff fec0 	bl	8004b54 <RTC_WeekDayNum>
 8004dd4:	7328      	strb	r0, [r5, #12]
  if (Format != RTC_FORMAT_BIN)
 8004dd6:	2f00      	cmp	r7, #0
 8004dd8:	d138      	bne.n	8004e4c <HAL_RTC_GetTime+0x144>
  return HAL_OK;
 8004dda:	2000      	movs	r0, #0
 8004ddc:	e79b      	b.n	8004d16 <HAL_RTC_GetTime+0xe>
      if (RTC_WriteAlarmCounter(hrtc, counter_alarm) != HAL_OK)
 8004dde:	4651      	mov	r1, sl
 8004de0:	e7d6      	b.n	8004d90 <HAL_RTC_GetTime+0x88>
      if (day < 31U)
 8004de2:	2b1e      	cmp	r3, #30
 8004de4:	d801      	bhi.n	8004dea <HAL_RTC_GetTime+0xe2>
        day++;
 8004de6:	3301      	adds	r3, #1
 8004de8:	e7e9      	b.n	8004dbe <HAL_RTC_GetTime+0xb6>
        if (month != 12U)
 8004dea:	2c0c      	cmp	r4, #12
 8004dec:	d002      	beq.n	8004df4 <HAL_RTC_GetTime+0xec>
        day = 1U;
 8004dee:	2301      	movs	r3, #1
        month++;
 8004df0:	3401      	adds	r4, #1
        day = 1U;
 8004df2:	e7e4      	b.n	8004dbe <HAL_RTC_GetTime+0xb6>
          day = 1U;
 8004df4:	2301      	movs	r3, #1
          year++;
 8004df6:	3001      	adds	r0, #1
          month = 1U;
 8004df8:	461c      	mov	r4, r3
 8004dfa:	e7e0      	b.n	8004dbe <HAL_RTC_GetTime+0xb6>
      if (day < 30U)
 8004dfc:	2b1d      	cmp	r3, #29
 8004dfe:	d8f6      	bhi.n	8004dee <HAL_RTC_GetTime+0xe6>
 8004e00:	e7f1      	b.n	8004de6 <HAL_RTC_GetTime+0xde>
      if (day < 28U)
 8004e02:	2b1b      	cmp	r3, #27
 8004e04:	d9ef      	bls.n	8004de6 <HAL_RTC_GetTime+0xde>
      else if (day == 28U)
 8004e06:	2b1c      	cmp	r3, #28
 8004e08:	d117      	bne.n	8004e3a <HAL_RTC_GetTime+0x132>
  if ((nYear % 4U) != 0U)
 8004e0a:	0782      	lsls	r2, r0, #30
        if (RTC_IsLeapYear(year))
 8004e0c:	b283      	uxth	r3, r0
  if ((nYear % 4U) != 0U)
 8004e0e:	d116      	bne.n	8004e3e <HAL_RTC_GetTime+0x136>
  if ((nYear % 100U) != 0U)
 8004e10:	f04f 0e64 	mov.w	lr, #100	@ 0x64
 8004e14:	fbb3 f2fe 	udiv	r2, r3, lr
 8004e18:	fb0e 3212 	mls	r2, lr, r2, r3
 8004e1c:	b292      	uxth	r2, r2
 8004e1e:	b98a      	cbnz	r2, 8004e44 <HAL_RTC_GetTime+0x13c>
  if ((nYear % 400U) == 0U)
 8004e20:	f44f 72c8 	mov.w	r2, #400	@ 0x190
 8004e24:	fbb3 fef2 	udiv	lr, r3, r2
 8004e28:	fb02 331e 	mls	r3, r2, lr, r3
 8004e2c:	b29b      	uxth	r3, r3
          day = 1U;
 8004e2e:	2b00      	cmp	r3, #0
 8004e30:	bf0e      	itee	eq
 8004e32:	231d      	moveq	r3, #29
 8004e34:	2301      	movne	r3, #1
 8004e36:	2403      	movne	r4, #3
 8004e38:	e7c1      	b.n	8004dbe <HAL_RTC_GetTime+0xb6>
      else if (day == 29U)
 8004e3a:	2b1d      	cmp	r3, #29
 8004e3c:	d1bf      	bne.n	8004dbe <HAL_RTC_GetTime+0xb6>
          day = 1U;
 8004e3e:	2301      	movs	r3, #1
          month++;
 8004e40:	2403      	movs	r4, #3
 8004e42:	e7bc      	b.n	8004dbe <HAL_RTC_GetTime+0xb6>
          day++;
 8004e44:	231d      	movs	r3, #29
 8004e46:	e7ba      	b.n	8004dbe <HAL_RTC_GetTime+0xb6>
    sTime->Hours = hours;
 8004e48:	7032      	strb	r2, [r6, #0]
 8004e4a:	e7c4      	b.n	8004dd6 <HAL_RTC_GetTime+0xce>
    sTime->Hours    = (uint8_t)RTC_ByteToBcd2(sTime->Hours);
 8004e4c:	7830      	ldrb	r0, [r6, #0]
 8004e4e:	f7ff fe6e 	bl	8004b2e <RTC_ByteToBcd2>
 8004e52:	7030      	strb	r0, [r6, #0]
    sTime->Minutes  = (uint8_t)RTC_ByteToBcd2(sTime->Minutes);
 8004e54:	7870      	ldrb	r0, [r6, #1]
 8004e56:	f7ff fe6a 	bl	8004b2e <RTC_ByteToBcd2>
 8004e5a:	7070      	strb	r0, [r6, #1]
    sTime->Seconds  = (uint8_t)RTC_ByteToBcd2(sTime->Seconds);
 8004e5c:	78b0      	ldrb	r0, [r6, #2]
 8004e5e:	f7ff fe66 	bl	8004b2e <RTC_ByteToBcd2>
 8004e62:	70b0      	strb	r0, [r6, #2]
 8004e64:	e7b9      	b.n	8004dda <HAL_RTC_GetTime+0xd2>
 8004e66:	bf00      	nop
 8004e68:	0001517f 	.word	0x0001517f
 8004e6c:	00015180 	.word	0x00015180

08004e70 <HAL_RTC_SetDate>:
{
 8004e70:	b570      	push	{r4, r5, r6, lr}
 8004e72:	460d      	mov	r5, r1
  if ((hrtc == NULL) || (sDate == NULL))
 8004e74:	4604      	mov	r4, r0
 8004e76:	b348      	cbz	r0, 8004ecc <HAL_RTC_SetDate+0x5c>
 8004e78:	b341      	cbz	r1, 8004ecc <HAL_RTC_SetDate+0x5c>
  __HAL_LOCK(hrtc);
 8004e7a:	7c03      	ldrb	r3, [r0, #16]
 8004e7c:	2002      	movs	r0, #2
 8004e7e:	2b01      	cmp	r3, #1
 8004e80:	d025      	beq.n	8004ece <HAL_RTC_SetDate+0x5e>
 8004e82:	2301      	movs	r3, #1
  hrtc->State = HAL_RTC_STATE_BUSY;
 8004e84:	7460      	strb	r0, [r4, #17]
  __HAL_LOCK(hrtc);
 8004e86:	7423      	strb	r3, [r4, #16]
  if (Format == RTC_FORMAT_BIN)
 8004e88:	78c8      	ldrb	r0, [r1, #3]
 8004e8a:	bb0a      	cbnz	r2, 8004ed0 <HAL_RTC_SetDate+0x60>
    hrtc->DateToUpdate.Year  = sDate->Year;
 8004e8c:	73e0      	strb	r0, [r4, #15]
    hrtc->DateToUpdate.Month = sDate->Month;
 8004e8e:	784b      	ldrb	r3, [r1, #1]
 8004e90:	7363      	strb	r3, [r4, #13]
    hrtc->DateToUpdate.Date  = sDate->Date;
 8004e92:	788a      	ldrb	r2, [r1, #2]
  hrtc->DateToUpdate.WeekDay = RTC_WeekDayNum(hrtc->DateToUpdate.Year, hrtc->DateToUpdate.Month, hrtc->DateToUpdate.Date);
 8004e94:	7b61      	ldrb	r1, [r4, #13]
 8004e96:	7be0      	ldrb	r0, [r4, #15]
    hrtc->DateToUpdate.Date  = sDate->Date;
 8004e98:	73a2      	strb	r2, [r4, #14]
  hrtc->DateToUpdate.WeekDay = RTC_WeekDayNum(hrtc->DateToUpdate.Year, hrtc->DateToUpdate.Month, hrtc->DateToUpdate.Date);
 8004e9a:	f7ff fe5b 	bl	8004b54 <RTC_WeekDayNum>
 8004e9e:	7320      	strb	r0, [r4, #12]
  sDate->WeekDay = hrtc->DateToUpdate.WeekDay;
 8004ea0:	7028      	strb	r0, [r5, #0]
  counter_time = RTC_ReadTimeCounter(hrtc);
 8004ea2:	4620      	mov	r0, r4
 8004ea4:	f7ff fe2a 	bl	8004afc <RTC_ReadTimeCounter>
  if (hours > 24U)
 8004ea8:	4b1a      	ldr	r3, [pc, #104]	@ (8004f14 <HAL_RTC_SetDate+0xa4>)
 8004eaa:	4298      	cmp	r0, r3
 8004eac:	d92d      	bls.n	8004f0a <HAL_RTC_SetDate+0x9a>
    counter_time -= ((hours / 24U) * 24U * 3600U);
 8004eae:	4d1a      	ldr	r5, [pc, #104]	@ (8004f18 <HAL_RTC_SetDate+0xa8>)
 8004eb0:	fbb0 f2f5 	udiv	r2, r0, r5
 8004eb4:	fb05 0512 	mls	r5, r5, r2, r0
    if (RTC_WriteTimeCounter(hrtc, counter_time) != HAL_OK)
 8004eb8:	4620      	mov	r0, r4
 8004eba:	4629      	mov	r1, r5
 8004ebc:	f7ff feaa 	bl	8004c14 <RTC_WriteTimeCounter>
 8004ec0:	4606      	mov	r6, r0
 8004ec2:	b188      	cbz	r0, 8004ee8 <HAL_RTC_SetDate+0x78>
      hrtc->State = HAL_RTC_STATE_ERROR;
 8004ec4:	2304      	movs	r3, #4
 8004ec6:	7463      	strb	r3, [r4, #17]
      __HAL_UNLOCK(hrtc);
 8004ec8:	2300      	movs	r3, #0
 8004eca:	7423      	strb	r3, [r4, #16]
    return HAL_ERROR;
 8004ecc:	2001      	movs	r0, #1
}
 8004ece:	bd70      	pop	{r4, r5, r6, pc}
    hrtc->DateToUpdate.Year  = RTC_Bcd2ToByte(sDate->Year);
 8004ed0:	f7ff fe38 	bl	8004b44 <RTC_Bcd2ToByte>
 8004ed4:	73e0      	strb	r0, [r4, #15]
    hrtc->DateToUpdate.Month = RTC_Bcd2ToByte(sDate->Month);
 8004ed6:	7848      	ldrb	r0, [r1, #1]
 8004ed8:	f7ff fe34 	bl	8004b44 <RTC_Bcd2ToByte>
 8004edc:	7360      	strb	r0, [r4, #13]
    hrtc->DateToUpdate.Date  = RTC_Bcd2ToByte(sDate->Date);
 8004ede:	7888      	ldrb	r0, [r1, #2]
 8004ee0:	f7ff fe30 	bl	8004b44 <RTC_Bcd2ToByte>
 8004ee4:	4602      	mov	r2, r0
 8004ee6:	e7d5      	b.n	8004e94 <HAL_RTC_SetDate+0x24>
    counter_alarm = RTC_ReadAlarmCounter(hrtc);
 8004ee8:	4620      	mov	r0, r4
 8004eea:	f7ff fe19 	bl	8004b20 <RTC_ReadAlarmCounter>
      if (counter_alarm < counter_time)
 8004eee:	4285      	cmp	r5, r0
 8004ef0:	d90b      	bls.n	8004f0a <HAL_RTC_SetDate+0x9a>
        if (RTC_WriteAlarmCounter(hrtc, counter_alarm) != HAL_OK)
 8004ef2:	f500 31a8 	add.w	r1, r0, #86016	@ 0x15000
 8004ef6:	f501 71c0 	add.w	r1, r1, #384	@ 0x180
 8004efa:	4620      	mov	r0, r4
 8004efc:	f7ff fe9e 	bl	8004c3c <RTC_WriteAlarmCounter>
 8004f00:	b118      	cbz	r0, 8004f0a <HAL_RTC_SetDate+0x9a>
          hrtc->State = HAL_RTC_STATE_ERROR;
 8004f02:	2304      	movs	r3, #4
          __HAL_UNLOCK(hrtc);
 8004f04:	7426      	strb	r6, [r4, #16]
          hrtc->State = HAL_RTC_STATE_ERROR;
 8004f06:	7463      	strb	r3, [r4, #17]
          return HAL_ERROR;
 8004f08:	e7e0      	b.n	8004ecc <HAL_RTC_SetDate+0x5c>
  hrtc->State = HAL_RTC_STATE_READY ;
 8004f0a:	2301      	movs	r3, #1
  __HAL_UNLOCK(hrtc);
 8004f0c:	2000      	movs	r0, #0
  hrtc->State = HAL_RTC_STATE_READY ;
 8004f0e:	7463      	strb	r3, [r4, #17]
  __HAL_UNLOCK(hrtc);
 8004f10:	7420      	strb	r0, [r4, #16]
  return HAL_OK;
 8004f12:	e7dc      	b.n	8004ece <HAL_RTC_SetDate+0x5e>
 8004f14:	00015f8f 	.word	0x00015f8f
 8004f18:	00015180 	.word	0x00015180

08004f1c <HAL_RTC_GetDate>:
{
 8004f1c:	b5f7      	push	{r0, r1, r2, r4, r5, r6, r7, lr}
 8004f1e:	4616      	mov	r6, r2
  RTC_TimeTypeDef stime = {0U};
 8004f20:	2200      	movs	r2, #0
{
 8004f22:	460c      	mov	r4, r1
  if ((hrtc == NULL) || (sDate == NULL))
 8004f24:	4605      	mov	r5, r0
  RTC_TimeTypeDef stime = {0U};
 8004f26:	f8ad 2004 	strh.w	r2, [sp, #4]
 8004f2a:	f88d 2006 	strb.w	r2, [sp, #6]
  if ((hrtc == NULL) || (sDate == NULL))
 8004f2e:	b918      	cbnz	r0, 8004f38 <HAL_RTC_GetDate+0x1c>
    return HAL_ERROR;
 8004f30:	2101      	movs	r1, #1
}
 8004f32:	4608      	mov	r0, r1
 8004f34:	b003      	add	sp, #12
 8004f36:	bdf0      	pop	{r4, r5, r6, r7, pc}
  if ((hrtc == NULL) || (sDate == NULL))
 8004f38:	2900      	cmp	r1, #0
 8004f3a:	d0f9      	beq.n	8004f30 <HAL_RTC_GetDate+0x14>
  if (HAL_RTC_GetTime(hrtc, &stime, RTC_FORMAT_BIN) != HAL_OK)
 8004f3c:	a901      	add	r1, sp, #4
 8004f3e:	f7ff fee3 	bl	8004d08 <HAL_RTC_GetTime>
 8004f42:	4601      	mov	r1, r0
 8004f44:	2800      	cmp	r0, #0
 8004f46:	d1f3      	bne.n	8004f30 <HAL_RTC_GetDate+0x14>
  sDate->WeekDay  = hrtc->DateToUpdate.WeekDay;
 8004f48:	7b2b      	ldrb	r3, [r5, #12]
 8004f4a:	7023      	strb	r3, [r4, #0]
  sDate->Year     = hrtc->DateToUpdate.Year;
 8004f4c:	7be8      	ldrb	r0, [r5, #15]
 8004f4e:	70e0      	strb	r0, [r4, #3]
  sDate->Month    = hrtc->DateToUpdate.Month;
 8004f50:	7b6f      	ldrb	r7, [r5, #13]
 8004f52:	7067      	strb	r7, [r4, #1]
  sDate->Date     = hrtc->DateToUpdate.Date;
 8004f54:	7baa      	ldrb	r2, [r5, #14]
 8004f56:	70a2      	strb	r2, [r4, #2]
  if (Format != RTC_FORMAT_BIN)
 8004f58:	2e00      	cmp	r6, #0
 8004f5a:	d0ea      	beq.n	8004f32 <HAL_RTC_GetDate+0x16>
    sDate->Year   = (uint8_t)RTC_ByteToBcd2(sDate->Year);
 8004f5c:	f7ff fde7 	bl	8004b2e <RTC_ByteToBcd2>
 8004f60:	70e0      	strb	r0, [r4, #3]
    sDate->Month  = (uint8_t)RTC_ByteToBcd2(sDate->Month);
 8004f62:	4638      	mov	r0, r7
 8004f64:	f7ff fde3 	bl	8004b2e <RTC_ByteToBcd2>
 8004f68:	7060      	strb	r0, [r4, #1]
    sDate->Date   = (uint8_t)RTC_ByteToBcd2(sDate->Date);
 8004f6a:	4610      	mov	r0, r2
 8004f6c:	f7ff fddf 	bl	8004b2e <RTC_ByteToBcd2>
 8004f70:	70a0      	strb	r0, [r4, #2]
 8004f72:	e7de      	b.n	8004f32 <HAL_RTC_GetDate+0x16>

08004f74 <HAL_RTC_WaitForSynchro>:
{
 8004f74:	b538      	push	{r3, r4, r5, lr}
  if (hrtc == NULL)
 8004f76:	4604      	mov	r4, r0
 8004f78:	b1a8      	cbz	r0, 8004fa6 <HAL_RTC_WaitForSynchro+0x32>
  CLEAR_BIT(hrtc->Instance->CRL, RTC_FLAG_RSF);
 8004f7a:	6802      	ldr	r2, [r0, #0]
 8004f7c:	6853      	ldr	r3, [r2, #4]
 8004f7e:	f023 0308 	bic.w	r3, r3, #8
 8004f82:	6053      	str	r3, [r2, #4]
  tickstart = HAL_GetTick();
 8004f84:	f7fe fde4 	bl	8003b50 <HAL_GetTick>
 8004f88:	4605      	mov	r5, r0
  while ((hrtc->Instance->CRL & RTC_FLAG_RSF) == (uint32_t)RESET)
 8004f8a:	6823      	ldr	r3, [r4, #0]
 8004f8c:	685b      	ldr	r3, [r3, #4]
 8004f8e:	071b      	lsls	r3, r3, #28
 8004f90:	d501      	bpl.n	8004f96 <HAL_RTC_WaitForSynchro+0x22>
  return HAL_OK;
 8004f92:	2000      	movs	r0, #0
}
 8004f94:	bd38      	pop	{r3, r4, r5, pc}
    if ((HAL_GetTick() - tickstart) >  RTC_TIMEOUT_VALUE)
 8004f96:	f7fe fddb 	bl	8003b50 <HAL_GetTick>
 8004f9a:	1b40      	subs	r0, r0, r5
 8004f9c:	f5b0 7f7a 	cmp.w	r0, #1000	@ 0x3e8
 8004fa0:	d9f3      	bls.n	8004f8a <HAL_RTC_WaitForSynchro+0x16>
      return HAL_TIMEOUT;
 8004fa2:	2003      	movs	r0, #3
 8004fa4:	e7f6      	b.n	8004f94 <HAL_RTC_WaitForSynchro+0x20>
    return HAL_ERROR;
 8004fa6:	2001      	movs	r0, #1
 8004fa8:	e7f4      	b.n	8004f94 <HAL_RTC_WaitForSynchro+0x20>
	...

08004fac <HAL_RTC_Init>:
{
 8004fac:	b510      	push	{r4, lr}
  if (hrtc == NULL)
 8004fae:	4604      	mov	r4, r0
 8004fb0:	b170      	cbz	r0, 8004fd0 <HAL_RTC_Init+0x24>
  if (hrtc->State == HAL_RTC_STATE_RESET)
 8004fb2:	7c43      	ldrb	r3, [r0, #17]
 8004fb4:	f003 02ff 	and.w	r2, r3, #255	@ 0xff
 8004fb8:	b913      	cbnz	r3, 8004fc0 <HAL_RTC_Init+0x14>
    hrtc->Lock = HAL_UNLOCKED;
 8004fba:	7402      	strb	r2, [r0, #16]
    HAL_RTC_MspInit(hrtc);
 8004fbc:	f7fd f8c8 	bl	8002150 <HAL_RTC_MspInit>
  hrtc->State = HAL_RTC_STATE_BUSY;
 8004fc0:	2302      	movs	r3, #2
  if (HAL_RTC_WaitForSynchro(hrtc) != HAL_OK)
 8004fc2:	4620      	mov	r0, r4
  hrtc->State = HAL_RTC_STATE_BUSY;
 8004fc4:	7463      	strb	r3, [r4, #17]
  if (HAL_RTC_WaitForSynchro(hrtc) != HAL_OK)
 8004fc6:	f7ff ffd5 	bl	8004f74 <HAL_RTC_WaitForSynchro>
 8004fca:	b118      	cbz	r0, 8004fd4 <HAL_RTC_Init+0x28>
    hrtc->State = HAL_RTC_STATE_ERROR;
 8004fcc:	2304      	movs	r3, #4
 8004fce:	7463      	strb	r3, [r4, #17]
    return HAL_ERROR;
 8004fd0:	2001      	movs	r0, #1
}
 8004fd2:	bd10      	pop	{r4, pc}
  if (RTC_EnterInitMode(hrtc) != HAL_OK)
 8004fd4:	4620      	mov	r0, r4
 8004fd6:	f7ff fdee 	bl	8004bb6 <RTC_EnterInitMode>
 8004fda:	2800      	cmp	r0, #0
 8004fdc:	d1f6      	bne.n	8004fcc <HAL_RTC_Init+0x20>
    CLEAR_BIT(hrtc->Instance->CRL, (RTC_FLAG_OW | RTC_FLAG_ALRAF | RTC_FLAG_SEC));
 8004fde:	6822      	ldr	r2, [r4, #0]
    if (hrtc->Init.OutPut != RTC_OUTPUTSOURCE_NONE)
 8004fe0:	68a1      	ldr	r1, [r4, #8]
    CLEAR_BIT(hrtc->Instance->CRL, (RTC_FLAG_OW | RTC_FLAG_ALRAF | RTC_FLAG_SEC));
 8004fe2:	6853      	ldr	r3, [r2, #4]
 8004fe4:	f023 0307 	bic.w	r3, r3, #7
 8004fe8:	6053      	str	r3, [r2, #4]
    if (hrtc->Init.OutPut != RTC_OUTPUTSOURCE_NONE)
 8004fea:	4a12      	ldr	r2, [pc, #72]	@ (8005034 <HAL_RTC_Init+0x88>)
 8004fec:	b119      	cbz	r1, 8004ff6 <HAL_RTC_Init+0x4a>
      CLEAR_BIT(BKP->CR, BKP_CR_TPE);
 8004fee:	6b13      	ldr	r3, [r2, #48]	@ 0x30
 8004ff0:	f023 0301 	bic.w	r3, r3, #1
 8004ff4:	6313      	str	r3, [r2, #48]	@ 0x30
    MODIFY_REG(BKP->RTCCR, (BKP_RTCCR_CCO | BKP_RTCCR_ASOE | BKP_RTCCR_ASOS), hrtc->Init.OutPut);
 8004ff6:	6ad3      	ldr	r3, [r2, #44]	@ 0x2c
 8004ff8:	f423 7360 	bic.w	r3, r3, #896	@ 0x380
 8004ffc:	430b      	orrs	r3, r1
 8004ffe:	62d3      	str	r3, [r2, #44]	@ 0x2c
    if (hrtc->Init.AsynchPrediv != RTC_AUTO_1_SECOND)
 8005000:	6860      	ldr	r0, [r4, #4]
 8005002:	1c43      	adds	r3, r0, #1
 8005004:	d105      	bne.n	8005012 <HAL_RTC_Init+0x66>
      prescaler = HAL_RCCEx_GetPeriphCLKFreq(RCC_PERIPHCLK_RTC);
 8005006:	2001      	movs	r0, #1
 8005008:	f7ff fd1a 	bl	8004a40 <HAL_RCCEx_GetPeriphCLKFreq>
      if (prescaler == 0U)
 800500c:	2800      	cmp	r0, #0
 800500e:	d0dd      	beq.n	8004fcc <HAL_RTC_Init+0x20>
        prescaler = prescaler - 1U;
 8005010:	3801      	subs	r0, #1
    WRITE_REG(hrtc->Instance->PRLH, ((prescaler >> 16U) & RTC_PRLH_PRL));
 8005012:	6823      	ldr	r3, [r4, #0]
 8005014:	f3c0 4203 	ubfx	r2, r0, #16, #4
    WRITE_REG(hrtc->Instance->PRLL, (prescaler & RTC_PRLL_PRL));
 8005018:	b280      	uxth	r0, r0
    WRITE_REG(hrtc->Instance->PRLH, ((prescaler >> 16U) & RTC_PRLH_PRL));
 800501a:	609a      	str	r2, [r3, #8]
    WRITE_REG(hrtc->Instance->PRLL, (prescaler & RTC_PRLL_PRL));
 800501c:	60d8      	str	r0, [r3, #12]
    if (RTC_ExitInitMode(hrtc) != HAL_OK)
 800501e:	4620      	mov	r0, r4
 8005020:	f7ff fde0 	bl	8004be4 <RTC_ExitInitMode>
 8005024:	2800      	cmp	r0, #0
 8005026:	d1d1      	bne.n	8004fcc <HAL_RTC_Init+0x20>
    hrtc->DateToUpdate.Month = RTC_MONTH_JANUARY;
 8005028:	2301      	movs	r3, #1
 800502a:	7363      	strb	r3, [r4, #13]
    hrtc->DateToUpdate.Date = 0x01U;
 800502c:	81e3      	strh	r3, [r4, #14]
    hrtc->State = HAL_RTC_STATE_READY;
 800502e:	7463      	strb	r3, [r4, #17]
    return HAL_OK;
 8005030:	e7cf      	b.n	8004fd2 <HAL_RTC_Init+0x26>
 8005032:	bf00      	nop
 8005034:	40006c00 	.word	0x40006c00

08005038 <SPI_WaitFlagStateUntilTimeout>:
  * @param  Tickstart tick start value
  * @retval HAL status
  */
static HAL_StatusTypeDef SPI_WaitFlagStateUntilTimeout(SPI_HandleTypeDef *hspi, uint32_t Flag, FlagStatus State,
                                                       uint32_t Timeout, uint32_t Tickstart)
{
 8005038:	e92d 47f3 	stmdb	sp!, {r0, r1, r4, r5, r6, r7, r8, r9, sl, lr}
 800503c:	461f      	mov	r7, r3
 800503e:	4689      	mov	r9, r1
 8005040:	4690      	mov	r8, r2
 8005042:	4604      	mov	r4, r0
  __IO uint32_t count;
  uint32_t tmp_timeout;
  uint32_t tmp_tickstart;

  /* Adjust Timeout value  in case of end of transfer */
  tmp_timeout   = Timeout - (HAL_GetTick() - Tickstart);
 8005044:	f7fe fd84 	bl	8003b50 <HAL_GetTick>
 8005048:	9d0a      	ldr	r5, [sp, #40]	@ 0x28
 800504a:	443d      	add	r5, r7
 800504c:	1a2d      	subs	r5, r5, r0
  tmp_tickstart = HAL_GetTick();
 800504e:	f7fe fd7f 	bl	8003b50 <HAL_GetTick>
 8005052:	4682      	mov	sl, r0

  /* Calculate Timeout based on a software loop to avoid blocking issue if Systick is disabled */
  count = tmp_timeout * ((SystemCoreClock * 32U) >> 20U);
 8005054:	4b25      	ldr	r3, [pc, #148]	@ (80050ec <SPI_WaitFlagStateUntilTimeout+0xb4>)
 8005056:	681e      	ldr	r6, [r3, #0]
 8005058:	f3c6 36cb 	ubfx	r6, r6, #15, #12
 800505c:	436e      	muls	r6, r5
 800505e:	9601      	str	r6, [sp, #4]

  while ((__HAL_SPI_GET_FLAG(hspi, Flag) ? SET : RESET) != State)
 8005060:	6822      	ldr	r2, [r4, #0]
 8005062:	6893      	ldr	r3, [r2, #8]
 8005064:	ea39 0303 	bics.w	r3, r9, r3
 8005068:	bf0c      	ite	eq
 800506a:	2301      	moveq	r3, #1
 800506c:	2300      	movne	r3, #0
 800506e:	4543      	cmp	r3, r8
 8005070:	d101      	bne.n	8005076 <SPI_WaitFlagStateUntilTimeout+0x3e>
      }
      count--;
    }
  }

  return HAL_OK;
 8005072:	2000      	movs	r0, #0
 8005074:	e02e      	b.n	80050d4 <SPI_WaitFlagStateUntilTimeout+0x9c>
    if (Timeout != HAL_MAX_DELAY)
 8005076:	1c7b      	adds	r3, r7, #1
 8005078:	d0f3      	beq.n	8005062 <SPI_WaitFlagStateUntilTimeout+0x2a>
      if (((HAL_GetTick() - tmp_tickstart) >= tmp_timeout) || (tmp_timeout == 0U))
 800507a:	f7fe fd69 	bl	8003b50 <HAL_GetTick>
 800507e:	eba0 000a 	sub.w	r0, r0, sl
 8005082:	42a8      	cmp	r0, r5
 8005084:	d329      	bcc.n	80050da <SPI_WaitFlagStateUntilTimeout+0xa2>
        __HAL_SPI_DISABLE_IT(hspi, (SPI_IT_TXE | SPI_IT_RXNE | SPI_IT_ERR));
 8005086:	6823      	ldr	r3, [r4, #0]
 8005088:	685a      	ldr	r2, [r3, #4]
 800508a:	f022 02e0 	bic.w	r2, r2, #224	@ 0xe0
 800508e:	605a      	str	r2, [r3, #4]
        if ((hspi->Init.Mode == SPI_MODE_MASTER) && ((hspi->Init.Direction == SPI_DIRECTION_1LINE)
 8005090:	6862      	ldr	r2, [r4, #4]
 8005092:	f5b2 7f82 	cmp.w	r2, #260	@ 0x104
 8005096:	d10a      	bne.n	80050ae <SPI_WaitFlagStateUntilTimeout+0x76>
 8005098:	68a2      	ldr	r2, [r4, #8]
 800509a:	f5b2 4f00 	cmp.w	r2, #32768	@ 0x8000
 800509e:	d002      	beq.n	80050a6 <SPI_WaitFlagStateUntilTimeout+0x6e>
                                                     || (hspi->Init.Direction == SPI_DIRECTION_2LINES_RXONLY)))
 80050a0:	f5b2 6f80 	cmp.w	r2, #1024	@ 0x400
 80050a4:	d103      	bne.n	80050ae <SPI_WaitFlagStateUntilTimeout+0x76>
          __HAL_SPI_DISABLE(hspi);
 80050a6:	681a      	ldr	r2, [r3, #0]
 80050a8:	f022 0240 	bic.w	r2, r2, #64	@ 0x40
 80050ac:	601a      	str	r2, [r3, #0]
        if (hspi->Init.CRCCalculation == SPI_CRCCALCULATION_ENABLE)
 80050ae:	6aa2      	ldr	r2, [r4, #40]	@ 0x28
 80050b0:	f5b2 5f00 	cmp.w	r2, #8192	@ 0x2000
 80050b4:	d107      	bne.n	80050c6 <SPI_WaitFlagStateUntilTimeout+0x8e>
          SPI_RESET_CRC(hspi);
 80050b6:	681a      	ldr	r2, [r3, #0]
 80050b8:	f422 5200 	bic.w	r2, r2, #8192	@ 0x2000
 80050bc:	601a      	str	r2, [r3, #0]
 80050be:	681a      	ldr	r2, [r3, #0]
 80050c0:	f442 5200 	orr.w	r2, r2, #8192	@ 0x2000
 80050c4:	601a      	str	r2, [r3, #0]
        hspi->State = HAL_SPI_STATE_READY;
 80050c6:	2301      	movs	r3, #1
 80050c8:	f884 3051 	strb.w	r3, [r4, #81]	@ 0x51
        __HAL_UNLOCK(hspi);
 80050cc:	2300      	movs	r3, #0
        return HAL_TIMEOUT;
 80050ce:	2003      	movs	r0, #3
        __HAL_UNLOCK(hspi);
 80050d0:	f884 3050 	strb.w	r3, [r4, #80]	@ 0x50
}
 80050d4:	b002      	add	sp, #8
 80050d6:	e8bd 87f0 	ldmia.w	sp!, {r4, r5, r6, r7, r8, r9, sl, pc}
      if (count == 0U)
 80050da:	9a01      	ldr	r2, [sp, #4]
      count--;
 80050dc:	9b01      	ldr	r3, [sp, #4]
      if (count == 0U)
 80050de:	2a00      	cmp	r2, #0
      count--;
 80050e0:	f103 33ff 	add.w	r3, r3, #4294967295
 80050e4:	bf08      	it	eq
 80050e6:	4615      	moveq	r5, r2
 80050e8:	9301      	str	r3, [sp, #4]
 80050ea:	e7b9      	b.n	8005060 <SPI_WaitFlagStateUntilTimeout+0x28>
 80050ec:	20000014 	.word	0x20000014

080050f0 <SPI_EndRxTxTransaction>:
  * @param  Timeout Timeout duration
  * @param  Tickstart tick start value
  * @retval HAL status
  */
static HAL_StatusTypeDef SPI_EndRxTxTransaction(SPI_HandleTypeDef *hspi, uint32_t Timeout, uint32_t Tickstart)
{
 80050f0:	b573      	push	{r0, r1, r4, r5, r6, lr}
  /* Wait until TXE flag */
  if (SPI_WaitFlagStateUntilTimeout(hspi, SPI_FLAG_TXE, SET, Timeout, Tickstart) != HAL_OK)
 80050f2:	460b      	mov	r3, r1
 80050f4:	9200      	str	r2, [sp, #0]
{
 80050f6:	460d      	mov	r5, r1
 80050f8:	4616      	mov	r6, r2
  if (SPI_WaitFlagStateUntilTimeout(hspi, SPI_FLAG_TXE, SET, Timeout, Tickstart) != HAL_OK)
 80050fa:	2102      	movs	r1, #2
 80050fc:	2201      	movs	r2, #1
{
 80050fe:	4604      	mov	r4, r0
  if (SPI_WaitFlagStateUntilTimeout(hspi, SPI_FLAG_TXE, SET, Timeout, Tickstart) != HAL_OK)
 8005100:	f7ff ff9a 	bl	8005038 <SPI_WaitFlagStateUntilTimeout>
 8005104:	4602      	mov	r2, r0
 8005106:	b128      	cbz	r0, 8005114 <SPI_EndRxTxTransaction+0x24>
  }

  /* Control the BSY flag */
  if (SPI_WaitFlagStateUntilTimeout(hspi, SPI_FLAG_BSY, RESET, Timeout, Tickstart) != HAL_OK)
  {
    SET_BIT(hspi->ErrorCode, HAL_SPI_ERROR_FLAG);
 8005108:	6d63      	ldr	r3, [r4, #84]	@ 0x54
    return HAL_TIMEOUT;
 800510a:	2003      	movs	r0, #3
    SET_BIT(hspi->ErrorCode, HAL_SPI_ERROR_FLAG);
 800510c:	f043 0320 	orr.w	r3, r3, #32
 8005110:	6563      	str	r3, [r4, #84]	@ 0x54
    return HAL_TIMEOUT;
 8005112:	e007      	b.n	8005124 <SPI_EndRxTxTransaction+0x34>
  if (SPI_WaitFlagStateUntilTimeout(hspi, SPI_FLAG_BSY, RESET, Timeout, Tickstart) != HAL_OK)
 8005114:	462b      	mov	r3, r5
 8005116:	2180      	movs	r1, #128	@ 0x80
 8005118:	4620      	mov	r0, r4
 800511a:	9600      	str	r6, [sp, #0]
 800511c:	f7ff ff8c 	bl	8005038 <SPI_WaitFlagStateUntilTimeout>
 8005120:	2800      	cmp	r0, #0
 8005122:	d1f1      	bne.n	8005108 <SPI_EndRxTxTransaction+0x18>
  }
  return HAL_OK;
}
 8005124:	b002      	add	sp, #8
 8005126:	bd70      	pop	{r4, r5, r6, pc}

08005128 <HAL_SPI_Init>:
{
 8005128:	b510      	push	{r4, lr}
  if (hspi == NULL)
 800512a:	4604      	mov	r4, r0
 800512c:	2800      	cmp	r0, #0
 800512e:	d051      	beq.n	80051d4 <HAL_SPI_Init+0xac>
  if (hspi->Init.TIMode == SPI_TIMODE_DISABLE)
 8005130:	6a43      	ldr	r3, [r0, #36]	@ 0x24
 8005132:	2b00      	cmp	r3, #0
 8005134:	d14a      	bne.n	80051cc <HAL_SPI_Init+0xa4>
    if (hspi->Init.Mode == SPI_MODE_MASTER)
 8005136:	6842      	ldr	r2, [r0, #4]
 8005138:	f5b2 7f82 	cmp.w	r2, #260	@ 0x104
 800513c:	d000      	beq.n	8005140 <HAL_SPI_Init+0x18>
      hspi->Init.BaudRatePrescaler = SPI_BAUDRATEPRESCALER_2;
 800513e:	61c3      	str	r3, [r0, #28]
  hspi->Init.CRCCalculation = SPI_CRCCALCULATION_DISABLE;
 8005140:	2300      	movs	r3, #0
 8005142:	62a3      	str	r3, [r4, #40]	@ 0x28
  if (hspi->State == HAL_SPI_STATE_RESET)
 8005144:	f894 3051 	ldrb.w	r3, [r4, #81]	@ 0x51
 8005148:	f003 02ff 	and.w	r2, r3, #255	@ 0xff
 800514c:	b923      	cbnz	r3, 8005158 <HAL_SPI_Init+0x30>
    HAL_SPI_MspInit(hspi);
 800514e:	4620      	mov	r0, r4
    hspi->Lock = HAL_UNLOCKED;
 8005150:	f884 2050 	strb.w	r2, [r4, #80]	@ 0x50
    HAL_SPI_MspInit(hspi);
 8005154:	f7fd f81a 	bl	800218c <HAL_SPI_MspInit>
  hspi->State = HAL_SPI_STATE_BUSY;
 8005158:	2302      	movs	r3, #2
  __HAL_SPI_DISABLE(hspi);
 800515a:	6822      	ldr	r2, [r4, #0]
  hspi->State = HAL_SPI_STATE_BUSY;
 800515c:	f884 3051 	strb.w	r3, [r4, #81]	@ 0x51
  __HAL_SPI_DISABLE(hspi);
 8005160:	6813      	ldr	r3, [r2, #0]
  WRITE_REG(hspi->Instance->CR1, ((hspi->Init.Mode & (SPI_CR1_MSTR | SPI_CR1_SSI)) |
 8005162:	68a0      	ldr	r0, [r4, #8]
  __HAL_SPI_DISABLE(hspi);
 8005164:	f023 0340 	bic.w	r3, r3, #64	@ 0x40
 8005168:	6013      	str	r3, [r2, #0]
  WRITE_REG(hspi->Instance->CR1, ((hspi->Init.Mode & (SPI_CR1_MSTR | SPI_CR1_SSI)) |
 800516a:	6863      	ldr	r3, [r4, #4]
 800516c:	f400 4004 	and.w	r0, r0, #33792	@ 0x8400
 8005170:	f403 7382 	and.w	r3, r3, #260	@ 0x104
 8005174:	4303      	orrs	r3, r0
 8005176:	68e0      	ldr	r0, [r4, #12]
 8005178:	69a1      	ldr	r1, [r4, #24]
 800517a:	f400 6000 	and.w	r0, r0, #2048	@ 0x800
 800517e:	4303      	orrs	r3, r0
 8005180:	6920      	ldr	r0, [r4, #16]
 8005182:	f000 0002 	and.w	r0, r0, #2
 8005186:	4303      	orrs	r3, r0
 8005188:	6960      	ldr	r0, [r4, #20]
 800518a:	f000 0001 	and.w	r0, r0, #1
 800518e:	4303      	orrs	r3, r0
 8005190:	f401 7000 	and.w	r0, r1, #512	@ 0x200
 8005194:	4303      	orrs	r3, r0
 8005196:	69e0      	ldr	r0, [r4, #28]
  WRITE_REG(hspi->Instance->CR2, ((hspi->Init.NSS >> 16U) & SPI_CR2_SSOE));
 8005198:	0c09      	lsrs	r1, r1, #16
  WRITE_REG(hspi->Instance->CR1, ((hspi->Init.Mode & (SPI_CR1_MSTR | SPI_CR1_SSI)) |
 800519a:	f000 0038 	and.w	r0, r0, #56	@ 0x38
 800519e:	4303      	orrs	r3, r0
 80051a0:	6a20      	ldr	r0, [r4, #32]
  WRITE_REG(hspi->Instance->CR2, ((hspi->Init.NSS >> 16U) & SPI_CR2_SSOE));
 80051a2:	f001 0104 	and.w	r1, r1, #4
  WRITE_REG(hspi->Instance->CR1, ((hspi->Init.Mode & (SPI_CR1_MSTR | SPI_CR1_SSI)) |
 80051a6:	f000 0080 	and.w	r0, r0, #128	@ 0x80
 80051aa:	4303      	orrs	r3, r0
 80051ac:	6aa0      	ldr	r0, [r4, #40]	@ 0x28
 80051ae:	f400 5000 	and.w	r0, r0, #8192	@ 0x2000
 80051b2:	4303      	orrs	r3, r0
 80051b4:	6013      	str	r3, [r2, #0]
  WRITE_REG(hspi->Instance->CR2, ((hspi->Init.NSS >> 16U) & SPI_CR2_SSOE));
 80051b6:	6051      	str	r1, [r2, #4]
  CLEAR_BIT(hspi->Instance->I2SCFGR, SPI_I2SCFGR_I2SMOD);
 80051b8:	69d3      	ldr	r3, [r2, #28]
  hspi->ErrorCode = HAL_SPI_ERROR_NONE;
 80051ba:	2000      	movs	r0, #0
  CLEAR_BIT(hspi->Instance->I2SCFGR, SPI_I2SCFGR_I2SMOD);
 80051bc:	f423 6300 	bic.w	r3, r3, #2048	@ 0x800
 80051c0:	61d3      	str	r3, [r2, #28]
  hspi->State     = HAL_SPI_STATE_READY;
 80051c2:	2301      	movs	r3, #1
  hspi->ErrorCode = HAL_SPI_ERROR_NONE;
 80051c4:	6560      	str	r0, [r4, #84]	@ 0x54
  hspi->State     = HAL_SPI_STATE_READY;
 80051c6:	f884 3051 	strb.w	r3, [r4, #81]	@ 0x51
}
 80051ca:	bd10      	pop	{r4, pc}
    hspi->Init.CLKPolarity = SPI_POLARITY_LOW;
 80051cc:	2300      	movs	r3, #0
    hspi->Init.CLKPhase    = SPI_PHASE_1EDGE;
 80051ce:	e9c0 3304 	strd	r3, r3, [r0, #16]
 80051d2:	e7b5      	b.n	8005140 <HAL_SPI_Init+0x18>
    return HAL_ERROR;
 80051d4:	2001      	movs	r0, #1
 80051d6:	e7f8      	b.n	80051ca <HAL_SPI_Init+0xa2>

080051d8 <HAL_SPI_Transmit>:
{
 80051d8:	e92d 43f7 	stmdb	sp!, {r0, r1, r2, r4, r5, r6, r7, r8, r9, lr}
 80051dc:	4604      	mov	r4, r0
 80051de:	461f      	mov	r7, r3
 80051e0:	460d      	mov	r5, r1
 80051e2:	4690      	mov	r8, r2
  tickstart = HAL_GetTick();
 80051e4:	f7fe fcb4 	bl	8003b50 <HAL_GetTick>
  if (hspi->State != HAL_SPI_STATE_READY)
 80051e8:	f894 3051 	ldrb.w	r3, [r4, #81]	@ 0x51
  tickstart = HAL_GetTick();
 80051ec:	4681      	mov	r9, r0
  if (hspi->State != HAL_SPI_STATE_READY)
 80051ee:	2b01      	cmp	r3, #1
 80051f0:	b2d8      	uxtb	r0, r3
 80051f2:	f040 809f 	bne.w	8005334 <HAL_SPI_Transmit+0x15c>
  if ((pData == NULL) || (Size == 0U))
 80051f6:	2d00      	cmp	r5, #0
 80051f8:	d074      	beq.n	80052e4 <HAL_SPI_Transmit+0x10c>
 80051fa:	f1b8 0f00 	cmp.w	r8, #0
 80051fe:	d071      	beq.n	80052e4 <HAL_SPI_Transmit+0x10c>
  __HAL_LOCK(hspi);
 8005200:	f894 3050 	ldrb.w	r3, [r4, #80]	@ 0x50
 8005204:	2b01      	cmp	r3, #1
 8005206:	f000 8095 	beq.w	8005334 <HAL_SPI_Transmit+0x15c>
  hspi->State       = HAL_SPI_STATE_BUSY_TX;
 800520a:	2303      	movs	r3, #3
 800520c:	f884 3051 	strb.w	r3, [r4, #81]	@ 0x51
  hspi->ErrorCode   = HAL_SPI_ERROR_NONE;
 8005210:	2300      	movs	r3, #0
 8005212:	6563      	str	r3, [r4, #84]	@ 0x54
  hspi->RxISR       = NULL;
 8005214:	e9c4 3310 	strd	r3, r3, [r4, #64]	@ 0x40
  hspi->TxXferCount = Size;
 8005218:	f8a4 8036 	strh.w	r8, [r4, #54]	@ 0x36
  hspi->pRxBuffPtr  = (uint8_t *)NULL;
 800521c:	63a3      	str	r3, [r4, #56]	@ 0x38
  hspi->RxXferSize  = 0U;
 800521e:	87a3      	strh	r3, [r4, #60]	@ 0x3c
  hspi->RxXferCount = 0U;
 8005220:	87e3      	strh	r3, [r4, #62]	@ 0x3e
  if (hspi->Init.Direction == SPI_DIRECTION_1LINE)
 8005222:	68a3      	ldr	r3, [r4, #8]
    __HAL_SPI_DISABLE(hspi);
 8005224:	6826      	ldr	r6, [r4, #0]
  if (hspi->Init.Direction == SPI_DIRECTION_1LINE)
 8005226:	f5b3 4f00 	cmp.w	r3, #32768	@ 0x8000
  __HAL_LOCK(hspi);
 800522a:	f884 0050 	strb.w	r0, [r4, #80]	@ 0x50
  hspi->pTxBuffPtr  = (const uint8_t *)pData;
 800522e:	6325      	str	r5, [r4, #48]	@ 0x30
  hspi->TxXferSize  = Size;
 8005230:	f8a4 8034 	strh.w	r8, [r4, #52]	@ 0x34
  if (hspi->Init.Direction == SPI_DIRECTION_1LINE)
 8005234:	d107      	bne.n	8005246 <HAL_SPI_Transmit+0x6e>
    __HAL_SPI_DISABLE(hspi);
 8005236:	6833      	ldr	r3, [r6, #0]
 8005238:	f023 0340 	bic.w	r3, r3, #64	@ 0x40
 800523c:	6033      	str	r3, [r6, #0]
    SPI_1LINE_TX(hspi);
 800523e:	6833      	ldr	r3, [r6, #0]
 8005240:	f443 4380 	orr.w	r3, r3, #16384	@ 0x4000
 8005244:	6033      	str	r3, [r6, #0]
  if ((hspi->Instance->CR1 & SPI_CR1_SPE) != SPI_CR1_SPE)
 8005246:	6833      	ldr	r3, [r6, #0]
  if (hspi->Init.DataSize == SPI_DATASIZE_16BIT)
 8005248:	68e2      	ldr	r2, [r4, #12]
  if ((hspi->Instance->CR1 & SPI_CR1_SPE) != SPI_CR1_SPE)
 800524a:	065b      	lsls	r3, r3, #25
    __HAL_SPI_ENABLE(hspi);
 800524c:	bf5e      	ittt	pl
 800524e:	6833      	ldrpl	r3, [r6, #0]
 8005250:	f043 0340 	orrpl.w	r3, r3, #64	@ 0x40
 8005254:	6033      	strpl	r3, [r6, #0]
  if (hspi->Init.DataSize == SPI_DATASIZE_16BIT)
 8005256:	f5b2 6f00 	cmp.w	r2, #2048	@ 0x800
    if ((hspi->Init.Mode == SPI_MODE_SLAVE) || (initial_TxXferCount == 0x01U))
 800525a:	6863      	ldr	r3, [r4, #4]
  if (hspi->Init.DataSize == SPI_DATASIZE_16BIT)
 800525c:	d145      	bne.n	80052ea <HAL_SPI_Transmit+0x112>
    if ((hspi->Init.Mode == SPI_MODE_SLAVE) || (initial_TxXferCount == 0x01U))
 800525e:	b113      	cbz	r3, 8005266 <HAL_SPI_Transmit+0x8e>
 8005260:	f1b8 0f01 	cmp.w	r8, #1
 8005264:	d107      	bne.n	8005276 <HAL_SPI_Transmit+0x9e>
      hspi->Instance->DR = *((const uint16_t *)hspi->pTxBuffPtr);
 8005266:	f835 3b02 	ldrh.w	r3, [r5], #2
 800526a:	60f3      	str	r3, [r6, #12]
      hspi->pTxBuffPtr += sizeof(uint16_t);
 800526c:	6325      	str	r5, [r4, #48]	@ 0x30
        hspi->TxXferCount--;
 800526e:	8ee3      	ldrh	r3, [r4, #54]	@ 0x36
 8005270:	3b01      	subs	r3, #1
 8005272:	b29b      	uxth	r3, r3
 8005274:	86e3      	strh	r3, [r4, #54]	@ 0x36
    while (hspi->TxXferCount > 0U)
 8005276:	8ee3      	ldrh	r3, [r4, #54]	@ 0x36
 8005278:	b29b      	uxth	r3, r3
 800527a:	b9d3      	cbnz	r3, 80052b2 <HAL_SPI_Transmit+0xda>
  if (SPI_EndRxTxTransaction(hspi, Timeout, tickstart) != HAL_OK)
 800527c:	464a      	mov	r2, r9
 800527e:	4639      	mov	r1, r7
 8005280:	4620      	mov	r0, r4
 8005282:	f7ff ff35 	bl	80050f0 <SPI_EndRxTxTransaction>
 8005286:	2800      	cmp	r0, #0
 8005288:	d151      	bne.n	800532e <HAL_SPI_Transmit+0x156>
  if (hspi->Init.Direction == SPI_DIRECTION_2LINES)
 800528a:	68a3      	ldr	r3, [r4, #8]
 800528c:	b933      	cbnz	r3, 800529c <HAL_SPI_Transmit+0xc4>
    __HAL_SPI_CLEAR_OVRFLAG(hspi);
 800528e:	9301      	str	r3, [sp, #4]
 8005290:	6823      	ldr	r3, [r4, #0]
 8005292:	68da      	ldr	r2, [r3, #12]
 8005294:	9201      	str	r2, [sp, #4]
 8005296:	689b      	ldr	r3, [r3, #8]
 8005298:	9301      	str	r3, [sp, #4]
 800529a:	9b01      	ldr	r3, [sp, #4]
  hspi->State = HAL_SPI_STATE_READY;
 800529c:	2301      	movs	r3, #1
 800529e:	f884 3051 	strb.w	r3, [r4, #81]	@ 0x51
  __HAL_UNLOCK(hspi);
 80052a2:	2300      	movs	r3, #0
  if (hspi->ErrorCode != HAL_SPI_ERROR_NONE)
 80052a4:	6d60      	ldr	r0, [r4, #84]	@ 0x54
  __HAL_UNLOCK(hspi);
 80052a6:	f884 3050 	strb.w	r3, [r4, #80]	@ 0x50
  if (hspi->ErrorCode != HAL_SPI_ERROR_NONE)
 80052aa:	1ac0      	subs	r0, r0, r3
 80052ac:	bf18      	it	ne
 80052ae:	2001      	movne	r0, #1
 80052b0:	e018      	b.n	80052e4 <HAL_SPI_Transmit+0x10c>
      if (__HAL_SPI_GET_FLAG(hspi, SPI_FLAG_TXE))
 80052b2:	6822      	ldr	r2, [r4, #0]
 80052b4:	6893      	ldr	r3, [r2, #8]
 80052b6:	0798      	lsls	r0, r3, #30
 80052b8:	d505      	bpl.n	80052c6 <HAL_SPI_Transmit+0xee>
        hspi->Instance->DR = *((const uint16_t *)hspi->pTxBuffPtr);
 80052ba:	6b23      	ldr	r3, [r4, #48]	@ 0x30
 80052bc:	f833 1b02 	ldrh.w	r1, [r3], #2
 80052c0:	60d1      	str	r1, [r2, #12]
        hspi->pTxBuffPtr += sizeof(uint16_t);
 80052c2:	6323      	str	r3, [r4, #48]	@ 0x30
 80052c4:	e7d3      	b.n	800526e <HAL_SPI_Transmit+0x96>
        if ((((HAL_GetTick() - tickstart) >=  Timeout) && (Timeout != HAL_MAX_DELAY)) || (Timeout == 0U))
 80052c6:	f7fe fc43 	bl	8003b50 <HAL_GetTick>
 80052ca:	eba0 0009 	sub.w	r0, r0, r9
 80052ce:	42b8      	cmp	r0, r7
 80052d0:	d3d1      	bcc.n	8005276 <HAL_SPI_Transmit+0x9e>
 80052d2:	1c79      	adds	r1, r7, #1
 80052d4:	d0cf      	beq.n	8005276 <HAL_SPI_Transmit+0x9e>
          hspi->State = HAL_SPI_STATE_READY;
 80052d6:	2301      	movs	r3, #1
 80052d8:	f884 3051 	strb.w	r3, [r4, #81]	@ 0x51
          __HAL_UNLOCK(hspi);
 80052dc:	2300      	movs	r3, #0
          return HAL_TIMEOUT;
 80052de:	2003      	movs	r0, #3
          __HAL_UNLOCK(hspi);
 80052e0:	f884 3050 	strb.w	r3, [r4, #80]	@ 0x50
}
 80052e4:	b003      	add	sp, #12
 80052e6:	e8bd 83f0 	ldmia.w	sp!, {r4, r5, r6, r7, r8, r9, pc}
    if ((hspi->Init.Mode == SPI_MODE_SLAVE) || (initial_TxXferCount == 0x01U))
 80052ea:	b113      	cbz	r3, 80052f2 <HAL_SPI_Transmit+0x11a>
 80052ec:	f1b8 0f01 	cmp.w	r8, #1
 80052f0:	d108      	bne.n	8005304 <HAL_SPI_Transmit+0x12c>
      *((__IO uint8_t *)&hspi->Instance->DR) = *((const uint8_t *)hspi->pTxBuffPtr);
 80052f2:	782b      	ldrb	r3, [r5, #0]
 80052f4:	7333      	strb	r3, [r6, #12]
        hspi->pTxBuffPtr += sizeof(uint8_t);
 80052f6:	6b23      	ldr	r3, [r4, #48]	@ 0x30
 80052f8:	3301      	adds	r3, #1
 80052fa:	6323      	str	r3, [r4, #48]	@ 0x30
        hspi->TxXferCount--;
 80052fc:	8ee3      	ldrh	r3, [r4, #54]	@ 0x36
 80052fe:	3b01      	subs	r3, #1
 8005300:	b29b      	uxth	r3, r3
 8005302:	86e3      	strh	r3, [r4, #54]	@ 0x36
    while (hspi->TxXferCount > 0U)
 8005304:	8ee3      	ldrh	r3, [r4, #54]	@ 0x36
 8005306:	b29b      	uxth	r3, r3
 8005308:	2b00      	cmp	r3, #0
 800530a:	d0b7      	beq.n	800527c <HAL_SPI_Transmit+0xa4>
      if (__HAL_SPI_GET_FLAG(hspi, SPI_FLAG_TXE))
 800530c:	6823      	ldr	r3, [r4, #0]
 800530e:	689a      	ldr	r2, [r3, #8]
 8005310:	0792      	lsls	r2, r2, #30
 8005312:	d503      	bpl.n	800531c <HAL_SPI_Transmit+0x144>
        *((__IO uint8_t *)&hspi->Instance->DR) = *((const uint8_t *)hspi->pTxBuffPtr);
 8005314:	6b22      	ldr	r2, [r4, #48]	@ 0x30
 8005316:	7812      	ldrb	r2, [r2, #0]
 8005318:	731a      	strb	r2, [r3, #12]
 800531a:	e7ec      	b.n	80052f6 <HAL_SPI_Transmit+0x11e>
        if ((((HAL_GetTick() - tickstart) >=  Timeout) && (Timeout != HAL_MAX_DELAY)) || (Timeout == 0U))
 800531c:	f7fe fc18 	bl	8003b50 <HAL_GetTick>
 8005320:	eba0 0009 	sub.w	r0, r0, r9
 8005324:	42b8      	cmp	r0, r7
 8005326:	d3ed      	bcc.n	8005304 <HAL_SPI_Transmit+0x12c>
 8005328:	1c7b      	adds	r3, r7, #1
 800532a:	d0eb      	beq.n	8005304 <HAL_SPI_Transmit+0x12c>
 800532c:	e7d3      	b.n	80052d6 <HAL_SPI_Transmit+0xfe>
    hspi->ErrorCode = HAL_SPI_ERROR_FLAG;
 800532e:	2320      	movs	r3, #32
 8005330:	6563      	str	r3, [r4, #84]	@ 0x54
 8005332:	e7aa      	b.n	800528a <HAL_SPI_Transmit+0xb2>
    return HAL_BUSY;
 8005334:	2002      	movs	r0, #2
 8005336:	e7d5      	b.n	80052e4 <HAL_SPI_Transmit+0x10c>

08005338 <TIM_OC1_SetConfig>:
  uint32_t tmpccmrx;
  uint32_t tmpccer;
  uint32_t tmpcr2;

  /* Get the TIMx CCER register value */
  tmpccer = TIMx->CCER;
 8005338:	6a03      	ldr	r3, [r0, #32]

  /* Disable the Channel 1: Reset the CC1E Bit */
  TIMx->CCER &= ~TIM_CCER_CC1E;
 800533a:	6a02      	ldr	r2, [r0, #32]
{
 800533c:	b570      	push	{r4, r5, r6, lr}
  TIMx->CCER &= ~TIM_CCER_CC1E;
 800533e:	f022 0201 	bic.w	r2, r2, #1
 8005342:	6202      	str	r2, [r0, #32]

  /* Get the TIMx CR2 register value */
  tmpcr2 =  TIMx->CR2;
 8005344:	6844      	ldr	r4, [r0, #4]

  /* Get the TIMx CCMR1 register value */
  tmpccmrx = TIMx->CCMR1;
 8005346:	6982      	ldr	r2, [r0, #24]

  /* Reset the Output Compare Mode Bits */
  tmpccmrx &= ~TIM_CCMR1_OC1M;
  tmpccmrx &= ~TIM_CCMR1_CC1S;
  /* Select the Output Compare Mode */
  tmpccmrx |= OC_Config->OCMode;
 8005348:	680d      	ldr	r5, [r1, #0]
  tmpccmrx &= ~TIM_CCMR1_CC1S;
 800534a:	f022 0273 	bic.w	r2, r2, #115	@ 0x73
  tmpccmrx |= OC_Config->OCMode;
 800534e:	432a      	orrs	r2, r5

  /* Reset the Output Polarity level */
  tmpccer &= ~TIM_CCER_CC1P;
  /* Set the Output Compare Polarity */
  tmpccer |= OC_Config->OCPolarity;
 8005350:	688d      	ldr	r5, [r1, #8]
  tmpccer &= ~TIM_CCER_CC1P;
 8005352:	f023 0302 	bic.w	r3, r3, #2
  tmpccer |= OC_Config->OCPolarity;
 8005356:	432b      	orrs	r3, r5

  if (IS_TIM_CCXN_INSTANCE(TIMx, TIM_CHANNEL_1))
 8005358:	4d0a      	ldr	r5, [pc, #40]	@ (8005384 <TIM_OC1_SetConfig+0x4c>)
 800535a:	42a8      	cmp	r0, r5
 800535c:	d10b      	bne.n	8005376 <TIM_OC1_SetConfig+0x3e>
    assert_param(IS_TIM_OCN_POLARITY(OC_Config->OCNPolarity));

    /* Reset the Output N Polarity level */
    tmpccer &= ~TIM_CCER_CC1NP;
    /* Set the Output N Polarity */
    tmpccer |= OC_Config->OCNPolarity;
 800535e:	68cd      	ldr	r5, [r1, #12]
    tmpccer &= ~TIM_CCER_CC1NP;
 8005360:	f023 0308 	bic.w	r3, r3, #8
    tmpccer |= OC_Config->OCNPolarity;
 8005364:	432b      	orrs	r3, r5
    assert_param(IS_TIM_OCNIDLE_STATE(OC_Config->OCNIdleState));
    assert_param(IS_TIM_OCIDLE_STATE(OC_Config->OCIdleState));

    /* Reset the Output Compare and Output Compare N IDLE State */
    tmpcr2 &= ~TIM_CR2_OIS1;
    tmpcr2 &= ~TIM_CR2_OIS1N;
 8005366:	f424 7440 	bic.w	r4, r4, #768	@ 0x300
    /* Set the Output Idle state */
    tmpcr2 |= OC_Config->OCIdleState;
    /* Set the Output N Idle state */
    tmpcr2 |= OC_Config->OCNIdleState;
 800536a:	e9d1 5605 	ldrd	r5, r6, [r1, #20]
 800536e:	4335      	orrs	r5, r6
    tmpccer &= ~TIM_CCER_CC1NE;
 8005370:	f023 0304 	bic.w	r3, r3, #4
    tmpcr2 |= OC_Config->OCNIdleState;
 8005374:	432c      	orrs	r4, r5
  }

  /* Write to TIMx CR2 */
  TIMx->CR2 = tmpcr2;
 8005376:	6044      	str	r4, [r0, #4]

  /* Write to TIMx CCMR1 */
  TIMx->CCMR1 = tmpccmrx;
 8005378:	6182      	str	r2, [r0, #24]

  /* Set the Capture Compare Register value */
  TIMx->CCR1 = OC_Config->Pulse;
 800537a:	684a      	ldr	r2, [r1, #4]
 800537c:	6342      	str	r2, [r0, #52]	@ 0x34

  /* Write to TIMx CCER */
  TIMx->CCER = tmpccer;
 800537e:	6203      	str	r3, [r0, #32]
}
 8005380:	bd70      	pop	{r4, r5, r6, pc}
 8005382:	bf00      	nop
 8005384:	40012c00 	.word	0x40012c00

08005388 <TIM_OC3_SetConfig>:
  uint32_t tmpccmrx;
  uint32_t tmpccer;
  uint32_t tmpcr2;

  /* Get the TIMx CCER register value */
  tmpccer = TIMx->CCER;
 8005388:	6a03      	ldr	r3, [r0, #32]

  /* Disable the Channel 3: Reset the CC2E Bit */
  TIMx->CCER &= ~TIM_CCER_CC3E;
 800538a:	6a02      	ldr	r2, [r0, #32]
{
 800538c:	b570      	push	{r4, r5, r6, lr}
  TIMx->CCER &= ~TIM_CCER_CC3E;
 800538e:	f422 7280 	bic.w	r2, r2, #256	@ 0x100
 8005392:	6202      	str	r2, [r0, #32]

  /* Get the TIMx CR2 register value */
  tmpcr2 =  TIMx->CR2;
 8005394:	6844      	ldr	r4, [r0, #4]

  /* Get the TIMx CCMR2 register value */
  tmpccmrx = TIMx->CCMR2;
 8005396:	69c2      	ldr	r2, [r0, #28]

  /* Reset the Output Compare mode and Capture/Compare selection Bits */
  tmpccmrx &= ~TIM_CCMR2_OC3M;
  tmpccmrx &= ~TIM_CCMR2_CC3S;
  /* Select the Output Compare Mode */
  tmpccmrx |= OC_Config->OCMode;
 8005398:	680d      	ldr	r5, [r1, #0]
  tmpccmrx &= ~TIM_CCMR2_CC3S;
 800539a:	f022 0273 	bic.w	r2, r2, #115	@ 0x73
  tmpccmrx |= OC_Config->OCMode;
 800539e:	432a      	orrs	r2, r5

  /* Reset the Output Polarity level */
  tmpccer &= ~TIM_CCER_CC3P;
  /* Set the Output Compare Polarity */
  tmpccer |= (OC_Config->OCPolarity << 8U);
 80053a0:	688d      	ldr	r5, [r1, #8]
  tmpccer &= ~TIM_CCER_CC3P;
 80053a2:	f423 7300 	bic.w	r3, r3, #512	@ 0x200
  tmpccer |= (OC_Config->OCPolarity << 8U);
 80053a6:	ea43 2305 	orr.w	r3, r3, r5, lsl #8

  if (IS_TIM_CCXN_INSTANCE(TIMx, TIM_CHANNEL_3))
 80053aa:	4d0b      	ldr	r5, [pc, #44]	@ (80053d8 <TIM_OC3_SetConfig+0x50>)
 80053ac:	42a8      	cmp	r0, r5
 80053ae:	d10d      	bne.n	80053cc <TIM_OC3_SetConfig+0x44>
    assert_param(IS_TIM_OCN_POLARITY(OC_Config->OCNPolarity));

    /* Reset the Output N Polarity level */
    tmpccer &= ~TIM_CCER_CC3NP;
    /* Set the Output N Polarity */
    tmpccer |= (OC_Config->OCNPolarity << 8U);
 80053b0:	68cd      	ldr	r5, [r1, #12]
    tmpccer &= ~TIM_CCER_CC3NP;
 80053b2:	f423 6300 	bic.w	r3, r3, #2048	@ 0x800
    tmpccer |= (OC_Config->OCNPolarity << 8U);
 80053b6:	ea43 2305 	orr.w	r3, r3, r5, lsl #8
    assert_param(IS_TIM_OCNIDLE_STATE(OC_Config->OCNIdleState));
    assert_param(IS_TIM_OCIDLE_STATE(OC_Config->OCIdleState));

    /* Reset the Output Compare and Output Compare N IDLE State */
    tmpcr2 &= ~TIM_CR2_OIS3;
    tmpcr2 &= ~TIM_CR2_OIS3N;
 80053ba:	f424 5440 	bic.w	r4, r4, #12288	@ 0x3000
    /* Set the Output Idle state */
    tmpcr2 |= (OC_Config->OCIdleState << 4U);
    /* Set the Output N Idle state */
    tmpcr2 |= (OC_Config->OCNIdleState << 4U);
 80053be:	e9d1 5605 	ldrd	r5, r6, [r1, #20]
 80053c2:	4335      	orrs	r5, r6
    tmpccer &= ~TIM_CCER_CC3NE;
 80053c4:	f423 6380 	bic.w	r3, r3, #1024	@ 0x400
    tmpcr2 |= (OC_Config->OCNIdleState << 4U);
 80053c8:	ea44 1405 	orr.w	r4, r4, r5, lsl #4
  }

  /* Write to TIMx CR2 */
  TIMx->CR2 = tmpcr2;
 80053cc:	6044      	str	r4, [r0, #4]

  /* Write to TIMx CCMR2 */
  TIMx->CCMR2 = tmpccmrx;
 80053ce:	61c2      	str	r2, [r0, #28]

  /* Set the Capture Compare Register value */
  TIMx->CCR3 = OC_Config->Pulse;
 80053d0:	684a      	ldr	r2, [r1, #4]
 80053d2:	63c2      	str	r2, [r0, #60]	@ 0x3c

  /* Write to TIMx CCER */
  TIMx->CCER = tmpccer;
 80053d4:	6203      	str	r3, [r0, #32]
}
 80053d6:	bd70      	pop	{r4, r5, r6, pc}
 80053d8:	40012c00 	.word	0x40012c00

080053dc <TIM_OC4_SetConfig>:
  uint32_t tmpccmrx;
  uint32_t tmpccer;
  uint32_t tmpcr2;

  /* Get the TIMx CCER register value */
  tmpccer = TIMx->CCER;
 80053dc:	6a03      	ldr	r3, [r0, #32]

  /* Disable the Channel 4: Reset the CC4E Bit */
  TIMx->CCER &= ~TIM_CCER_CC4E;
 80053de:	6a02      	ldr	r2, [r0, #32]
{
 80053e0:	b530      	push	{r4, r5, lr}
  TIMx->CCER &= ~TIM_CCER_CC4E;
 80053e2:	f422 5280 	bic.w	r2, r2, #4096	@ 0x1000
 80053e6:	6202      	str	r2, [r0, #32]

  /* Get the TIMx CR2 register value */
  tmpcr2 =  TIMx->CR2;
 80053e8:	6844      	ldr	r4, [r0, #4]

  /* Get the TIMx CCMR2 register value */
  tmpccmrx = TIMx->CCMR2;
 80053ea:	69c2      	ldr	r2, [r0, #28]
  /* Reset the Output Compare mode and Capture/Compare selection Bits */
  tmpccmrx &= ~TIM_CCMR2_OC4M;
  tmpccmrx &= ~TIM_CCMR2_CC4S;

  /* Select the Output Compare Mode */
  tmpccmrx |= (OC_Config->OCMode << 8U);
 80053ec:	680d      	ldr	r5, [r1, #0]
  tmpccmrx &= ~TIM_CCMR2_CC4S;
 80053ee:	f422 42e6 	bic.w	r2, r2, #29440	@ 0x7300
  tmpccmrx |= (OC_Config->OCMode << 8U);
 80053f2:	ea42 2205 	orr.w	r2, r2, r5, lsl #8

  /* Reset the Output Polarity level */
  tmpccer &= ~TIM_CCER_CC4P;
  /* Set the Output Compare Polarity */
  tmpccer |= (OC_Config->OCPolarity << 12U);
 80053f6:	688d      	ldr	r5, [r1, #8]
  tmpccer &= ~TIM_CCER_CC4P;
 80053f8:	f423 5300 	bic.w	r3, r3, #8192	@ 0x2000
  tmpccer |= (OC_Config->OCPolarity << 12U);
 80053fc:	ea43 3305 	orr.w	r3, r3, r5, lsl #12

  if (IS_TIM_BREAK_INSTANCE(TIMx))
 8005400:	4d06      	ldr	r5, [pc, #24]	@ (800541c <TIM_OC4_SetConfig+0x40>)
 8005402:	42a8      	cmp	r0, r5

    /* Reset the Output Compare IDLE State */
    tmpcr2 &= ~TIM_CR2_OIS4;

    /* Set the Output Idle state */
    tmpcr2 |= (OC_Config->OCIdleState << 6U);
 8005404:	bf02      	ittt	eq
 8005406:	694d      	ldreq	r5, [r1, #20]
    tmpcr2 &= ~TIM_CR2_OIS4;
 8005408:	f424 4480 	biceq.w	r4, r4, #16384	@ 0x4000
    tmpcr2 |= (OC_Config->OCIdleState << 6U);
 800540c:	ea44 1485 	orreq.w	r4, r4, r5, lsl #6
  }

  /* Write to TIMx CR2 */
  TIMx->CR2 = tmpcr2;
 8005410:	6044      	str	r4, [r0, #4]

  /* Write to TIMx CCMR2 */
  TIMx->CCMR2 = tmpccmrx;
 8005412:	61c2      	str	r2, [r0, #28]

  /* Set the Capture Compare Register value */
  TIMx->CCR4 = OC_Config->Pulse;
 8005414:	684a      	ldr	r2, [r1, #4]
 8005416:	6402      	str	r2, [r0, #64]	@ 0x40

  /* Write to TIMx CCER */
  TIMx->CCER = tmpccer;
 8005418:	6203      	str	r3, [r0, #32]
}
 800541a:	bd30      	pop	{r4, r5, pc}
 800541c:	40012c00 	.word	0x40012c00

08005420 <HAL_TIM_PWM_MspInit>:
__weak void HAL_TIM_PWM_MspInit(TIM_HandleTypeDef *htim)
 8005420:	4770      	bx	lr
	...

08005424 <TIM_Base_SetConfig>:
  if (IS_TIM_COUNTER_MODE_SELECT_INSTANCE(TIMx))
 8005424:	4a1c      	ldr	r2, [pc, #112]	@ (8005498 <TIM_Base_SetConfig+0x74>)
  tmpcr1 = TIMx->CR1;
 8005426:	6803      	ldr	r3, [r0, #0]
  if (IS_TIM_COUNTER_MODE_SELECT_INSTANCE(TIMx))
 8005428:	4290      	cmp	r0, r2
 800542a:	d00a      	beq.n	8005442 <TIM_Base_SetConfig+0x1e>
 800542c:	f1b0 4f80 	cmp.w	r0, #1073741824	@ 0x40000000
 8005430:	d007      	beq.n	8005442 <TIM_Base_SetConfig+0x1e>
 8005432:	f5a2 3294 	sub.w	r2, r2, #75776	@ 0x12800
 8005436:	4290      	cmp	r0, r2
 8005438:	d003      	beq.n	8005442 <TIM_Base_SetConfig+0x1e>
 800543a:	f502 6280 	add.w	r2, r2, #1024	@ 0x400
 800543e:	4290      	cmp	r0, r2
 8005440:	d115      	bne.n	800546e <TIM_Base_SetConfig+0x4a>
    tmpcr1 |= Structure->CounterMode;
 8005442:	684a      	ldr	r2, [r1, #4]
    tmpcr1 &= ~(TIM_CR1_DIR | TIM_CR1_CMS);
 8005444:	f023 0370 	bic.w	r3, r3, #112	@ 0x70
    tmpcr1 |= Structure->CounterMode;
 8005448:	4313      	orrs	r3, r2
  if (IS_TIM_CLOCK_DIVISION_INSTANCE(TIMx))
 800544a:	4a13      	ldr	r2, [pc, #76]	@ (8005498 <TIM_Base_SetConfig+0x74>)
 800544c:	4290      	cmp	r0, r2
 800544e:	d00a      	beq.n	8005466 <TIM_Base_SetConfig+0x42>
 8005450:	f1b0 4f80 	cmp.w	r0, #1073741824	@ 0x40000000
 8005454:	d007      	beq.n	8005466 <TIM_Base_SetConfig+0x42>
 8005456:	f5a2 3294 	sub.w	r2, r2, #75776	@ 0x12800
 800545a:	4290      	cmp	r0, r2
 800545c:	d003      	beq.n	8005466 <TIM_Base_SetConfig+0x42>
 800545e:	f502 6280 	add.w	r2, r2, #1024	@ 0x400
 8005462:	4290      	cmp	r0, r2
 8005464:	d103      	bne.n	800546e <TIM_Base_SetConfig+0x4a>
    tmpcr1 |= (uint32_t)Structure->ClockDivision;
 8005466:	68ca      	ldr	r2, [r1, #12]
    tmpcr1 &= ~TIM_CR1_CKD;
 8005468:	f423 7340 	bic.w	r3, r3, #768	@ 0x300
    tmpcr1 |= (uint32_t)Structure->ClockDivision;
 800546c:	4313      	orrs	r3, r2
  MODIFY_REG(tmpcr1, TIM_CR1_ARPE, Structure->AutoReloadPreload);
 800546e:	694a      	ldr	r2, [r1, #20]
 8005470:	f023 0380 	bic.w	r3, r3, #128	@ 0x80
 8005474:	4313      	orrs	r3, r2
  TIMx->ARR = (uint32_t)Structure->Period ;
 8005476:	688a      	ldr	r2, [r1, #8]
 8005478:	62c2      	str	r2, [r0, #44]	@ 0x2c
  TIMx->PSC = Structure->Prescaler;
 800547a:	680a      	ldr	r2, [r1, #0]
 800547c:	6282      	str	r2, [r0, #40]	@ 0x28
  if (IS_TIM_REPETITION_COUNTER_INSTANCE(TIMx))
 800547e:	4a06      	ldr	r2, [pc, #24]	@ (8005498 <TIM_Base_SetConfig+0x74>)
 8005480:	4290      	cmp	r0, r2
    TIMx->RCR = Structure->RepetitionCounter;
 8005482:	bf04      	itt	eq
 8005484:	690a      	ldreq	r2, [r1, #16]
 8005486:	6302      	streq	r2, [r0, #48]	@ 0x30
  SET_BIT(TIMx->CR1, TIM_CR1_URS);
 8005488:	6802      	ldr	r2, [r0, #0]
 800548a:	f042 0204 	orr.w	r2, r2, #4
 800548e:	6002      	str	r2, [r0, #0]
  TIMx->EGR = TIM_EGR_UG;
 8005490:	2201      	movs	r2, #1
 8005492:	6142      	str	r2, [r0, #20]
  TIMx->CR1 = tmpcr1;
 8005494:	6003      	str	r3, [r0, #0]
}
 8005496:	4770      	bx	lr
 8005498:	40012c00 	.word	0x40012c00

0800549c <HAL_TIM_Base_Init>:
{
 800549c:	b510      	push	{r4, lr}
  if (htim == NULL)
 800549e:	4604      	mov	r4, r0
 80054a0:	b330      	cbz	r0, 80054f0 <HAL_TIM_Base_Init+0x54>
  if (htim->State == HAL_TIM_STATE_RESET)
 80054a2:	f890 303d 	ldrb.w	r3, [r0, #61]	@ 0x3d
 80054a6:	f003 02ff 	and.w	r2, r3, #255	@ 0xff
 80054aa:	b91b      	cbnz	r3, 80054b4 <HAL_TIM_Base_Init+0x18>
    htim->Lock = HAL_UNLOCKED;
 80054ac:	f880 203c 	strb.w	r2, [r0, #60]	@ 0x3c
    HAL_TIM_Base_MspInit(htim);
 80054b0:	f7fc fecc 	bl	800224c <HAL_TIM_Base_MspInit>
  htim->State = HAL_TIM_STATE_BUSY;
 80054b4:	2302      	movs	r3, #2
  TIM_Base_SetConfig(htim->Instance, &htim->Init);
 80054b6:	6820      	ldr	r0, [r4, #0]
  htim->State = HAL_TIM_STATE_BUSY;
 80054b8:	f884 303d 	strb.w	r3, [r4, #61]	@ 0x3d
  TIM_Base_SetConfig(htim->Instance, &htim->Init);
 80054bc:	1d21      	adds	r1, r4, #4
 80054be:	f7ff ffb1 	bl	8005424 <TIM_Base_SetConfig>
  htim->DMABurstState = HAL_DMA_BURST_STATE_READY;
 80054c2:	2301      	movs	r3, #1
  return HAL_OK;
 80054c4:	2000      	movs	r0, #0
  htim->DMABurstState = HAL_DMA_BURST_STATE_READY;
 80054c6:	f884 3046 	strb.w	r3, [r4, #70]	@ 0x46
  TIM_CHANNEL_STATE_SET_ALL(htim, HAL_TIM_CHANNEL_STATE_READY);
 80054ca:	f884 303e 	strb.w	r3, [r4, #62]	@ 0x3e
 80054ce:	f884 303f 	strb.w	r3, [r4, #63]	@ 0x3f
 80054d2:	f884 3040 	strb.w	r3, [r4, #64]	@ 0x40
 80054d6:	f884 3041 	strb.w	r3, [r4, #65]	@ 0x41
  TIM_CHANNEL_N_STATE_SET_ALL(htim, HAL_TIM_CHANNEL_STATE_READY);
 80054da:	f884 3042 	strb.w	r3, [r4, #66]	@ 0x42
 80054de:	f884 3043 	strb.w	r3, [r4, #67]	@ 0x43
 80054e2:	f884 3044 	strb.w	r3, [r4, #68]	@ 0x44
 80054e6:	f884 3045 	strb.w	r3, [r4, #69]	@ 0x45
  htim->State = HAL_TIM_STATE_READY;
 80054ea:	f884 303d 	strb.w	r3, [r4, #61]	@ 0x3d
}
 80054ee:	bd10      	pop	{r4, pc}
    return HAL_ERROR;
 80054f0:	2001      	movs	r0, #1
 80054f2:	e7fc      	b.n	80054ee <HAL_TIM_Base_Init+0x52>

080054f4 <HAL_TIM_PWM_Init>:
{
 80054f4:	b510      	push	{r4, lr}
  if (htim == NULL)
 80054f6:	4604      	mov	r4, r0
 80054f8:	b330      	cbz	r0, 8005548 <HAL_TIM_PWM_Init+0x54>
  if (htim->State == HAL_TIM_STATE_RESET)
 80054fa:	f890 303d 	ldrb.w	r3, [r0, #61]	@ 0x3d
 80054fe:	f003 02ff 	and.w	r2, r3, #255	@ 0xff
 8005502:	b91b      	cbnz	r3, 800550c <HAL_TIM_PWM_Init+0x18>
    htim->Lock = HAL_UNLOCKED;
 8005504:	f880 203c 	strb.w	r2, [r0, #60]	@ 0x3c
    HAL_TIM_PWM_MspInit(htim);
 8005508:	f7ff ff8a 	bl	8005420 <HAL_TIM_PWM_MspInit>
  htim->State = HAL_TIM_STATE_BUSY;
 800550c:	2302      	movs	r3, #2
  TIM_Base_SetConfig(htim->Instance, &htim->Init);
 800550e:	6820      	ldr	r0, [r4, #0]
  htim->State = HAL_TIM_STATE_BUSY;
 8005510:	f884 303d 	strb.w	r3, [r4, #61]	@ 0x3d
  TIM_Base_SetConfig(htim->Instance, &htim->Init);
 8005514:	1d21      	adds	r1, r4, #4
 8005516:	f7ff ff85 	bl	8005424 <TIM_Base_SetConfig>
  htim->DMABurstState = HAL_DMA_BURST_STATE_READY;
 800551a:	2301      	movs	r3, #1
  return HAL_OK;
 800551c:	2000      	movs	r0, #0
  htim->DMABurstState = HAL_DMA_BURST_STATE_READY;
 800551e:	f884 3046 	strb.w	r3, [r4, #70]	@ 0x46
  TIM_CHANNEL_STATE_SET_ALL(htim, HAL_TIM_CHANNEL_STATE_READY);
 8005522:	f884 303e 	strb.w	r3, [r4, #62]	@ 0x3e
 8005526:	f884 303f 	strb.w	r3, [r4, #63]	@ 0x3f
 800552a:	f884 3040 	strb.w	r3, [r4, #64]	@ 0x40
 800552e:	f884 3041 	strb.w	r3, [r4, #65]	@ 0x41
  TIM_CHANNEL_N_STATE_SET_ALL(htim, HAL_TIM_CHANNEL_STATE_READY);
 8005532:	f884 3042 	strb.w	r3, [r4, #66]	@ 0x42
 8005536:	f884 3043 	strb.w	r3, [r4, #67]	@ 0x43
 800553a:	f884 3044 	strb.w	r3, [r4, #68]	@ 0x44
 800553e:	f884 3045 	strb.w	r3, [r4, #69]	@ 0x45
  htim->State = HAL_TIM_STATE_READY;
 8005542:	f884 303d 	strb.w	r3, [r4, #61]	@ 0x3d
}
 8005546:	bd10      	pop	{r4, pc}
    return HAL_ERROR;
 8005548:	2001      	movs	r0, #1
 800554a:	e7fc      	b.n	8005546 <HAL_TIM_PWM_Init+0x52>

0800554c <TIM_OC2_SetConfig>:
  tmpccer = TIMx->CCER;
 800554c:	6a03      	ldr	r3, [r0, #32]
  TIMx->CCER &= ~TIM_CCER_CC2E;
 800554e:	6a02      	ldr	r2, [r0, #32]
{
 8005550:	b570      	push	{r4, r5, r6, lr}
  TIMx->CCER &= ~TIM_CCER_CC2E;
 8005552:	f022 0210 	bic.w	r2, r2, #16
 8005556:	6202      	str	r2, [r0, #32]
  tmpcr2 =  TIMx->CR2;
 8005558:	6844      	ldr	r4, [r0, #4]
  tmpccmrx = TIMx->CCMR1;
 800555a:	6982      	ldr	r2, [r0, #24]
  tmpccmrx |= (OC_Config->OCMode << 8U);
 800555c:	680d      	ldr	r5, [r1, #0]
  tmpccmrx &= ~TIM_CCMR1_CC2S;
 800555e:	f422 42e6 	bic.w	r2, r2, #29440	@ 0x7300
  tmpccmrx |= (OC_Config->OCMode << 8U);
 8005562:	ea42 2205 	orr.w	r2, r2, r5, lsl #8
  tmpccer |= (OC_Config->OCPolarity << 4U);
 8005566:	688d      	ldr	r5, [r1, #8]
  tmpccer &= ~TIM_CCER_CC2P;
 8005568:	f023 0320 	bic.w	r3, r3, #32
  tmpccer |= (OC_Config->OCPolarity << 4U);
 800556c:	ea43 1305 	orr.w	r3, r3, r5, lsl #4
  if (IS_TIM_CCXN_INSTANCE(TIMx, TIM_CHANNEL_2))
 8005570:	4d0b      	ldr	r5, [pc, #44]	@ (80055a0 <TIM_OC2_SetConfig+0x54>)
 8005572:	42a8      	cmp	r0, r5
 8005574:	d10d      	bne.n	8005592 <TIM_OC2_SetConfig+0x46>
    tmpccer |= (OC_Config->OCNPolarity << 4U);
 8005576:	68cd      	ldr	r5, [r1, #12]
    tmpccer &= ~TIM_CCER_CC2NP;
 8005578:	f023 0380 	bic.w	r3, r3, #128	@ 0x80
    tmpccer |= (OC_Config->OCNPolarity << 4U);
 800557c:	ea43 1305 	orr.w	r3, r3, r5, lsl #4
    tmpcr2 &= ~TIM_CR2_OIS2N;
 8005580:	f424 6440 	bic.w	r4, r4, #3072	@ 0xc00
    tmpcr2 |= (OC_Config->OCNIdleState << 2U);
 8005584:	e9d1 5605 	ldrd	r5, r6, [r1, #20]
 8005588:	4335      	orrs	r5, r6
    tmpccer &= ~TIM_CCER_CC2NE;
 800558a:	f023 0340 	bic.w	r3, r3, #64	@ 0x40
    tmpcr2 |= (OC_Config->OCNIdleState << 2U);
 800558e:	ea44 0485 	orr.w	r4, r4, r5, lsl #2
  TIMx->CR2 = tmpcr2;
 8005592:	6044      	str	r4, [r0, #4]
  TIMx->CCMR1 = tmpccmrx;
 8005594:	6182      	str	r2, [r0, #24]
  TIMx->CCR2 = OC_Config->Pulse;
 8005596:	684a      	ldr	r2, [r1, #4]
 8005598:	6382      	str	r2, [r0, #56]	@ 0x38
  TIMx->CCER = tmpccer;
 800559a:	6203      	str	r3, [r0, #32]
}
 800559c:	bd70      	pop	{r4, r5, r6, pc}
 800559e:	bf00      	nop
 80055a0:	40012c00 	.word	0x40012c00

080055a4 <HAL_TIM_PWM_ConfigChannel>:
{
 80055a4:	b538      	push	{r3, r4, r5, lr}
  __HAL_LOCK(htim);
 80055a6:	f890 303c 	ldrb.w	r3, [r0, #60]	@ 0x3c
{
 80055aa:	4604      	mov	r4, r0
  __HAL_LOCK(htim);
 80055ac:	2b01      	cmp	r3, #1
 80055ae:	d04f      	beq.n	8005650 <HAL_TIM_PWM_ConfigChannel+0xac>
 80055b0:	2001      	movs	r0, #1
  switch (Channel)
 80055b2:	2a08      	cmp	r2, #8
  __HAL_LOCK(htim);
 80055b4:	f884 003c 	strb.w	r0, [r4, #60]	@ 0x3c
  switch (Channel)
 80055b8:	d03a      	beq.n	8005630 <HAL_TIM_PWM_ConfigChannel+0x8c>
 80055ba:	d806      	bhi.n	80055ca <HAL_TIM_PWM_ConfigChannel+0x26>
 80055bc:	b1ba      	cbz	r2, 80055ee <HAL_TIM_PWM_ConfigChannel+0x4a>
 80055be:	2a04      	cmp	r2, #4
 80055c0:	d026      	beq.n	8005610 <HAL_TIM_PWM_ConfigChannel+0x6c>
  __HAL_UNLOCK(htim);
 80055c2:	2300      	movs	r3, #0
 80055c4:	f884 303c 	strb.w	r3, [r4, #60]	@ 0x3c
}
 80055c8:	bd38      	pop	{r3, r4, r5, pc}
  switch (Channel)
 80055ca:	2a0c      	cmp	r2, #12
 80055cc:	d1f9      	bne.n	80055c2 <HAL_TIM_PWM_ConfigChannel+0x1e>
      TIM_OC4_SetConfig(htim->Instance, sConfig);
 80055ce:	6820      	ldr	r0, [r4, #0]
 80055d0:	f7ff ff04 	bl	80053dc <TIM_OC4_SetConfig>
      htim->Instance->CCMR2 |= TIM_CCMR2_OC4PE;
 80055d4:	69c3      	ldr	r3, [r0, #28]
      htim->Instance->CCMR2 |= sConfig->OCFastMode << 8U;
 80055d6:	690a      	ldr	r2, [r1, #16]
      htim->Instance->CCMR2 |= TIM_CCMR2_OC4PE;
 80055d8:	f443 6300 	orr.w	r3, r3, #2048	@ 0x800
 80055dc:	61c3      	str	r3, [r0, #28]
      htim->Instance->CCMR2 &= ~TIM_CCMR2_OC4FE;
 80055de:	69c3      	ldr	r3, [r0, #28]
 80055e0:	f423 6380 	bic.w	r3, r3, #1024	@ 0x400
 80055e4:	61c3      	str	r3, [r0, #28]
      htim->Instance->CCMR2 |= sConfig->OCFastMode << 8U;
 80055e6:	69c3      	ldr	r3, [r0, #28]
 80055e8:	ea43 2302 	orr.w	r3, r3, r2, lsl #8
 80055ec:	e02e      	b.n	800564c <HAL_TIM_PWM_ConfigChannel+0xa8>
      TIM_OC1_SetConfig(htim->Instance, sConfig);
 80055ee:	6820      	ldr	r0, [r4, #0]
 80055f0:	f7ff fea2 	bl	8005338 <TIM_OC1_SetConfig>
      htim->Instance->CCMR1 |= TIM_CCMR1_OC1PE;
 80055f4:	6983      	ldr	r3, [r0, #24]
      htim->Instance->CCMR1 |= sConfig->OCFastMode;
 80055f6:	690a      	ldr	r2, [r1, #16]
      htim->Instance->CCMR1 |= TIM_CCMR1_OC1PE;
 80055f8:	f043 0308 	orr.w	r3, r3, #8
 80055fc:	6183      	str	r3, [r0, #24]
      htim->Instance->CCMR1 &= ~TIM_CCMR1_OC1FE;
 80055fe:	6983      	ldr	r3, [r0, #24]
 8005600:	f023 0304 	bic.w	r3, r3, #4
 8005604:	6183      	str	r3, [r0, #24]
      htim->Instance->CCMR1 |= sConfig->OCFastMode;
 8005606:	6983      	ldr	r3, [r0, #24]
 8005608:	4313      	orrs	r3, r2
      htim->Instance->CCMR1 |= sConfig->OCFastMode << 8U;
 800560a:	6183      	str	r3, [r0, #24]
  HAL_StatusTypeDef status = HAL_OK;
 800560c:	2000      	movs	r0, #0
 800560e:	e7d8      	b.n	80055c2 <HAL_TIM_PWM_ConfigChannel+0x1e>
      TIM_OC2_SetConfig(htim->Instance, sConfig);
 8005610:	6820      	ldr	r0, [r4, #0]
 8005612:	f7ff ff9b 	bl	800554c <TIM_OC2_SetConfig>
      htim->Instance->CCMR1 |= TIM_CCMR1_OC2PE;
 8005616:	6983      	ldr	r3, [r0, #24]
      htim->Instance->CCMR1 |= sConfig->OCFastMode << 8U;
 8005618:	690a      	ldr	r2, [r1, #16]
      htim->Instance->CCMR1 |= TIM_CCMR1_OC2PE;
 800561a:	f443 6300 	orr.w	r3, r3, #2048	@ 0x800
 800561e:	6183      	str	r3, [r0, #24]
      htim->Instance->CCMR1 &= ~TIM_CCMR1_OC2FE;
 8005620:	6983      	ldr	r3, [r0, #24]
 8005622:	f423 6380 	bic.w	r3, r3, #1024	@ 0x400
 8005626:	6183      	str	r3, [r0, #24]
      htim->Instance->CCMR1 |= sConfig->OCFastMode << 8U;
 8005628:	6983      	ldr	r3, [r0, #24]
 800562a:	ea43 2302 	orr.w	r3, r3, r2, lsl #8
 800562e:	e7ec      	b.n	800560a <HAL_TIM_PWM_ConfigChannel+0x66>
      TIM_OC3_SetConfig(htim->Instance, sConfig);
 8005630:	6820      	ldr	r0, [r4, #0]
 8005632:	f7ff fea9 	bl	8005388 <TIM_OC3_SetConfig>
      htim->Instance->CCMR2 |= TIM_CCMR2_OC3PE;
 8005636:	69c3      	ldr	r3, [r0, #28]
      htim->Instance->CCMR2 |= sConfig->OCFastMode;
 8005638:	690a      	ldr	r2, [r1, #16]
      htim->Instance->CCMR2 |= TIM_CCMR2_OC3PE;
 800563a:	f043 0308 	orr.w	r3, r3, #8
 800563e:	61c3      	str	r3, [r0, #28]
      htim->Instance->CCMR2 &= ~TIM_CCMR2_OC3FE;
 8005640:	69c3      	ldr	r3, [r0, #28]
 8005642:	f023 0304 	bic.w	r3, r3, #4
 8005646:	61c3      	str	r3, [r0, #28]
      htim->Instance->CCMR2 |= sConfig->OCFastMode;
 8005648:	69c3      	ldr	r3, [r0, #28]
 800564a:	4313      	orrs	r3, r2
      htim->Instance->CCMR2 |= sConfig->OCFastMode << 8U;
 800564c:	61c3      	str	r3, [r0, #28]
      break;
 800564e:	e7dd      	b.n	800560c <HAL_TIM_PWM_ConfigChannel+0x68>
  __HAL_LOCK(htim);
 8005650:	2002      	movs	r0, #2
 8005652:	e7b9      	b.n	80055c8 <HAL_TIM_PWM_ConfigChannel+0x24>

08005654 <TIM_ETR_SetConfig>:
  *          This parameter must be a value between 0x00 and 0x0F
  * @retval None
  */
void TIM_ETR_SetConfig(TIM_TypeDef *TIMx, uint32_t TIM_ExtTRGPrescaler,
                       uint32_t TIM_ExtTRGPolarity, uint32_t ExtTRGFilter)
{
 8005654:	b510      	push	{r4, lr}
  uint32_t tmpsmcr;

  tmpsmcr = TIMx->SMCR;
 8005656:	6884      	ldr	r4, [r0, #8]

  /* Reset the ETR Bits */
  tmpsmcr &= ~(TIM_SMCR_ETF | TIM_SMCR_ETPS | TIM_SMCR_ECE | TIM_SMCR_ETP);

  /* Set the Prescaler, the Filter value and the Polarity */
  tmpsmcr |= (uint32_t)(TIM_ExtTRGPrescaler | (TIM_ExtTRGPolarity | (ExtTRGFilter << 8U)));
 8005658:	430a      	orrs	r2, r1
  tmpsmcr &= ~(TIM_SMCR_ETF | TIM_SMCR_ETPS | TIM_SMCR_ECE | TIM_SMCR_ETP);
 800565a:	f424 447f 	bic.w	r4, r4, #65280	@ 0xff00
  tmpsmcr |= (uint32_t)(TIM_ExtTRGPrescaler | (TIM_ExtTRGPolarity | (ExtTRGFilter << 8U)));
 800565e:	ea42 2203 	orr.w	r2, r2, r3, lsl #8
 8005662:	4322      	orrs	r2, r4

  /* Write to TIMx SMCR */
  TIMx->SMCR = tmpsmcr;
 8005664:	6082      	str	r2, [r0, #8]
}
 8005666:	bd10      	pop	{r4, pc}

08005668 <HAL_TIM_ConfigClockSource>:
{
 8005668:	b538      	push	{r3, r4, r5, lr}
  __HAL_LOCK(htim);
 800566a:	f890 303c 	ldrb.w	r3, [r0, #60]	@ 0x3c
{
 800566e:	4604      	mov	r4, r0
  __HAL_LOCK(htim);
 8005670:	2b01      	cmp	r3, #1
 8005672:	f04f 0002 	mov.w	r0, #2
 8005676:	f000 808e 	beq.w	8005796 <HAL_TIM_ConfigClockSource+0x12e>
 800567a:	2201      	movs	r2, #1
  htim->State = HAL_TIM_STATE_BUSY;
 800567c:	f884 003d 	strb.w	r0, [r4, #61]	@ 0x3d
  tmpsmcr = htim->Instance->SMCR;
 8005680:	6820      	ldr	r0, [r4, #0]
  __HAL_LOCK(htim);
 8005682:	f884 203c 	strb.w	r2, [r4, #60]	@ 0x3c
  tmpsmcr = htim->Instance->SMCR;
 8005686:	6883      	ldr	r3, [r0, #8]
  tmpsmcr &= ~(TIM_SMCR_ETF | TIM_SMCR_ETPS | TIM_SMCR_ECE | TIM_SMCR_ETP);
 8005688:	f423 437f 	bic.w	r3, r3, #65280	@ 0xff00
 800568c:	f023 0377 	bic.w	r3, r3, #119	@ 0x77
  htim->Instance->SMCR = tmpsmcr;
 8005690:	6083      	str	r3, [r0, #8]
  switch (sClockSourceConfig->ClockSource)
 8005692:	680b      	ldr	r3, [r1, #0]
 8005694:	2b60      	cmp	r3, #96	@ 0x60
 8005696:	d04f      	beq.n	8005738 <HAL_TIM_ConfigClockSource+0xd0>
 8005698:	d832      	bhi.n	8005700 <HAL_TIM_ConfigClockSource+0x98>
 800569a:	2b40      	cmp	r3, #64	@ 0x40
 800569c:	d064      	beq.n	8005768 <HAL_TIM_ConfigClockSource+0x100>
 800569e:	d816      	bhi.n	80056ce <HAL_TIM_ConfigClockSource+0x66>
 80056a0:	2b20      	cmp	r3, #32
 80056a2:	d00d      	beq.n	80056c0 <HAL_TIM_ConfigClockSource+0x58>
 80056a4:	d80a      	bhi.n	80056bc <HAL_TIM_ConfigClockSource+0x54>
 80056a6:	f033 0110 	bics.w	r1, r3, #16
 80056aa:	d009      	beq.n	80056c0 <HAL_TIM_ConfigClockSource+0x58>
  htim->State = HAL_TIM_STATE_READY;
 80056ac:	2301      	movs	r3, #1
 80056ae:	f884 303d 	strb.w	r3, [r4, #61]	@ 0x3d
  __HAL_UNLOCK(htim);
 80056b2:	2300      	movs	r3, #0
 80056b4:	f884 303c 	strb.w	r3, [r4, #60]	@ 0x3c
}
 80056b8:	4610      	mov	r0, r2
 80056ba:	bd38      	pop	{r3, r4, r5, pc}
  switch (sClockSourceConfig->ClockSource)
 80056bc:	2b30      	cmp	r3, #48	@ 0x30
 80056be:	d1f5      	bne.n	80056ac <HAL_TIM_ConfigClockSource+0x44>
  tmpsmcr = TIMx->SMCR;
 80056c0:	6882      	ldr	r2, [r0, #8]
  tmpsmcr &= ~TIM_SMCR_TS;
 80056c2:	f022 0270 	bic.w	r2, r2, #112	@ 0x70
  tmpsmcr |= (InputTriggerSource | TIM_SLAVEMODE_EXTERNAL1);
 80056c6:	4313      	orrs	r3, r2
 80056c8:	f043 0307 	orr.w	r3, r3, #7
  TIMx->SMCR = tmpsmcr;
 80056cc:	e028      	b.n	8005720 <HAL_TIM_ConfigClockSource+0xb8>
  switch (sClockSourceConfig->ClockSource)
 80056ce:	2b50      	cmp	r3, #80	@ 0x50
 80056d0:	d1ec      	bne.n	80056ac <HAL_TIM_ConfigClockSource+0x44>
                               sClockSourceConfig->ClockPolarity,
 80056d2:	684a      	ldr	r2, [r1, #4]
                               sClockSourceConfig->ClockFilter);
 80056d4:	68cd      	ldr	r5, [r1, #12]
  tmpccer = TIMx->CCER;
 80056d6:	6a01      	ldr	r1, [r0, #32]
  TIMx->CCER &= ~TIM_CCER_CC1E;
 80056d8:	6a03      	ldr	r3, [r0, #32]
  tmpccer &= ~(TIM_CCER_CC1P | TIM_CCER_CC1NP);
 80056da:	f021 010a 	bic.w	r1, r1, #10
  TIMx->CCER &= ~TIM_CCER_CC1E;
 80056de:	f023 0301 	bic.w	r3, r3, #1
 80056e2:	6203      	str	r3, [r0, #32]
  tmpccmr1 = TIMx->CCMR1;
 80056e4:	6983      	ldr	r3, [r0, #24]
  tmpccer |= TIM_ICPolarity;
 80056e6:	430a      	orrs	r2, r1
  tmpccmr1 &= ~TIM_CCMR1_IC1F;
 80056e8:	f023 03f0 	bic.w	r3, r3, #240	@ 0xf0
  tmpccmr1 |= (TIM_ICFilter << 4U);
 80056ec:	ea43 1305 	orr.w	r3, r3, r5, lsl #4
  TIMx->CCMR1 = tmpccmr1;
 80056f0:	6183      	str	r3, [r0, #24]
  TIMx->CCER = tmpccer;
 80056f2:	6202      	str	r2, [r0, #32]
  tmpsmcr = TIMx->SMCR;
 80056f4:	6883      	ldr	r3, [r0, #8]
  tmpsmcr &= ~TIM_SMCR_TS;
 80056f6:	f023 0370 	bic.w	r3, r3, #112	@ 0x70
  tmpsmcr |= (InputTriggerSource | TIM_SLAVEMODE_EXTERNAL1);
 80056fa:	f043 0357 	orr.w	r3, r3, #87	@ 0x57
  TIMx->SMCR = tmpsmcr;
 80056fe:	e00f      	b.n	8005720 <HAL_TIM_ConfigClockSource+0xb8>
  switch (sClockSourceConfig->ClockSource)
 8005700:	f5b3 5f80 	cmp.w	r3, #4096	@ 0x1000
 8005704:	d00d      	beq.n	8005722 <HAL_TIM_ConfigClockSource+0xba>
 8005706:	f5b3 5f00 	cmp.w	r3, #8192	@ 0x2000
 800570a:	d00c      	beq.n	8005726 <HAL_TIM_ConfigClockSource+0xbe>
 800570c:	2b70      	cmp	r3, #112	@ 0x70
 800570e:	d1cd      	bne.n	80056ac <HAL_TIM_ConfigClockSource+0x44>
      TIM_ETR_SetConfig(htim->Instance,
 8005710:	68cb      	ldr	r3, [r1, #12]
 8005712:	e9d1 2101 	ldrd	r2, r1, [r1, #4]
 8005716:	f7ff ff9d 	bl	8005654 <TIM_ETR_SetConfig>
      tmpsmcr = htim->Instance->SMCR;
 800571a:	6883      	ldr	r3, [r0, #8]
      tmpsmcr |= (TIM_SLAVEMODE_EXTERNAL1 | TIM_CLOCKSOURCE_ETRMODE1);
 800571c:	f043 0377 	orr.w	r3, r3, #119	@ 0x77
      htim->Instance->SMCR = tmpsmcr;
 8005720:	6083      	str	r3, [r0, #8]
  HAL_StatusTypeDef status = HAL_OK;
 8005722:	2200      	movs	r2, #0
 8005724:	e7c2      	b.n	80056ac <HAL_TIM_ConfigClockSource+0x44>
      TIM_ETR_SetConfig(htim->Instance,
 8005726:	68cb      	ldr	r3, [r1, #12]
 8005728:	e9d1 2101 	ldrd	r2, r1, [r1, #4]
 800572c:	f7ff ff92 	bl	8005654 <TIM_ETR_SetConfig>
      htim->Instance->SMCR |= TIM_SMCR_ECE;
 8005730:	6883      	ldr	r3, [r0, #8]
 8005732:	f443 4380 	orr.w	r3, r3, #16384	@ 0x4000
 8005736:	e7f3      	b.n	8005720 <HAL_TIM_ConfigClockSource+0xb8>
  tmpccer = TIMx->CCER;
 8005738:	6a03      	ldr	r3, [r0, #32]
  TIMx->CCER &= ~TIM_CCER_CC2E;
 800573a:	6a02      	ldr	r2, [r0, #32]
                               sClockSourceConfig->ClockPolarity,
 800573c:	684d      	ldr	r5, [r1, #4]
  TIMx->CCER &= ~TIM_CCER_CC2E;
 800573e:	f022 0210 	bic.w	r2, r2, #16
                               sClockSourceConfig->ClockFilter);
 8005742:	68c9      	ldr	r1, [r1, #12]
  TIMx->CCER &= ~TIM_CCER_CC2E;
 8005744:	6202      	str	r2, [r0, #32]
  tmpccmr1 = TIMx->CCMR1;
 8005746:	6982      	ldr	r2, [r0, #24]
  tmpccer &= ~(TIM_CCER_CC2P | TIM_CCER_CC2NP);
 8005748:	f023 03a0 	bic.w	r3, r3, #160	@ 0xa0
  tmpccmr1 &= ~TIM_CCMR1_IC2F;
 800574c:	f422 4270 	bic.w	r2, r2, #61440	@ 0xf000
  tmpccer |= (TIM_ICPolarity << 4U);
 8005750:	ea43 1305 	orr.w	r3, r3, r5, lsl #4
  tmpccmr1 |= (TIM_ICFilter << 12U);
 8005754:	ea42 3201 	orr.w	r2, r2, r1, lsl #12
  TIMx->CCMR1 = tmpccmr1 ;
 8005758:	6182      	str	r2, [r0, #24]
  TIMx->CCER = tmpccer;
 800575a:	6203      	str	r3, [r0, #32]
  tmpsmcr = TIMx->SMCR;
 800575c:	6883      	ldr	r3, [r0, #8]
  tmpsmcr &= ~TIM_SMCR_TS;
 800575e:	f023 0370 	bic.w	r3, r3, #112	@ 0x70
  tmpsmcr |= (InputTriggerSource | TIM_SLAVEMODE_EXTERNAL1);
 8005762:	f043 0367 	orr.w	r3, r3, #103	@ 0x67
  TIMx->SMCR = tmpsmcr;
 8005766:	e7db      	b.n	8005720 <HAL_TIM_ConfigClockSource+0xb8>
                               sClockSourceConfig->ClockPolarity,
 8005768:	684a      	ldr	r2, [r1, #4]
                               sClockSourceConfig->ClockFilter);
 800576a:	68cd      	ldr	r5, [r1, #12]
  tmpccer = TIMx->CCER;
 800576c:	6a01      	ldr	r1, [r0, #32]
  TIMx->CCER &= ~TIM_CCER_CC1E;
 800576e:	6a03      	ldr	r3, [r0, #32]
  tmpccer &= ~(TIM_CCER_CC1P | TIM_CCER_CC1NP);
 8005770:	f021 010a 	bic.w	r1, r1, #10
  TIMx->CCER &= ~TIM_CCER_CC1E;
 8005774:	f023 0301 	bic.w	r3, r3, #1
 8005778:	6203      	str	r3, [r0, #32]
  tmpccmr1 = TIMx->CCMR1;
 800577a:	6983      	ldr	r3, [r0, #24]
  tmpccer |= TIM_ICPolarity;
 800577c:	430a      	orrs	r2, r1
  tmpccmr1 &= ~TIM_CCMR1_IC1F;
 800577e:	f023 03f0 	bic.w	r3, r3, #240	@ 0xf0
  tmpccmr1 |= (TIM_ICFilter << 4U);
 8005782:	ea43 1305 	orr.w	r3, r3, r5, lsl #4
  TIMx->CCMR1 = tmpccmr1;
 8005786:	6183      	str	r3, [r0, #24]
  TIMx->CCER = tmpccer;
 8005788:	6202      	str	r2, [r0, #32]
  tmpsmcr = TIMx->SMCR;
 800578a:	6883      	ldr	r3, [r0, #8]
  tmpsmcr &= ~TIM_SMCR_TS;
 800578c:	f023 0370 	bic.w	r3, r3, #112	@ 0x70
  tmpsmcr |= (InputTriggerSource | TIM_SLAVEMODE_EXTERNAL1);
 8005790:	f043 0347 	orr.w	r3, r3, #71	@ 0x47
  TIMx->SMCR = tmpsmcr;
 8005794:	e7c4      	b.n	8005720 <HAL_TIM_ConfigClockSource+0xb8>
  __HAL_LOCK(htim);
 8005796:	4602      	mov	r2, r0
 8005798:	e78e      	b.n	80056b8 <HAL_TIM_ConfigClockSource+0x50>

0800579a <TIM_CCxChannelCmd>:
  * @param  ChannelState specifies the TIM Channel CCxE bit new state.
  *          This parameter can be: TIM_CCx_ENABLE or TIM_CCx_DISABLE.
  * @retval None
  */
void TIM_CCxChannelCmd(TIM_TypeDef *TIMx, uint32_t Channel, uint32_t ChannelState)
{
 800579a:	b510      	push	{r4, lr}

  /* Check the parameters */
  assert_param(IS_TIM_CC1_INSTANCE(TIMx));
  assert_param(IS_TIM_CHANNELS(Channel));

  tmp = TIM_CCER_CC1E << (Channel & 0x1FU); /* 0x1FU = 31 bits max shift */
 800579c:	2401      	movs	r4, #1

  /* Reset the CCxE Bit */
  TIMx->CCER &= ~tmp;
 800579e:	6a03      	ldr	r3, [r0, #32]
  tmp = TIM_CCER_CC1E << (Channel & 0x1FU); /* 0x1FU = 31 bits max shift */
 80057a0:	f001 011f 	and.w	r1, r1, #31
 80057a4:	408c      	lsls	r4, r1
  TIMx->CCER &= ~tmp;
 80057a6:	ea23 0304 	bic.w	r3, r3, r4
 80057aa:	6203      	str	r3, [r0, #32]

  /* Set or reset the CCxE Bit */
  TIMx->CCER |= (uint32_t)(ChannelState << (Channel & 0x1FU)); /* 0x1FU = 31 bits max shift */
 80057ac:	6a03      	ldr	r3, [r0, #32]
 80057ae:	408a      	lsls	r2, r1
 80057b0:	431a      	orrs	r2, r3
 80057b2:	6202      	str	r2, [r0, #32]
}
 80057b4:	bd10      	pop	{r4, pc}
	...

080057b8 <HAL_TIM_OC_Start>:
{
 80057b8:	b508      	push	{r3, lr}
  if (TIM_CHANNEL_STATE_GET(htim, Channel) != HAL_TIM_CHANNEL_STATE_READY)
 80057ba:	b929      	cbnz	r1, 80057c8 <HAL_TIM_OC_Start+0x10>
 80057bc:	f890 303e 	ldrb.w	r3, [r0, #62]	@ 0x3e
 80057c0:	2b01      	cmp	r3, #1
 80057c2:	d01d      	beq.n	8005800 <HAL_TIM_OC_Start+0x48>
    return HAL_ERROR;
 80057c4:	2001      	movs	r0, #1
 80057c6:	e02e      	b.n	8005826 <HAL_TIM_OC_Start+0x6e>
  if (TIM_CHANNEL_STATE_GET(htim, Channel) != HAL_TIM_CHANNEL_STATE_READY)
 80057c8:	2904      	cmp	r1, #4
 80057ca:	d107      	bne.n	80057dc <HAL_TIM_OC_Start+0x24>
 80057cc:	f890 303f 	ldrb.w	r3, [r0, #63]	@ 0x3f
 80057d0:	2b01      	cmp	r3, #1
 80057d2:	d1f7      	bne.n	80057c4 <HAL_TIM_OC_Start+0xc>
  TIM_CHANNEL_STATE_SET(htim, Channel, HAL_TIM_CHANNEL_STATE_BUSY);
 80057d4:	2302      	movs	r3, #2
 80057d6:	f880 303f 	strb.w	r3, [r0, #63]	@ 0x3f
 80057da:	e014      	b.n	8005806 <HAL_TIM_OC_Start+0x4e>
  if (TIM_CHANNEL_STATE_GET(htim, Channel) != HAL_TIM_CHANNEL_STATE_READY)
 80057dc:	2908      	cmp	r1, #8
 80057de:	d107      	bne.n	80057f0 <HAL_TIM_OC_Start+0x38>
 80057e0:	f890 3040 	ldrb.w	r3, [r0, #64]	@ 0x40
 80057e4:	2b01      	cmp	r3, #1
 80057e6:	d1ed      	bne.n	80057c4 <HAL_TIM_OC_Start+0xc>
  TIM_CHANNEL_STATE_SET(htim, Channel, HAL_TIM_CHANNEL_STATE_BUSY);
 80057e8:	2302      	movs	r3, #2
 80057ea:	f880 3040 	strb.w	r3, [r0, #64]	@ 0x40
 80057ee:	e00a      	b.n	8005806 <HAL_TIM_OC_Start+0x4e>
  if (TIM_CHANNEL_STATE_GET(htim, Channel) != HAL_TIM_CHANNEL_STATE_READY)
 80057f0:	f890 3041 	ldrb.w	r3, [r0, #65]	@ 0x41
 80057f4:	2b01      	cmp	r3, #1
 80057f6:	d1e5      	bne.n	80057c4 <HAL_TIM_OC_Start+0xc>
  TIM_CHANNEL_STATE_SET(htim, Channel, HAL_TIM_CHANNEL_STATE_BUSY);
 80057f8:	2302      	movs	r3, #2
 80057fa:	f880 3041 	strb.w	r3, [r0, #65]	@ 0x41
 80057fe:	e002      	b.n	8005806 <HAL_TIM_OC_Start+0x4e>
 8005800:	2302      	movs	r3, #2
 8005802:	f880 303e 	strb.w	r3, [r0, #62]	@ 0x3e
  TIM_CCxChannelCmd(htim->Instance, Channel, TIM_CCx_ENABLE);
 8005806:	6800      	ldr	r0, [r0, #0]
 8005808:	2201      	movs	r2, #1
 800580a:	f7ff ffc6 	bl	800579a <TIM_CCxChannelCmd>
  if (IS_TIM_BREAK_INSTANCE(htim->Instance) != RESET)
 800580e:	4b0f      	ldr	r3, [pc, #60]	@ (800584c <HAL_TIM_OC_Start+0x94>)
 8005810:	4298      	cmp	r0, r3
 8005812:	d009      	beq.n	8005828 <HAL_TIM_OC_Start+0x70>
  if (IS_TIM_SLAVE_INSTANCE(htim->Instance))
 8005814:	f1b0 4f80 	cmp.w	r0, #1073741824	@ 0x40000000
 8005818:	d10b      	bne.n	8005832 <HAL_TIM_OC_Start+0x7a>
    tmpsmcr = htim->Instance->SMCR & TIM_SMCR_SMS;
 800581a:	6883      	ldr	r3, [r0, #8]
 800581c:	f003 0307 	and.w	r3, r3, #7
    if (!IS_TIM_SLAVEMODE_TRIGGER_ENABLED(tmpsmcr))
 8005820:	2b06      	cmp	r3, #6
 8005822:	d10d      	bne.n	8005840 <HAL_TIM_OC_Start+0x88>
  return HAL_OK;
 8005824:	2000      	movs	r0, #0
}
 8005826:	bd08      	pop	{r3, pc}
    __HAL_TIM_MOE_ENABLE(htim);
 8005828:	6c43      	ldr	r3, [r0, #68]	@ 0x44
 800582a:	f443 4300 	orr.w	r3, r3, #32768	@ 0x8000
 800582e:	6443      	str	r3, [r0, #68]	@ 0x44
  if (IS_TIM_SLAVE_INSTANCE(htim->Instance))
 8005830:	e7f3      	b.n	800581a <HAL_TIM_OC_Start+0x62>
 8005832:	4b07      	ldr	r3, [pc, #28]	@ (8005850 <HAL_TIM_OC_Start+0x98>)
 8005834:	4298      	cmp	r0, r3
 8005836:	d0f0      	beq.n	800581a <HAL_TIM_OC_Start+0x62>
 8005838:	f503 6380 	add.w	r3, r3, #1024	@ 0x400
 800583c:	4298      	cmp	r0, r3
 800583e:	d0ec      	beq.n	800581a <HAL_TIM_OC_Start+0x62>
      __HAL_TIM_ENABLE(htim);
 8005840:	6803      	ldr	r3, [r0, #0]
 8005842:	f043 0301 	orr.w	r3, r3, #1
 8005846:	6003      	str	r3, [r0, #0]
 8005848:	e7ec      	b.n	8005824 <HAL_TIM_OC_Start+0x6c>
 800584a:	bf00      	nop
 800584c:	40012c00 	.word	0x40012c00
 8005850:	40000400 	.word	0x40000400

08005854 <HAL_TIM_PWM_Start>:
HAL_StatusTypeDef HAL_TIM_PWM_Start(TIM_HandleTypeDef *htim, uint32_t Channel)
 8005854:	f7ff bfb0 	b.w	80057b8 <HAL_TIM_OC_Start>

08005858 <HAL_TIMEx_MasterConfigSynchronization>:
  *         mode.
  * @retval HAL status
  */
HAL_StatusTypeDef HAL_TIMEx_MasterConfigSynchronization(TIM_HandleTypeDef *htim,
                                                        const TIM_MasterConfigTypeDef *sMasterConfig)
{
 8005858:	b530      	push	{r4, r5, lr}
  assert_param(IS_TIM_MASTER_INSTANCE(htim->Instance));
  assert_param(IS_TIM_TRGO_SOURCE(sMasterConfig->MasterOutputTrigger));
  assert_param(IS_TIM_MSM_STATE(sMasterConfig->MasterSlaveMode));

  /* Check input state */
  __HAL_LOCK(htim);
 800585a:	f890 303c 	ldrb.w	r3, [r0, #60]	@ 0x3c
{
 800585e:	4602      	mov	r2, r0
  __HAL_LOCK(htim);
 8005860:	2b01      	cmp	r3, #1
 8005862:	f04f 0002 	mov.w	r0, #2
 8005866:	d022      	beq.n	80058ae <HAL_TIMEx_MasterConfigSynchronization+0x56>

  /* Change the handler state */
  htim->State = HAL_TIM_STATE_BUSY;

  /* Get the TIMx CR2 register value */
  tmpcr2 = htim->Instance->CR2;
 8005868:	6813      	ldr	r3, [r2, #0]
  htim->State = HAL_TIM_STATE_BUSY;
 800586a:	f882 003d 	strb.w	r0, [r2, #61]	@ 0x3d
  tmpcr2 = htim->Instance->CR2;
 800586e:	685c      	ldr	r4, [r3, #4]
  tmpsmcr = htim->Instance->SMCR;

  /* Reset the MMS Bits */
  tmpcr2 &= ~TIM_CR2_MMS;
  /* Select the TRGO source */
  tmpcr2 |=  sMasterConfig->MasterOutputTrigger;
 8005870:	680d      	ldr	r5, [r1, #0]
  tmpcr2 &= ~TIM_CR2_MMS;
 8005872:	f024 0470 	bic.w	r4, r4, #112	@ 0x70
  tmpcr2 |=  sMasterConfig->MasterOutputTrigger;
 8005876:	432c      	orrs	r4, r5
  tmpsmcr = htim->Instance->SMCR;
 8005878:	6898      	ldr	r0, [r3, #8]

  /* Update TIMx CR2 */
  htim->Instance->CR2 = tmpcr2;
 800587a:	605c      	str	r4, [r3, #4]

  if (IS_TIM_SLAVE_INSTANCE(htim->Instance))
 800587c:	4c0c      	ldr	r4, [pc, #48]	@ (80058b0 <HAL_TIMEx_MasterConfigSynchronization+0x58>)
 800587e:	42a3      	cmp	r3, r4
 8005880:	d00a      	beq.n	8005898 <HAL_TIMEx_MasterConfigSynchronization+0x40>
 8005882:	f1b3 4f80 	cmp.w	r3, #1073741824	@ 0x40000000
 8005886:	d007      	beq.n	8005898 <HAL_TIMEx_MasterConfigSynchronization+0x40>
 8005888:	f5a4 3494 	sub.w	r4, r4, #75776	@ 0x12800
 800588c:	42a3      	cmp	r3, r4
 800588e:	d003      	beq.n	8005898 <HAL_TIMEx_MasterConfigSynchronization+0x40>
 8005890:	f504 6480 	add.w	r4, r4, #1024	@ 0x400
 8005894:	42a3      	cmp	r3, r4
 8005896:	d104      	bne.n	80058a2 <HAL_TIMEx_MasterConfigSynchronization+0x4a>
  {
    /* Reset the MSM Bit */
    tmpsmcr &= ~TIM_SMCR_MSM;
    /* Set master mode */
    tmpsmcr |= sMasterConfig->MasterSlaveMode;
 8005898:	6849      	ldr	r1, [r1, #4]
    tmpsmcr &= ~TIM_SMCR_MSM;
 800589a:	f020 0080 	bic.w	r0, r0, #128	@ 0x80
    tmpsmcr |= sMasterConfig->MasterSlaveMode;
 800589e:	4301      	orrs	r1, r0

    /* Update TIMx SMCR */
    htim->Instance->SMCR = tmpsmcr;
 80058a0:	6099      	str	r1, [r3, #8]
  }

  /* Change the htim state */
  htim->State = HAL_TIM_STATE_READY;
 80058a2:	2301      	movs	r3, #1

  __HAL_UNLOCK(htim);
 80058a4:	2000      	movs	r0, #0
  htim->State = HAL_TIM_STATE_READY;
 80058a6:	f882 303d 	strb.w	r3, [r2, #61]	@ 0x3d
  __HAL_UNLOCK(htim);
 80058aa:	f882 003c 	strb.w	r0, [r2, #60]	@ 0x3c

  return HAL_OK;
}
 80058ae:	bd30      	pop	{r4, r5, pc}
 80058b0:	40012c00 	.word	0x40012c00

080058b4 <HAL_TIMEx_ConfigBreakDeadTime>:
  assert_param(IS_TIM_BREAK_STATE(sBreakDeadTimeConfig->BreakState));
  assert_param(IS_TIM_BREAK_POLARITY(sBreakDeadTimeConfig->BreakPolarity));
  assert_param(IS_TIM_AUTOMATIC_OUTPUT_STATE(sBreakDeadTimeConfig->AutomaticOutput));

  /* Check input state */
  __HAL_LOCK(htim);
 80058b4:	f890 303c 	ldrb.w	r3, [r0, #60]	@ 0x3c
{
 80058b8:	4602      	mov	r2, r0
  __HAL_LOCK(htim);
 80058ba:	2b01      	cmp	r3, #1
 80058bc:	d01e      	beq.n	80058fc <HAL_TIMEx_ConfigBreakDeadTime+0x48>
  /* Set the Lock level, the Break enable Bit and the Polarity, the OSSR State,
     the OSSI State, the dead time value and the Automatic Output Enable Bit */

  /* Set the BDTR bits */
  MODIFY_REG(tmpbdtr, TIM_BDTR_DTG, sBreakDeadTimeConfig->DeadTime);
  MODIFY_REG(tmpbdtr, TIM_BDTR_LOCK, sBreakDeadTimeConfig->LockLevel);
 80058be:	68cb      	ldr	r3, [r1, #12]
 80058c0:	6888      	ldr	r0, [r1, #8]
 80058c2:	f423 7340 	bic.w	r3, r3, #768	@ 0x300
 80058c6:	4303      	orrs	r3, r0
  MODIFY_REG(tmpbdtr, TIM_BDTR_OSSI, sBreakDeadTimeConfig->OffStateIDLEMode);
 80058c8:	6848      	ldr	r0, [r1, #4]
 80058ca:	f423 6380 	bic.w	r3, r3, #1024	@ 0x400
 80058ce:	4303      	orrs	r3, r0
  MODIFY_REG(tmpbdtr, TIM_BDTR_OSSR, sBreakDeadTimeConfig->OffStateRunMode);
 80058d0:	6808      	ldr	r0, [r1, #0]
 80058d2:	f423 6300 	bic.w	r3, r3, #2048	@ 0x800
 80058d6:	4303      	orrs	r3, r0
  MODIFY_REG(tmpbdtr, TIM_BDTR_BKE, sBreakDeadTimeConfig->BreakState);
 80058d8:	6908      	ldr	r0, [r1, #16]
 80058da:	f423 5380 	bic.w	r3, r3, #4096	@ 0x1000
 80058de:	4303      	orrs	r3, r0
  MODIFY_REG(tmpbdtr, TIM_BDTR_BKP, sBreakDeadTimeConfig->BreakPolarity);
 80058e0:	6948      	ldr	r0, [r1, #20]
 80058e2:	f423 5300 	bic.w	r3, r3, #8192	@ 0x2000
 80058e6:	4303      	orrs	r3, r0


  /* Set TIMx_BDTR */
  htim->Instance->BDTR = tmpbdtr;

  __HAL_UNLOCK(htim);
 80058e8:	2000      	movs	r0, #0
  MODIFY_REG(tmpbdtr, TIM_BDTR_AOE, sBreakDeadTimeConfig->AutomaticOutput);
 80058ea:	69c9      	ldr	r1, [r1, #28]
 80058ec:	f423 4380 	bic.w	r3, r3, #16384	@ 0x4000
 80058f0:	430b      	orrs	r3, r1
  htim->Instance->BDTR = tmpbdtr;
 80058f2:	6811      	ldr	r1, [r2, #0]
 80058f4:	644b      	str	r3, [r1, #68]	@ 0x44
  __HAL_UNLOCK(htim);
 80058f6:	f882 003c 	strb.w	r0, [r2, #60]	@ 0x3c

  return HAL_OK;
 80058fa:	4770      	bx	lr
  __HAL_LOCK(htim);
 80058fc:	2002      	movs	r0, #2
}
 80058fe:	4770      	bx	lr

08005900 <srand>:
 8005900:	b538      	push	{r3, r4, r5, lr}
 8005902:	4b10      	ldr	r3, [pc, #64]	@ (8005944 <srand+0x44>)
 8005904:	4604      	mov	r4, r0
 8005906:	681d      	ldr	r5, [r3, #0]
 8005908:	6b2b      	ldr	r3, [r5, #48]	@ 0x30
 800590a:	b9b3      	cbnz	r3, 800593a <srand+0x3a>
 800590c:	2018      	movs	r0, #24
 800590e:	f000 fa4b 	bl	8005da8 <malloc>
 8005912:	4602      	mov	r2, r0
 8005914:	6328      	str	r0, [r5, #48]	@ 0x30
 8005916:	b920      	cbnz	r0, 8005922 <srand+0x22>
 8005918:	2146      	movs	r1, #70	@ 0x46
 800591a:	4b0b      	ldr	r3, [pc, #44]	@ (8005948 <srand+0x48>)
 800591c:	480b      	ldr	r0, [pc, #44]	@ (800594c <srand+0x4c>)
 800591e:	f000 f9dd 	bl	8005cdc <__assert_func>
 8005922:	490b      	ldr	r1, [pc, #44]	@ (8005950 <srand+0x50>)
 8005924:	4b0b      	ldr	r3, [pc, #44]	@ (8005954 <srand+0x54>)
 8005926:	e9c0 1300 	strd	r1, r3, [r0]
 800592a:	4b0b      	ldr	r3, [pc, #44]	@ (8005958 <srand+0x58>)
 800592c:	2100      	movs	r1, #0
 800592e:	6083      	str	r3, [r0, #8]
 8005930:	230b      	movs	r3, #11
 8005932:	8183      	strh	r3, [r0, #12]
 8005934:	2001      	movs	r0, #1
 8005936:	e9c2 0104 	strd	r0, r1, [r2, #16]
 800593a:	2200      	movs	r2, #0
 800593c:	6b2b      	ldr	r3, [r5, #48]	@ 0x30
 800593e:	611c      	str	r4, [r3, #16]
 8005940:	615a      	str	r2, [r3, #20]
 8005942:	bd38      	pop	{r3, r4, r5, pc}
 8005944:	20000064 	.word	0x20000064
 8005948:	08008622 	.word	0x08008622
 800594c:	08008639 	.word	0x08008639
 8005950:	abcd330e 	.word	0xabcd330e
 8005954:	e66d1234 	.word	0xe66d1234
 8005958:	0005deec 	.word	0x0005deec

0800595c <rand>:
 800595c:	4b16      	ldr	r3, [pc, #88]	@ (80059b8 <rand+0x5c>)
 800595e:	b510      	push	{r4, lr}
 8005960:	681c      	ldr	r4, [r3, #0]
 8005962:	6b23      	ldr	r3, [r4, #48]	@ 0x30
 8005964:	b9b3      	cbnz	r3, 8005994 <rand+0x38>
 8005966:	2018      	movs	r0, #24
 8005968:	f000 fa1e 	bl	8005da8 <malloc>
 800596c:	4602      	mov	r2, r0
 800596e:	6320      	str	r0, [r4, #48]	@ 0x30
 8005970:	b920      	cbnz	r0, 800597c <rand+0x20>
 8005972:	2152      	movs	r1, #82	@ 0x52
 8005974:	4b11      	ldr	r3, [pc, #68]	@ (80059bc <rand+0x60>)
 8005976:	4812      	ldr	r0, [pc, #72]	@ (80059c0 <rand+0x64>)
 8005978:	f000 f9b0 	bl	8005cdc <__assert_func>
 800597c:	4911      	ldr	r1, [pc, #68]	@ (80059c4 <rand+0x68>)
 800597e:	4b12      	ldr	r3, [pc, #72]	@ (80059c8 <rand+0x6c>)
 8005980:	e9c0 1300 	strd	r1, r3, [r0]
 8005984:	4b11      	ldr	r3, [pc, #68]	@ (80059cc <rand+0x70>)
 8005986:	2100      	movs	r1, #0
 8005988:	6083      	str	r3, [r0, #8]
 800598a:	230b      	movs	r3, #11
 800598c:	8183      	strh	r3, [r0, #12]
 800598e:	2001      	movs	r0, #1
 8005990:	e9c2 0104 	strd	r0, r1, [r2, #16]
 8005994:	6b21      	ldr	r1, [r4, #48]	@ 0x30
 8005996:	480e      	ldr	r0, [pc, #56]	@ (80059d0 <rand+0x74>)
 8005998:	690b      	ldr	r3, [r1, #16]
 800599a:	694c      	ldr	r4, [r1, #20]
 800599c:	4358      	muls	r0, r3
 800599e:	4a0d      	ldr	r2, [pc, #52]	@ (80059d4 <rand+0x78>)
 80059a0:	fb02 0004 	mla	r0, r2, r4, r0
 80059a4:	fba3 3202 	umull	r3, r2, r3, r2
 80059a8:	3301      	adds	r3, #1
 80059aa:	eb40 0002 	adc.w	r0, r0, r2
 80059ae:	e9c1 3004 	strd	r3, r0, [r1, #16]
 80059b2:	f020 4000 	bic.w	r0, r0, #2147483648	@ 0x80000000
 80059b6:	bd10      	pop	{r4, pc}
 80059b8:	20000064 	.word	0x20000064
 80059bc:	08008622 	.word	0x08008622
 80059c0:	08008639 	.word	0x08008639
 80059c4:	abcd330e 	.word	0xabcd330e
 80059c8:	e66d1234 	.word	0xe66d1234
 80059cc:	0005deec 	.word	0x0005deec
 80059d0:	5851f42d 	.word	0x5851f42d
 80059d4:	4c957f2d 	.word	0x4c957f2d

080059d8 <std>:
 80059d8:	2300      	movs	r3, #0
 80059da:	b510      	push	{r4, lr}
 80059dc:	4604      	mov	r4, r0
 80059de:	e9c0 3300 	strd	r3, r3, [r0]
 80059e2:	e9c0 3304 	strd	r3, r3, [r0, #16]
 80059e6:	6083      	str	r3, [r0, #8]
 80059e8:	8181      	strh	r1, [r0, #12]
 80059ea:	6643      	str	r3, [r0, #100]	@ 0x64
 80059ec:	81c2      	strh	r2, [r0, #14]
 80059ee:	6183      	str	r3, [r0, #24]
 80059f0:	4619      	mov	r1, r3
 80059f2:	2208      	movs	r2, #8
 80059f4:	305c      	adds	r0, #92	@ 0x5c
 80059f6:	f000 f8f4 	bl	8005be2 <memset>
 80059fa:	4b0d      	ldr	r3, [pc, #52]	@ (8005a30 <std+0x58>)
 80059fc:	6224      	str	r4, [r4, #32]
 80059fe:	6263      	str	r3, [r4, #36]	@ 0x24
 8005a00:	4b0c      	ldr	r3, [pc, #48]	@ (8005a34 <std+0x5c>)
 8005a02:	62a3      	str	r3, [r4, #40]	@ 0x28
 8005a04:	4b0c      	ldr	r3, [pc, #48]	@ (8005a38 <std+0x60>)
 8005a06:	62e3      	str	r3, [r4, #44]	@ 0x2c
 8005a08:	4b0c      	ldr	r3, [pc, #48]	@ (8005a3c <std+0x64>)
 8005a0a:	6323      	str	r3, [r4, #48]	@ 0x30
 8005a0c:	4b0c      	ldr	r3, [pc, #48]	@ (8005a40 <std+0x68>)
 8005a0e:	429c      	cmp	r4, r3
 8005a10:	d006      	beq.n	8005a20 <std+0x48>
 8005a12:	f103 0268 	add.w	r2, r3, #104	@ 0x68
 8005a16:	4294      	cmp	r4, r2
 8005a18:	d002      	beq.n	8005a20 <std+0x48>
 8005a1a:	33d0      	adds	r3, #208	@ 0xd0
 8005a1c:	429c      	cmp	r4, r3
 8005a1e:	d105      	bne.n	8005a2c <std+0x54>
 8005a20:	f104 0058 	add.w	r0, r4, #88	@ 0x58
 8005a24:	e8bd 4010 	ldmia.w	sp!, {r4, lr}
 8005a28:	f000 b954 	b.w	8005cd4 <__retarget_lock_init_recursive>
 8005a2c:	bd10      	pop	{r4, pc}
 8005a2e:	bf00      	nop
 8005a30:	08005b5d 	.word	0x08005b5d
 8005a34:	08005b7f 	.word	0x08005b7f
 8005a38:	08005bb7 	.word	0x08005bb7
 8005a3c:	08005bdb 	.word	0x08005bdb
 8005a40:	20000a58 	.word	0x20000a58

08005a44 <stdio_exit_handler>:
 8005a44:	4a02      	ldr	r2, [pc, #8]	@ (8005a50 <stdio_exit_handler+0xc>)
 8005a46:	4903      	ldr	r1, [pc, #12]	@ (8005a54 <stdio_exit_handler+0x10>)
 8005a48:	4803      	ldr	r0, [pc, #12]	@ (8005a58 <stdio_exit_handler+0x14>)
 8005a4a:	f000 b869 	b.w	8005b20 <_fwalk_sglue>
 8005a4e:	bf00      	nop
 8005a50:	20000058 	.word	0x20000058
 8005a54:	08006015 	.word	0x08006015
 8005a58:	20000068 	.word	0x20000068

08005a5c <cleanup_stdio>:
 8005a5c:	6841      	ldr	r1, [r0, #4]
 8005a5e:	4b0c      	ldr	r3, [pc, #48]	@ (8005a90 <cleanup_stdio+0x34>)
 8005a60:	b510      	push	{r4, lr}
 8005a62:	4299      	cmp	r1, r3
 8005a64:	4604      	mov	r4, r0
 8005a66:	d001      	beq.n	8005a6c <cleanup_stdio+0x10>
 8005a68:	f000 fad4 	bl	8006014 <_fflush_r>
 8005a6c:	68a1      	ldr	r1, [r4, #8]
 8005a6e:	4b09      	ldr	r3, [pc, #36]	@ (8005a94 <cleanup_stdio+0x38>)
 8005a70:	4299      	cmp	r1, r3
 8005a72:	d002      	beq.n	8005a7a <cleanup_stdio+0x1e>
 8005a74:	4620      	mov	r0, r4
 8005a76:	f000 facd 	bl	8006014 <_fflush_r>
 8005a7a:	68e1      	ldr	r1, [r4, #12]
 8005a7c:	4b06      	ldr	r3, [pc, #24]	@ (8005a98 <cleanup_stdio+0x3c>)
 8005a7e:	4299      	cmp	r1, r3
 8005a80:	d004      	beq.n	8005a8c <cleanup_stdio+0x30>
 8005a82:	4620      	mov	r0, r4
 8005a84:	e8bd 4010 	ldmia.w	sp!, {r4, lr}
 8005a88:	f000 bac4 	b.w	8006014 <_fflush_r>
 8005a8c:	bd10      	pop	{r4, pc}
 8005a8e:	bf00      	nop
 8005a90:	20000a58 	.word	0x20000a58
 8005a94:	20000ac0 	.word	0x20000ac0
 8005a98:	20000b28 	.word	0x20000b28

08005a9c <global_stdio_init.part.0>:
 8005a9c:	b510      	push	{r4, lr}
 8005a9e:	4b0b      	ldr	r3, [pc, #44]	@ (8005acc <global_stdio_init.part.0+0x30>)
 8005aa0:	4c0b      	ldr	r4, [pc, #44]	@ (8005ad0 <global_stdio_init.part.0+0x34>)
 8005aa2:	4a0c      	ldr	r2, [pc, #48]	@ (8005ad4 <global_stdio_init.part.0+0x38>)
 8005aa4:	4620      	mov	r0, r4
 8005aa6:	601a      	str	r2, [r3, #0]
 8005aa8:	2104      	movs	r1, #4
 8005aaa:	2200      	movs	r2, #0
 8005aac:	f7ff ff94 	bl	80059d8 <std>
 8005ab0:	f104 0068 	add.w	r0, r4, #104	@ 0x68
 8005ab4:	2201      	movs	r2, #1
 8005ab6:	2109      	movs	r1, #9
 8005ab8:	f7ff ff8e 	bl	80059d8 <std>
 8005abc:	f104 00d0 	add.w	r0, r4, #208	@ 0xd0
 8005ac0:	2202      	movs	r2, #2
 8005ac2:	e8bd 4010 	ldmia.w	sp!, {r4, lr}
 8005ac6:	2112      	movs	r1, #18
 8005ac8:	f7ff bf86 	b.w	80059d8 <std>
 8005acc:	20000b90 	.word	0x20000b90
 8005ad0:	20000a58 	.word	0x20000a58
 8005ad4:	08005a45 	.word	0x08005a45

08005ad8 <__sfp_lock_acquire>:
 8005ad8:	4801      	ldr	r0, [pc, #4]	@ (8005ae0 <__sfp_lock_acquire+0x8>)
 8005ada:	f000 b8fc 	b.w	8005cd6 <__retarget_lock_acquire_recursive>
 8005ade:	bf00      	nop
 8005ae0:	20000b99 	.word	0x20000b99

08005ae4 <__sfp_lock_release>:
 8005ae4:	4801      	ldr	r0, [pc, #4]	@ (8005aec <__sfp_lock_release+0x8>)
 8005ae6:	f000 b8f7 	b.w	8005cd8 <__retarget_lock_release_recursive>
 8005aea:	bf00      	nop
 8005aec:	20000b99 	.word	0x20000b99

08005af0 <__sinit>:
 8005af0:	b510      	push	{r4, lr}
 8005af2:	4604      	mov	r4, r0
 8005af4:	f7ff fff0 	bl	8005ad8 <__sfp_lock_acquire>
 8005af8:	6a23      	ldr	r3, [r4, #32]
 8005afa:	b11b      	cbz	r3, 8005b04 <__sinit+0x14>
 8005afc:	e8bd 4010 	ldmia.w	sp!, {r4, lr}
 8005b00:	f7ff bff0 	b.w	8005ae4 <__sfp_lock_release>
 8005b04:	4b04      	ldr	r3, [pc, #16]	@ (8005b18 <__sinit+0x28>)
 8005b06:	6223      	str	r3, [r4, #32]
 8005b08:	4b04      	ldr	r3, [pc, #16]	@ (8005b1c <__sinit+0x2c>)
 8005b0a:	681b      	ldr	r3, [r3, #0]
 8005b0c:	2b00      	cmp	r3, #0
 8005b0e:	d1f5      	bne.n	8005afc <__sinit+0xc>
 8005b10:	f7ff ffc4 	bl	8005a9c <global_stdio_init.part.0>
 8005b14:	e7f2      	b.n	8005afc <__sinit+0xc>
 8005b16:	bf00      	nop
 8005b18:	08005a5d 	.word	0x08005a5d
 8005b1c:	20000b90 	.word	0x20000b90

08005b20 <_fwalk_sglue>:
 8005b20:	e92d 43f8 	stmdb	sp!, {r3, r4, r5, r6, r7, r8, r9, lr}
 8005b24:	4607      	mov	r7, r0
 8005b26:	4688      	mov	r8, r1
 8005b28:	4614      	mov	r4, r2
 8005b2a:	2600      	movs	r6, #0
 8005b2c:	e9d4 9501 	ldrd	r9, r5, [r4, #4]
 8005b30:	f1b9 0901 	subs.w	r9, r9, #1
 8005b34:	d505      	bpl.n	8005b42 <_fwalk_sglue+0x22>
 8005b36:	6824      	ldr	r4, [r4, #0]
 8005b38:	2c00      	cmp	r4, #0
 8005b3a:	d1f7      	bne.n	8005b2c <_fwalk_sglue+0xc>
 8005b3c:	4630      	mov	r0, r6
 8005b3e:	e8bd 83f8 	ldmia.w	sp!, {r3, r4, r5, r6, r7, r8, r9, pc}
 8005b42:	89ab      	ldrh	r3, [r5, #12]
 8005b44:	2b01      	cmp	r3, #1
 8005b46:	d907      	bls.n	8005b58 <_fwalk_sglue+0x38>
 8005b48:	f9b5 300e 	ldrsh.w	r3, [r5, #14]
 8005b4c:	3301      	adds	r3, #1
 8005b4e:	d003      	beq.n	8005b58 <_fwalk_sglue+0x38>
 8005b50:	4629      	mov	r1, r5
 8005b52:	4638      	mov	r0, r7
 8005b54:	47c0      	blx	r8
 8005b56:	4306      	orrs	r6, r0
 8005b58:	3568      	adds	r5, #104	@ 0x68
 8005b5a:	e7e9      	b.n	8005b30 <_fwalk_sglue+0x10>

08005b5c <__sread>:
 8005b5c:	b510      	push	{r4, lr}
 8005b5e:	460c      	mov	r4, r1
 8005b60:	f9b1 100e 	ldrsh.w	r1, [r1, #14]
 8005b64:	f000 f868 	bl	8005c38 <_read_r>
 8005b68:	2800      	cmp	r0, #0
 8005b6a:	bfab      	itete	ge
 8005b6c:	6d63      	ldrge	r3, [r4, #84]	@ 0x54
 8005b6e:	89a3      	ldrhlt	r3, [r4, #12]
 8005b70:	181b      	addge	r3, r3, r0
 8005b72:	f423 5380 	biclt.w	r3, r3, #4096	@ 0x1000
 8005b76:	bfac      	ite	ge
 8005b78:	6563      	strge	r3, [r4, #84]	@ 0x54
 8005b7a:	81a3      	strhlt	r3, [r4, #12]
 8005b7c:	bd10      	pop	{r4, pc}

08005b7e <__swrite>:
 8005b7e:	e92d 41f0 	stmdb	sp!, {r4, r5, r6, r7, r8, lr}
 8005b82:	461f      	mov	r7, r3
 8005b84:	898b      	ldrh	r3, [r1, #12]
 8005b86:	4605      	mov	r5, r0
 8005b88:	05db      	lsls	r3, r3, #23
 8005b8a:	460c      	mov	r4, r1
 8005b8c:	4616      	mov	r6, r2
 8005b8e:	d505      	bpl.n	8005b9c <__swrite+0x1e>
 8005b90:	2302      	movs	r3, #2
 8005b92:	2200      	movs	r2, #0
 8005b94:	f9b1 100e 	ldrsh.w	r1, [r1, #14]
 8005b98:	f000 f83c 	bl	8005c14 <_lseek_r>
 8005b9c:	89a3      	ldrh	r3, [r4, #12]
 8005b9e:	4632      	mov	r2, r6
 8005ba0:	f423 5380 	bic.w	r3, r3, #4096	@ 0x1000
 8005ba4:	81a3      	strh	r3, [r4, #12]
 8005ba6:	4628      	mov	r0, r5
 8005ba8:	463b      	mov	r3, r7
 8005baa:	f9b4 100e 	ldrsh.w	r1, [r4, #14]
 8005bae:	e8bd 41f0 	ldmia.w	sp!, {r4, r5, r6, r7, r8, lr}
 8005bb2:	f000 b853 	b.w	8005c5c <_write_r>

08005bb6 <__sseek>:
 8005bb6:	b510      	push	{r4, lr}
 8005bb8:	460c      	mov	r4, r1
 8005bba:	f9b1 100e 	ldrsh.w	r1, [r1, #14]
 8005bbe:	f000 f829 	bl	8005c14 <_lseek_r>
 8005bc2:	1c43      	adds	r3, r0, #1
 8005bc4:	89a3      	ldrh	r3, [r4, #12]
 8005bc6:	bf15      	itete	ne
 8005bc8:	6560      	strne	r0, [r4, #84]	@ 0x54
 8005bca:	f423 5380 	biceq.w	r3, r3, #4096	@ 0x1000
 8005bce:	f443 5380 	orrne.w	r3, r3, #4096	@ 0x1000
 8005bd2:	81a3      	strheq	r3, [r4, #12]
 8005bd4:	bf18      	it	ne
 8005bd6:	81a3      	strhne	r3, [r4, #12]
 8005bd8:	bd10      	pop	{r4, pc}

08005bda <__sclose>:
 8005bda:	f9b1 100e 	ldrsh.w	r1, [r1, #14]
 8005bde:	f000 b809 	b.w	8005bf4 <_close_r>

08005be2 <memset>:
 8005be2:	4603      	mov	r3, r0
 8005be4:	4402      	add	r2, r0
 8005be6:	4293      	cmp	r3, r2
 8005be8:	d100      	bne.n	8005bec <memset+0xa>
 8005bea:	4770      	bx	lr
 8005bec:	f803 1b01 	strb.w	r1, [r3], #1
 8005bf0:	e7f9      	b.n	8005be6 <memset+0x4>
	...

08005bf4 <_close_r>:
 8005bf4:	b538      	push	{r3, r4, r5, lr}
 8005bf6:	2300      	movs	r3, #0
 8005bf8:	4d05      	ldr	r5, [pc, #20]	@ (8005c10 <_close_r+0x1c>)
 8005bfa:	4604      	mov	r4, r0
 8005bfc:	4608      	mov	r0, r1
 8005bfe:	602b      	str	r3, [r5, #0]
 8005c00:	f7fc fb8e 	bl	8002320 <_close>
 8005c04:	1c43      	adds	r3, r0, #1
 8005c06:	d102      	bne.n	8005c0e <_close_r+0x1a>
 8005c08:	682b      	ldr	r3, [r5, #0]
 8005c0a:	b103      	cbz	r3, 8005c0e <_close_r+0x1a>
 8005c0c:	6023      	str	r3, [r4, #0]
 8005c0e:	bd38      	pop	{r3, r4, r5, pc}
 8005c10:	20000b94 	.word	0x20000b94

08005c14 <_lseek_r>:
 8005c14:	b538      	push	{r3, r4, r5, lr}
 8005c16:	4604      	mov	r4, r0
 8005c18:	4608      	mov	r0, r1
 8005c1a:	4611      	mov	r1, r2
 8005c1c:	2200      	movs	r2, #0
 8005c1e:	4d05      	ldr	r5, [pc, #20]	@ (8005c34 <_lseek_r+0x20>)
 8005c20:	602a      	str	r2, [r5, #0]
 8005c22:	461a      	mov	r2, r3
 8005c24:	f7fc fb86 	bl	8002334 <_lseek>
 8005c28:	1c43      	adds	r3, r0, #1
 8005c2a:	d102      	bne.n	8005c32 <_lseek_r+0x1e>
 8005c2c:	682b      	ldr	r3, [r5, #0]
 8005c2e:	b103      	cbz	r3, 8005c32 <_lseek_r+0x1e>
 8005c30:	6023      	str	r3, [r4, #0]
 8005c32:	bd38      	pop	{r3, r4, r5, pc}
 8005c34:	20000b94 	.word	0x20000b94

08005c38 <_read_r>:
 8005c38:	b538      	push	{r3, r4, r5, lr}
 8005c3a:	4604      	mov	r4, r0
 8005c3c:	4608      	mov	r0, r1
 8005c3e:	4611      	mov	r1, r2
 8005c40:	2200      	movs	r2, #0
 8005c42:	4d05      	ldr	r5, [pc, #20]	@ (8005c58 <_read_r+0x20>)
 8005c44:	602a      	str	r2, [r5, #0]
 8005c46:	461a      	mov	r2, r3
 8005c48:	f7fc fb5c 	bl	8002304 <_read>
 8005c4c:	1c43      	adds	r3, r0, #1
 8005c4e:	d102      	bne.n	8005c56 <_read_r+0x1e>
 8005c50:	682b      	ldr	r3, [r5, #0]
 8005c52:	b103      	cbz	r3, 8005c56 <_read_r+0x1e>
 8005c54:	6023      	str	r3, [r4, #0]
 8005c56:	bd38      	pop	{r3, r4, r5, pc}
 8005c58:	20000b94 	.word	0x20000b94

08005c5c <_write_r>:
 8005c5c:	b538      	push	{r3, r4, r5, lr}
 8005c5e:	4604      	mov	r4, r0
 8005c60:	4608      	mov	r0, r1
 8005c62:	4611      	mov	r1, r2
 8005c64:	2200      	movs	r2, #0
 8005c66:	4d05      	ldr	r5, [pc, #20]	@ (8005c7c <_write_r+0x20>)
 8005c68:	602a      	str	r2, [r5, #0]
 8005c6a:	461a      	mov	r2, r3
 8005c6c:	f7fb f9f8 	bl	8001060 <_write>
 8005c70:	1c43      	adds	r3, r0, #1
 8005c72:	d102      	bne.n	8005c7a <_write_r+0x1e>
 8005c74:	682b      	ldr	r3, [r5, #0]
 8005c76:	b103      	cbz	r3, 8005c7a <_write_r+0x1e>
 8005c78:	6023      	str	r3, [r4, #0]
 8005c7a:	bd38      	pop	{r3, r4, r5, pc}
 8005c7c:	20000b94 	.word	0x20000b94

08005c80 <__errno>:
 8005c80:	4b01      	ldr	r3, [pc, #4]	@ (8005c88 <__errno+0x8>)
 8005c82:	6818      	ldr	r0, [r3, #0]
 8005c84:	4770      	bx	lr
 8005c86:	bf00      	nop
 8005c88:	20000064 	.word	0x20000064

08005c8c <__libc_init_array>:
 8005c8c:	b570      	push	{r4, r5, r6, lr}
 8005c8e:	2600      	movs	r6, #0
 8005c90:	4d0c      	ldr	r5, [pc, #48]	@ (8005cc4 <__libc_init_array+0x38>)
 8005c92:	4c0d      	ldr	r4, [pc, #52]	@ (8005cc8 <__libc_init_array+0x3c>)
 8005c94:	1b64      	subs	r4, r4, r5
 8005c96:	10a4      	asrs	r4, r4, #2
 8005c98:	42a6      	cmp	r6, r4
 8005c9a:	d109      	bne.n	8005cb0 <__libc_init_array+0x24>
 8005c9c:	f000 fe46 	bl	800692c <_init>
 8005ca0:	2600      	movs	r6, #0
 8005ca2:	4d0a      	ldr	r5, [pc, #40]	@ (8005ccc <__libc_init_array+0x40>)
 8005ca4:	4c0a      	ldr	r4, [pc, #40]	@ (8005cd0 <__libc_init_array+0x44>)
 8005ca6:	1b64      	subs	r4, r4, r5
 8005ca8:	10a4      	asrs	r4, r4, #2
 8005caa:	42a6      	cmp	r6, r4
 8005cac:	d105      	bne.n	8005cba <__libc_init_array+0x2e>
 8005cae:	bd70      	pop	{r4, r5, r6, pc}
 8005cb0:	f855 3b04 	ldr.w	r3, [r5], #4
 8005cb4:	4798      	blx	r3
 8005cb6:	3601      	adds	r6, #1
 8005cb8:	e7ee      	b.n	8005c98 <__libc_init_array+0xc>
 8005cba:	f855 3b04 	ldr.w	r3, [r5], #4
 8005cbe:	4798      	blx	r3
 8005cc0:	3601      	adds	r6, #1
 8005cc2:	e7f2      	b.n	8005caa <__libc_init_array+0x1e>
 8005cc4:	08008700 	.word	0x08008700
 8005cc8:	08008700 	.word	0x08008700
 8005ccc:	08008700 	.word	0x08008700
 8005cd0:	08008704 	.word	0x08008704

08005cd4 <__retarget_lock_init_recursive>:
 8005cd4:	4770      	bx	lr

08005cd6 <__retarget_lock_acquire_recursive>:
 8005cd6:	4770      	bx	lr

08005cd8 <__retarget_lock_release_recursive>:
 8005cd8:	4770      	bx	lr
	...

08005cdc <__assert_func>:
 8005cdc:	b51f      	push	{r0, r1, r2, r3, r4, lr}
 8005cde:	4614      	mov	r4, r2
 8005ce0:	461a      	mov	r2, r3
 8005ce2:	4b09      	ldr	r3, [pc, #36]	@ (8005d08 <__assert_func+0x2c>)
 8005ce4:	4605      	mov	r5, r0
 8005ce6:	681b      	ldr	r3, [r3, #0]
 8005ce8:	68d8      	ldr	r0, [r3, #12]
 8005cea:	b954      	cbnz	r4, 8005d02 <__assert_func+0x26>
 8005cec:	4b07      	ldr	r3, [pc, #28]	@ (8005d0c <__assert_func+0x30>)
 8005cee:	461c      	mov	r4, r3
 8005cf0:	e9cd 3401 	strd	r3, r4, [sp, #4]
 8005cf4:	9100      	str	r1, [sp, #0]
 8005cf6:	462b      	mov	r3, r5
 8005cf8:	4905      	ldr	r1, [pc, #20]	@ (8005d10 <__assert_func+0x34>)
 8005cfa:	f000 f9b3 	bl	8006064 <fiprintf>
 8005cfe:	f000 f9d3 	bl	80060a8 <abort>
 8005d02:	4b04      	ldr	r3, [pc, #16]	@ (8005d14 <__assert_func+0x38>)
 8005d04:	e7f4      	b.n	8005cf0 <__assert_func+0x14>
 8005d06:	bf00      	nop
 8005d08:	20000064 	.word	0x20000064
 8005d0c:	080086cc 	.word	0x080086cc
 8005d10:	0800869e 	.word	0x0800869e
 8005d14:	08008691 	.word	0x08008691

08005d18 <_free_r>:
 8005d18:	b538      	push	{r3, r4, r5, lr}
 8005d1a:	4605      	mov	r5, r0
 8005d1c:	2900      	cmp	r1, #0
 8005d1e:	d040      	beq.n	8005da2 <_free_r+0x8a>
 8005d20:	f851 3c04 	ldr.w	r3, [r1, #-4]
 8005d24:	1f0c      	subs	r4, r1, #4
 8005d26:	2b00      	cmp	r3, #0
 8005d28:	bfb8      	it	lt
 8005d2a:	18e4      	addlt	r4, r4, r3
 8005d2c:	f000 f8e6 	bl	8005efc <__malloc_lock>
 8005d30:	4a1c      	ldr	r2, [pc, #112]	@ (8005da4 <_free_r+0x8c>)
 8005d32:	6813      	ldr	r3, [r2, #0]
 8005d34:	b933      	cbnz	r3, 8005d44 <_free_r+0x2c>
 8005d36:	6063      	str	r3, [r4, #4]
 8005d38:	6014      	str	r4, [r2, #0]
 8005d3a:	4628      	mov	r0, r5
 8005d3c:	e8bd 4038 	ldmia.w	sp!, {r3, r4, r5, lr}
 8005d40:	f000 b8e2 	b.w	8005f08 <__malloc_unlock>
 8005d44:	42a3      	cmp	r3, r4
 8005d46:	d908      	bls.n	8005d5a <_free_r+0x42>
 8005d48:	6820      	ldr	r0, [r4, #0]
 8005d4a:	1821      	adds	r1, r4, r0
 8005d4c:	428b      	cmp	r3, r1
 8005d4e:	bf01      	itttt	eq
 8005d50:	6819      	ldreq	r1, [r3, #0]
 8005d52:	685b      	ldreq	r3, [r3, #4]
 8005d54:	1809      	addeq	r1, r1, r0
 8005d56:	6021      	streq	r1, [r4, #0]
 8005d58:	e7ed      	b.n	8005d36 <_free_r+0x1e>
 8005d5a:	461a      	mov	r2, r3
 8005d5c:	685b      	ldr	r3, [r3, #4]
 8005d5e:	b10b      	cbz	r3, 8005d64 <_free_r+0x4c>
 8005d60:	42a3      	cmp	r3, r4
 8005d62:	d9fa      	bls.n	8005d5a <_free_r+0x42>
 8005d64:	6811      	ldr	r1, [r2, #0]
 8005d66:	1850      	adds	r0, r2, r1
 8005d68:	42a0      	cmp	r0, r4
 8005d6a:	d10b      	bne.n	8005d84 <_free_r+0x6c>
 8005d6c:	6820      	ldr	r0, [r4, #0]
 8005d6e:	4401      	add	r1, r0
 8005d70:	1850      	adds	r0, r2, r1
 8005d72:	4283      	cmp	r3, r0
 8005d74:	6011      	str	r1, [r2, #0]
 8005d76:	d1e0      	bne.n	8005d3a <_free_r+0x22>
 8005d78:	6818      	ldr	r0, [r3, #0]
 8005d7a:	685b      	ldr	r3, [r3, #4]
 8005d7c:	4408      	add	r0, r1
 8005d7e:	6010      	str	r0, [r2, #0]
 8005d80:	6053      	str	r3, [r2, #4]
 8005d82:	e7da      	b.n	8005d3a <_free_r+0x22>
 8005d84:	d902      	bls.n	8005d8c <_free_r+0x74>
 8005d86:	230c      	movs	r3, #12
 8005d88:	602b      	str	r3, [r5, #0]
 8005d8a:	e7d6      	b.n	8005d3a <_free_r+0x22>
 8005d8c:	6820      	ldr	r0, [r4, #0]
 8005d8e:	1821      	adds	r1, r4, r0
 8005d90:	428b      	cmp	r3, r1
 8005d92:	bf01      	itttt	eq
 8005d94:	6819      	ldreq	r1, [r3, #0]
 8005d96:	685b      	ldreq	r3, [r3, #4]
 8005d98:	1809      	addeq	r1, r1, r0
 8005d9a:	6021      	streq	r1, [r4, #0]
 8005d9c:	6063      	str	r3, [r4, #4]
 8005d9e:	6054      	str	r4, [r2, #4]
 8005da0:	e7cb      	b.n	8005d3a <_free_r+0x22>
 8005da2:	bd38      	pop	{r3, r4, r5, pc}
 8005da4:	20000ba0 	.word	0x20000ba0

08005da8 <malloc>:
 8005da8:	4b02      	ldr	r3, [pc, #8]	@ (8005db4 <malloc+0xc>)
 8005daa:	4601      	mov	r1, r0
 8005dac:	6818      	ldr	r0, [r3, #0]
 8005dae:	f000 b825 	b.w	8005dfc <_malloc_r>
 8005db2:	bf00      	nop
 8005db4:	20000064 	.word	0x20000064

08005db8 <sbrk_aligned>:
 8005db8:	b570      	push	{r4, r5, r6, lr}
 8005dba:	4e0f      	ldr	r6, [pc, #60]	@ (8005df8 <sbrk_aligned+0x40>)
 8005dbc:	460c      	mov	r4, r1
 8005dbe:	6831      	ldr	r1, [r6, #0]
 8005dc0:	4605      	mov	r5, r0
 8005dc2:	b911      	cbnz	r1, 8005dca <sbrk_aligned+0x12>
 8005dc4:	f000 f960 	bl	8006088 <_sbrk_r>
 8005dc8:	6030      	str	r0, [r6, #0]
 8005dca:	4621      	mov	r1, r4
 8005dcc:	4628      	mov	r0, r5
 8005dce:	f000 f95b 	bl	8006088 <_sbrk_r>
 8005dd2:	1c43      	adds	r3, r0, #1
 8005dd4:	d103      	bne.n	8005dde <sbrk_aligned+0x26>
 8005dd6:	f04f 34ff 	mov.w	r4, #4294967295
 8005dda:	4620      	mov	r0, r4
 8005ddc:	bd70      	pop	{r4, r5, r6, pc}
 8005dde:	1cc4      	adds	r4, r0, #3
 8005de0:	f024 0403 	bic.w	r4, r4, #3
 8005de4:	42a0      	cmp	r0, r4
 8005de6:	d0f8      	beq.n	8005dda <sbrk_aligned+0x22>
 8005de8:	1a21      	subs	r1, r4, r0
 8005dea:	4628      	mov	r0, r5
 8005dec:	f000 f94c 	bl	8006088 <_sbrk_r>
 8005df0:	3001      	adds	r0, #1
 8005df2:	d1f2      	bne.n	8005dda <sbrk_aligned+0x22>
 8005df4:	e7ef      	b.n	8005dd6 <sbrk_aligned+0x1e>
 8005df6:	bf00      	nop
 8005df8:	20000b9c 	.word	0x20000b9c

08005dfc <_malloc_r>:
 8005dfc:	e92d 43f8 	stmdb	sp!, {r3, r4, r5, r6, r7, r8, r9, lr}
 8005e00:	1ccd      	adds	r5, r1, #3
 8005e02:	f025 0503 	bic.w	r5, r5, #3
 8005e06:	3508      	adds	r5, #8
 8005e08:	2d0c      	cmp	r5, #12
 8005e0a:	bf38      	it	cc
 8005e0c:	250c      	movcc	r5, #12
 8005e0e:	2d00      	cmp	r5, #0
 8005e10:	4606      	mov	r6, r0
 8005e12:	db01      	blt.n	8005e18 <_malloc_r+0x1c>
 8005e14:	42a9      	cmp	r1, r5
 8005e16:	d904      	bls.n	8005e22 <_malloc_r+0x26>
 8005e18:	230c      	movs	r3, #12
 8005e1a:	6033      	str	r3, [r6, #0]
 8005e1c:	2000      	movs	r0, #0
 8005e1e:	e8bd 83f8 	ldmia.w	sp!, {r3, r4, r5, r6, r7, r8, r9, pc}
 8005e22:	f8df 80d4 	ldr.w	r8, [pc, #212]	@ 8005ef8 <_malloc_r+0xfc>
 8005e26:	f000 f869 	bl	8005efc <__malloc_lock>
 8005e2a:	f8d8 3000 	ldr.w	r3, [r8]
 8005e2e:	461c      	mov	r4, r3
 8005e30:	bb44      	cbnz	r4, 8005e84 <_malloc_r+0x88>
 8005e32:	4629      	mov	r1, r5
 8005e34:	4630      	mov	r0, r6
 8005e36:	f7ff ffbf 	bl	8005db8 <sbrk_aligned>
 8005e3a:	1c43      	adds	r3, r0, #1
 8005e3c:	4604      	mov	r4, r0
 8005e3e:	d158      	bne.n	8005ef2 <_malloc_r+0xf6>
 8005e40:	f8d8 4000 	ldr.w	r4, [r8]
 8005e44:	4627      	mov	r7, r4
 8005e46:	2f00      	cmp	r7, #0
 8005e48:	d143      	bne.n	8005ed2 <_malloc_r+0xd6>
 8005e4a:	2c00      	cmp	r4, #0
 8005e4c:	d04b      	beq.n	8005ee6 <_malloc_r+0xea>
 8005e4e:	6823      	ldr	r3, [r4, #0]
 8005e50:	4639      	mov	r1, r7
 8005e52:	4630      	mov	r0, r6
 8005e54:	eb04 0903 	add.w	r9, r4, r3
 8005e58:	f000 f916 	bl	8006088 <_sbrk_r>
 8005e5c:	4581      	cmp	r9, r0
 8005e5e:	d142      	bne.n	8005ee6 <_malloc_r+0xea>
 8005e60:	6821      	ldr	r1, [r4, #0]
 8005e62:	4630      	mov	r0, r6
 8005e64:	1a6d      	subs	r5, r5, r1
 8005e66:	4629      	mov	r1, r5
 8005e68:	f7ff ffa6 	bl	8005db8 <sbrk_aligned>
 8005e6c:	3001      	adds	r0, #1
 8005e6e:	d03a      	beq.n	8005ee6 <_malloc_r+0xea>
 8005e70:	6823      	ldr	r3, [r4, #0]
 8005e72:	442b      	add	r3, r5
 8005e74:	6023      	str	r3, [r4, #0]
 8005e76:	f8d8 3000 	ldr.w	r3, [r8]
 8005e7a:	685a      	ldr	r2, [r3, #4]
 8005e7c:	bb62      	cbnz	r2, 8005ed8 <_malloc_r+0xdc>
 8005e7e:	f8c8 7000 	str.w	r7, [r8]
 8005e82:	e00f      	b.n	8005ea4 <_malloc_r+0xa8>
 8005e84:	6822      	ldr	r2, [r4, #0]
 8005e86:	1b52      	subs	r2, r2, r5
 8005e88:	d420      	bmi.n	8005ecc <_malloc_r+0xd0>
 8005e8a:	2a0b      	cmp	r2, #11
 8005e8c:	d917      	bls.n	8005ebe <_malloc_r+0xc2>
 8005e8e:	1961      	adds	r1, r4, r5
 8005e90:	42a3      	cmp	r3, r4
 8005e92:	6025      	str	r5, [r4, #0]
 8005e94:	bf18      	it	ne
 8005e96:	6059      	strne	r1, [r3, #4]
 8005e98:	6863      	ldr	r3, [r4, #4]
 8005e9a:	bf08      	it	eq
 8005e9c:	f8c8 1000 	streq.w	r1, [r8]
 8005ea0:	5162      	str	r2, [r4, r5]
 8005ea2:	604b      	str	r3, [r1, #4]
 8005ea4:	4630      	mov	r0, r6
 8005ea6:	f000 f82f 	bl	8005f08 <__malloc_unlock>
 8005eaa:	f104 000b 	add.w	r0, r4, #11
 8005eae:	1d23      	adds	r3, r4, #4
 8005eb0:	f020 0007 	bic.w	r0, r0, #7
 8005eb4:	1ac2      	subs	r2, r0, r3
 8005eb6:	bf1c      	itt	ne
 8005eb8:	1a1b      	subne	r3, r3, r0
 8005eba:	50a3      	strne	r3, [r4, r2]
 8005ebc:	e7af      	b.n	8005e1e <_malloc_r+0x22>
 8005ebe:	6862      	ldr	r2, [r4, #4]
 8005ec0:	42a3      	cmp	r3, r4
 8005ec2:	bf0c      	ite	eq
 8005ec4:	f8c8 2000 	streq.w	r2, [r8]
 8005ec8:	605a      	strne	r2, [r3, #4]
 8005eca:	e7eb      	b.n	8005ea4 <_malloc_r+0xa8>
 8005ecc:	4623      	mov	r3, r4
 8005ece:	6864      	ldr	r4, [r4, #4]
 8005ed0:	e7ae      	b.n	8005e30 <_malloc_r+0x34>
 8005ed2:	463c      	mov	r4, r7
 8005ed4:	687f      	ldr	r7, [r7, #4]
 8005ed6:	e7b6      	b.n	8005e46 <_malloc_r+0x4a>
 8005ed8:	461a      	mov	r2, r3
 8005eda:	685b      	ldr	r3, [r3, #4]
 8005edc:	42a3      	cmp	r3, r4
 8005ede:	d1fb      	bne.n	8005ed8 <_malloc_r+0xdc>
 8005ee0:	2300      	movs	r3, #0
 8005ee2:	6053      	str	r3, [r2, #4]
 8005ee4:	e7de      	b.n	8005ea4 <_malloc_r+0xa8>
 8005ee6:	230c      	movs	r3, #12
 8005ee8:	4630      	mov	r0, r6
 8005eea:	6033      	str	r3, [r6, #0]
 8005eec:	f000 f80c 	bl	8005f08 <__malloc_unlock>
 8005ef0:	e794      	b.n	8005e1c <_malloc_r+0x20>
 8005ef2:	6005      	str	r5, [r0, #0]
 8005ef4:	e7d6      	b.n	8005ea4 <_malloc_r+0xa8>
 8005ef6:	bf00      	nop
 8005ef8:	20000ba0 	.word	0x20000ba0

08005efc <__malloc_lock>:
 8005efc:	4801      	ldr	r0, [pc, #4]	@ (8005f04 <__malloc_lock+0x8>)
 8005efe:	f7ff beea 	b.w	8005cd6 <__retarget_lock_acquire_recursive>
 8005f02:	bf00      	nop
 8005f04:	20000b98 	.word	0x20000b98

08005f08 <__malloc_unlock>:
 8005f08:	4801      	ldr	r0, [pc, #4]	@ (8005f10 <__malloc_unlock+0x8>)
 8005f0a:	f7ff bee5 	b.w	8005cd8 <__retarget_lock_release_recursive>
 8005f0e:	bf00      	nop
 8005f10:	20000b98 	.word	0x20000b98

08005f14 <__sflush_r>:
 8005f14:	f9b1 200c 	ldrsh.w	r2, [r1, #12]
 8005f18:	b5f8      	push	{r3, r4, r5, r6, r7, lr}
 8005f1a:	0716      	lsls	r6, r2, #28
 8005f1c:	4605      	mov	r5, r0
 8005f1e:	460c      	mov	r4, r1
 8005f20:	d454      	bmi.n	8005fcc <__sflush_r+0xb8>
 8005f22:	684b      	ldr	r3, [r1, #4]
 8005f24:	2b00      	cmp	r3, #0
 8005f26:	dc02      	bgt.n	8005f2e <__sflush_r+0x1a>
 8005f28:	6c0b      	ldr	r3, [r1, #64]	@ 0x40
 8005f2a:	2b00      	cmp	r3, #0
 8005f2c:	dd48      	ble.n	8005fc0 <__sflush_r+0xac>
 8005f2e:	6ae6      	ldr	r6, [r4, #44]	@ 0x2c
 8005f30:	2e00      	cmp	r6, #0
 8005f32:	d045      	beq.n	8005fc0 <__sflush_r+0xac>
 8005f34:	2300      	movs	r3, #0
 8005f36:	f412 5280 	ands.w	r2, r2, #4096	@ 0x1000
 8005f3a:	682f      	ldr	r7, [r5, #0]
 8005f3c:	6a21      	ldr	r1, [r4, #32]
 8005f3e:	602b      	str	r3, [r5, #0]
 8005f40:	d030      	beq.n	8005fa4 <__sflush_r+0x90>
 8005f42:	6d62      	ldr	r2, [r4, #84]	@ 0x54
 8005f44:	89a3      	ldrh	r3, [r4, #12]
 8005f46:	0759      	lsls	r1, r3, #29
 8005f48:	d505      	bpl.n	8005f56 <__sflush_r+0x42>
 8005f4a:	6863      	ldr	r3, [r4, #4]
 8005f4c:	1ad2      	subs	r2, r2, r3
 8005f4e:	6b63      	ldr	r3, [r4, #52]	@ 0x34
 8005f50:	b10b      	cbz	r3, 8005f56 <__sflush_r+0x42>
 8005f52:	6c23      	ldr	r3, [r4, #64]	@ 0x40
 8005f54:	1ad2      	subs	r2, r2, r3
 8005f56:	2300      	movs	r3, #0
 8005f58:	4628      	mov	r0, r5
 8005f5a:	6ae6      	ldr	r6, [r4, #44]	@ 0x2c
 8005f5c:	6a21      	ldr	r1, [r4, #32]
 8005f5e:	47b0      	blx	r6
 8005f60:	1c43      	adds	r3, r0, #1
 8005f62:	89a3      	ldrh	r3, [r4, #12]
 8005f64:	d106      	bne.n	8005f74 <__sflush_r+0x60>
 8005f66:	6829      	ldr	r1, [r5, #0]
 8005f68:	291d      	cmp	r1, #29
 8005f6a:	d82b      	bhi.n	8005fc4 <__sflush_r+0xb0>
 8005f6c:	4a28      	ldr	r2, [pc, #160]	@ (8006010 <__sflush_r+0xfc>)
 8005f6e:	410a      	asrs	r2, r1
 8005f70:	07d6      	lsls	r6, r2, #31
 8005f72:	d427      	bmi.n	8005fc4 <__sflush_r+0xb0>
 8005f74:	2200      	movs	r2, #0
 8005f76:	6062      	str	r2, [r4, #4]
 8005f78:	6922      	ldr	r2, [r4, #16]
 8005f7a:	04d9      	lsls	r1, r3, #19
 8005f7c:	6022      	str	r2, [r4, #0]
 8005f7e:	d504      	bpl.n	8005f8a <__sflush_r+0x76>
 8005f80:	1c42      	adds	r2, r0, #1
 8005f82:	d101      	bne.n	8005f88 <__sflush_r+0x74>
 8005f84:	682b      	ldr	r3, [r5, #0]
 8005f86:	b903      	cbnz	r3, 8005f8a <__sflush_r+0x76>
 8005f88:	6560      	str	r0, [r4, #84]	@ 0x54
 8005f8a:	6b61      	ldr	r1, [r4, #52]	@ 0x34
 8005f8c:	602f      	str	r7, [r5, #0]
 8005f8e:	b1b9      	cbz	r1, 8005fc0 <__sflush_r+0xac>
 8005f90:	f104 0344 	add.w	r3, r4, #68	@ 0x44
 8005f94:	4299      	cmp	r1, r3
 8005f96:	d002      	beq.n	8005f9e <__sflush_r+0x8a>
 8005f98:	4628      	mov	r0, r5
 8005f9a:	f7ff febd 	bl	8005d18 <_free_r>
 8005f9e:	2300      	movs	r3, #0
 8005fa0:	6363      	str	r3, [r4, #52]	@ 0x34
 8005fa2:	e00d      	b.n	8005fc0 <__sflush_r+0xac>
 8005fa4:	2301      	movs	r3, #1
 8005fa6:	4628      	mov	r0, r5
 8005fa8:	47b0      	blx	r6
 8005faa:	4602      	mov	r2, r0
 8005fac:	1c50      	adds	r0, r2, #1
 8005fae:	d1c9      	bne.n	8005f44 <__sflush_r+0x30>
 8005fb0:	682b      	ldr	r3, [r5, #0]
 8005fb2:	2b00      	cmp	r3, #0
 8005fb4:	d0c6      	beq.n	8005f44 <__sflush_r+0x30>
 8005fb6:	2b1d      	cmp	r3, #29
 8005fb8:	d001      	beq.n	8005fbe <__sflush_r+0xaa>
 8005fba:	2b16      	cmp	r3, #22
 8005fbc:	d11d      	bne.n	8005ffa <__sflush_r+0xe6>
 8005fbe:	602f      	str	r7, [r5, #0]
 8005fc0:	2000      	movs	r0, #0
 8005fc2:	e021      	b.n	8006008 <__sflush_r+0xf4>
 8005fc4:	f043 0340 	orr.w	r3, r3, #64	@ 0x40
 8005fc8:	b21b      	sxth	r3, r3
 8005fca:	e01a      	b.n	8006002 <__sflush_r+0xee>
 8005fcc:	690f      	ldr	r7, [r1, #16]
 8005fce:	2f00      	cmp	r7, #0
 8005fd0:	d0f6      	beq.n	8005fc0 <__sflush_r+0xac>
 8005fd2:	0793      	lsls	r3, r2, #30
 8005fd4:	bf18      	it	ne
 8005fd6:	2300      	movne	r3, #0
 8005fd8:	680e      	ldr	r6, [r1, #0]
 8005fda:	bf08      	it	eq
 8005fdc:	694b      	ldreq	r3, [r1, #20]
 8005fde:	1bf6      	subs	r6, r6, r7
 8005fe0:	600f      	str	r7, [r1, #0]
 8005fe2:	608b      	str	r3, [r1, #8]
 8005fe4:	2e00      	cmp	r6, #0
 8005fe6:	ddeb      	ble.n	8005fc0 <__sflush_r+0xac>
 8005fe8:	4633      	mov	r3, r6
 8005fea:	463a      	mov	r2, r7
 8005fec:	4628      	mov	r0, r5
 8005fee:	6a21      	ldr	r1, [r4, #32]
 8005ff0:	f8d4 c028 	ldr.w	ip, [r4, #40]	@ 0x28
 8005ff4:	47e0      	blx	ip
 8005ff6:	2800      	cmp	r0, #0
 8005ff8:	dc07      	bgt.n	800600a <__sflush_r+0xf6>
 8005ffa:	f9b4 300c 	ldrsh.w	r3, [r4, #12]
 8005ffe:	f043 0340 	orr.w	r3, r3, #64	@ 0x40
 8006002:	f04f 30ff 	mov.w	r0, #4294967295
 8006006:	81a3      	strh	r3, [r4, #12]
 8006008:	bdf8      	pop	{r3, r4, r5, r6, r7, pc}
 800600a:	4407      	add	r7, r0
 800600c:	1a36      	subs	r6, r6, r0
 800600e:	e7e9      	b.n	8005fe4 <__sflush_r+0xd0>
 8006010:	dfbffffe 	.word	0xdfbffffe

08006014 <_fflush_r>:
 8006014:	b538      	push	{r3, r4, r5, lr}
 8006016:	690b      	ldr	r3, [r1, #16]
 8006018:	4605      	mov	r5, r0
 800601a:	460c      	mov	r4, r1
 800601c:	b913      	cbnz	r3, 8006024 <_fflush_r+0x10>
 800601e:	2500      	movs	r5, #0
 8006020:	4628      	mov	r0, r5
 8006022:	bd38      	pop	{r3, r4, r5, pc}
 8006024:	b118      	cbz	r0, 800602e <_fflush_r+0x1a>
 8006026:	6a03      	ldr	r3, [r0, #32]
 8006028:	b90b      	cbnz	r3, 800602e <_fflush_r+0x1a>
 800602a:	f7ff fd61 	bl	8005af0 <__sinit>
 800602e:	f9b4 300c 	ldrsh.w	r3, [r4, #12]
 8006032:	2b00      	cmp	r3, #0
 8006034:	d0f3      	beq.n	800601e <_fflush_r+0xa>
 8006036:	6e62      	ldr	r2, [r4, #100]	@ 0x64
 8006038:	07d0      	lsls	r0, r2, #31
 800603a:	d404      	bmi.n	8006046 <_fflush_r+0x32>
 800603c:	0599      	lsls	r1, r3, #22
 800603e:	d402      	bmi.n	8006046 <_fflush_r+0x32>
 8006040:	6da0      	ldr	r0, [r4, #88]	@ 0x58
 8006042:	f7ff fe48 	bl	8005cd6 <__retarget_lock_acquire_recursive>
 8006046:	4628      	mov	r0, r5
 8006048:	4621      	mov	r1, r4
 800604a:	f7ff ff63 	bl	8005f14 <__sflush_r>
 800604e:	6e63      	ldr	r3, [r4, #100]	@ 0x64
 8006050:	4605      	mov	r5, r0
 8006052:	07da      	lsls	r2, r3, #31
 8006054:	d4e4      	bmi.n	8006020 <_fflush_r+0xc>
 8006056:	89a3      	ldrh	r3, [r4, #12]
 8006058:	059b      	lsls	r3, r3, #22
 800605a:	d4e1      	bmi.n	8006020 <_fflush_r+0xc>
 800605c:	6da0      	ldr	r0, [r4, #88]	@ 0x58
 800605e:	f7ff fe3b 	bl	8005cd8 <__retarget_lock_release_recursive>
 8006062:	e7dd      	b.n	8006020 <_fflush_r+0xc>

08006064 <fiprintf>:
 8006064:	b40e      	push	{r1, r2, r3}
 8006066:	b503      	push	{r0, r1, lr}
 8006068:	4601      	mov	r1, r0
 800606a:	ab03      	add	r3, sp, #12
 800606c:	4805      	ldr	r0, [pc, #20]	@ (8006084 <fiprintf+0x20>)
 800606e:	f853 2b04 	ldr.w	r2, [r3], #4
 8006072:	6800      	ldr	r0, [r0, #0]
 8006074:	9301      	str	r3, [sp, #4]
 8006076:	f000 f845 	bl	8006104 <_vfiprintf_r>
 800607a:	b002      	add	sp, #8
 800607c:	f85d eb04 	ldr.w	lr, [sp], #4
 8006080:	b003      	add	sp, #12
 8006082:	4770      	bx	lr
 8006084:	20000064 	.word	0x20000064

08006088 <_sbrk_r>:
 8006088:	b538      	push	{r3, r4, r5, lr}
 800608a:	2300      	movs	r3, #0
 800608c:	4d05      	ldr	r5, [pc, #20]	@ (80060a4 <_sbrk_r+0x1c>)
 800608e:	4604      	mov	r4, r0
 8006090:	4608      	mov	r0, r1
 8006092:	602b      	str	r3, [r5, #0]
 8006094:	f7fc f950 	bl	8002338 <_sbrk>
 8006098:	1c43      	adds	r3, r0, #1
 800609a:	d102      	bne.n	80060a2 <_sbrk_r+0x1a>
 800609c:	682b      	ldr	r3, [r5, #0]
 800609e:	b103      	cbz	r3, 80060a2 <_sbrk_r+0x1a>
 80060a0:	6023      	str	r3, [r4, #0]
 80060a2:	bd38      	pop	{r3, r4, r5, pc}
 80060a4:	20000b94 	.word	0x20000b94

080060a8 <abort>:
 80060a8:	2006      	movs	r0, #6
 80060aa:	b508      	push	{r3, lr}
 80060ac:	f000 fb90 	bl	80067d0 <raise>
 80060b0:	2001      	movs	r0, #1
 80060b2:	f7fc f921 	bl	80022f8 <_exit>

080060b6 <__sfputc_r>:
 80060b6:	6893      	ldr	r3, [r2, #8]
 80060b8:	b410      	push	{r4}
 80060ba:	3b01      	subs	r3, #1
 80060bc:	2b00      	cmp	r3, #0
 80060be:	6093      	str	r3, [r2, #8]
 80060c0:	da07      	bge.n	80060d2 <__sfputc_r+0x1c>
 80060c2:	6994      	ldr	r4, [r2, #24]
 80060c4:	42a3      	cmp	r3, r4
 80060c6:	db01      	blt.n	80060cc <__sfputc_r+0x16>
 80060c8:	290a      	cmp	r1, #10
 80060ca:	d102      	bne.n	80060d2 <__sfputc_r+0x1c>
 80060cc:	bc10      	pop	{r4}
 80060ce:	f000 bac3 	b.w	8006658 <__swbuf_r>
 80060d2:	6813      	ldr	r3, [r2, #0]
 80060d4:	1c58      	adds	r0, r3, #1
 80060d6:	6010      	str	r0, [r2, #0]
 80060d8:	7019      	strb	r1, [r3, #0]
 80060da:	4608      	mov	r0, r1
 80060dc:	bc10      	pop	{r4}
 80060de:	4770      	bx	lr

080060e0 <__sfputs_r>:
 80060e0:	b5f8      	push	{r3, r4, r5, r6, r7, lr}
 80060e2:	4606      	mov	r6, r0
 80060e4:	460f      	mov	r7, r1
 80060e6:	4614      	mov	r4, r2
 80060e8:	18d5      	adds	r5, r2, r3
 80060ea:	42ac      	cmp	r4, r5
 80060ec:	d101      	bne.n	80060f2 <__sfputs_r+0x12>
 80060ee:	2000      	movs	r0, #0
 80060f0:	e007      	b.n	8006102 <__sfputs_r+0x22>
 80060f2:	463a      	mov	r2, r7
 80060f4:	4630      	mov	r0, r6
 80060f6:	f814 1b01 	ldrb.w	r1, [r4], #1
 80060fa:	f7ff ffdc 	bl	80060b6 <__sfputc_r>
 80060fe:	1c43      	adds	r3, r0, #1
 8006100:	d1f3      	bne.n	80060ea <__sfputs_r+0xa>
 8006102:	bdf8      	pop	{r3, r4, r5, r6, r7, pc}

08006104 <_vfiprintf_r>:
 8006104:	e92d 4ff0 	stmdb	sp!, {r4, r5, r6, r7, r8, r9, sl, fp, lr}
 8006108:	460d      	mov	r5, r1
 800610a:	4614      	mov	r4, r2
 800610c:	4698      	mov	r8, r3
 800610e:	4606      	mov	r6, r0
 8006110:	b09d      	sub	sp, #116	@ 0x74
 8006112:	b118      	cbz	r0, 800611c <_vfiprintf_r+0x18>
 8006114:	6a03      	ldr	r3, [r0, #32]
 8006116:	b90b      	cbnz	r3, 800611c <_vfiprintf_r+0x18>
 8006118:	f7ff fcea 	bl	8005af0 <__sinit>
 800611c:	6e6b      	ldr	r3, [r5, #100]	@ 0x64
 800611e:	07d9      	lsls	r1, r3, #31
 8006120:	d405      	bmi.n	800612e <_vfiprintf_r+0x2a>
 8006122:	89ab      	ldrh	r3, [r5, #12]
 8006124:	059a      	lsls	r2, r3, #22
 8006126:	d402      	bmi.n	800612e <_vfiprintf_r+0x2a>
 8006128:	6da8      	ldr	r0, [r5, #88]	@ 0x58
 800612a:	f7ff fdd4 	bl	8005cd6 <__retarget_lock_acquire_recursive>
 800612e:	89ab      	ldrh	r3, [r5, #12]
 8006130:	071b      	lsls	r3, r3, #28
 8006132:	d501      	bpl.n	8006138 <_vfiprintf_r+0x34>
 8006134:	692b      	ldr	r3, [r5, #16]
 8006136:	b99b      	cbnz	r3, 8006160 <_vfiprintf_r+0x5c>
 8006138:	4629      	mov	r1, r5
 800613a:	4630      	mov	r0, r6
 800613c:	f000 faca 	bl	80066d4 <__swsetup_r>
 8006140:	b170      	cbz	r0, 8006160 <_vfiprintf_r+0x5c>
 8006142:	6e6b      	ldr	r3, [r5, #100]	@ 0x64
 8006144:	07dc      	lsls	r4, r3, #31
 8006146:	d504      	bpl.n	8006152 <_vfiprintf_r+0x4e>
 8006148:	f04f 30ff 	mov.w	r0, #4294967295
 800614c:	b01d      	add	sp, #116	@ 0x74
 800614e:	e8bd 8ff0 	ldmia.w	sp!, {r4, r5, r6, r7, r8, r9, sl, fp, pc}
 8006152:	89ab      	ldrh	r3, [r5, #12]
 8006154:	0598      	lsls	r0, r3, #22
 8006156:	d4f7      	bmi.n	8006148 <_vfiprintf_r+0x44>
 8006158:	6da8      	ldr	r0, [r5, #88]	@ 0x58
 800615a:	f7ff fdbd 	bl	8005cd8 <__retarget_lock_release_recursive>
 800615e:	e7f3      	b.n	8006148 <_vfiprintf_r+0x44>
 8006160:	2300      	movs	r3, #0
 8006162:	9309      	str	r3, [sp, #36]	@ 0x24
 8006164:	2320      	movs	r3, #32
 8006166:	f88d 3029 	strb.w	r3, [sp, #41]	@ 0x29
 800616a:	2330      	movs	r3, #48	@ 0x30
 800616c:	f04f 0901 	mov.w	r9, #1
 8006170:	f8cd 800c 	str.w	r8, [sp, #12]
 8006174:	f8df 81a8 	ldr.w	r8, [pc, #424]	@ 8006320 <_vfiprintf_r+0x21c>
 8006178:	f88d 302a 	strb.w	r3, [sp, #42]	@ 0x2a
 800617c:	4623      	mov	r3, r4
 800617e:	469a      	mov	sl, r3
 8006180:	f813 2b01 	ldrb.w	r2, [r3], #1
 8006184:	b10a      	cbz	r2, 800618a <_vfiprintf_r+0x86>
 8006186:	2a25      	cmp	r2, #37	@ 0x25
 8006188:	d1f9      	bne.n	800617e <_vfiprintf_r+0x7a>
 800618a:	ebba 0b04 	subs.w	fp, sl, r4
 800618e:	d00b      	beq.n	80061a8 <_vfiprintf_r+0xa4>
 8006190:	465b      	mov	r3, fp
 8006192:	4622      	mov	r2, r4
 8006194:	4629      	mov	r1, r5
 8006196:	4630      	mov	r0, r6
 8006198:	f7ff ffa2 	bl	80060e0 <__sfputs_r>
 800619c:	3001      	adds	r0, #1
 800619e:	f000 80a7 	beq.w	80062f0 <_vfiprintf_r+0x1ec>
 80061a2:	9a09      	ldr	r2, [sp, #36]	@ 0x24
 80061a4:	445a      	add	r2, fp
 80061a6:	9209      	str	r2, [sp, #36]	@ 0x24
 80061a8:	f89a 3000 	ldrb.w	r3, [sl]
 80061ac:	2b00      	cmp	r3, #0
 80061ae:	f000 809f 	beq.w	80062f0 <_vfiprintf_r+0x1ec>
 80061b2:	2300      	movs	r3, #0
 80061b4:	f04f 32ff 	mov.w	r2, #4294967295
 80061b8:	e9cd 2305 	strd	r2, r3, [sp, #20]
 80061bc:	f10a 0a01 	add.w	sl, sl, #1
 80061c0:	9304      	str	r3, [sp, #16]
 80061c2:	9307      	str	r3, [sp, #28]
 80061c4:	f88d 3053 	strb.w	r3, [sp, #83]	@ 0x53
 80061c8:	931a      	str	r3, [sp, #104]	@ 0x68
 80061ca:	4654      	mov	r4, sl
 80061cc:	2205      	movs	r2, #5
 80061ce:	f814 1b01 	ldrb.w	r1, [r4], #1
 80061d2:	4853      	ldr	r0, [pc, #332]	@ (8006320 <_vfiprintf_r+0x21c>)
 80061d4:	f000 fb18 	bl	8006808 <memchr>
 80061d8:	9a04      	ldr	r2, [sp, #16]
 80061da:	b9d8      	cbnz	r0, 8006214 <_vfiprintf_r+0x110>
 80061dc:	06d1      	lsls	r1, r2, #27
 80061de:	bf44      	itt	mi
 80061e0:	2320      	movmi	r3, #32
 80061e2:	f88d 3053 	strbmi.w	r3, [sp, #83]	@ 0x53
 80061e6:	0713      	lsls	r3, r2, #28
 80061e8:	bf44      	itt	mi
 80061ea:	232b      	movmi	r3, #43	@ 0x2b
 80061ec:	f88d 3053 	strbmi.w	r3, [sp, #83]	@ 0x53
 80061f0:	f89a 3000 	ldrb.w	r3, [sl]
 80061f4:	2b2a      	cmp	r3, #42	@ 0x2a
 80061f6:	d015      	beq.n	8006224 <_vfiprintf_r+0x120>
 80061f8:	4654      	mov	r4, sl
 80061fa:	2000      	movs	r0, #0
 80061fc:	f04f 0c0a 	mov.w	ip, #10
 8006200:	9a07      	ldr	r2, [sp, #28]
 8006202:	4621      	mov	r1, r4
 8006204:	f811 3b01 	ldrb.w	r3, [r1], #1
 8006208:	3b30      	subs	r3, #48	@ 0x30
 800620a:	2b09      	cmp	r3, #9
 800620c:	d94b      	bls.n	80062a6 <_vfiprintf_r+0x1a2>
 800620e:	b1b0      	cbz	r0, 800623e <_vfiprintf_r+0x13a>
 8006210:	9207      	str	r2, [sp, #28]
 8006212:	e014      	b.n	800623e <_vfiprintf_r+0x13a>
 8006214:	eba0 0308 	sub.w	r3, r0, r8
 8006218:	fa09 f303 	lsl.w	r3, r9, r3
 800621c:	4313      	orrs	r3, r2
 800621e:	46a2      	mov	sl, r4
 8006220:	9304      	str	r3, [sp, #16]
 8006222:	e7d2      	b.n	80061ca <_vfiprintf_r+0xc6>
 8006224:	9b03      	ldr	r3, [sp, #12]
 8006226:	1d19      	adds	r1, r3, #4
 8006228:	681b      	ldr	r3, [r3, #0]
 800622a:	9103      	str	r1, [sp, #12]
 800622c:	2b00      	cmp	r3, #0
 800622e:	bfbb      	ittet	lt
 8006230:	425b      	neglt	r3, r3
 8006232:	f042 0202 	orrlt.w	r2, r2, #2
 8006236:	9307      	strge	r3, [sp, #28]
 8006238:	9307      	strlt	r3, [sp, #28]
 800623a:	bfb8      	it	lt
 800623c:	9204      	strlt	r2, [sp, #16]
 800623e:	7823      	ldrb	r3, [r4, #0]
 8006240:	2b2e      	cmp	r3, #46	@ 0x2e
 8006242:	d10a      	bne.n	800625a <_vfiprintf_r+0x156>
 8006244:	7863      	ldrb	r3, [r4, #1]
 8006246:	2b2a      	cmp	r3, #42	@ 0x2a
 8006248:	d132      	bne.n	80062b0 <_vfiprintf_r+0x1ac>
 800624a:	9b03      	ldr	r3, [sp, #12]
 800624c:	3402      	adds	r4, #2
 800624e:	1d1a      	adds	r2, r3, #4
 8006250:	681b      	ldr	r3, [r3, #0]
 8006252:	9203      	str	r2, [sp, #12]
 8006254:	ea43 73e3 	orr.w	r3, r3, r3, asr #31
 8006258:	9305      	str	r3, [sp, #20]
 800625a:	f8df a0c8 	ldr.w	sl, [pc, #200]	@ 8006324 <_vfiprintf_r+0x220>
 800625e:	2203      	movs	r2, #3
 8006260:	4650      	mov	r0, sl
 8006262:	7821      	ldrb	r1, [r4, #0]
 8006264:	f000 fad0 	bl	8006808 <memchr>
 8006268:	b138      	cbz	r0, 800627a <_vfiprintf_r+0x176>
 800626a:	2240      	movs	r2, #64	@ 0x40
 800626c:	9b04      	ldr	r3, [sp, #16]
 800626e:	eba0 000a 	sub.w	r0, r0, sl
 8006272:	4082      	lsls	r2, r0
 8006274:	4313      	orrs	r3, r2
 8006276:	3401      	adds	r4, #1
 8006278:	9304      	str	r3, [sp, #16]
 800627a:	f814 1b01 	ldrb.w	r1, [r4], #1
 800627e:	2206      	movs	r2, #6
 8006280:	4829      	ldr	r0, [pc, #164]	@ (8006328 <_vfiprintf_r+0x224>)
 8006282:	f88d 1028 	strb.w	r1, [sp, #40]	@ 0x28
 8006286:	f000 fabf 	bl	8006808 <memchr>
 800628a:	2800      	cmp	r0, #0
 800628c:	d03f      	beq.n	800630e <_vfiprintf_r+0x20a>
 800628e:	4b27      	ldr	r3, [pc, #156]	@ (800632c <_vfiprintf_r+0x228>)
 8006290:	bb1b      	cbnz	r3, 80062da <_vfiprintf_r+0x1d6>
 8006292:	9b03      	ldr	r3, [sp, #12]
 8006294:	3307      	adds	r3, #7
 8006296:	f023 0307 	bic.w	r3, r3, #7
 800629a:	3308      	adds	r3, #8
 800629c:	9303      	str	r3, [sp, #12]
 800629e:	9b09      	ldr	r3, [sp, #36]	@ 0x24
 80062a0:	443b      	add	r3, r7
 80062a2:	9309      	str	r3, [sp, #36]	@ 0x24
 80062a4:	e76a      	b.n	800617c <_vfiprintf_r+0x78>
 80062a6:	460c      	mov	r4, r1
 80062a8:	2001      	movs	r0, #1
 80062aa:	fb0c 3202 	mla	r2, ip, r2, r3
 80062ae:	e7a8      	b.n	8006202 <_vfiprintf_r+0xfe>
 80062b0:	2300      	movs	r3, #0
 80062b2:	f04f 0c0a 	mov.w	ip, #10
 80062b6:	4619      	mov	r1, r3
 80062b8:	3401      	adds	r4, #1
 80062ba:	9305      	str	r3, [sp, #20]
 80062bc:	4620      	mov	r0, r4
 80062be:	f810 2b01 	ldrb.w	r2, [r0], #1
 80062c2:	3a30      	subs	r2, #48	@ 0x30
 80062c4:	2a09      	cmp	r2, #9
 80062c6:	d903      	bls.n	80062d0 <_vfiprintf_r+0x1cc>
 80062c8:	2b00      	cmp	r3, #0
 80062ca:	d0c6      	beq.n	800625a <_vfiprintf_r+0x156>
 80062cc:	9105      	str	r1, [sp, #20]
 80062ce:	e7c4      	b.n	800625a <_vfiprintf_r+0x156>
 80062d0:	4604      	mov	r4, r0
 80062d2:	2301      	movs	r3, #1
 80062d4:	fb0c 2101 	mla	r1, ip, r1, r2
 80062d8:	e7f0      	b.n	80062bc <_vfiprintf_r+0x1b8>
 80062da:	ab03      	add	r3, sp, #12
 80062dc:	9300      	str	r3, [sp, #0]
 80062de:	462a      	mov	r2, r5
 80062e0:	4630      	mov	r0, r6
 80062e2:	4b13      	ldr	r3, [pc, #76]	@ (8006330 <_vfiprintf_r+0x22c>)
 80062e4:	a904      	add	r1, sp, #16
 80062e6:	f3af 8000 	nop.w
 80062ea:	4607      	mov	r7, r0
 80062ec:	1c78      	adds	r0, r7, #1
 80062ee:	d1d6      	bne.n	800629e <_vfiprintf_r+0x19a>
 80062f0:	6e6b      	ldr	r3, [r5, #100]	@ 0x64
 80062f2:	07d9      	lsls	r1, r3, #31
 80062f4:	d405      	bmi.n	8006302 <_vfiprintf_r+0x1fe>
 80062f6:	89ab      	ldrh	r3, [r5, #12]
 80062f8:	059a      	lsls	r2, r3, #22
 80062fa:	d402      	bmi.n	8006302 <_vfiprintf_r+0x1fe>
 80062fc:	6da8      	ldr	r0, [r5, #88]	@ 0x58
 80062fe:	f7ff fceb 	bl	8005cd8 <__retarget_lock_release_recursive>
 8006302:	89ab      	ldrh	r3, [r5, #12]
 8006304:	065b      	lsls	r3, r3, #25
 8006306:	f53f af1f 	bmi.w	8006148 <_vfiprintf_r+0x44>
 800630a:	9809      	ldr	r0, [sp, #36]	@ 0x24
 800630c:	e71e      	b.n	800614c <_vfiprintf_r+0x48>
 800630e:	ab03      	add	r3, sp, #12
 8006310:	9300      	str	r3, [sp, #0]
 8006312:	462a      	mov	r2, r5
 8006314:	4630      	mov	r0, r6
 8006316:	4b06      	ldr	r3, [pc, #24]	@ (8006330 <_vfiprintf_r+0x22c>)
 8006318:	a904      	add	r1, sp, #16
 800631a:	f000 f87d 	bl	8006418 <_printf_i>
 800631e:	e7e4      	b.n	80062ea <_vfiprintf_r+0x1e6>
 8006320:	080086cd 	.word	0x080086cd
 8006324:	080086d3 	.word	0x080086d3
 8006328:	080086d7 	.word	0x080086d7
 800632c:	00000000 	.word	0x00000000
 8006330:	080060e1 	.word	0x080060e1

08006334 <_printf_common>:
 8006334:	e92d 47f0 	stmdb	sp!, {r4, r5, r6, r7, r8, r9, sl, lr}
 8006338:	4616      	mov	r6, r2
 800633a:	4698      	mov	r8, r3
 800633c:	688a      	ldr	r2, [r1, #8]
 800633e:	690b      	ldr	r3, [r1, #16]
 8006340:	4607      	mov	r7, r0
 8006342:	4293      	cmp	r3, r2
 8006344:	bfb8      	it	lt
 8006346:	4613      	movlt	r3, r2
 8006348:	6033      	str	r3, [r6, #0]
 800634a:	f891 2043 	ldrb.w	r2, [r1, #67]	@ 0x43
 800634e:	460c      	mov	r4, r1
 8006350:	f8dd 9020 	ldr.w	r9, [sp, #32]
 8006354:	b10a      	cbz	r2, 800635a <_printf_common+0x26>
 8006356:	3301      	adds	r3, #1
 8006358:	6033      	str	r3, [r6, #0]
 800635a:	6823      	ldr	r3, [r4, #0]
 800635c:	0699      	lsls	r1, r3, #26
 800635e:	bf42      	ittt	mi
 8006360:	6833      	ldrmi	r3, [r6, #0]
 8006362:	3302      	addmi	r3, #2
 8006364:	6033      	strmi	r3, [r6, #0]
 8006366:	6825      	ldr	r5, [r4, #0]
 8006368:	f015 0506 	ands.w	r5, r5, #6
 800636c:	d106      	bne.n	800637c <_printf_common+0x48>
 800636e:	f104 0a19 	add.w	sl, r4, #25
 8006372:	68e3      	ldr	r3, [r4, #12]
 8006374:	6832      	ldr	r2, [r6, #0]
 8006376:	1a9b      	subs	r3, r3, r2
 8006378:	42ab      	cmp	r3, r5
 800637a:	dc2b      	bgt.n	80063d4 <_printf_common+0xa0>
 800637c:	f894 3043 	ldrb.w	r3, [r4, #67]	@ 0x43
 8006380:	6822      	ldr	r2, [r4, #0]
 8006382:	3b00      	subs	r3, #0
 8006384:	bf18      	it	ne
 8006386:	2301      	movne	r3, #1
 8006388:	0692      	lsls	r2, r2, #26
 800638a:	d430      	bmi.n	80063ee <_printf_common+0xba>
 800638c:	4641      	mov	r1, r8
 800638e:	4638      	mov	r0, r7
 8006390:	f104 0243 	add.w	r2, r4, #67	@ 0x43
 8006394:	47c8      	blx	r9
 8006396:	3001      	adds	r0, #1
 8006398:	d023      	beq.n	80063e2 <_printf_common+0xae>
 800639a:	6823      	ldr	r3, [r4, #0]
 800639c:	6922      	ldr	r2, [r4, #16]
 800639e:	f003 0306 	and.w	r3, r3, #6
 80063a2:	2b04      	cmp	r3, #4
 80063a4:	bf14      	ite	ne
 80063a6:	2500      	movne	r5, #0
 80063a8:	6833      	ldreq	r3, [r6, #0]
 80063aa:	f04f 0600 	mov.w	r6, #0
 80063ae:	bf08      	it	eq
 80063b0:	68e5      	ldreq	r5, [r4, #12]
 80063b2:	f104 041a 	add.w	r4, r4, #26
 80063b6:	bf08      	it	eq
 80063b8:	1aed      	subeq	r5, r5, r3
 80063ba:	f854 3c12 	ldr.w	r3, [r4, #-18]
 80063be:	bf08      	it	eq
 80063c0:	ea25 75e5 	biceq.w	r5, r5, r5, asr #31
 80063c4:	4293      	cmp	r3, r2
 80063c6:	bfc4      	itt	gt
 80063c8:	1a9b      	subgt	r3, r3, r2
 80063ca:	18ed      	addgt	r5, r5, r3
 80063cc:	42b5      	cmp	r5, r6
 80063ce:	d11a      	bne.n	8006406 <_printf_common+0xd2>
 80063d0:	2000      	movs	r0, #0
 80063d2:	e008      	b.n	80063e6 <_printf_common+0xb2>
 80063d4:	2301      	movs	r3, #1
 80063d6:	4652      	mov	r2, sl
 80063d8:	4641      	mov	r1, r8
 80063da:	4638      	mov	r0, r7
 80063dc:	47c8      	blx	r9
 80063de:	3001      	adds	r0, #1
 80063e0:	d103      	bne.n	80063ea <_printf_common+0xb6>
 80063e2:	f04f 30ff 	mov.w	r0, #4294967295
 80063e6:	e8bd 87f0 	ldmia.w	sp!, {r4, r5, r6, r7, r8, r9, sl, pc}
 80063ea:	3501      	adds	r5, #1
 80063ec:	e7c1      	b.n	8006372 <_printf_common+0x3e>
 80063ee:	2030      	movs	r0, #48	@ 0x30
 80063f0:	18e1      	adds	r1, r4, r3
 80063f2:	f881 0043 	strb.w	r0, [r1, #67]	@ 0x43
 80063f6:	1c5a      	adds	r2, r3, #1
 80063f8:	f894 1045 	ldrb.w	r1, [r4, #69]	@ 0x45
 80063fc:	4422      	add	r2, r4
 80063fe:	3302      	adds	r3, #2
 8006400:	f882 1043 	strb.w	r1, [r2, #67]	@ 0x43
 8006404:	e7c2      	b.n	800638c <_printf_common+0x58>
 8006406:	2301      	movs	r3, #1
 8006408:	4622      	mov	r2, r4
 800640a:	4641      	mov	r1, r8
 800640c:	4638      	mov	r0, r7
 800640e:	47c8      	blx	r9
 8006410:	3001      	adds	r0, #1
 8006412:	d0e6      	beq.n	80063e2 <_printf_common+0xae>
 8006414:	3601      	adds	r6, #1
 8006416:	e7d9      	b.n	80063cc <_printf_common+0x98>

08006418 <_printf_i>:
 8006418:	e92d 47ff 	stmdb	sp!, {r0, r1, r2, r3, r4, r5, r6, r7, r8, r9, sl, lr}
 800641c:	7e0f      	ldrb	r7, [r1, #24]
 800641e:	4691      	mov	r9, r2
 8006420:	2f78      	cmp	r7, #120	@ 0x78
 8006422:	4680      	mov	r8, r0
 8006424:	460c      	mov	r4, r1
 8006426:	469a      	mov	sl, r3
 8006428:	9e0c      	ldr	r6, [sp, #48]	@ 0x30
 800642a:	f101 0243 	add.w	r2, r1, #67	@ 0x43
 800642e:	d807      	bhi.n	8006440 <_printf_i+0x28>
 8006430:	2f62      	cmp	r7, #98	@ 0x62
 8006432:	d80a      	bhi.n	800644a <_printf_i+0x32>
 8006434:	2f00      	cmp	r7, #0
 8006436:	f000 80d3 	beq.w	80065e0 <_printf_i+0x1c8>
 800643a:	2f58      	cmp	r7, #88	@ 0x58
 800643c:	f000 80ba 	beq.w	80065b4 <_printf_i+0x19c>
 8006440:	f104 0642 	add.w	r6, r4, #66	@ 0x42
 8006444:	f884 7042 	strb.w	r7, [r4, #66]	@ 0x42
 8006448:	e03a      	b.n	80064c0 <_printf_i+0xa8>
 800644a:	f1a7 0363 	sub.w	r3, r7, #99	@ 0x63
 800644e:	2b15      	cmp	r3, #21
 8006450:	d8f6      	bhi.n	8006440 <_printf_i+0x28>
 8006452:	a101      	add	r1, pc, #4	@ (adr r1, 8006458 <_printf_i+0x40>)
 8006454:	f851 f023 	ldr.w	pc, [r1, r3, lsl #2]
 8006458:	080064b1 	.word	0x080064b1
 800645c:	080064c5 	.word	0x080064c5
 8006460:	08006441 	.word	0x08006441
 8006464:	08006441 	.word	0x08006441
 8006468:	08006441 	.word	0x08006441
 800646c:	08006441 	.word	0x08006441
 8006470:	080064c5 	.word	0x080064c5
 8006474:	08006441 	.word	0x08006441
 8006478:	08006441 	.word	0x08006441
 800647c:	08006441 	.word	0x08006441
 8006480:	08006441 	.word	0x08006441
 8006484:	080065c7 	.word	0x080065c7
 8006488:	080064ef 	.word	0x080064ef
 800648c:	08006581 	.word	0x08006581
 8006490:	08006441 	.word	0x08006441
 8006494:	08006441 	.word	0x08006441
 8006498:	080065e9 	.word	0x080065e9
 800649c:	08006441 	.word	0x08006441
 80064a0:	080064ef 	.word	0x080064ef
 80064a4:	08006441 	.word	0x08006441
 80064a8:	08006441 	.word	0x08006441
 80064ac:	08006589 	.word	0x08006589
 80064b0:	6833      	ldr	r3, [r6, #0]
 80064b2:	1d1a      	adds	r2, r3, #4
 80064b4:	681b      	ldr	r3, [r3, #0]
 80064b6:	6032      	str	r2, [r6, #0]
 80064b8:	f104 0642 	add.w	r6, r4, #66	@ 0x42
 80064bc:	f884 3042 	strb.w	r3, [r4, #66]	@ 0x42
 80064c0:	2301      	movs	r3, #1
 80064c2:	e09e      	b.n	8006602 <_printf_i+0x1ea>
 80064c4:	6833      	ldr	r3, [r6, #0]
 80064c6:	6820      	ldr	r0, [r4, #0]
 80064c8:	1d19      	adds	r1, r3, #4
 80064ca:	6031      	str	r1, [r6, #0]
 80064cc:	0606      	lsls	r6, r0, #24
 80064ce:	d501      	bpl.n	80064d4 <_printf_i+0xbc>
 80064d0:	681d      	ldr	r5, [r3, #0]
 80064d2:	e003      	b.n	80064dc <_printf_i+0xc4>
 80064d4:	0645      	lsls	r5, r0, #25
 80064d6:	d5fb      	bpl.n	80064d0 <_printf_i+0xb8>
 80064d8:	f9b3 5000 	ldrsh.w	r5, [r3]
 80064dc:	2d00      	cmp	r5, #0
 80064de:	da03      	bge.n	80064e8 <_printf_i+0xd0>
 80064e0:	232d      	movs	r3, #45	@ 0x2d
 80064e2:	426d      	negs	r5, r5
 80064e4:	f884 3043 	strb.w	r3, [r4, #67]	@ 0x43
 80064e8:	230a      	movs	r3, #10
 80064ea:	4859      	ldr	r0, [pc, #356]	@ (8006650 <_printf_i+0x238>)
 80064ec:	e011      	b.n	8006512 <_printf_i+0xfa>
 80064ee:	6821      	ldr	r1, [r4, #0]
 80064f0:	6833      	ldr	r3, [r6, #0]
 80064f2:	0608      	lsls	r0, r1, #24
 80064f4:	f853 5b04 	ldr.w	r5, [r3], #4
 80064f8:	d402      	bmi.n	8006500 <_printf_i+0xe8>
 80064fa:	0649      	lsls	r1, r1, #25
 80064fc:	bf48      	it	mi
 80064fe:	b2ad      	uxthmi	r5, r5
 8006500:	2f6f      	cmp	r7, #111	@ 0x6f
 8006502:	6033      	str	r3, [r6, #0]
 8006504:	bf14      	ite	ne
 8006506:	230a      	movne	r3, #10
 8006508:	2308      	moveq	r3, #8
 800650a:	4851      	ldr	r0, [pc, #324]	@ (8006650 <_printf_i+0x238>)
 800650c:	2100      	movs	r1, #0
 800650e:	f884 1043 	strb.w	r1, [r4, #67]	@ 0x43
 8006512:	6866      	ldr	r6, [r4, #4]
 8006514:	2e00      	cmp	r6, #0
 8006516:	bfa8      	it	ge
 8006518:	6821      	ldrge	r1, [r4, #0]
 800651a:	60a6      	str	r6, [r4, #8]
 800651c:	bfa4      	itt	ge
 800651e:	f021 0104 	bicge.w	r1, r1, #4
 8006522:	6021      	strge	r1, [r4, #0]
 8006524:	b90d      	cbnz	r5, 800652a <_printf_i+0x112>
 8006526:	2e00      	cmp	r6, #0
 8006528:	d04b      	beq.n	80065c2 <_printf_i+0x1aa>
 800652a:	4616      	mov	r6, r2
 800652c:	fbb5 f1f3 	udiv	r1, r5, r3
 8006530:	fb03 5711 	mls	r7, r3, r1, r5
 8006534:	5dc7      	ldrb	r7, [r0, r7]
 8006536:	f806 7d01 	strb.w	r7, [r6, #-1]!
 800653a:	462f      	mov	r7, r5
 800653c:	42bb      	cmp	r3, r7
 800653e:	460d      	mov	r5, r1
 8006540:	d9f4      	bls.n	800652c <_printf_i+0x114>
 8006542:	2b08      	cmp	r3, #8
 8006544:	d10b      	bne.n	800655e <_printf_i+0x146>
 8006546:	6823      	ldr	r3, [r4, #0]
 8006548:	07df      	lsls	r7, r3, #31
 800654a:	d508      	bpl.n	800655e <_printf_i+0x146>
 800654c:	6923      	ldr	r3, [r4, #16]
 800654e:	6861      	ldr	r1, [r4, #4]
 8006550:	4299      	cmp	r1, r3
 8006552:	bfde      	ittt	le
 8006554:	2330      	movle	r3, #48	@ 0x30
 8006556:	f806 3c01 	strble.w	r3, [r6, #-1]
 800655a:	f106 36ff 	addle.w	r6, r6, #4294967295
 800655e:	1b92      	subs	r2, r2, r6
 8006560:	6122      	str	r2, [r4, #16]
 8006562:	464b      	mov	r3, r9
 8006564:	4621      	mov	r1, r4
 8006566:	4640      	mov	r0, r8
 8006568:	f8cd a000 	str.w	sl, [sp]
 800656c:	aa03      	add	r2, sp, #12
 800656e:	f7ff fee1 	bl	8006334 <_printf_common>
 8006572:	3001      	adds	r0, #1
 8006574:	d14a      	bne.n	800660c <_printf_i+0x1f4>
 8006576:	f04f 30ff 	mov.w	r0, #4294967295
 800657a:	b004      	add	sp, #16
 800657c:	e8bd 87f0 	ldmia.w	sp!, {r4, r5, r6, r7, r8, r9, sl, pc}
 8006580:	6823      	ldr	r3, [r4, #0]
 8006582:	f043 0320 	orr.w	r3, r3, #32
 8006586:	6023      	str	r3, [r4, #0]
 8006588:	2778      	movs	r7, #120	@ 0x78
 800658a:	4832      	ldr	r0, [pc, #200]	@ (8006654 <_printf_i+0x23c>)
 800658c:	f884 7045 	strb.w	r7, [r4, #69]	@ 0x45
 8006590:	6823      	ldr	r3, [r4, #0]
 8006592:	6831      	ldr	r1, [r6, #0]
 8006594:	061f      	lsls	r7, r3, #24
 8006596:	f851 5b04 	ldr.w	r5, [r1], #4
 800659a:	d402      	bmi.n	80065a2 <_printf_i+0x18a>
 800659c:	065f      	lsls	r7, r3, #25
 800659e:	bf48      	it	mi
 80065a0:	b2ad      	uxthmi	r5, r5
 80065a2:	6031      	str	r1, [r6, #0]
 80065a4:	07d9      	lsls	r1, r3, #31
 80065a6:	bf44      	itt	mi
 80065a8:	f043 0320 	orrmi.w	r3, r3, #32
 80065ac:	6023      	strmi	r3, [r4, #0]
 80065ae:	b11d      	cbz	r5, 80065b8 <_printf_i+0x1a0>
 80065b0:	2310      	movs	r3, #16
 80065b2:	e7ab      	b.n	800650c <_printf_i+0xf4>
 80065b4:	4826      	ldr	r0, [pc, #152]	@ (8006650 <_printf_i+0x238>)
 80065b6:	e7e9      	b.n	800658c <_printf_i+0x174>
 80065b8:	6823      	ldr	r3, [r4, #0]
 80065ba:	f023 0320 	bic.w	r3, r3, #32
 80065be:	6023      	str	r3, [r4, #0]
 80065c0:	e7f6      	b.n	80065b0 <_printf_i+0x198>
 80065c2:	4616      	mov	r6, r2
 80065c4:	e7bd      	b.n	8006542 <_printf_i+0x12a>
 80065c6:	6833      	ldr	r3, [r6, #0]
 80065c8:	6825      	ldr	r5, [r4, #0]
 80065ca:	1d18      	adds	r0, r3, #4
 80065cc:	6961      	ldr	r1, [r4, #20]
 80065ce:	6030      	str	r0, [r6, #0]
 80065d0:	062e      	lsls	r6, r5, #24
 80065d2:	681b      	ldr	r3, [r3, #0]
 80065d4:	d501      	bpl.n	80065da <_printf_i+0x1c2>
 80065d6:	6019      	str	r1, [r3, #0]
 80065d8:	e002      	b.n	80065e0 <_printf_i+0x1c8>
 80065da:	0668      	lsls	r0, r5, #25
 80065dc:	d5fb      	bpl.n	80065d6 <_printf_i+0x1be>
 80065de:	8019      	strh	r1, [r3, #0]
 80065e0:	2300      	movs	r3, #0
 80065e2:	4616      	mov	r6, r2
 80065e4:	6123      	str	r3, [r4, #16]
 80065e6:	e7bc      	b.n	8006562 <_printf_i+0x14a>
 80065e8:	6833      	ldr	r3, [r6, #0]
 80065ea:	2100      	movs	r1, #0
 80065ec:	1d1a      	adds	r2, r3, #4
 80065ee:	6032      	str	r2, [r6, #0]
 80065f0:	681e      	ldr	r6, [r3, #0]
 80065f2:	6862      	ldr	r2, [r4, #4]
 80065f4:	4630      	mov	r0, r6
 80065f6:	f000 f907 	bl	8006808 <memchr>
 80065fa:	b108      	cbz	r0, 8006600 <_printf_i+0x1e8>
 80065fc:	1b80      	subs	r0, r0, r6
 80065fe:	6060      	str	r0, [r4, #4]
 8006600:	6863      	ldr	r3, [r4, #4]
 8006602:	6123      	str	r3, [r4, #16]
 8006604:	2300      	movs	r3, #0
 8006606:	f884 3043 	strb.w	r3, [r4, #67]	@ 0x43
 800660a:	e7aa      	b.n	8006562 <_printf_i+0x14a>
 800660c:	4632      	mov	r2, r6
 800660e:	4649      	mov	r1, r9
 8006610:	4640      	mov	r0, r8
 8006612:	6923      	ldr	r3, [r4, #16]
 8006614:	47d0      	blx	sl
 8006616:	3001      	adds	r0, #1
 8006618:	d0ad      	beq.n	8006576 <_printf_i+0x15e>
 800661a:	6823      	ldr	r3, [r4, #0]
 800661c:	079b      	lsls	r3, r3, #30
 800661e:	d413      	bmi.n	8006648 <_printf_i+0x230>
 8006620:	68e0      	ldr	r0, [r4, #12]
 8006622:	9b03      	ldr	r3, [sp, #12]
 8006624:	4298      	cmp	r0, r3
 8006626:	bfb8      	it	lt
 8006628:	4618      	movlt	r0, r3
 800662a:	e7a6      	b.n	800657a <_printf_i+0x162>
 800662c:	2301      	movs	r3, #1
 800662e:	4632      	mov	r2, r6
 8006630:	4649      	mov	r1, r9
 8006632:	4640      	mov	r0, r8
 8006634:	47d0      	blx	sl
 8006636:	3001      	adds	r0, #1
 8006638:	d09d      	beq.n	8006576 <_printf_i+0x15e>
 800663a:	3501      	adds	r5, #1
 800663c:	68e3      	ldr	r3, [r4, #12]
 800663e:	9903      	ldr	r1, [sp, #12]
 8006640:	1a5b      	subs	r3, r3, r1
 8006642:	42ab      	cmp	r3, r5
 8006644:	dcf2      	bgt.n	800662c <_printf_i+0x214>
 8006646:	e7eb      	b.n	8006620 <_printf_i+0x208>
 8006648:	2500      	movs	r5, #0
 800664a:	f104 0619 	add.w	r6, r4, #25
 800664e:	e7f5      	b.n	800663c <_printf_i+0x224>
 8006650:	080086de 	.word	0x080086de
 8006654:	080086ef 	.word	0x080086ef

08006658 <__swbuf_r>:
 8006658:	b5f8      	push	{r3, r4, r5, r6, r7, lr}
 800665a:	460e      	mov	r6, r1
 800665c:	4614      	mov	r4, r2
 800665e:	4605      	mov	r5, r0
 8006660:	b118      	cbz	r0, 800666a <__swbuf_r+0x12>
 8006662:	6a03      	ldr	r3, [r0, #32]
 8006664:	b90b      	cbnz	r3, 800666a <__swbuf_r+0x12>
 8006666:	f7ff fa43 	bl	8005af0 <__sinit>
 800666a:	69a3      	ldr	r3, [r4, #24]
 800666c:	60a3      	str	r3, [r4, #8]
 800666e:	89a3      	ldrh	r3, [r4, #12]
 8006670:	071a      	lsls	r2, r3, #28
 8006672:	d501      	bpl.n	8006678 <__swbuf_r+0x20>
 8006674:	6923      	ldr	r3, [r4, #16]
 8006676:	b943      	cbnz	r3, 800668a <__swbuf_r+0x32>
 8006678:	4621      	mov	r1, r4
 800667a:	4628      	mov	r0, r5
 800667c:	f000 f82a 	bl	80066d4 <__swsetup_r>
 8006680:	b118      	cbz	r0, 800668a <__swbuf_r+0x32>
 8006682:	f04f 37ff 	mov.w	r7, #4294967295
 8006686:	4638      	mov	r0, r7
 8006688:	bdf8      	pop	{r3, r4, r5, r6, r7, pc}
 800668a:	6823      	ldr	r3, [r4, #0]
 800668c:	6922      	ldr	r2, [r4, #16]
 800668e:	b2f6      	uxtb	r6, r6
 8006690:	1a98      	subs	r0, r3, r2
 8006692:	6963      	ldr	r3, [r4, #20]
 8006694:	4637      	mov	r7, r6
 8006696:	4283      	cmp	r3, r0
 8006698:	dc05      	bgt.n	80066a6 <__swbuf_r+0x4e>
 800669a:	4621      	mov	r1, r4
 800669c:	4628      	mov	r0, r5
 800669e:	f7ff fcb9 	bl	8006014 <_fflush_r>
 80066a2:	2800      	cmp	r0, #0
 80066a4:	d1ed      	bne.n	8006682 <__swbuf_r+0x2a>
 80066a6:	68a3      	ldr	r3, [r4, #8]
 80066a8:	3b01      	subs	r3, #1
 80066aa:	60a3      	str	r3, [r4, #8]
 80066ac:	6823      	ldr	r3, [r4, #0]
 80066ae:	1c5a      	adds	r2, r3, #1
 80066b0:	6022      	str	r2, [r4, #0]
 80066b2:	701e      	strb	r6, [r3, #0]
 80066b4:	6962      	ldr	r2, [r4, #20]
 80066b6:	1c43      	adds	r3, r0, #1
 80066b8:	429a      	cmp	r2, r3
 80066ba:	d004      	beq.n	80066c6 <__swbuf_r+0x6e>
 80066bc:	89a3      	ldrh	r3, [r4, #12]
 80066be:	07db      	lsls	r3, r3, #31
 80066c0:	d5e1      	bpl.n	8006686 <__swbuf_r+0x2e>
 80066c2:	2e0a      	cmp	r6, #10
 80066c4:	d1df      	bne.n	8006686 <__swbuf_r+0x2e>
 80066c6:	4621      	mov	r1, r4
 80066c8:	4628      	mov	r0, r5
 80066ca:	f7ff fca3 	bl	8006014 <_fflush_r>
 80066ce:	2800      	cmp	r0, #0
 80066d0:	d0d9      	beq.n	8006686 <__swbuf_r+0x2e>
 80066d2:	e7d6      	b.n	8006682 <__swbuf_r+0x2a>

080066d4 <__swsetup_r>:
 80066d4:	b538      	push	{r3, r4, r5, lr}
 80066d6:	4b29      	ldr	r3, [pc, #164]	@ (800677c <__swsetup_r+0xa8>)
 80066d8:	4605      	mov	r5, r0
 80066da:	6818      	ldr	r0, [r3, #0]
 80066dc:	460c      	mov	r4, r1
 80066de:	b118      	cbz	r0, 80066e8 <__swsetup_r+0x14>
 80066e0:	6a03      	ldr	r3, [r0, #32]
 80066e2:	b90b      	cbnz	r3, 80066e8 <__swsetup_r+0x14>
 80066e4:	f7ff fa04 	bl	8005af0 <__sinit>
 80066e8:	f9b4 300c 	ldrsh.w	r3, [r4, #12]
 80066ec:	0719      	lsls	r1, r3, #28
 80066ee:	d422      	bmi.n	8006736 <__swsetup_r+0x62>
 80066f0:	06da      	lsls	r2, r3, #27
 80066f2:	d407      	bmi.n	8006704 <__swsetup_r+0x30>
 80066f4:	2209      	movs	r2, #9
 80066f6:	602a      	str	r2, [r5, #0]
 80066f8:	f043 0340 	orr.w	r3, r3, #64	@ 0x40
 80066fc:	f04f 30ff 	mov.w	r0, #4294967295
 8006700:	81a3      	strh	r3, [r4, #12]
 8006702:	e033      	b.n	800676c <__swsetup_r+0x98>
 8006704:	0758      	lsls	r0, r3, #29
 8006706:	d512      	bpl.n	800672e <__swsetup_r+0x5a>
 8006708:	6b61      	ldr	r1, [r4, #52]	@ 0x34
 800670a:	b141      	cbz	r1, 800671e <__swsetup_r+0x4a>
 800670c:	f104 0344 	add.w	r3, r4, #68	@ 0x44
 8006710:	4299      	cmp	r1, r3
 8006712:	d002      	beq.n	800671a <__swsetup_r+0x46>
 8006714:	4628      	mov	r0, r5
 8006716:	f7ff faff 	bl	8005d18 <_free_r>
 800671a:	2300      	movs	r3, #0
 800671c:	6363      	str	r3, [r4, #52]	@ 0x34
 800671e:	89a3      	ldrh	r3, [r4, #12]
 8006720:	f023 0324 	bic.w	r3, r3, #36	@ 0x24
 8006724:	81a3      	strh	r3, [r4, #12]
 8006726:	2300      	movs	r3, #0
 8006728:	6063      	str	r3, [r4, #4]
 800672a:	6923      	ldr	r3, [r4, #16]
 800672c:	6023      	str	r3, [r4, #0]
 800672e:	89a3      	ldrh	r3, [r4, #12]
 8006730:	f043 0308 	orr.w	r3, r3, #8
 8006734:	81a3      	strh	r3, [r4, #12]
 8006736:	6923      	ldr	r3, [r4, #16]
 8006738:	b94b      	cbnz	r3, 800674e <__swsetup_r+0x7a>
 800673a:	89a3      	ldrh	r3, [r4, #12]
 800673c:	f403 7320 	and.w	r3, r3, #640	@ 0x280
 8006740:	f5b3 7f00 	cmp.w	r3, #512	@ 0x200
 8006744:	d003      	beq.n	800674e <__swsetup_r+0x7a>
 8006746:	4621      	mov	r1, r4
 8006748:	4628      	mov	r0, r5
 800674a:	f000 f890 	bl	800686e <__smakebuf_r>
 800674e:	f9b4 300c 	ldrsh.w	r3, [r4, #12]
 8006752:	f013 0201 	ands.w	r2, r3, #1
 8006756:	d00a      	beq.n	800676e <__swsetup_r+0x9a>
 8006758:	2200      	movs	r2, #0
 800675a:	60a2      	str	r2, [r4, #8]
 800675c:	6962      	ldr	r2, [r4, #20]
 800675e:	4252      	negs	r2, r2
 8006760:	61a2      	str	r2, [r4, #24]
 8006762:	6922      	ldr	r2, [r4, #16]
 8006764:	b942      	cbnz	r2, 8006778 <__swsetup_r+0xa4>
 8006766:	f013 0080 	ands.w	r0, r3, #128	@ 0x80
 800676a:	d1c5      	bne.n	80066f8 <__swsetup_r+0x24>
 800676c:	bd38      	pop	{r3, r4, r5, pc}
 800676e:	0799      	lsls	r1, r3, #30
 8006770:	bf58      	it	pl
 8006772:	6962      	ldrpl	r2, [r4, #20]
 8006774:	60a2      	str	r2, [r4, #8]
 8006776:	e7f4      	b.n	8006762 <__swsetup_r+0x8e>
 8006778:	2000      	movs	r0, #0
 800677a:	e7f7      	b.n	800676c <__swsetup_r+0x98>
 800677c:	20000064 	.word	0x20000064

08006780 <_raise_r>:
 8006780:	291f      	cmp	r1, #31
 8006782:	b538      	push	{r3, r4, r5, lr}
 8006784:	4605      	mov	r5, r0
 8006786:	460c      	mov	r4, r1
 8006788:	d904      	bls.n	8006794 <_raise_r+0x14>
 800678a:	2316      	movs	r3, #22
 800678c:	6003      	str	r3, [r0, #0]
 800678e:	f04f 30ff 	mov.w	r0, #4294967295
 8006792:	bd38      	pop	{r3, r4, r5, pc}
 8006794:	6bc2      	ldr	r2, [r0, #60]	@ 0x3c
 8006796:	b112      	cbz	r2, 800679e <_raise_r+0x1e>
 8006798:	f852 3021 	ldr.w	r3, [r2, r1, lsl #2]
 800679c:	b94b      	cbnz	r3, 80067b2 <_raise_r+0x32>
 800679e:	4628      	mov	r0, r5
 80067a0:	f000 f830 	bl	8006804 <_getpid_r>
 80067a4:	4622      	mov	r2, r4
 80067a6:	4601      	mov	r1, r0
 80067a8:	4628      	mov	r0, r5
 80067aa:	e8bd 4038 	ldmia.w	sp!, {r3, r4, r5, lr}
 80067ae:	f000 b817 	b.w	80067e0 <_kill_r>
 80067b2:	2b01      	cmp	r3, #1
 80067b4:	d00a      	beq.n	80067cc <_raise_r+0x4c>
 80067b6:	1c59      	adds	r1, r3, #1
 80067b8:	d103      	bne.n	80067c2 <_raise_r+0x42>
 80067ba:	2316      	movs	r3, #22
 80067bc:	6003      	str	r3, [r0, #0]
 80067be:	2001      	movs	r0, #1
 80067c0:	e7e7      	b.n	8006792 <_raise_r+0x12>
 80067c2:	2100      	movs	r1, #0
 80067c4:	4620      	mov	r0, r4
 80067c6:	f842 1024 	str.w	r1, [r2, r4, lsl #2]
 80067ca:	4798      	blx	r3
 80067cc:	2000      	movs	r0, #0
 80067ce:	e7e0      	b.n	8006792 <_raise_r+0x12>

080067d0 <raise>:
 80067d0:	4b02      	ldr	r3, [pc, #8]	@ (80067dc <raise+0xc>)
 80067d2:	4601      	mov	r1, r0
 80067d4:	6818      	ldr	r0, [r3, #0]
 80067d6:	f7ff bfd3 	b.w	8006780 <_raise_r>
 80067da:	bf00      	nop
 80067dc:	20000064 	.word	0x20000064

080067e0 <_kill_r>:
 80067e0:	b538      	push	{r3, r4, r5, lr}
 80067e2:	2300      	movs	r3, #0
 80067e4:	4d06      	ldr	r5, [pc, #24]	@ (8006800 <_kill_r+0x20>)
 80067e6:	4604      	mov	r4, r0
 80067e8:	4608      	mov	r0, r1
 80067ea:	4611      	mov	r1, r2
 80067ec:	602b      	str	r3, [r5, #0]
 80067ee:	f7fb fd7b 	bl	80022e8 <_kill>
 80067f2:	1c43      	adds	r3, r0, #1
 80067f4:	d102      	bne.n	80067fc <_kill_r+0x1c>
 80067f6:	682b      	ldr	r3, [r5, #0]
 80067f8:	b103      	cbz	r3, 80067fc <_kill_r+0x1c>
 80067fa:	6023      	str	r3, [r4, #0]
 80067fc:	bd38      	pop	{r3, r4, r5, pc}
 80067fe:	bf00      	nop
 8006800:	20000b94 	.word	0x20000b94

08006804 <_getpid_r>:
 8006804:	f7fb bd6e 	b.w	80022e4 <_getpid>

08006808 <memchr>:
 8006808:	4603      	mov	r3, r0
 800680a:	b510      	push	{r4, lr}
 800680c:	b2c9      	uxtb	r1, r1
 800680e:	4402      	add	r2, r0
 8006810:	4293      	cmp	r3, r2
 8006812:	4618      	mov	r0, r3
 8006814:	d101      	bne.n	800681a <memchr+0x12>
 8006816:	2000      	movs	r0, #0
 8006818:	e003      	b.n	8006822 <memchr+0x1a>
 800681a:	7804      	ldrb	r4, [r0, #0]
 800681c:	3301      	adds	r3, #1
 800681e:	428c      	cmp	r4, r1
 8006820:	d1f6      	bne.n	8006810 <memchr+0x8>
 8006822:	bd10      	pop	{r4, pc}

08006824 <__swhatbuf_r>:
 8006824:	b570      	push	{r4, r5, r6, lr}
 8006826:	460c      	mov	r4, r1
 8006828:	f9b1 100e 	ldrsh.w	r1, [r1, #14]
 800682c:	4615      	mov	r5, r2
 800682e:	2900      	cmp	r1, #0
 8006830:	461e      	mov	r6, r3
 8006832:	b096      	sub	sp, #88	@ 0x58
 8006834:	da0c      	bge.n	8006850 <__swhatbuf_r+0x2c>
 8006836:	89a3      	ldrh	r3, [r4, #12]
 8006838:	2100      	movs	r1, #0
 800683a:	f013 0f80 	tst.w	r3, #128	@ 0x80
 800683e:	bf14      	ite	ne
 8006840:	2340      	movne	r3, #64	@ 0x40
 8006842:	f44f 6380 	moveq.w	r3, #1024	@ 0x400
 8006846:	2000      	movs	r0, #0
 8006848:	6031      	str	r1, [r6, #0]
 800684a:	602b      	str	r3, [r5, #0]
 800684c:	b016      	add	sp, #88	@ 0x58
 800684e:	bd70      	pop	{r4, r5, r6, pc}
 8006850:	466a      	mov	r2, sp
 8006852:	f000 f849 	bl	80068e8 <_fstat_r>
 8006856:	2800      	cmp	r0, #0
 8006858:	dbed      	blt.n	8006836 <__swhatbuf_r+0x12>
 800685a:	9901      	ldr	r1, [sp, #4]
 800685c:	f401 4170 	and.w	r1, r1, #61440	@ 0xf000
 8006860:	f5a1 5300 	sub.w	r3, r1, #8192	@ 0x2000
 8006864:	4259      	negs	r1, r3
 8006866:	4159      	adcs	r1, r3
 8006868:	f44f 6380 	mov.w	r3, #1024	@ 0x400
 800686c:	e7eb      	b.n	8006846 <__swhatbuf_r+0x22>

0800686e <__smakebuf_r>:
 800686e:	898b      	ldrh	r3, [r1, #12]
 8006870:	b5f7      	push	{r0, r1, r2, r4, r5, r6, r7, lr}
 8006872:	079d      	lsls	r5, r3, #30
 8006874:	4606      	mov	r6, r0
 8006876:	460c      	mov	r4, r1
 8006878:	d507      	bpl.n	800688a <__smakebuf_r+0x1c>
 800687a:	f104 0347 	add.w	r3, r4, #71	@ 0x47
 800687e:	6023      	str	r3, [r4, #0]
 8006880:	6123      	str	r3, [r4, #16]
 8006882:	2301      	movs	r3, #1
 8006884:	6163      	str	r3, [r4, #20]
 8006886:	b003      	add	sp, #12
 8006888:	bdf0      	pop	{r4, r5, r6, r7, pc}
 800688a:	466a      	mov	r2, sp
 800688c:	ab01      	add	r3, sp, #4
 800688e:	f7ff ffc9 	bl	8006824 <__swhatbuf_r>
 8006892:	9f00      	ldr	r7, [sp, #0]
 8006894:	4605      	mov	r5, r0
 8006896:	4639      	mov	r1, r7
 8006898:	4630      	mov	r0, r6
 800689a:	f7ff faaf 	bl	8005dfc <_malloc_r>
 800689e:	b948      	cbnz	r0, 80068b4 <__smakebuf_r+0x46>
 80068a0:	f9b4 300c 	ldrsh.w	r3, [r4, #12]
 80068a4:	059a      	lsls	r2, r3, #22
 80068a6:	d4ee      	bmi.n	8006886 <__smakebuf_r+0x18>
 80068a8:	f023 0303 	bic.w	r3, r3, #3
 80068ac:	f043 0302 	orr.w	r3, r3, #2
 80068b0:	81a3      	strh	r3, [r4, #12]
 80068b2:	e7e2      	b.n	800687a <__smakebuf_r+0xc>
 80068b4:	89a3      	ldrh	r3, [r4, #12]
 80068b6:	e9c4 0704 	strd	r0, r7, [r4, #16]
 80068ba:	f043 0380 	orr.w	r3, r3, #128	@ 0x80
 80068be:	81a3      	strh	r3, [r4, #12]
 80068c0:	9b01      	ldr	r3, [sp, #4]
 80068c2:	6020      	str	r0, [r4, #0]
 80068c4:	b15b      	cbz	r3, 80068de <__smakebuf_r+0x70>
 80068c6:	4630      	mov	r0, r6
 80068c8:	f9b4 100e 	ldrsh.w	r1, [r4, #14]
 80068cc:	f000 f81e 	bl	800690c <_isatty_r>
 80068d0:	b128      	cbz	r0, 80068de <__smakebuf_r+0x70>
 80068d2:	89a3      	ldrh	r3, [r4, #12]
 80068d4:	f023 0303 	bic.w	r3, r3, #3
 80068d8:	f043 0301 	orr.w	r3, r3, #1
 80068dc:	81a3      	strh	r3, [r4, #12]
 80068de:	89a3      	ldrh	r3, [r4, #12]
 80068e0:	431d      	orrs	r5, r3
 80068e2:	81a5      	strh	r5, [r4, #12]
 80068e4:	e7cf      	b.n	8006886 <__smakebuf_r+0x18>
	...

080068e8 <_fstat_r>:
 80068e8:	b538      	push	{r3, r4, r5, lr}
 80068ea:	2300      	movs	r3, #0
 80068ec:	4d06      	ldr	r5, [pc, #24]	@ (8006908 <_fstat_r+0x20>)
 80068ee:	4604      	mov	r4, r0
 80068f0:	4608      	mov	r0, r1
 80068f2:	4611      	mov	r1, r2
 80068f4:	602b      	str	r3, [r5, #0]
 80068f6:	f7fb fd16 	bl	8002326 <_fstat>
 80068fa:	1c43      	adds	r3, r0, #1
 80068fc:	d102      	bne.n	8006904 <_fstat_r+0x1c>
 80068fe:	682b      	ldr	r3, [r5, #0]
 8006900:	b103      	cbz	r3, 8006904 <_fstat_r+0x1c>
 8006902:	6023      	str	r3, [r4, #0]
 8006904:	bd38      	pop	{r3, r4, r5, pc}
 8006906:	bf00      	nop
 8006908:	20000b94 	.word	0x20000b94

0800690c <_isatty_r>:
 800690c:	b538      	push	{r3, r4, r5, lr}
 800690e:	2300      	movs	r3, #0
 8006910:	4d05      	ldr	r5, [pc, #20]	@ (8006928 <_isatty_r+0x1c>)
 8006912:	4604      	mov	r4, r0
 8006914:	4608      	mov	r0, r1
 8006916:	602b      	str	r3, [r5, #0]
 8006918:	f7fb fd0a 	bl	8002330 <_isatty>
 800691c:	1c43      	adds	r3, r0, #1
 800691e:	d102      	bne.n	8006926 <_isatty_r+0x1a>
 8006920:	682b      	ldr	r3, [r5, #0]
 8006922:	b103      	cbz	r3, 8006926 <_isatty_r+0x1a>
 8006924:	6023      	str	r3, [r4, #0]
 8006926:	bd38      	pop	{r3, r4, r5, pc}
 8006928:	20000b94 	.word	0x20000b94

0800692c <_init>:
 800692c:	b5f8      	push	{r3, r4, r5, r6, r7, lr}
 800692e:	bf00      	nop
 8006930:	bcf8      	pop	{r3, r4, r5, r6, r7}
 8006932:	bc08      	pop	{r3}
 8006934:	469e      	mov	lr, r3
 8006936:	4770      	bx	lr

08006938 <_fini>:
 8006938:	b5f8      	push	{r3, r4, r5, r6, r7, lr}
 800693a:	bf00      	nop
 800693c:	bcf8      	pop	{r3, r4, r5, r6, r7}
 800693e:	bc08      	pop	{r3}
 8006940:	469e      	mov	lr, r3
 8006942:	4770      	bx	lr
